 Bameware Legacy

 Timestamp is 63b60567 (Thu Jan  5 01:01:59 2023)

 Preferred load address is 10000000

 Start         Length     Name                   Class
 0001:00000000 00000dd0H .text                   CODE
 0001:00000dd0 000005c0H .text$di                CODE
 0001:00001390 000abcc0H .text$mn                CODE
 0001:000ad050 00002d00H .text$x                 CODE
 0001:000afd50 000005f6H .text$yd                CODE
 0002:00000000 00000278H .idata$5                DATA
 0002:00000278 00000004H .00cfg                  DATA
 0002:0000027c 00000004H .CRT$XCA                DATA
 0002:00000280 00000024H .CRT$XCC                DATA
 0002:000002a4 00000008H .CRT$XCL                DATA
 0002:000002ac 00000088H .CRT$XCU                DATA
 0002:00000334 00000004H .CRT$XCZ                DATA
 0002:00000338 00000004H .CRT$XIA                DATA
 0002:0000033c 00000018H .CRT$XIC                DATA
 0002:00000354 00000004H .CRT$XIZ                DATA
 0002:00000358 00000004H .CRT$XLA                DATA
 0002:0000035c 00000004H .CRT$XLZ                DATA
 0002:00000360 00000004H .CRT$XPA                DATA
 0002:00000364 00000004H .CRT$XPB                DATA
 0002:00000368 00000008H .CRT$XPX                DATA
 0002:00000370 00000004H .CRT$XPXA               DATA
 0002:00000374 00000004H .CRT$XPZ                DATA
 0002:00000378 00000004H .CRT$XTA                DATA
 0002:0000037c 00000004H .CRT$XTZ                DATA
 0002:00000380 00000000H .gfids$y                DATA
 0002:00000380 00022338H .rdata                  DATA
 0002:000226b8 00000018H .rdata$T                DATA
 0002:000226d0 0000128cH .rdata$r                DATA
 0002:0002395c 000003e8H .rdata$zzzdbg           DATA
 0002:00023d44 00000004H .rtc$IAA                DATA
 0002:00023d48 00000004H .rtc$IZZ                DATA
 0002:00023d4c 00000004H .rtc$TAA                DATA
 0002:00023d50 00000004H .rtc$TZZ                DATA
 0002:00023d54 00000004H .tls                    DATA
 0002:00023d58 00000004H .tls$                   DATA
 0002:00023d5c 00000004H .tls$ZZZ                DATA
 0002:00023d60 00003904H .xdata$x                DATA
 0002:00027664 00000000H .edata                  DATA
 0002:00027664 000000a0H .idata$2                DATA
 0002:00027704 00000014H .idata$3                DATA
 0002:00027718 00000278H .idata$4                DATA
 0002:00027990 00000ad8H .idata$6                DATA
 0003:00000000 000192c0H .data                   DATA
 0003:000192c0 00000a28H .data$r                 DATA
 0003:00019ce8 000f9e1cH .bss                    DATA
 0004:00000000 00000060H .rsrc$01                DATA
 0004:00000060 00000180H .rsrc$02                DATA

  Address         Publics by Value              Rva+Base       Lib:Object

 0000:00000000       ___hybrid_auxiliary_iat    00000000     <absolute>
 0000:00000000       ___guard_longjmp_count     00000000     <absolute>
 0000:00000000       ___dynamic_value_reloc_table 00000000     <absolute>
 0000:00000000       ___guard_iat_count         00000000     <absolute>
 0000:00000000       ___hybrid_code_map         00000000     <absolute>
 0000:00000000       ___guard_fids_count        00000000     <absolute>
 0000:00000000       ___guard_longjmp_table     00000000     <absolute>
 0000:00000000       ___hybrid_code_map_count   00000000     <absolute>
 0000:00000000       ___volatile_metadata       00000000     <absolute>
 0000:00000000       __except_list              00000000     <absolute>
 0000:00000000       ___guard_fids_table        00000000     <absolute>
 0000:00000000       ___safe_se_handler_table   00000000     <absolute>
 0000:00000000       ___guard_iat_table         00000000     <absolute>
 0000:00000000       ___safe_se_handler_count   00000000     <absolute>
 0000:00000000       ___enclave_config          00000000     <absolute>
 0000:0000002c       __tls_array                0000002c     <absolute>
 0000:00000100       ___guard_flags             00000100     <absolute>
 0000:00000000       ___ImageBase               10000000     <linker-defined>
 0001:00000000       _DetourRemove@8            10001000 f   detours:detours.obj
 0001:00000160       ??0CDetourEnableWriteOnCodePage@@QAE@PAEJ@Z 10001160 f i detours:detours.obj
 0001:000001e0       ??1CDetourEnableWriteOnCodePage@@QAE@XZ 100011e0 f i detours:detours.obj
 0001:00000250       _DetourFunction@8          10001250 f   detours:detours.obj
 0001:00000540       ?SetPermission@CDetourEnableWriteOnCodePage@@QAEHK@Z 10001540 f i detours:detours.obj
 0001:00000580       ?IsValid@CDetourEnableWriteOnCodePage@@QAEHXZ 10001580 f i detours:detours.obj
 0001:00000620       ?DetourGenJmp@@YAPAEPAE00@Z 10001620 f i detours:detours.obj
 0001:00000660       ?DetourGenBreak@@YAPAEPAE@Z 10001660 f i detours:detours.obj
 0001:00000680       _DetourGetFinalCode@8      10001680 f   detours:detours.obj
 0001:000006f0       _DetourCopyInstruction@12  100016f0 f   detours:disasm.obj
 0001:00000720       ??0CDetourDis@@QAE@PAPAEPAJ@Z 10001720 f   detours:disasm.obj
 0001:000007a0       ?Set16BitOperand@CDetourDis@@IAEXXZ 100017a0 f   detours:disasm.obj
 0001:000007c0       ?Set32BitOperand@CDetourDis@@IAEXXZ 100017c0 f   detours:disasm.obj
 0001:000007e0       ?Set16BitAddress@CDetourDis@@IAEXXZ 100017e0 f   detours:disasm.obj
 0001:00000800       ?Set32BitAddress@CDetourDis@@IAEXXZ 10001800 f   detours:disasm.obj
 0001:00000820       ?CopyInstruction@CDetourDis@@QAEPAEPAE0@Z 10001820 f   detours:disasm.obj
 0001:00000880       ?CopyBytes@CDetourDis@@IAEPAEPBUCOPYENTRY@1@PAE1@Z 10001880 f   detours:disasm.obj
 0001:00000a60       ?CopyBytesPrefix@CDetourDis@@IAEPAEPBUCOPYENTRY@1@PAE1@Z 10001a60 f   detours:disasm.obj
 0001:00000ab0       ?AdjustTarget@CDetourDis@@IAEPAEPAE0JJ@Z 10001ab0 f   detours:disasm.obj
 0001:00000b90       ?Invalid@CDetourDis@@IAEPAEPBUCOPYENTRY@1@PAE1@Z 10001b90 f   detours:disasm.obj
 0001:00000bb0       ?Copy0F@CDetourDis@@IAEPAEPBUCOPYENTRY@1@PAE1@Z 10001bb0 f   detours:disasm.obj
 0001:00000c00       ?Copy66@CDetourDis@@IAEPAEPBUCOPYENTRY@1@PAE1@Z 10001c00 f   detours:disasm.obj
 0001:00000c30       ?Copy67@CDetourDis@@IAEPAEPBUCOPYENTRY@1@PAE1@Z 10001c30 f   detours:disasm.obj
 0001:00000c60       ?CopyF6@CDetourDis@@IAEPAEPBUCOPYENTRY@1@PAE1@Z 10001c60 f   detours:disasm.obj
 0001:00000cc0       ?CopyF7@CDetourDis@@IAEPAEPBUCOPYENTRY@1@PAE1@Z 10001cc0 f   detours:disasm.obj
 0001:00000d20       ?CopyFF@CDetourDis@@IAEPAEPBUCOPYENTRY@1@PAE1@Z 10001d20 f   detours:disasm.obj
 0001:00001390       ??$_Fputc@D@std@@YA_NDPAU_iobuf@@@Z 10002390 f i dll.obj
 0001:000013b0       ??$_Immortalize_impl@V_Iostream_error_category@std@@@std@@YGHPAX0PAPAX@Z 100023b0 f i dll.obj
 0001:000013d0       ??$use_facet@V?$codecvt@DDU_Mbstatet@@@std@@@std@@YAABV?$codecvt@DDU_Mbstatet@@@0@ABVlocale@0@@Z 100023d0 f i dll.obj
 0001:00001530       ??$use_facet@V?$ctype@D@std@@@std@@YAABV?$ctype@D@0@ABVlocale@0@@Z 10002530 f i dll.obj
 0001:000016b0       ??0?$basic_fstream@DU?$char_traits@D@std@@@std@@QAE@PBDHH@Z 100026b0 f i dll.obj
 0001:00001930       ??0?$basic_iostream@DU?$char_traits@D@std@@@std@@QAE@PAV?$basic_streambuf@DU?$char_traits@D@std@@@1@@Z 10002930 f i dll.obj
 0001:00001b00       ??0_Locinfo@std@@QAE@PBD@Z 10002b00 f i dll.obj
 0001:00001bc0       ??0_System_error@std@@IAE@Verror_code@1@ABV?$basic_string@DU?$char_traits@D@std@@V?$allocator@D@2@@1@@Z 10002bc0 f i dll.obj
 0001:00001d90       ??0_System_error@std@@QAE@ABV01@@Z 10002d90 f i dll.obj
 0001:00001de0       ??0exception@std@@QAE@ABV01@@Z 10002de0 f i dll.obj
 0001:00001e10       ??0failure@ios_base@std@@QAE@ABV012@@Z 10002e10 f i dll.obj
 0001:00001e60       ??0failure@ios_base@std@@QAE@PBDABVerror_code@2@@Z 10002e60 f i dll.obj
 0001:00001f30       ??0runtime_error@std@@QAE@ABV01@@Z 10002f30 f i dll.obj
 0001:00001f70       ??0runtime_error@std@@QAE@PBD@Z 10002f70 f i dll.obj
 0001:00001fd0       ??0system_error@std@@QAE@ABV01@@Z 10002fd0 f i dll.obj
 0001:00002020       ??1?$_Yarn@D@std@@QAE@XZ   10003020 f i dll.obj
 0001:00002020       ??1?$_Yarn@_W@std@@QAE@XZ  10003020 f i dll.obj
 0001:00002040       ??1?$basic_filebuf@DU?$char_traits@D@std@@@std@@UAE@XZ 10003040 f i dll.obj
 0001:000020f0       ??1?$basic_ios@DU?$char_traits@D@std@@@std@@UAE@XZ 100030f0 f i dll.obj
 0001:00002140       ??1?$basic_iostream@DU?$char_traits@D@std@@@std@@UAE@XZ 10003140 f i dll.obj
 0001:000021a0       ??1?$basic_istream@DU?$char_traits@D@std@@@std@@UAE@XZ 100031a0 f i dll.obj
 0001:000021c0       ?_Tidy_deallocate@?$basic_string@DU?$char_traits@D@std@@V?$allocator@D@2@@std@@QAEXXZ 100031c0 f i Misc.obj
 0001:000021c0       ??1?$basic_string@DU?$char_traits@D@std@@V?$allocator@D@2@@std@@QAE@XZ 100031c0 f i dll.obj
 0001:000021c0       ??1?$pair@V?$basic_string@DU?$char_traits@D@std@@V?$allocator@D@2@@std@@D@std@@QAE@XZ 100031c0 f i sounds.obj
 0001:00002210       ??1?$unique_ptr@V_Facet_base@std@@U?$default_delete@V_Facet_base@std@@@2@@std@@QAE@XZ 10003210 f i dll.obj
 0001:00002220       ??1_Locinfo@std@@QAE@XZ    10003220 f i dll.obj
 0001:000022f0       ??1_Sentry_base@?$basic_ostream@DU?$char_traits@D@std@@@std@@QAE@XZ 100032f0 f i dll.obj
 0001:000022f0       ??1_Sentry_base@?$basic_istream@DU?$char_traits@D@std@@@std@@QAE@XZ 100032f0 f i dll.obj
 0001:00002340       ??1out_of_range@std@@UAE@XZ 10003340 f i libcpmt:xthrow.obj
 0001:00002340       ??1failure@ios_base@std@@UAE@XZ 10003340 f i dll.obj
 0001:00002340       ??1bad_array_new_length@std@@UAE@XZ 10003340 f i LIBCMT:throw_bad_alloc.obj
 0001:00002340       ??1length_error@std@@UAE@XZ 10003340 f i libcpmt:xthrow.obj
 0001:00002340       ??1bad_alloc@std@@UAE@XZ   10003340 f i libcpmt:xthrow.obj
 0001:00002340       ??1bad_exception@std@@UAE@XZ 10003340 f i libvcruntime:frame.obj
 0001:00002340       ??1runtime_error@std@@UAE@XZ 10003340 f i dll.obj
 0001:00002340       ??1exception@std@@UAE@XZ   10003340 f i dll.obj
 0001:00002360       ??1facet@locale@std@@MAE@XZ 10003360 f i dll.obj
 0001:00002370       ??1locale@std@@QAE@XZ      10003370 f i dll.obj
 0001:000023c0       ??1sentry@?$basic_istream@DU?$char_traits@D@std@@@std@@QAE@XZ 100033c0 f i dll.obj
 0001:00002410       ??1sentry@?$basic_ostream@DU?$char_traits@D@std@@@std@@QAE@XZ 10003410 f i dll.obj
 0001:00002470       ??_D?$basic_fstream@DU?$char_traits@D@std@@@std@@QAEXXZ 10003470 f i dll.obj
 0001:0000252f       ??_E?$basic_fstream@DU?$char_traits@D@std@@@std@@$4PPPPPPPM@A@AEPAXI@Z 1000352f f i dll.obj
 0001:00002537       ??_E?$basic_iostream@DU?$char_traits@D@std@@@std@@$4PPPPPPPM@A@AEPAXI@Z 10003537 f i dll.obj
 0001:0000253f       ??_E?$basic_istream@DU?$char_traits@D@std@@@std@@$4PPPPPPPM@A@AEPAXI@Z 1000353f f i dll.obj
 0001:00002547       ??_E?$basic_ostream@DU?$char_traits@D@std@@@std@@$4PPPPPPPM@A@AEPAXI@Z 10003547 f i dll.obj
 0001:00002550       ??_G?$basic_filebuf@DU?$char_traits@D@std@@@std@@UAEPAXI@Z 10003550 f i dll.obj
 0001:00002550       ??_E?$basic_filebuf@DU?$char_traits@D@std@@@std@@UAEPAXI@Z 10003550 f i dll.obj
 0001:00002580       ??_E?$basic_fstream@DU?$char_traits@D@std@@@std@@UAEPAXI@Z 10003580 f i dll.obj
 0001:00002580       ??_G?$basic_fstream@DU?$char_traits@D@std@@@std@@UAEPAXI@Z 10003580 f i dll.obj
 0001:000025b0       ??_E?$basic_ios@DU?$char_traits@D@std@@@std@@UAEPAXI@Z 100035b0 f i dll.obj
 0001:000025b0       ??_G?$basic_ios@DU?$char_traits@D@std@@@std@@UAEPAXI@Z 100035b0 f i dll.obj
 0001:00002610       ??_E?$basic_iostream@DU?$char_traits@D@std@@@std@@UAEPAXI@Z 10003610 f i dll.obj
 0001:00002610       ??_G?$basic_iostream@DU?$char_traits@D@std@@@std@@UAEPAXI@Z 10003610 f i dll.obj
 0001:000026d0       ??_G?$basic_istream@DU?$char_traits@D@std@@@std@@UAEPAXI@Z 100036d0 f i dll.obj
 0001:000026d0       ??_E?$basic_istream@DU?$char_traits@D@std@@@std@@UAEPAXI@Z 100036d0 f i dll.obj
 0001:00002750       ??_G?$basic_ostream@DU?$char_traits@D@std@@@std@@UAEPAXI@Z 10003750 f i dll.obj
 0001:00002750       ??_E?$basic_ostream@DU?$char_traits@D@std@@@std@@UAEPAXI@Z 10003750 f i dll.obj
 0001:000027d0       ??_E?$basic_streambuf@DU?$char_traits@D@std@@@std@@UAEPAXI@Z 100037d0 f i dll.obj
 0001:000027d0       ??_G?$basic_streambuf@DU?$char_traits@D@std@@@std@@UAEPAXI@Z 100037d0 f i dll.obj
 0001:00002860       ??_G?$codecvt@DDU_Mbstatet@@@std@@MAEPAXI@Z 10003860 f i dll.obj
 0001:00002860       ??_G?$num_put@DV?$ostreambuf_iterator@DU?$char_traits@D@std@@@std@@@std@@MAEPAXI@Z 10003860 f i PPGUI_Commands.obj
 0001:00002860       ??_E?$codecvt@DDU_Mbstatet@@@std@@MAEPAXI@Z 10003860 f i dll.obj
 0001:00002860       ??_E?$num_put@DV?$ostreambuf_iterator@DU?$char_traits@D@std@@@std@@@std@@MAEPAXI@Z 10003860 f i PPGUI_Commands.obj
 0001:00002890       ??_E?$ctype@D@std@@MAEPAXI@Z 10003890 f i dll.obj
 0001:00002890       ??_G?$ctype@D@std@@MAEPAXI@Z 10003890 f i dll.obj
 0001:000028f0       ??_G_Facet_base@std@@UAEPAXI@Z 100038f0 f i dll.obj
 0001:000028f0       ??_E_Facet_base@std@@UAEPAXI@Z 100038f0 f i dll.obj
 0001:00002920       ??_G_Iostream_error_category@std@@UAEPAXI@Z 10003920 f i dll.obj
 0001:00002920       ??_E_Iostream_error_category@std@@UAEPAXI@Z 10003920 f i dll.obj
 0001:00002940       ??_G_System_error@std@@UAEPAXI@Z 10003940 f i dll.obj
 0001:00002940       ??_E_System_error@std@@UAEPAXI@Z 10003940 f i dll.obj
 0001:00002940       ??_Efailure@ios_base@std@@UAEPAXI@Z 10003940 f i dll.obj
 0001:00002940       ??_Gfailure@ios_base@std@@UAEPAXI@Z 10003940 f i dll.obj
 0001:00002940       ??_Esystem_error@std@@UAEPAXI@Z 10003940 f i dll.obj
 0001:00002940       ??_Gsystem_error@std@@UAEPAXI@Z 10003940 f i dll.obj
 0001:00002970       ??_Glogic_error@std@@UAEPAXI@Z 10003970 f i Autowall.obj
 0001:00002970       ??_Gexception@std@@UAEPAXI@Z 10003970 f i dll.obj
 0001:00002970       ??_Elogic_error@std@@UAEPAXI@Z 10003970 f i Autowall.obj
 0001:00002970       ??_Gruntime_error@std@@UAEPAXI@Z 10003970 f i dll.obj
 0001:00002970       ??_Eruntime_error@std@@UAEPAXI@Z 10003970 f i dll.obj
 0001:00002970       ??_Eexception@std@@UAEPAXI@Z 10003970 f i dll.obj
 0001:000029a0       ??_Gios_base@std@@UAEPAXI@Z 100039a0 f i dll.obj
 0001:000029a0       ??_Eios_base@std@@UAEPAXI@Z 100039a0 f i dll.obj
 0001:00002a00       ?BuildImportTable@CWin32PE@@IAEHPAUMEMORYMODULE@@@Z 10003a00 f   dll.obj
 0001:00002b70       ?CheckSize@CWin32PE@@IAEHII@Z 10003b70 f   dll.obj
 0001:00002ba0       ?FinalizeSection@CWin32PE@@IAEHPAUMEMORYMODULE@@PAUSECTIONFINALIZEDATA@@@Z 10003ba0 f   dll.obj
 0001:00002c40       ?FinalizeSections@CWin32PE@@IAEHPAUMEMORYMODULE@@@Z 10003c40 f   dll.obj
 0001:00002d90       ?GetProcAddressFromMemory@CLoad@@QAEP6GHXZPAXPBD@Z 10003d90 f   dll.obj
 0001:00002e60       ?LoadFromFile@CLoad@@QAEPAXPBD@Z 10003e60 f   dll.obj
 0001:00003100       ?MemLoadLibraryEx@CLoad@@AAEPAXPBXIP6APAXPBDPAX@ZP6AP6GHXZ212@ZP6AX22@Z2@Z 10004100 f   dll.obj
 0001:00003570       ?MemoryDefaultFreeLibrary@@YAXPAX0@Z 10004570 f   dll.obj
 0001:00003580       ?MemoryDefaultGetProcAddress@@YAP6GHXZPAXPBD0@Z 10004580 f   dll.obj
 0001:000035a0       ?MemoryDefaultLoadLibrary@@YAPAXPBDPAX@Z 100045a0 f   dll.obj
 0001:000035b0       ?_Decref@facet@locale@std@@UAEPAV_Facet_base@3@XZ 100045b0 f i dll.obj
 0001:000035d0       ?_Endwrite@?$basic_filebuf@DU?$char_traits@D@std@@@std@@IAE_NXZ 100045d0 f i dll.obj
 0001:00003690       ?_Gnavail@?$basic_streambuf@DU?$char_traits@D@std@@@std@@IBE_JXZ 10004690 f i dll.obj
 0001:000036b0       ?_Incref@facet@locale@std@@UAEXXZ 100046b0 f i dll.obj
 0001:000036c0       ?_Init@?$basic_filebuf@DU?$char_traits@D@std@@@std@@IAEXPAU_iobuf@@W4_Initfl@12@@Z 100046c0 f i dll.obj
 0001:000037a0       ?_Init@?$basic_streambuf@DU?$char_traits@D@std@@@std@@IAEXXZ 100047a0 f i dll.obj
 0001:00003800       ?_Ipfx@?$basic_istream@DU?$char_traits@D@std@@@std@@QAE_N_N@Z 10004800 f i dll.obj
 0001:00003a10       ?_Lock@?$basic_filebuf@DU?$char_traits@D@std@@@std@@UAEXXZ 10004a10 f i dll.obj
 0001:00003a20       ??3@YAXPAXUImNewWrapper@@0@Z 10004a20 f i imgui.obj
 0001:00003a20       ?_Unlock@?$basic_streambuf@DU?$char_traits@D@std@@@std@@UAEXXZ 10004a20 f i dll.obj
 0001:00003a20       @_guard_check_icall_nop@4  10004a20 f i LIBCMT:guard_support.obj
 0001:00003a20       ?Draw@PPGUI_Command@PPGUI@@UAEXXZ 10004a20 f i PPGUI_Commands.obj
 0001:00003a20       ?_Lock@?$basic_streambuf@DU?$char_traits@D@std@@@std@@UAEXXZ 10004a20 f i dll.obj
 0001:00003a30       ?_Osfx@?$basic_ostream@DU?$char_traits@D@std@@@std@@QAEXXZ 10004a30 f i dll.obj
 0001:00003ac0       ?_Pnavail@?$basic_streambuf@DU?$char_traits@D@std@@@std@@IBE_JXZ 10004ac0 f i dll.obj
 0001:00003ae0       ?_Reset_back@?$basic_filebuf@DU?$char_traits@D@std@@@std@@AAEXXZ 10004ae0 f i dll.obj
 0001:00003b10       ?_Unlock@?$basic_filebuf@DU?$char_traits@D@std@@@std@@UAEXXZ 10004b10 f i dll.obj
 0001:00003b20       ?_Xlen@?$basic_string@DU?$char_traits@D@std@@V?$allocator@D@2@@std@@SAXXZ 10004b20 f i dll.obj
 0001:00003b30       ?allocate@?$allocator@D@std@@QAEPADI@Z 10004b30 f i dll.obj
 0001:00003b90       ?append@?$basic_string@DU?$char_traits@D@std@@V?$allocator@D@2@@std@@QAEAAV12@QBDI@Z 10004b90 f i dll.obj
 0001:00003cf0       ?assign@?$basic_string@DU?$char_traits@D@std@@V?$allocator@D@2@@std@@QAEAAV12@QBD@Z 10004cf0 f i dll.obj
 0001:00003df0       ?clear@ios_base@std@@QAEXH_N@Z 10004df0 f i dll.obj
 0001:00003e70       ?close@?$basic_filebuf@DU?$char_traits@D@std@@@std@@QAEPAV12@XZ 10004e70 f i dll.obj
 0001:00003f30       ?default_error_condition@error_category@std@@UBE?AVerror_condition@2@H@Z 10004f30 f i dll.obj
 0001:00003f50       ___acrt_uninitialize_command_line 10004f50 f i libucrt:argv_data.obj
 0001:00003f50       ?do_always_noconv@?$codecvt@DDU_Mbstatet@@@std@@MBE_NXZ 10004f50 f i dll.obj
 0001:00003f60       ?do_max_length@codecvt_base@std@@MBEHXZ 10004f60 f i dll.obj
 0001:00003f60       ?do_encoding@codecvt_base@std@@MBEHXZ 10004f60 f i dll.obj
 0001:00003f70       ?do_in@?$codecvt@DDU_Mbstatet@@@std@@MBEHAAU_Mbstatet@@PBD1AAPBDPAD3AAPAD@Z 10004f70 f i dll.obj
 0001:00003f70       ?do_out@?$codecvt@DDU_Mbstatet@@@std@@MBEHAAU_Mbstatet@@PBD1AAPBDPAD3AAPAD@Z 10004f70 f i dll.obj
 0001:00003f90       ?do_length@?$codecvt@DDU_Mbstatet@@@std@@MBEHAAU_Mbstatet@@PBD1I@Z 10004f90 f i dll.obj
 0001:00003fb0       ?do_narrow@?$ctype@D@std@@MBEDDD@Z 10004fb0 f i dll.obj
 0001:00003fc0       ?do_narrow@?$ctype@D@std@@MBEPBDPBD0DPAD@Z 10004fc0 f i dll.obj
 0001:00003fe0       ?do_tolower@?$ctype@D@std@@MBEDD@Z 10004fe0 f i dll.obj
 0001:00004000       ?do_tolower@?$ctype@D@std@@MBEPBDPADPBD@Z 10005000 f i dll.obj
 0001:00004050       ?do_toupper@?$ctype@D@std@@MBEDD@Z 10005050 f i dll.obj
 0001:00004070       ?do_toupper@?$ctype@D@std@@MBEPBDPADPBD@Z 10005070 f i dll.obj
 0001:000040c0       ?do_unshift@?$codecvt@DDU_Mbstatet@@@std@@MBEHAAU_Mbstatet@@PAD1AAPAD@Z 100050c0 f i dll.obj
 0001:000040e0       ?do_widen@?$ctype@D@std@@MBEDD@Z 100050e0 f i dll.obj
 0001:000040f0       ?do_widen@?$ctype@D@std@@MBEPBDPBD0PAD@Z 100050f0 f i dll.obj
 0001:00004110       ?equivalent@error_category@std@@UBE_NABVerror_code@2@H@Z 10005110 f i dll.obj
 0001:00004140       ?equivalent@error_category@std@@UBE_NHABVerror_condition@2@@Z 10005140 f i dll.obj
 0001:00004180       ?flush@?$basic_ostream@DU?$char_traits@D@std@@@std@@QAEAAV12@XZ 10005180 f i dll.obj
 0001:00004270       ?imbue@?$basic_filebuf@DU?$char_traits@D@std@@@std@@MAEXABVlocale@2@@Z 10005270 f i dll.obj
 0001:000042b0       ?TestInput@PPGUI_Command@PPGUI@@UAEXAAVPPGUI_Input@2@@Z 100052b0 f i PPGUI_Commands.obj
 0001:000042b0       ?imbue@?$basic_streambuf@DU?$char_traits@D@std@@@std@@MAEXABVlocale@2@@Z 100052b0 f i dll.obj
 0001:000042c0       ?make_error_code@std@@YA?AVerror_code@1@W4io_errc@1@@Z 100052c0 f i dll.obj
 0001:00004300       ?message@_Iostream_error_category@std@@UBE?AV?$basic_string@DU?$char_traits@D@std@@V?$allocator@D@2@@2@H@Z 10005300 f i dll.obj
 0001:00004340       ?name@_Iostream_error_category@std@@UBEPBDXZ 10005340 f i dll.obj
 0001:00004350       ?overflow@?$basic_filebuf@DU?$char_traits@D@std@@@std@@MAEHH@Z 10005350 f i dll.obj
 0001:000044c0       ?overflow@?$basic_streambuf@DU?$char_traits@D@std@@@std@@MAEHH@Z 100054c0 f i dll.obj
 0001:000044c0       ?pbackfail@?$basic_streambuf@DU?$char_traits@D@std@@@std@@MAEHH@Z 100054c0 f i dll.obj
 0001:000044d0       ?pbackfail@?$basic_filebuf@DU?$char_traits@D@std@@@std@@MAEHH@Z 100054d0 f i dll.obj
 0001:00004580       ?read@?$basic_istream@DU?$char_traits@D@std@@@std@@QAEAAV12@PAD_J@Z 10005580 f i dll.obj
 0001:000046b0       ?seekoff@?$basic_filebuf@DU?$char_traits@D@std@@@std@@MAE?AV?$fpos@U_Mbstatet@@@2@_JHH@Z 100056b0 f i dll.obj
 0001:00004790       ?seekoff@?$basic_streambuf@DU?$char_traits@D@std@@@std@@MAE?AV?$fpos@U_Mbstatet@@@2@_JHH@Z 10005790 f i dll.obj
 0001:000047c0       ?seekpos@?$basic_filebuf@DU?$char_traits@D@std@@@std@@MAE?AV?$fpos@U_Mbstatet@@@2@V32@H@Z 100057c0 f i dll.obj
 0001:00004890       ?seekpos@?$basic_streambuf@DU?$char_traits@D@std@@@std@@MAE?AV?$fpos@U_Mbstatet@@@2@V32@H@Z 10005890 f i dll.obj
 0001:000048c0       ?setbuf@?$basic_filebuf@DU?$char_traits@D@std@@@std@@MAEPAV?$basic_streambuf@DU?$char_traits@D@std@@@2@PAD_J@Z 100058c0 f i dll.obj
 0001:00004910       ?setbuf@?$basic_streambuf@DU?$char_traits@D@std@@@std@@MAEPAV12@PAD_J@Z 10005910 f i dll.obj
 0001:00004920       ?setstate@?$basic_ios@DU?$char_traits@D@std@@@std@@QAEXH_N@Z 10005920 f i dll.obj
 0001:00004950       ?showmanyc@?$basic_streambuf@DU?$char_traits@D@std@@@std@@MAE_JXZ 10005950 f i dll.obj
 0001:00004960       ?sync@?$basic_filebuf@DU?$char_traits@D@std@@@std@@MAEHXZ 10005960 f i dll.obj
 0001:00004990       ?GetTraceType@CTraceFilter@SDK@@UBE?AW4TraceType_t@2@XZ 10005990 f i Antiaim.obj
 0001:00004990       ?GetScrollAmount@PPGUI_Command@PPGUI@@UAEHXZ 10005990 f i PPGUI_Commands.obj
 0001:00004990       ?GetTraceType@CTraceFilterOneEntity@SDK@@UBE?AW4TraceType_t@2@XZ 10005990 f i Aimbot.obj
 0001:00004990       ?GetTraceType@CTraceWorldOnly@SDK@@UBE?AW4TraceType_t@2@XZ 10005990 f i Antiaim.obj
 0001:00004990       ?sync@?$basic_streambuf@DU?$char_traits@D@std@@@std@@MAEHXZ 10005990 f i dll.obj
 0001:000049a0       ?uflow@?$basic_filebuf@DU?$char_traits@D@std@@@std@@MAEHXZ 100059a0 f i dll.obj
 0001:00004cd0       ?uflow@?$basic_streambuf@DU?$char_traits@D@std@@@std@@MAEHXZ 10005cd0 f i dll.obj
 0001:00004d00       ?underflow@?$basic_filebuf@DU?$char_traits@D@std@@@std@@MAEHXZ 10005d00 f i dll.obj
 0001:00004d40       ?underflow@?$basic_streambuf@DU?$char_traits@D@std@@@std@@MAEHXZ 10005d40 f i dll.obj
 0001:00004d50       ?what@exception@std@@UBEPBDXZ 10005d50 f i dll.obj
 0001:00004d60       ?xsgetn@?$basic_filebuf@DU?$char_traits@D@std@@@std@@MAE_JPAD_J@Z 10005d60 f i dll.obj
 0001:00004f10       ?xsgetn@?$basic_streambuf@DU?$char_traits@D@std@@@std@@MAE_JPAD_J@Z 10005f10 f i dll.obj
 0001:00004fe0       ?xsputn@?$basic_filebuf@DU?$char_traits@D@std@@@std@@MAE_JPBD_J@Z 10005fe0 f i dll.obj
 0001:00005160       ?xsputn@?$basic_streambuf@DU?$char_traits@D@std@@@std@@MAE_JPBD_J@Z 10006160 f i dll.obj
 0001:00005230       ??$_Emplace_reallocate@AAVVector@@AAH@?$vector@U?$pair@VVector@@H@std@@V?$allocator@U?$pair@VVector@@H@std@@@2@@std@@QAEPAU?$pair@VVector@@H@1@QAU21@AAVVector@@AAH@Z 10006230 f i Aimbot.obj
 0001:00005230       ??$_Emplace_reallocate@VVector@@H@?$vector@U?$pair@VVector@@H@std@@V?$allocator@U?$pair@VVector@@H@std@@@2@@std@@QAEPAU?$pair@VVector@@H@1@QAU21@$$QAVVector@@$$QAH@Z 10006230 f i Aimbot.obj
 0001:00005340       ??$_Emplace_reallocate@UDrawCircleQueue@RenderQueue@RENDER@@@?$vector@UDrawCircleQueue@RenderQueue@RENDER@@V?$allocator@UDrawCircleQueue@RenderQueue@RENDER@@@std@@@std@@QAEPAUDrawCircleQueue@RenderQueue@RENDER@@QAU234@$$QAU234@@Z 10006340 f i Aimbot.obj
 0001:00005490       ??$emplace_back@VVector@@H@?$vector@U?$pair@VVector@@H@std@@V?$allocator@U?$pair@VVector@@H@std@@@2@@std@@QAEAAU?$pair@VVector@@H@1@$$QAVVector@@$$QAH@Z 10006490 f i Aimbot.obj
 0001:000054e0       ??0Backtracking_Record@RAGEBOT@FEATURES@@QAE@XZ 100064e0 f i Aimbot.obj
 0001:00005700       ??0PlayerAimbotInfo@Aimbot@RAGEBOT@FEATURES@@QAE@XZ 10006700 f i Aimbot.obj
 0001:00005750       ??0Ray_t@SDK@@QAE@XZ       10006750 f i Aimbot.obj
 0001:000057b0       ??0Vector@@QAE@XZ          100067b0 f i Aimbot.obj
 0001:000057b0       ??0?$vector@UBacktracking_Record@RAGEBOT@FEATURES@@V?$allocator@UBacktracking_Record@RAGEBOT@FEATURES@@@std@@@std@@QAE@XZ 100067b0 f i Backtracking.obj
 0001:000057d0       ??0matrix3x4_t@@QAE@XZ     100067d0 f i Aimbot.obj
 0001:000057e0       ??0trace_t@SDK@@QAE@XZ     100067e0 f i Aimbot.obj
 0001:00005830       ??1?$vector@UVertex_t@SDK@@V?$allocator@UVertex_t@SDK@@@std@@@std@@QAE@XZ 10006830 f i BoxESP.obj
 0001:00005830       ??1?$vector@U?$pair@VVector@@H@std@@V?$allocator@U?$pair@VVector@@H@std@@@2@@std@@QAE@XZ 10006830 f i Aimbot.obj
 0001:00005890       ?_Tidy@?$vector@UBacktracking_Record@RAGEBOT@FEATURES@@V?$allocator@UBacktracking_Record@RAGEBOT@FEATURES@@@std@@@std@@AAEXXZ 10006890 f i Backtracking.obj
 0001:00005890       ??1?$vector@UBacktracking_Record@RAGEBOT@FEATURES@@V?$allocator@UBacktracking_Record@RAGEBOT@FEATURES@@@std@@@std@@QAE@XZ 10006890 f i Aimbot.obj
 0001:00005900       ??4Backtracking_Record@RAGEBOT@FEATURES@@QAEAAU012@ABU012@@Z 10006900 f i Aimbot.obj
 0001:00005900       ??4Backtracking_Record@RAGEBOT@FEATURES@@QAEAAU012@$$QAU012@@Z 10006900 f i Backtracking.obj
 0001:00005b10       ??4matrix3x4_t@@QAEAAU0@ABU0@@Z 10006b10 f i Aimbot.obj
 0001:00005b80       ??AVector@@QAEAAMH@Z       10006b80 f i Aimbot.obj
 0001:00006320       ?AddDrawCircle@RenderQueue@RENDER@@QAEXVVector@@HHVCColor@@M@Z 10007320 f i Aimbot.obj
 0001:00006530       ?CalcAngle@MATH@@YA?AVVector@@ABV2@0@Z 10007530 f i Aimbot.obj
 0001:000065a0       ?Do@Aimbot@RAGEBOT@FEATURES@@QAEXPAVCUserCmd@SDK@@@Z 100075a0 f   Aimbot.obj
 0001:00007690       ?DoHeadAim@Aimbot@RAGEBOT@FEATURES@@AAE_NPAVCBaseEntity@SDK@@ABUBacktracking_Record@23@AAVVector@@AAH@Z 10008690 f   Aimbot.obj
 0001:000079a0       ?DoHitscan@Aimbot@RAGEBOT@FEATURES@@AAE_NPAVCBaseEntity@SDK@@ABUBacktracking_Record@23@AAVVector@@AAH@Z 100089a0 f   Aimbot.obj
 0001:00008250       ?DoKnifebot@Aimbot@RAGEBOT@FEATURES@@AAE_NPAVCBaseEntity@SDK@@ABUBacktracking_Record@23@AAVVector@@@Z 10009250 f   Aimbot.obj
 0001:00008510       ?GetEyePosition@CBaseEntity@SDK@@QAE?AVVector@@XZ 10009510 f i Aimbot.obj
 0001:00008570       ?GetHitbox@Aimbot@RAGEBOT@FEATURES@@CAPAUmstudiobbox_t@SDK@@PAVCBaseEntity@5@H@Z 10009570 f   Aimbot.obj
 0001:000085e0       ?GetHitboxPosition@Aimbot@RAGEBOT@FEATURES@@ABE?AVVector@@PAVCBaseEntity@SDK@@ABUBacktracking_Record@23@H@Z 100095e0 f   Aimbot.obj
 0001:00008720       ?GetMultipointPositions@Aimbot@RAGEBOT@FEATURES@@AAE_NPAVCBaseEntity@SDK@@ABUBacktracking_Record@23@PAVVector@@HM@Z 10009720 f   Aimbot.obj
 0001:00008b70       ?GetTraceType@CTraceFilterOneEntity2@SDK@@UBE?AW4TraceType_t@2@XZ 10009b70 f i Aimbot.obj
 0001:00008b80       ?Init@Ray_t@SDK@@QAEXABVVector@@0@Z 10009b80 f i Aimbot.obj
 0001:00008c30       ?IsAccurate@Aimbot@RAGEBOT@FEATURES@@ABE_NPAVCBaseEntity@SDK@@VVector@@@Z 10009c30 f   Aimbot.obj
 0001:000093d0       ?NormalizeAngle@MATH@@YA?AVVector@@V2@@Z 1000a3d0 f i Aimbot.obj
 0001:00009490       ?ShouldHitEntity@CTraceFilterOneEntity2@SDK@@UAE_NPAXH@Z 1000a490 f i Aimbot.obj
 0001:00009490       ?ShouldHitEntity@CTraceFilterOneEntity@SDK@@UAE_NPAXH@Z 1000a490 f i Aimbot.obj
 0001:000094a0       ?_Change_array@?$vector@U?$pair@VVector@@H@std@@V?$allocator@U?$pair@VVector@@H@std@@@2@@std@@AAEXQAU?$pair@VVector@@H@2@II@Z 1000a4a0 f i Aimbot.obj
 0001:00009500       ?_Change_array@?$vector@UDrawCircleQueue@RenderQueue@RENDER@@V?$allocator@UDrawCircleQueue@RenderQueue@RENDER@@@std@@@std@@AAEXQAUDrawCircleQueue@RenderQueue@RENDER@@II@Z 1000a500 f i Aimbot.obj
 0001:00009580       ?_Xlength@?$vector@HV?$allocator@H@std@@@std@@CAXXZ 1000a580 f i input_handler.obj
 0001:00009580       ?_Xlength@?$vector@ULog@InGameLogger@MISC@FEATURES@@V?$allocator@ULog@InGameLogger@MISC@FEATURES@@@std@@@std@@CAXXZ 1000a580 f i EventListeners.obj
 0001:00009580       ?_Xlength@?$vector@U?$pair@VVector@@H@std@@V?$allocator@U?$pair@VVector@@H@std@@@2@@std@@CAXXZ 1000a580 f i Aimbot.obj
 0001:00009580       ?_Xlength@?$vector@PBDV?$allocator@PBD@std@@@std@@CAXXZ 1000a580 f i hooks.obj
 0001:00009580       ?_Xlength@?$vector@UHitmarker@Hitmarkers@MISC@FEATURES@@V?$allocator@UHitmarker@Hitmarkers@MISC@FEATURES@@@std@@@std@@CAXXZ 1000a580 f i Misc.obj
 0001:00009580       ?_Xlength@?$vector@UBacktracking_Record@RAGEBOT@FEATURES@@V?$allocator@UBacktracking_Record@RAGEBOT@FEATURES@@@std@@@std@@CAXXZ 1000a580 f i Backtracking.obj
 0001:00009580       ?_Xlength@?$vector@V?$basic_string@DU?$char_traits@D@std@@V?$allocator@D@2@@std@@V?$allocator@V?$basic_string@DU?$char_traits@D@std@@V?$allocator@D@2@@std@@@2@@std@@CAXXZ 1000a580 f i EventListeners.obj
 0001:00009580       ?_Xlength@?$vector@VPPGUI_Command_Frame@PPGUI@@V?$allocator@VPPGUI_Command_Frame@PPGUI@@@std@@@std@@CAXXZ 1000a580 f i PPGUI.obj
 0001:00009580       ?_Xlength@?$vector@VVector@@V?$allocator@VVector@@@std@@@std@@CAXXZ 1000a580 f i Resolver.obj
 0001:00009580       ?_Xlength@?$vector@VCColor@@V?$allocator@VCColor@@@std@@@std@@CAXXZ 1000a580 f i EventListeners.obj
 0001:00009580       ?_Xlength@?$vector@PAVPPGUI_Command@PPGUI@@V?$allocator@PAVPPGUI_Command@PPGUI@@@std@@@std@@CAXXZ 1000a580 f i PPGUI.obj
 0001:00009580       ?_Xlength@?$vector@UDrawCircleQueue@RenderQueue@RENDER@@V?$allocator@UDrawCircleQueue@RenderQueue@RENDER@@@std@@@std@@CAXXZ 1000a580 f i Aimbot.obj
 0001:00009580       ?_Xlength@?$vector@PAVCBaseEntity@SDK@@V?$allocator@PAVCBaseEntity@SDK@@@std@@@std@@CAXXZ 1000a580 f i Antiaim.obj
 0001:00009580       ?_Xlength@?$vector@U?$pair@V?$basic_string@DU?$char_traits@D@std@@V?$allocator@D@2@@std@@VCColor@@@std@@V?$allocator@U?$pair@V?$basic_string@DU?$char_traits@D@std@@V?$allocator@D@2@@std@@VCColor@@@std@@@2@@std@@CAXXZ 1000a580 f i BoxESP.obj
 0001:00009580       ?_Xlength@?$vector@UBulletTracer@BulletTracers@MISC@FEATURES@@V?$allocator@UBulletTracer@BulletTracers@MISC@FEATURES@@@std@@@std@@CAXXZ 1000a580 f i EventListeners.obj
 0001:00009580       ?_Xlength@?$vector@UShotSnapshot@Resolver@RAGEBOT@FEATURES@@V?$allocator@UShotSnapshot@Resolver@RAGEBOT@FEATURES@@@std@@@std@@CAXXZ 1000a580 f i Resolver.obj
 0001:00009580       ?_Xlength@?$vector@UPPGUI_Column@PPGUI_Command_Frame@PPGUI@@V?$allocator@UPPGUI_Column@PPGUI_Command_Frame@PPGUI@@@std@@@std@@CAXXZ 1000a580 f i PPGUI.obj
 0001:00009580       ?_Xlength@?$vector@UVertex_t@SDK@@V?$allocator@UVertex_t@SDK@@@std@@@std@@CAXXZ 1000a580 f i BoxESP.obj
 0001:00009580       ?_Xlength@?$vector@V?$_List_unchecked_iterator@V?$_List_val@U?$_List_simple_types@U?$pair@$$CBITPPGUI_Command_Data@PPGUI_Command_Data_Base@PPGUI@@@std@@@std@@@std@@@std@@V?$allocator@V?$_List_unchecked_iterator@V?$_List_val@U?$_List_simple_types@U?$pair@$$CBITPPGUI_Command_Data@PPGUI_Command_Data_Base@PPGUI@@@std@@@std@@@std@@@std@@@2@@std@@CAXXZ 1000a580 f i PPGUI.obj
 0001:00009580       ?_Xlength@?$vector@V?$vector@V?$basic_string@DU?$char_traits@D@std@@V?$allocator@D@2@@std@@V?$allocator@V?$basic_string@DU?$char_traits@D@std@@V?$allocator@D@2@@std@@@2@@std@@V?$allocator@V?$vector@V?$basic_string@DU?$char_traits@D@std@@V?$allocator@D@2@@std@@V?$allocator@V?$basic_string@DU?$char_traits@D@std@@V?$allocator@D@2@@std@@@2@@std@@@2@@std@@CAXXZ 1000a580 f i Misc.obj
 0001:00009590       ?allocate@?$allocator@U?$pair@VVector@@H@std@@@std@@QAEPAU?$pair@VVector@@H@2@I@Z 1000a590 f i Aimbot.obj
 0001:00009590       ?allocate@?$allocator@UVertex_t@SDK@@@std@@QAEPAUVertex_t@SDK@@I@Z 1000a590 f i BoxESP.obj
 0001:00009600       ?allocate@?$allocator@UDrawCircleQueue@RenderQueue@RENDER@@@std@@QAEPAUDrawCircleQueue@RenderQueue@RENDER@@I@Z 1000a600 f i Aimbot.obj
 0001:00009600       ?allocate@?$allocator@V?$basic_string@DU?$char_traits@D@std@@V?$allocator@D@2@@std@@@std@@QAEPAV?$basic_string@DU?$char_traits@D@std@@V?$allocator@D@2@@2@I@Z 1000a600 f i EventListeners.obj
 0001:00009670       ??$_Emplace_reallocate@ABQAVPPGUI_Command@PPGUI@@@?$vector@PAVPPGUI_Command@PPGUI@@V?$allocator@PAVPPGUI_Command@PPGUI@@@std@@@std@@QAEPAPAVPPGUI_Command@PPGUI@@QAPAV23@ABQAV23@@Z 1000a670 f i PPGUI.obj
 0001:00009670       ??$_Emplace_reallocate@ABQAVCBaseEntity@SDK@@@?$vector@PAVCBaseEntity@SDK@@V?$allocator@PAVCBaseEntity@SDK@@@std@@@std@@QAEPAPAVCBaseEntity@SDK@@QAPAV23@ABQAV23@@Z 1000a670 f i Antiaim.obj
 0001:000097c0       ??$_Ptr_move_cat@UBulletTracer@BulletTracers@MISC@FEATURES@@U1234@@std@@YA?AU_Trivially_copyable_ptr_iterator_tag@0@ABQAUBulletTracer@BulletTracers@MISC@FEATURES@@0@Z 1000a7c0 f i EventListeners.obj
 0001:000097c0       ??$_Ptr_move_cat@VVector@@V1@@std@@YA?AU_Trivially_copyable_ptr_iterator_tag@0@ABQAVVector@@0@Z 1000a7c0 f i Resolver.obj
 0001:000097c0       ??$_Ptr_copy_cat@PAUIncoming_Sequence_Record@RAGEBOT@FEATURES@@PAU123@@std@@YA?AU_Really_trivial_ptr_iterator_tag@0@ABQAPAUIncoming_Sequence_Record@RAGEBOT@FEATURES@@0@Z 1000a7c0 f i Backtracking.obj
 0001:000097c0       ??$_Ptr_copy_cat@PAVPPGUI_Command@PPGUI@@PAV12@@std@@YA?AU_Really_trivial_ptr_iterator_tag@0@ABQAPAVPPGUI_Command@PPGUI@@0@Z 1000a7c0 f i PPGUI.obj
 0001:000097c0       ??$_Ptr_move_cat@PAVCBaseEntity@SDK@@PAV12@@std@@YA?AU_Really_trivial_ptr_iterator_tag@0@ABQAPAVCBaseEntity@SDK@@0@Z 1000a7c0 f i Antiaim.obj
 0001:000097c0       ??$_Ptr_copy_cat@PAVCBaseEntity@SDK@@PAV12@@std@@YA?AU_Really_trivial_ptr_iterator_tag@0@ABQAPAVCBaseEntity@SDK@@0@Z 1000a7c0 f i Antiaim.obj
 0001:000097c0       ??$_Ptr_copy_cat@QBDPBD@std@@YA?AU_Really_trivial_ptr_iterator_tag@0@ABQBQBDABQAPBD@Z 1000a7c0 f i hooks.obj
 0001:000097c0       ??$_Ptr_move_cat@UHitmarker@Hitmarkers@MISC@FEATURES@@U1234@@std@@YA?AU_Trivially_copyable_ptr_iterator_tag@0@ABQAUHitmarker@Hitmarkers@MISC@FEATURES@@0@Z 1000a7c0 f i Misc.obj
 0001:000097c0       ??$_Ptr_move_cat@PAVPPGUI_Command@PPGUI@@PAV12@@std@@YA?AU_Really_trivial_ptr_iterator_tag@0@ABQAPAVPPGUI_Command@PPGUI@@0@Z 1000a7c0 f i PPGUI.obj
 0001:000097c0       ??$_Ptr_move_cat@HH@std@@YA?AU_Really_trivial_ptr_iterator_tag@0@ABQAH0@Z 1000a7c0 f i input_handler.obj
 0001:000097c0       ??$_Ptr_move_cat@UDrawCircleQueue@RenderQueue@RENDER@@U123@@std@@YA?AU_Trivially_copyable_ptr_iterator_tag@0@ABQAUDrawCircleQueue@RenderQueue@RENDER@@0@Z 1000a7c0 f i render.obj
 0001:000097c0       ??$_Ptr_move_cat@UShotSnapshot@Resolver@RAGEBOT@FEATURES@@U1234@@std@@YA?AU_Trivially_copyable_ptr_iterator_tag@0@ABQAUShotSnapshot@Resolver@RAGEBOT@FEATURES@@0@Z 1000a7c0 f i Resolver.obj
 0001:000097d0       ??0?$vector@PAVCBaseEntity@SDK@@V?$allocator@PAVCBaseEntity@SDK@@@std@@@std@@QAE@ABV01@@Z 1000a7d0 f i Antiaim.obj
 0001:000097d0       ??0?$vector@PAVPPGUI_Command@PPGUI@@V?$allocator@PAVPPGUI_Command@PPGUI@@@std@@@std@@QAE@ABV01@@Z 1000a7d0 f i PPGUI.obj
 0001:000098c0       ??1?$vector@PBDV?$allocator@PBD@std@@@std@@QAE@XZ 1000a8c0 f i hooks.obj
 0001:000098c0       ??1?$vector@PAVCBaseEntity@SDK@@V?$allocator@PAVCBaseEntity@SDK@@@std@@@std@@QAE@XZ 1000a8c0 f i Antiaim.obj
 0001:000098c0       ??1?$vector@V?$_List_unchecked_iterator@V?$_List_val@U?$_List_simple_types@U?$pair@$$CBITPPGUI_Command_Data@PPGUI_Command_Data_Base@PPGUI@@@std@@@std@@@std@@@std@@V?$allocator@V?$_List_unchecked_iterator@V?$_List_val@U?$_List_simple_types@U?$pair@$$CBITPPGUI_Command_Data@PPGUI_Command_Data_Base@PPGUI@@@std@@@std@@@std@@@std@@@2@@std@@QAE@XZ 1000a8c0 f i PPGUI_Defines.obj
 0001:000098c0       ??1?$vector@VCColor@@V?$allocator@VCColor@@@std@@@std@@QAE@XZ 1000a8c0 f i Resolver.obj
 0001:000098c0       ?_Tidy@?$vector@VCColor@@V?$allocator@VCColor@@@std@@@std@@AAEXXZ 1000a8c0 f i EventListeners.obj
 0001:000098c0       ??1?$vector@PAVPPGUI_Command@PPGUI@@V?$allocator@PAVPPGUI_Command@PPGUI@@@std@@@std@@QAE@XZ 1000a8c0 f i PPGUI.obj
 0001:0000be90       ??R?$mersenne_twister@I$0CA@$0CHA@$0BIN@$0BP@$0JJAILANP@$0L@$06$0JNCMFGIA@$0P@$0OPMGAAAA@$0BC@@std@@QAEIXZ 1000ce90 f i Antiaim.obj
 0001:0000c020       ?BreakLBY@Antiaim@RAGEBOT@FEATURES@@AAEMMM_N@Z 1000d020 f   Antiaim.obj
 0001:0000c320       ?Do@Antiaim@RAGEBOT@FEATURES@@QAEXPAVCUserCmd@SDK@@@Z 1000d320 f   Antiaim.obj
 0001:0000c690       ?DoEdging@Antiaim@RAGEBOT@FEATURES@@AAE_NAAM0@Z 1000d690 f   Antiaim.obj
 0001:0000c820       ?NormalizeYaw@MATH@@YAMM@Z 1000d820 f i Antiaim.obj
 0001:0000c870       ?RandomNumber@MATH@@YAMMM@Z 1000d870 f i Antiaim.obj
 0001:0000ca10       ?ShouldHitEntity@CTraceFilter@SDK@@UAE_NPAXH@Z 1000da10 f i Antiaim.obj
 0001:0000ca20       ?ShouldHitEntity@CTraceWorldOnly@SDK@@UAE_NPAXH@Z 1000da20 f i Antiaim.obj
 0001:0000ca30       ?UpdateLBY@Antiaim@RAGEBOT@FEATURES@@QAEXXZ 1000da30 f   Antiaim.obj
 0001:0000cbc0       ?allocate@?$allocator@PAVPPGUI_Command@PPGUI@@@std@@QAEPAPAVPPGUI_Command@PPGUI@@I@Z 1000dbc0 f i PPGUI.obj
 0001:0000cbc0       ?allocate@?$allocator@VCColor@@@std@@QAEPAVCColor@@I@Z 1000dbc0 f i EventListeners.obj
 0001:0000cbc0       ?allocate@?$allocator@PAVCBaseEntity@SDK@@@std@@QAEPAPAVCBaseEntity@SDK@@I@Z 1000dbc0 f i Antiaim.obj
 0001:0000cbc0       ?allocate@?$allocator@V?$_List_unchecked_iterator@V?$_List_val@U?$_List_simple_types@U?$pair@$$CBITPPGUI_Command_Data@PPGUI_Command_Data_Base@PPGUI@@@std@@@std@@@std@@@std@@@std@@QAEPAV?$_List_unchecked_iterator@V?$_List_val@U?$_List_simple_types@U?$pair@$$CBITPPGUI_Command_Data@PPGUI_Command_Data_Base@PPGUI@@@std@@@std@@@std@@@2@I@Z 1000dbc0 f i PPGUI.obj
 0001:0000cbc0       ?allocate@?$allocator@H@std@@QAEPAHI@Z 1000dbc0 f i input_handler.obj
 0001:0000cc30       ?Strafe@Autostrafer@MISC@FEATURES@@QAEXPAVCUserCmd@SDK@@@Z 1000dc30 f   Autostrafer.obj
 0001:0000d010       ??0logic_error@std@@QAE@ABV01@@Z 1000e010 f i Autowall.obj
 0001:0000d050       ?CalculateDamage@Autowall@RAGEBOT@FEATURES@@QAE?AUAutowall_Return_Info@123@VVector@@0PAVCBaseEntity@SDK@@1H@Z 1000e050 f   Autowall.obj
 0001:0000d6b0       ?CanPenetrate@Autowall@RAGEBOT@FEATURES@@AAE_NPAVCBaseEntity@SDK@@AAUAutowall_Info@123@PAUWeapon_Info@5@@Z 1000e6b0 f   Autowall.obj
 0001:0000d8d0       ?ScaleDamage@Autowall@RAGEBOT@FEATURES@@AAEXPAVCBaseEntity@SDK@@PAUWeapon_Info@5@HAAM@Z 1000e8d0 f   Autowall.obj
 0001:0000d9c0       ?UTIL_TraceLine@Autowall@RAGEBOT@FEATURES@@AAEXAAVVector@@0IPAVCBaseEntity@SDK@@PAUtrace_t@6@@Z 1000e9c0 f i Autowall.obj
 0001:0000dab0       ?assign@?$basic_string@DU?$char_traits@D@std@@V?$allocator@D@2@@std@@QAEAAV12@QBDI@Z 1000eab0 f i Autowall.obj
 0001:0000dba0       ??$_Emplace_reallocate@ABUBacktracking_Record@RAGEBOT@FEATURES@@@?$vector@UBacktracking_Record@RAGEBOT@FEATURES@@V?$allocator@UBacktracking_Record@RAGEBOT@FEATURES@@@std@@@std@@QAEPAUBacktracking_Record@RAGEBOT@FEATURES@@QAU234@ABU234@@Z 1000eba0 f i Backtracking.obj
 0001:0000dba0       ??$_Emplace_reallocate@UBacktracking_Record@RAGEBOT@FEATURES@@@?$vector@UBacktracking_Record@RAGEBOT@FEATURES@@V?$allocator@UBacktracking_Record@RAGEBOT@FEATURES@@@std@@@std@@QAEPAUBacktracking_Record@RAGEBOT@FEATURES@@QAU234@$$QAU234@@Z 1000eba0 f i Backtracking.obj
 0001:0000dce0       ??$_Move_backward_unchecked1@PAUBacktracking_Record@RAGEBOT@FEATURES@@PAU123@@std@@YAPAUBacktracking_Record@RAGEBOT@FEATURES@@PAU123@00U_General_ptr_iterator_tag@0@@Z 1000ece0 f i Backtracking.obj
 0001:0000df30       ??$emplace@UBacktracking_Record@RAGEBOT@FEATURES@@@?$vector@UBacktracking_Record@RAGEBOT@FEATURES@@V?$allocator@UBacktracking_Record@RAGEBOT@FEATURES@@@std@@@std@@QAE?AV?$_Vector_iterator@V?$_Vector_val@U?$_Simple_types@UBacktracking_Record@RAGEBOT@FEATURES@@@std@@@std@@@1@V?$_Vector_const_iterator@V?$_Vector_val@U?$_Simple_types@UBacktracking_Record@RAGEBOT@FEATURES@@@std@@@std@@@1@$$QAUBacktracking_Record@RAGEBOT@FEATURES@@@Z 1000ef30 f i Backtracking.obj
 0001:0000df30       ??$emplace@ABUBacktracking_Record@RAGEBOT@FEATURES@@@?$vector@UBacktracking_Record@RAGEBOT@FEATURES@@V?$allocator@UBacktracking_Record@RAGEBOT@FEATURES@@@std@@@std@@QAE?AV?$_Vector_iterator@V?$_Vector_val@U?$_Simple_types@UBacktracking_Record@RAGEBOT@FEATURES@@@std@@@std@@@1@V?$_Vector_const_iterator@V?$_Vector_val@U?$_Simple_types@UBacktracking_Record@RAGEBOT@FEATURES@@@std@@@std@@@1@ABUBacktracking_Record@RAGEBOT@FEATURES@@@Z 1000ef30 f i Backtracking.obj
 0001:0000e010       ??0?$vector@UBacktracking_Record@RAGEBOT@FEATURES@@V?$allocator@UBacktracking_Record@RAGEBOT@FEATURES@@@std@@@std@@QAE@ABV01@@Z 1000f010 f i Backtracking.obj
 0001:0000e0c0       ??0Backtracking_Record@RAGEBOT@FEATURES@@QAE@PAVCBaseEntity@SDK@@@Z 1000f0c0 f   Backtracking.obj
 0001:0000e4d0       ??0PlayerResolveRecord@Resolver@RAGEBOT@FEATURES@@QAE@XZ 1000f4d0 f i Backtracking.obj
 0001:0000e620       ??1?$deque@UIncoming_Sequence_Record@RAGEBOT@FEATURES@@V?$allocator@UIncoming_Sequence_Record@RAGEBOT@FEATURES@@@std@@@std@@QAE@XZ 1000f620 f i Backtracking.obj
 0001:0000e6d0       ?ApplyRestore@CBacktracking@RAGEBOT@FEATURES@@QAEXPAVCBaseEntity@SDK@@M@Z 1000f6d0 f   Backtracking.obj
 0001:0000e830       ?GetDeltaTime@CBacktracking@RAGEBOT@FEATURES@@SAMUBacktracking_Record@23@@Z 1000f830 f   Backtracking.obj
 0001:0000e920       ?GetLerpTicks@CBacktracking@RAGEBOT@FEATURES@@SAHXZ 1000f920 f   Backtracking.obj
 0001:0000eb00       ?GetPriorityRecords@CBacktracking@RAGEBOT@FEATURES@@QAE?AV?$vector@UBacktracking_Record@RAGEBOT@FEATURES@@V?$allocator@UBacktracking_Record@RAGEBOT@FEATURES@@@std@@@std@@PAVCBaseEntity@SDK@@@Z 1000fb00 f   Backtracking.obj
 0001:0000f4b0       ?GetRecords@CBacktracking@RAGEBOT@FEATURES@@QAE?AV?$vector@UBacktracking_Record@RAGEBOT@FEATURES@@V?$allocator@UBacktracking_Record@RAGEBOT@FEATURES@@@std@@@std@@PAVCBaseEntity@SDK@@@Z 100104b0 f   Backtracking.obj
 0001:0000f4e0       ?GetTickCount@CBacktracking@RAGEBOT@FEATURES@@SAHUBacktracking_Record@23@@Z 100104e0 f   Backtracking.obj
 0001:0000f510       ?GetValidRecords@CBacktracking@RAGEBOT@FEATURES@@QAE?AV?$vector@UBacktracking_Record@RAGEBOT@FEATURES@@V?$allocator@UBacktracking_Record@RAGEBOT@FEATURES@@@std@@@std@@PAVCBaseEntity@SDK@@@Z 10010510 f   Backtracking.obj
 0001:0000f610       ?Restore@CBacktracking@RAGEBOT@FEATURES@@QAEXPAVCBaseEntity@SDK@@UBacktracking_Record@23@H@Z 10010610 f   Backtracking.obj
 0001:0000fa20       ?RestoreAllToCurrentRecord@CBacktracking@RAGEBOT@FEATURES@@QAEXXZ 10010a20 f   Backtracking.obj
 0001:0000fba0       ?RestoreToCurrentRecord@CBacktracking@RAGEBOT@FEATURES@@QAEXPAVCBaseEntity@SDK@@@Z 10010ba0 f   Backtracking.obj
 0001:0000fc60       ?Store@CBacktracking@RAGEBOT@FEATURES@@QAEXXZ 10010c60 f   Backtracking.obj
 0001:0000fe40       ?UpdateIncomingSequences@CBacktracking@RAGEBOT@FEATURES@@QAEXXZ 10010e40 f   Backtracking.obj
 0001:0000ff20       ?_Change_array@?$vector@UBacktracking_Record@RAGEBOT@FEATURES@@V?$allocator@UBacktracking_Record@RAGEBOT@FEATURES@@@std@@@std@@AAEXQAUBacktracking_Record@RAGEBOT@FEATURES@@II@Z 10010f20 f i Backtracking.obj
 0001:0000ffa0       ?_Growmap@?$deque@UIncoming_Sequence_Record@RAGEBOT@FEATURES@@V?$allocator@UIncoming_Sequence_Record@RAGEBOT@FEATURES@@@std@@@std@@IAEXI@Z 10010fa0 f i Backtracking.obj
 0001:00010190       ?_Umove@?$vector@UBacktracking_Record@RAGEBOT@FEATURES@@V?$allocator@UBacktracking_Record@RAGEBOT@FEATURES@@@std@@@std@@AAEPAUBacktracking_Record@RAGEBOT@FEATURES@@PAU345@00@Z 10011190 f i Backtracking.obj
 0001:000101d0       ?_Xlen@?$deque@UIncoming_Sequence_Record@RAGEBOT@FEATURES@@V?$allocator@UIncoming_Sequence_Record@RAGEBOT@FEATURES@@@std@@@std@@IBEXXZ 100111d0 f i Backtracking.obj
 0001:000101e0       ?allocate@?$allocator@UBacktracking_Record@RAGEBOT@FEATURES@@@std@@QAEPAUBacktracking_Record@RAGEBOT@FEATURES@@I@Z 100111e0 f i Backtracking.obj
 0001:00010250       ??$_Destroy_range@V?$allocator@U?$pair@V?$basic_string@DU?$char_traits@D@std@@V?$allocator@D@2@@std@@VCColor@@@std@@@std@@@std@@YAXPAU?$pair@V?$basic_string@DU?$char_traits@D@std@@V?$allocator@D@2@@std@@VCColor@@@0@0AAV?$allocator@U?$pair@V?$basic_string@DU?$char_traits@D@std@@V?$allocator@D@2@@std@@VCColor@@@std@@@0@@Z 10011250 f i BoxESP.obj
 0001:000102c0       ??$_Emplace_reallocate@AAY0N@$$CBDVCColor@@@?$vector@U?$pair@V?$basic_string@DU?$char_traits@D@std@@V?$allocator@D@2@@std@@VCColor@@@std@@V?$allocator@U?$pair@V?$basic_string@DU?$char_traits@D@std@@V?$allocator@D@2@@std@@VCColor@@@std@@@2@@std@@QAEPAU?$pair@V?$basic_string@DU?$char_traits@D@std@@V?$allocator@D@2@@std@@VCColor@@@1@QAU21@AAY0N@$$CBD$$QAVCColor@@@Z 100112c0 f i BoxESP.obj
 0001:00010470       ??$_Emplace_reallocate@UVertex_t@SDK@@@?$vector@UVertex_t@SDK@@V?$allocator@UVertex_t@SDK@@@std@@@std@@QAEPAUVertex_t@SDK@@QAU23@$$QAU23@@Z 10011470 f i BoxESP.obj
 0001:000105c0       ??$_Emplace_reallocate@V?$basic_string@DU?$char_traits@D@std@@V?$allocator@D@2@@std@@VCColor@@@?$vector@U?$pair@V?$basic_string@DU?$char_traits@D@std@@V?$allocator@D@2@@std@@VCColor@@@std@@V?$allocator@U?$pair@V?$basic_string@DU?$char_traits@D@std@@V?$allocator@D@2@@std@@VCColor@@@std@@@2@@std@@QAEPAU?$pair@V?$basic_string@DU?$char_traits@D@std@@V?$allocator@D@2@@std@@VCColor@@@1@QAU21@$$QAV?$basic_string@DU?$char_traits@D@std@@V?$allocator@D@2@@1@$$QAVCColor@@@Z 100115c0 f i BoxESP.obj
 0001:000106f0       ??$_UIntegral_to_buff@DI@std@@YAPADPADI@Z 100116f0 f i BoxESP.obj
 0001:00010730       ??$_Uninitialized_move@PAU?$pair@V?$basic_string@DU?$char_traits@D@std@@V?$allocator@D@2@@std@@VCColor@@@std@@PAU12@V?$allocator@U?$pair@V?$basic_string@DU?$char_traits@D@std@@V?$allocator@D@2@@std@@VCColor@@@std@@@2@@std@@YAPAU?$pair@V?$basic_string@DU?$char_traits@D@std@@V?$allocator@D@2@@std@@VCColor@@@0@QAU10@0PAU10@AAV?$allocator@U?$pair@V?$basic_string@DU?$char_traits@D@std@@V?$allocator@D@2@@std@@VCColor@@@std@@@0@@Z 10011730 f i BoxESP.obj
 0001:000107b0       ??$emplace_back@V?$basic_string@DU?$char_traits@D@std@@V?$allocator@D@2@@std@@VCColor@@@?$vector@U?$pair@V?$basic_string@DU?$char_traits@D@std@@V?$allocator@D@2@@std@@VCColor@@@std@@V?$allocator@U?$pair@V?$basic_string@DU?$char_traits@D@std@@V?$allocator@D@2@@std@@VCColor@@@std@@@2@@std@@QAEAAU?$pair@V?$basic_string@DU?$char_traits@D@std@@V?$allocator@D@2@@std@@VCColor@@@1@$$QAV?$basic_string@DU?$char_traits@D@std@@V?$allocator@D@2@@1@$$QAVCColor@@@Z 100117b0 f i BoxESP.obj
 0001:00010820       ??0?$basic_string@DU?$char_traits@D@std@@V?$allocator@D@2@@std@@QAE@ABV01@@Z 10011820 f i BoxESP.obj
 0001:000108b0       ??0?$basic_string@DU?$char_traits@D@std@@V?$allocator@D@2@@std@@QAE@ID@Z 100118b0 f i BoxESP.obj
 0001:000109c0       ??0?$vector@UVertex_t@SDK@@V?$allocator@UVertex_t@SDK@@@std@@@std@@QAE@ABV01@@Z 100119c0 f i BoxESP.obj
 0001:00010a40       ??1?$vector@U?$pair@V?$basic_string@DU?$char_traits@D@std@@V?$allocator@D@2@@std@@VCColor@@@std@@V?$allocator@U?$pair@V?$basic_string@DU?$char_traits@D@std@@V?$allocator@D@2@@std@@VCColor@@@std@@@2@@std@@QAE@XZ 10011a40 f i BoxESP.obj
 0001:00010e20       ?Do@CBoxESP@VISUALS@FEATURES@@QAEXXZ 10011e20 f   BoxESP.obj
 0001:00010f60       ?DrawBox@CBoxESP@VISUALS@FEATURES@@AAEXPAVCBaseEntity@SDK@@VCColor@@1_N2222@Z 10011f60 f   BoxESP.obj
 0001:00011860       ?DrawBoxInfo@CBoxESP@VISUALS@FEATURES@@AAEXPAVCBaseEntity@SDK@@VCColor@@PAVVector@@_N33@Z 10012860 f   BoxESP.obj
 0001:00011f20       ?DrawHealthBar@CBoxESP@VISUALS@FEATURES@@AAEXPAVCBaseEntity@SDK@@PAVVector@@H@Z 10012f20 f   BoxESP.obj
 0001:00012510       ?_Change_array@?$vector@U?$pair@V?$basic_string@DU?$char_traits@D@std@@V?$allocator@D@2@@std@@VCColor@@@std@@V?$allocator@U?$pair@V?$basic_string@DU?$char_traits@D@std@@V?$allocator@D@2@@std@@VCColor@@@std@@@2@@std@@AAEXQAU?$pair@V?$basic_string@DU?$char_traits@D@std@@V?$allocator@D@2@@std@@VCColor@@@2@II@Z 10013510 f i BoxESP.obj
 0001:000125b0       ?_Destroy@?$vector@U?$pair@V?$basic_string@DU?$char_traits@D@std@@V?$allocator@D@2@@std@@VCColor@@@std@@V?$allocator@U?$pair@V?$basic_string@DU?$char_traits@D@std@@V?$allocator@D@2@@std@@VCColor@@@std@@@2@@std@@AAEXPAU?$pair@V?$basic_string@DU?$char_traits@D@std@@V?$allocator@D@2@@std@@VCColor@@@2@0@Z 100135b0 f i BoxESP.obj
 0001:000125d0       ?_Xran@?$_String_val@U?$_Simple_types@D@std@@@std@@SAXXZ 100135d0 f i BoxESP.obj
 0001:000125e0       ?allocate@?$allocator@U?$pair@V?$basic_string@DU?$char_traits@D@std@@V?$allocator@D@2@@std@@VCColor@@@std@@@std@@QAEPAU?$pair@V?$basic_string@DU?$char_traits@D@std@@V?$allocator@D@2@@std@@VCColor@@@2@I@Z 100135e0 f i BoxESP.obj
 0001:00012650       ?deallocate@?$allocator@U?$pair@V?$basic_string@DU?$char_traits@D@std@@V?$allocator@D@2@@std@@VCColor@@@std@@@std@@QAEXQAU?$pair@V?$basic_string@DU?$char_traits@D@std@@V?$allocator@D@2@@std@@VCColor@@@2@I@Z 10013650 f i BoxESP.obj
 0001:00012650       ?deallocate@?$allocator@ULog@InGameLogger@MISC@FEATURES@@@std@@QAEXQAULog@InGameLogger@MISC@FEATURES@@I@Z 10013650 f i EventListeners.obj
 0001:000126a0       ?insert@?$basic_string@DU?$char_traits@D@std@@V?$allocator@D@2@@std@@QAEAAV12@IQBDI@Z 100136a0 f i BoxESP.obj
 0001:00012880       ?to_string@std@@YA?AV?$basic_string@DU?$char_traits@D@std@@V?$allocator@D@2@@1@H@Z 10013880 f i BoxESP.obj
 0001:00012900       ___local_stdio_printf_options 10013900 f i BoxESP.obj
 0001:00012910       __scprintf                 10013910 f i BoxESP.obj
 0001:00012940       _sprintf                   10013940 f i BoxESP.obj
 0001:00012980       _sprintf_s                 10013980 f i BoxESP.obj
 0001:000129b0       ?CreateMaterial@CChams@VISUALS@FEATURES@@QAEPAVIMaterial@SDK@@_N00@Z 100139b0 f   Chams.obj
 0001:00012da0       ?DoSceneEnd@CChams@VISUALS@FEATURES@@QAEXXZ 10013da0 f   Chams.obj
 0001:00012e20       ?DrawBacktrackPlayer@CChams@VISUALS@FEATURES@@AAEXPAVCBaseEntity@SDK@@@Z 10013e20 f   Chams.obj
 0001:00012fb0       ?DrawPlayer@CChams@VISUALS@FEATURES@@AAEXPAVCBaseEntity@SDK@@@Z 10013fb0 f   Chams.obj
 0001:000131a0       ?UpdateMaterials@CChams@VISUALS@FEATURES@@AAEXXZ 100141a0 f   Chams.obj
 0001:00013a80       ?Do@CircleStrafer@MISC@FEATURES@@QAEXPAVCUserCmd@SDK@@@Z 10014a80 f   CircleStrafer.obj
 0001:00013c80       ?VerifyRotation@CircleStrafer@MISC@FEATURES@@AAEMM@Z 10014c80 f   CircleStrafer.obj
 0001:00014240       ?EndPrediction@EnginePrediction@MISC@FEATURES@@QBEXXZ 10015240 f   EnginePrediction.obj
 0001:000142a0       ?StartPrediction@EnginePrediction@MISC@FEATURES@@QAEXPAVCUserCmd@SDK@@@Z 100152a0 f   EnginePrediction.obj
 0001:000143b0       ?GetEventDebugID@IGameEventListener@SDK@@UAEHXZ 100153b0 f i EventListeners.obj
 0001:000143c0       ??_EIGameEventListener@SDK@@UAEPAXI@Z 100153c0 f i EventListeners.obj
 0001:000143c0       ??_GIGameEventListener@SDK@@UAEPAXI@Z 100153c0 f i EventListeners.obj
 0001:000143f0       ?FireGameEvent@ItemPurchaseListener@MISC@FEATURES@@UAEXPAVIGameEvent@SDK@@@Z 100153f0 f   EventListeners.obj
 0001:000145e0       ??_GItemPurchaseListener@MISC@FEATURES@@UAEPAXI@Z 100155e0 f i EventListeners.obj
 0001:000145e0       ??_EItemPurchaseListener@MISC@FEATURES@@UAEPAXI@Z 100155e0 f i EventListeners.obj
 0001:00014650       ?FireGameEvent@PlayerHurtListener@MISC@FEATURES@@UAEXPAVIGameEvent@SDK@@@Z 10015650 f   EventListeners.obj
 0001:000149e0       ??_GPlayerHurtListener@MISC@FEATURES@@UAEPAXI@Z 100159e0 f i EventListeners.obj
 0001:000149e0       ??_EPlayerHurtListener@MISC@FEATURES@@UAEPAXI@Z 100159e0 f i EventListeners.obj
 0001:00014a50       ?FireGameEvent@BulletImpactListener@MISC@FEATURES@@UAEXPAVIGameEvent@SDK@@@Z 10015a50 f   EventListeners.obj
 0001:00014cc0       ??_GBulletImpactListener@MISC@FEATURES@@UAEPAXI@Z 10015cc0 f i EventListeners.obj
 0001:00014cc0       ??_EBulletImpactListener@MISC@FEATURES@@UAEPAXI@Z 10015cc0 f i EventListeners.obj
 0001:00014d30       ?FireGameEvent@WeaponFireListener@MISC@FEATURES@@UAEXPAVIGameEvent@SDK@@@Z 10015d30 f   EventListeners.obj
 0001:00014d50       ??_GWeaponFireListener@MISC@FEATURES@@UAEPAXI@Z 10015d50 f i EventListeners.obj
 0001:00014d50       ??_EWeaponFireListener@MISC@FEATURES@@UAEPAXI@Z 10015d50 f i EventListeners.obj
 0001:00014dc0       ??$_Destroy_range@V?$allocator@V?$basic_string@DU?$char_traits@D@std@@V?$allocator@D@2@@std@@@std@@@std@@YAXPAV?$basic_string@DU?$char_traits@D@std@@V?$allocator@D@2@@0@0AAV?$allocator@V?$basic_string@DU?$char_traits@D@std@@V?$allocator@D@2@@std@@@0@@Z 10015dc0 f i EventListeners.obj
 0001:00014e30       ??$_Emplace_reallocate@ABUBulletTracer@BulletTracers@MISC@FEATURES@@@?$vector@UBulletTracer@BulletTracers@MISC@FEATURES@@V?$allocator@UBulletTracer@BulletTracers@MISC@FEATURES@@@std@@@std@@QAEPAUBulletTracer@BulletTracers@MISC@FEATURES@@QAU2345@ABU2345@@Z 10015e30 f i EventListeners.obj
 0001:00014fe0       ??$_Emplace_reallocate@ABULog@InGameLogger@MISC@FEATURES@@@?$vector@ULog@InGameLogger@MISC@FEATURES@@V?$allocator@ULog@InGameLogger@MISC@FEATURES@@@std@@@std@@QAEPAULog@InGameLogger@MISC@FEATURES@@QAU2345@ABU2345@@Z 10015fe0 f i EventListeners.obj
 0001:00015260       ??$_Emplace_reallocate@ABV?$basic_string@DU?$char_traits@D@std@@V?$allocator@D@2@@std@@@?$vector@V?$basic_string@DU?$char_traits@D@std@@V?$allocator@D@2@@std@@V?$allocator@V?$basic_string@DU?$char_traits@D@std@@V?$allocator@D@2@@std@@@2@@std@@QAEPAV?$basic_string@DU?$char_traits@D@std@@V?$allocator@D@2@@1@QAV21@ABV21@@Z 10016260 f i EventListeners.obj
 0001:00015430       ??$_Emplace_reallocate@ABVCColor@@@?$vector@VCColor@@V?$allocator@VCColor@@@std@@@std@@QAEPAVCColor@@QAV2@ABV2@@Z 10016430 f i EventListeners.obj
 0001:000155a0       ??$_Uninitialized_move@PAV?$basic_string@DU?$char_traits@D@std@@V?$allocator@D@2@@std@@PAV12@V?$allocator@V?$basic_string@DU?$char_traits@D@std@@V?$allocator@D@2@@std@@@2@@std@@YAPAV?$basic_string@DU?$char_traits@D@std@@V?$allocator@D@2@@0@QAV10@0PAV10@AAV?$allocator@V?$basic_string@DU?$char_traits@D@std@@V?$allocator@D@2@@std@@@0@@Z 100165a0 f i EventListeners.obj
 0001:00015610       ??$construct@ULog@InGameLogger@MISC@FEATURES@@U1234@@?$_Default_allocator_traits@V?$allocator@ULog@InGameLogger@MISC@FEATURES@@@std@@@std@@SAXAAV?$allocator@ULog@InGameLogger@MISC@FEATURES@@@1@QAULog@InGameLogger@MISC@FEATURES@@$$QAU3456@@Z 10016610 f i EventListeners.obj
 0001:000156a0       ??$emplace@ABULog@InGameLogger@MISC@FEATURES@@@?$vector@ULog@InGameLogger@MISC@FEATURES@@V?$allocator@ULog@InGameLogger@MISC@FEATURES@@@std@@@std@@QAE?AV?$_Vector_iterator@V?$_Vector_val@U?$_Simple_types@ULog@InGameLogger@MISC@FEATURES@@@std@@@std@@@1@V?$_Vector_const_iterator@V?$_Vector_val@U?$_Simple_types@ULog@InGameLogger@MISC@FEATURES@@@std@@@std@@@1@ABULog@InGameLogger@MISC@FEATURES@@@Z 100166a0 f i EventListeners.obj
 0001:00015890       ??0?$basic_string@DU?$char_traits@D@std@@V?$allocator@D@2@@std@@QAE@QBD@Z 10016890 f i EventListeners.obj
 0001:000158d0       ??0?$vector@V?$basic_string@DU?$char_traits@D@std@@V?$allocator@D@2@@std@@V?$allocator@V?$basic_string@DU?$char_traits@D@std@@V?$allocator@D@2@@std@@@2@@std@@QAE@ABV01@@Z 100168d0 f i EventListeners.obj
 0001:000159d0       ??0?$vector@VCColor@@V?$allocator@VCColor@@@std@@@std@@QAE@ABV01@@Z 100169d0 f i EventListeners.obj
 0001:00015a60       ??0Log@InGameLogger@MISC@FEATURES@@QAE@ABU0123@@Z 10016a60 f i EventListeners.obj
 0001:00015ad0       ??0Log@InGameLogger@MISC@FEATURES@@QAE@XZ 10016ad0 f i EventListeners.obj
 0001:00015b50       ??1?$_Uninitialized_backout_al@PAV?$basic_string@DU?$char_traits@D@std@@V?$allocator@D@2@@std@@V?$allocator@V?$basic_string@DU?$char_traits@D@std@@V?$allocator@D@2@@std@@@2@@std@@QAE@XZ 10016b50 f i EventListeners.obj
 0001:00015b70       ??1?$vector@V?$basic_string@DU?$char_traits@D@std@@V?$allocator@D@2@@std@@V?$allocator@V?$basic_string@DU?$char_traits@D@std@@V?$allocator@D@2@@std@@@2@@std@@QAE@XZ 10016b70 f i EventListeners.obj
 0001:00015b80       ??1ColorLine@MISC@FEATURES@@QAE@XZ 10016b80 f i EventListeners.obj
 0001:00015be0       ??1Log@InGameLogger@MISC@FEATURES@@QAE@XZ 10016be0 f i EventListeners.obj
 0001:00015bf0       ??4Log@InGameLogger@MISC@FEATURES@@QAEAAU0123@$$QAU0123@@Z 10016bf0 f i EventListeners.obj
 0001:00015c70       ?AddLog@InGameLogger@MISC@FEATURES@@QAEXULog@123@@Z 10016c70 f i EventListeners.obj
 0001:00015cd0       ?InitializeEventListeners@MISC@FEATURES@@YAXXZ 10016cd0 f   EventListeners.obj
 0001:00015f40       ?PushBack@ColorLine@MISC@FEATURES@@QAEXV?$basic_string@DU?$char_traits@D@std@@V?$allocator@D@2@@std@@VCColor@@@Z 10016f40 f i EventListeners.obj
 0001:00016000       ?RemoveEventListeners@MISC@FEATURES@@YAXXZ 10017000 f   EventListeners.obj
 0001:00016050       ?_Destroy@?$vector@ULog@InGameLogger@MISC@FEATURES@@V?$allocator@ULog@InGameLogger@MISC@FEATURES@@@std@@@std@@AAEXPAULog@InGameLogger@MISC@FEATURES@@0@Z 10017050 f i EventListeners.obj
 0001:00016080       ?_Destroy@?$vector@V?$basic_string@DU?$char_traits@D@std@@V?$allocator@D@2@@std@@V?$allocator@V?$basic_string@DU?$char_traits@D@std@@V?$allocator@D@2@@std@@@2@@std@@AAEXPAV?$basic_string@DU?$char_traits@D@std@@V?$allocator@D@2@@2@0@Z 10017080 f i EventListeners.obj
 0001:000160a0       ?_Tidy@?$vector@V?$basic_string@DU?$char_traits@D@std@@V?$allocator@D@2@@std@@V?$allocator@V?$basic_string@DU?$char_traits@D@std@@V?$allocator@D@2@@std@@@2@@std@@AAEXXZ 100170a0 f i EventListeners.obj
 0001:00016120       ?_Umove@?$vector@ULog@InGameLogger@MISC@FEATURES@@V?$allocator@ULog@InGameLogger@MISC@FEATURES@@@std@@@std@@AAEPAULog@InGameLogger@MISC@FEATURES@@PAU3456@00@Z 10017120 f i EventListeners.obj
 0001:00016170       ?deallocate@?$allocator@V?$basic_string@DU?$char_traits@D@std@@V?$allocator@D@2@@std@@@std@@QAEXQAV?$basic_string@DU?$char_traits@D@std@@V?$allocator@D@2@@2@I@Z 10017170 f i EventListeners.obj
 0001:000161b0       ?Do@Fakewalk@RAGEBOT@FEATURES@@QAEXPAVCUserCmd@SDK@@@Z 100171b0 f   Fakewalk.obj
 0001:000163b0       ??$_Move_unchecked@PAULog@InGameLogger@MISC@FEATURES@@PAU1234@@std@@YAPAULog@InGameLogger@MISC@FEATURES@@PAU1234@00@Z 100173b0 f i InGameLogger.obj
 0001:000164b0       ??1?$vector@ULog@InGameLogger@MISC@FEATURES@@V?$allocator@ULog@InGameLogger@MISC@FEATURES@@@std@@@std@@QAE@XZ 100174b0 f i InGameLogger.obj
 0001:00016540       ?Do@InGameLogger@MISC@FEATURES@@QAEXXZ 10017540 f   InGameLogger.obj
 0001:00016840       ?Draw@ColorLine@MISC@FEATURES@@QAEXHHI@Z 10017840 f   InGameLogger.obj
 0001:00016a60       ?Do@LegitAimbot@LEGITBOT@FEATURES@@QAEXPAVCUserCmd@SDK@@@Z 10017a60 f   Legitbot.obj
 0001:00016b60       ??$?6U?$char_traits@D@std@@@std@@YAAAV?$basic_ostream@DU?$char_traits@D@std@@@0@AAV10@PBD@Z 10017b60 f i Misc.obj
 0001:00016e10       ??$?8DU?$char_traits@D@std@@V?$allocator@D@1@@std@@YA_NABV?$basic_string@DU?$char_traits@D@std@@V?$allocator@D@2@@0@QBD@Z 10017e10 f i Misc.obj
 0001:00016ea0       ??$HookFunction@P6E_NPAXPAUmatrix3x4_t@@HHM@Z@VMTHookManager@VMT@@QAEP6E_NPAXPAUmatrix3x4_t@@HHM@ZH0@Z 10017ea0 f i Misc.obj
 0001:00016f80       ??$_Buynode@ABUpiecewise_construct_t@std@@V?$tuple@ABH@2@V?$tuple@$$V@2@@?$_Tree_comp_alloc@V?$_Tmap_traits@HPAXU?$less@H@std@@V?$allocator@U?$pair@$$CBHPAX@std@@@2@$0A@@std@@@std@@QAEPAU?$_Tree_node@U?$pair@$$CBHPAX@std@@PAX@1@ABUpiecewise_construct_t@1@$$QAV?$tuple@ABH@1@$$QAV?$tuple@$$V@1@@Z 10017f80 f i Misc.obj
 0001:00016fb0       ??$_Emplace_reallocate@ABV?$vector@V?$basic_string@DU?$char_traits@D@std@@V?$allocator@D@2@@std@@V?$allocator@V?$basic_string@DU?$char_traits@D@std@@V?$allocator@D@2@@std@@@2@@std@@@?$vector@V?$vector@V?$basic_string@DU?$char_traits@D@std@@V?$allocator@D@2@@std@@V?$allocator@V?$basic_string@DU?$char_traits@D@std@@V?$allocator@D@2@@std@@@2@@std@@V?$allocator@V?$vector@V?$basic_string@DU?$char_traits@D@std@@V?$allocator@D@2@@std@@V?$allocator@V?$basic_string@DU?$char_traits@D@std@@V?$allocator@D@2@@std@@@2@@std@@@2@@std@@QAEPAV?$vector@V?$basic_string@DU?$char_traits@D@std@@V?$allocator@D@2@@std@@V?$allocator@V?$basic_string@DU?$char_traits@D@std@@V?$allocator@D@2@@std@@@2@@1@QAV21@ABV21@@Z 10017fb0 f i Misc.obj
 0001:000171d0       ??$_Emplace_reallocate@UHitmarker@Hitmarkers@MISC@FEATURES@@@?$vector@UHitmarker@Hitmarkers@MISC@FEATURES@@V?$allocator@UHitmarker@Hitmarkers@MISC@FEATURES@@@std@@@std@@QAEPAUHitmarker@Hitmarkers@MISC@FEATURES@@QAU2345@$$QAU2345@@Z 100181d0 f i Misc.obj
 0001:00017370       ??$_Insert_at@AAU?$pair@$$CBHPAX@std@@PAU?$_Tree_node@U?$pair@$$CBHPAX@std@@PAX@2@@?$_Tree@V?$_Tmap_traits@HPAXU?$less@H@std@@V?$allocator@U?$pair@$$CBHPAX@std@@@2@$0A@@std@@@std@@IAE?AV?$_Tree_iterator@V?$_Tree_val@U?$_Tree_simple_types@U?$pair@$$CBHPAX@std@@@std@@@std@@@1@_NPAU?$_Tree_node@U?$pair@$$CBHPAX@std@@PAX@1@AAU?$pair@$$CBHPAX@1@1@Z 10018370 f i Misc.obj
 0001:000174d0       ??$_Insert_hint@AAU?$pair@$$CBHPAX@std@@PAU?$_Tree_node@U?$pair@$$CBHPAX@std@@PAX@2@@?$_Tree@V?$_Tmap_traits@HPAXU?$less@H@std@@V?$allocator@U?$pair@$$CBHPAX@std@@@2@$0A@@std@@@std@@IAE?AV?$_Tree_iterator@V?$_Tree_val@U?$_Tree_simple_types@U?$pair@$$CBHPAX@std@@@std@@@std@@@1@V?$_Tree_const_iterator@V?$_Tree_val@U?$_Tree_simple_types@U?$pair@$$CBHPAX@std@@@std@@@std@@@1@AAU?$pair@$$CBHPAX@1@PAU?$_Tree_node@U?$pair@$$CBHPAX@std@@PAX@1@@Z 100184d0 f i Misc.obj
 0001:000176f0       ??$_Insert_nohint@AAU?$pair@$$CBHPAX@std@@PAU?$_Tree_node@U?$pair@$$CBHPAX@std@@PAX@2@@?$_Tree@V?$_Tmap_traits@HPAXU?$less@H@std@@V?$allocator@U?$pair@$$CBHPAX@std@@@2@$0A@@std@@@std@@IAE?AU?$pair@V?$_Tree_iterator@V?$_Tree_val@U?$_Tree_simple_types@U?$pair@$$CBHPAX@std@@@std@@@std@@@std@@_N@1@_NAAU?$pair@$$CBHPAX@1@PAU?$_Tree_node@U?$pair@$$CBHPAX@std@@PAX@1@@Z 100186f0 f i Misc.obj
 0001:00017810       ??$_Uninitialized_move@PAV?$vector@V?$basic_string@DU?$char_traits@D@std@@V?$allocator@D@2@@std@@V?$allocator@V?$basic_string@DU?$char_traits@D@std@@V?$allocator@D@2@@std@@@2@@std@@PAV12@V?$allocator@V?$vector@V?$basic_string@DU?$char_traits@D@std@@V?$allocator@D@2@@std@@V?$allocator@V?$basic_string@DU?$char_traits@D@std@@V?$allocator@D@2@@std@@@2@@std@@@2@@std@@YAPAV?$vector@V?$basic_string@DU?$char_traits@D@std@@V?$allocator@D@2@@std@@V?$allocator@V?$basic_string@DU?$char_traits@D@std@@V?$allocator@D@2@@std@@@2@@0@QAV10@0PAV10@AAV?$allocator@V?$vector@V?$basic_string@DU?$char_traits@D@std@@V?$allocator@D@2@@std@@V?$allocator@V?$basic_string@DU?$char_traits@D@std@@V?$allocator@D@2@@std@@@2@@std@@@0@@Z 10018810 f i Misc.obj
 0001:00017880       ??$endl@DU?$char_traits@D@std@@@std@@YAAAV?$basic_ostream@DU?$char_traits@D@std@@@0@AAV10@@Z 10018880 f i Misc.obj
 0001:000178b0       ??$getline@DU?$char_traits@D@std@@V?$allocator@D@2@@std@@YAAAV?$basic_istream@DU?$char_traits@D@std@@@0@$$QAV10@AAV?$basic_string@DU?$char_traits@D@std@@V?$allocator@D@2@@0@D@Z 100188b0 f i Misc.obj
 0001:00017a60       ??0sentry@?$basic_ostream@DU?$char_traits@D@std@@@std@@QAE@AAV12@@Z 10018a60 f i Misc.obj
 0001:00017af0       ??1?$vector@V?$vector@V?$basic_string@DU?$char_traits@D@std@@V?$allocator@D@2@@std@@V?$allocator@V?$basic_string@DU?$char_traits@D@std@@V?$allocator@D@2@@std@@@2@@std@@V?$allocator@V?$vector@V?$basic_string@DU?$char_traits@D@std@@V?$allocator@D@2@@std@@V?$allocator@V?$basic_string@DU?$char_traits@D@std@@V?$allocator@D@2@@std@@@2@@std@@@2@@std@@QAE@XZ 10018af0 f i Misc.obj
 0001:00017b70       ??E?$_Tree_const_iterator@V?$_Tree_val@U?$_Tree_simple_types@U?$pair@$$CBHPAX@std@@@std@@@std@@@std@@QAEAAV01@XZ 10018b70 f i Misc.obj
 0001:00017b70       ??E?$_Tree_unchecked_const_iterator@V?$_Tree_val@U?$_Tree_simple_types@U?$pair@$$CBHPAX@std@@@std@@@std@@U_Iterator_base0@2@@std@@QAEAAV01@XZ 10018b70 f i vmt.obj
 0001:00017bd0       ??F?$_Tree_const_iterator@V?$_Tree_val@U?$_Tree_simple_types@U?$pair@$$CBHPAX@std@@@std@@@std@@@std@@QAEAAV01@XZ 10018bd0 f i Misc.obj
 0001:00018e30       ?AddHitmarker@Hitmarkers@MISC@FEATURES@@QAEXH@Z 10019e30 f   Misc.obj
 0001:00018ed0       ?AutoPistol@MISC@FEATURES@@YAXPAVCUserCmd@SDK@@@Z 10019ed0 f   Misc.obj
 0001:00018fd0       ?AutoRevolver@MISC@FEATURES@@YAXPAVCUserCmd@SDK@@@Z 10019fd0 f   Misc.obj
 0001:00019080       ?Bhop@MISC@FEATURES@@YAXPAVCUserCmd@SDK@@@Z 1001a080 f   Misc.obj
 0001:000190f0       ?ClantagChanger@MISC@FEATURES@@YAXXZ 1001a0f0 f   Misc.obj
 0001:000192c0       ?Do@BulletTracers@MISC@FEATURES@@QAEXXZ 1001a2c0 f   Misc.obj
 0001:00019650       ?Do@Hitmarkers@MISC@FEATURES@@QAEXXZ 1001a650 f   Misc.obj
 0001:00019940       ?DrawMisc@MISC@FEATURES@@YAXXZ 1001a940 f   Misc.obj
 0001:00019d00       ?FNVHashEx@UTILS@@YAIQBDI@Z 1001ad00 f i Misc.obj
 0001:00019d30       ?Fakelag@MISC@FEATURES@@YAXPAVCUserCmd@SDK@@@Z 1001ad30 f   Misc.obj
 0001:0001a160       ?FixMove@MISC@FEATURES@@YAXPAVCUserCmd@SDK@@VVector@@@Z 1001b160 f   Misc.obj
 0001:0001a5e0       ?HookedSetupBones@MISC@FEATURES@@YI_NPAX0PAUmatrix3x4_t@@HHM@Z 1001b5e0 f   Misc.obj
 0001:0001a670       ?LoadUserConfig@MISC@FEATURES@@YAXXZ 1001b670 f   Misc.obj
 0001:0001aae0       ?Misc@MISC@FEATURES@@YAXXZ 1001bae0 f   Misc.obj
 0001:0001ab70       ?Radar@MISC@FEATURES@@YAXXZ 1001bb70 f   Misc.obj
 0001:0001abb0       ?ThirdpersonFSN@MISC@FEATURES@@YAXXZ 1001bbb0 f   Misc.obj
 0001:0001aca0       ?ThirdpersonOV@MISC@FEATURES@@YAXXZ 1001bca0 f   Misc.obj
 0001:0001b040       ?UpdateAngles@MISC@FEATURES@@YAXPAVCUserCmd@SDK@@@Z 1001c040 f   Misc.obj
 0001:0001b080       ?_Buynode0@?$_Tree_comp_alloc@V?$_Tmap_traits@HPAXU?$less@H@std@@V?$allocator@U?$pair@$$CBHPAX@std@@@2@$0A@@std@@@std@@QAEPAU?$_Tree_node@U?$pair@$$CBHPAX@std@@PAX@2@XZ 1001c080 f i Misc.obj
 0001:0001b0a0       ?_Destroy@?$vector@V?$vector@V?$basic_string@DU?$char_traits@D@std@@V?$allocator@D@2@@std@@V?$allocator@V?$basic_string@DU?$char_traits@D@std@@V?$allocator@D@2@@std@@@2@@std@@V?$allocator@V?$vector@V?$basic_string@DU?$char_traits@D@std@@V?$allocator@D@2@@std@@V?$allocator@V?$basic_string@DU?$char_traits@D@std@@V?$allocator@D@2@@std@@@2@@std@@@2@@std@@AAEXPAV?$vector@V?$basic_string@DU?$char_traits@D@std@@V?$allocator@D@2@@std@@V?$allocator@V?$basic_string@DU?$char_traits@D@std@@V?$allocator@D@2@@std@@@2@@2@0@Z 1001c0a0 f i Misc.obj
 0001:0001b0d0       ?_Destroy_if_node@?$_Tree@V?$_Tmap_traits@HPAXU?$less@H@std@@V?$allocator@U?$pair@$$CBHPAX@std@@@2@$0A@@std@@@std@@IAEXPAU?$_Tree_node@U?$pair@$$CBHPAX@std@@PAX@2@@Z 1001c0d0 f i Misc.obj
 0001:0001b0f0       ?_Lrotate@?$_Tree_val@U?$_Tree_simple_types@U?$pair@$$CBIUtab_anim@@@std@@@std@@@std@@QAEXPAU?$_Tree_node@U?$pair@$$CBIUtab_anim@@@std@@PAX@2@@Z 1001c0f0 f i imgui_widgets.obj
 0001:0001b0f0       ?_Lrotate@?$_Tree_val@U?$_Tree_simple_types@U?$pair@$$CBHPAX@std@@@std@@@std@@QAEXPAU?$_Tree_node@U?$pair@$$CBHPAX@std@@PAX@2@@Z 1001c0f0 f i Misc.obj
 0001:0001b150       ?_Rrotate@?$_Tree_val@U?$_Tree_simple_types@U?$pair@$$CBHPAX@std@@@std@@@std@@QAEXPAU?$_Tree_node@U?$pair@$$CBHPAX@std@@PAX@2@@Z 1001c150 f i Misc.obj
 0001:0001b150       ?_Rrotate@?$_Tree_val@U?$_Tree_simple_types@U?$pair@$$CBIUtab_anim@@@std@@@std@@@std@@QAEXPAU?$_Tree_node@U?$pair@$$CBIUtab_anim@@@std@@PAX@2@@Z 1001c150 f i imgui_widgets.obj
 0001:0001b1b0       ?append@?$basic_string@DU?$char_traits@D@std@@V?$allocator@D@2@@std@@QAEAAV12@ID@Z 1001c1b0 f i Misc.obj
 0001:0001b310       ?deallocate@?$allocator@V?$vector@V?$basic_string@DU?$char_traits@D@std@@V?$allocator@D@2@@std@@V?$allocator@V?$basic_string@DU?$char_traits@D@std@@V?$allocator@D@2@@std@@@2@@std@@@std@@QAEXQAV?$vector@V?$basic_string@DU?$char_traits@D@std@@V?$allocator@D@2@@std@@V?$allocator@V?$basic_string@DU?$char_traits@D@std@@V?$allocator@D@2@@std@@@2@@2@I@Z 1001c310 f i Misc.obj
 0001:0001b350       ?erase@?$basic_string@DU?$char_traits@D@std@@V?$allocator@D@2@@std@@QAE?AV?$_String_iterator@V?$_String_val@U?$_Simple_types@D@std@@@std@@@2@V?$_String_const_iterator@V?$_String_val@U?$_Simple_types@D@std@@@std@@@2@0@Z 1001c350 f i Misc.obj
 0001:0001b3c0       ?insert@?$basic_string@DU?$char_traits@D@std@@V?$allocator@D@2@@std@@QAEAAV12@IID@Z 1001c3c0 f i Misc.obj
 0001:0001b560       ?insert@?$vector@V?$basic_string@DU?$char_traits@D@std@@V?$allocator@D@2@@std@@V?$allocator@V?$basic_string@DU?$char_traits@D@std@@V?$allocator@D@2@@std@@@2@@std@@QAE?AV?$_Vector_iterator@V?$_Vector_val@U?$_Simple_types@V?$basic_string@DU?$char_traits@D@std@@V?$allocator@D@2@@std@@@std@@@std@@@2@V?$_Vector_const_iterator@V?$_Vector_val@U?$_Simple_types@V?$basic_string@DU?$char_traits@D@std@@V?$allocator@D@2@@std@@@std@@@std@@@2@ABV?$basic_string@DU?$char_traits@D@std@@V?$allocator@D@2@@2@@Z 1001c560 f i Misc.obj
 0001:0001b6e0       ?push_back@?$basic_string@DU?$char_traits@D@std@@V?$allocator@D@2@@std@@QAEXD@Z 1001c6e0 f i Misc.obj
 0001:0001b7f0       ?put@?$basic_ostream@DU?$char_traits@D@std@@@std@@QAEAAV12@D@Z 1001c7f0 f i Misc.obj
 0001:0001b970       ?snextc@?$basic_streambuf@DU?$char_traits@D@std@@@std@@QAEHXZ 1001c970 f i Misc.obj
 0001:0001b9e0       ?swap@?$basic_filebuf@DU?$char_traits@D@std@@@std@@QAEXAAV12@@Z 1001c9e0 f i Misc.obj
 0001:0001bbc0       ?widen@?$basic_ios@DU?$char_traits@D@std@@@std@@QBEDD@Z 1001cbc0 f i Misc.obj
 0001:0001bc60       ??$?HDU?$char_traits@D@std@@V?$allocator@D@1@@std@@YA?AV?$basic_string@DU?$char_traits@D@std@@V?$allocator@D@2@@0@QBDABV10@@Z 1001cc60 f i Resolver.obj
 0001:0001be20       ??$_Emplace_reallocate@ABUShotSnapshot@Resolver@RAGEBOT@FEATURES@@@?$vector@UShotSnapshot@Resolver@RAGEBOT@FEATURES@@V?$allocator@UShotSnapshot@Resolver@RAGEBOT@FEATURES@@@std@@@std@@QAEPAUShotSnapshot@Resolver@RAGEBOT@FEATURES@@QAU2345@ABU2345@@Z 1001ce20 f i Resolver.obj
 0001:0001c020       ??$_Emplace_reallocate@V?$basic_string@DU?$char_traits@D@std@@V?$allocator@D@2@@std@@@?$vector@V?$basic_string@DU?$char_traits@D@std@@V?$allocator@D@2@@std@@V?$allocator@V?$basic_string@DU?$char_traits@D@std@@V?$allocator@D@2@@std@@@2@@std@@QAEPAV?$basic_string@DU?$char_traits@D@std@@V?$allocator@D@2@@1@QAV21@$$QAV21@@Z 1001d020 f i Resolver.obj
 0001:0001c140       ??$_Emplace_reallocate@VVector@@@?$vector@VVector@@V?$allocator@VVector@@@std@@@std@@QAEPAVVector@@QAV2@$$QAV2@@Z 1001d140 f i Resolver.obj
 0001:0001c330       ??0Log@InGameLogger@MISC@FEATURES@@QAE@V?$basic_string@DU?$char_traits@D@std@@V?$allocator@D@2@@std@@VCColor@@@Z 1001d330 f i Resolver.obj
 0001:0001c4c0       ??1?$vector@UShotSnapshot@Resolver@RAGEBOT@FEATURES@@V?$allocator@UShotSnapshot@Resolver@RAGEBOT@FEATURES@@@std@@@std@@QAE@XZ 1001d4c0 f i Resolver.obj
 0001:0001c530       ??1?$vector@VVector@@V?$allocator@VVector@@@std@@@std@@QAE@XZ 1001d530 f i Resolver.obj
 0001:0001c5a0       ??4ColorLine@MISC@FEATURES@@QAEAAV012@$$QAV012@@Z 1001d5a0 f i Resolver.obj
 0001:0001c620       ?AddShotSnapshot@Resolver@RAGEBOT@FEATURES@@QAEXPAVCBaseEntity@SDK@@VPlayerResolveRecord@123@@Z 1001d620 f   Resolver.obj
 0001:0001c6e0       ?DoCM@Resolver@RAGEBOT@FEATURES@@QAEXXZ 1001d6e0 f   Resolver.obj
 0001:0001cdd0       ?DoFSN@Resolver@RAGEBOT@FEATURES@@QAEXXZ 1001ddd0 f   Resolver.obj
 0001:0001cf90       ?EventCallback@Resolver@RAGEBOT@FEATURES@@QAEXPAVIGameEvent@SDK@@@Z 1001df90 f   Resolver.obj
 0001:0001d200       ?GetResolveColor@Resolver@RAGEBOT@FEATURES@@QAE?AVCColor@@G@Z 1001e200 f   Resolver.obj
 0001:0001d260       ?GetResolveTypeIndex@Resolver@RAGEBOT@FEATURES@@QAEHG@Z 1001e260 f   Resolver.obj
 0001:0001d2f0       ?IsFakingYaw@Resolver@RAGEBOT@FEATURES@@QAE_NPAVCBaseEntity@SDK@@@Z 1001e2f0 f   Resolver.obj
 0001:0001d380       ?ProcessSnapShots@Resolver@RAGEBOT@FEATURES@@AAEXXZ 1001e380 f   Resolver.obj
 0001:0001d7b0       ?ResolveYaw@Resolver@RAGEBOT@FEATURES@@AAEXPAVCBaseEntity@SDK@@@Z 1001e7b0 f   Resolver.obj
 0001:0001df00       ?TranslateResolveRecord@Resolver@RAGEBOT@FEATURES@@QAE?AV?$basic_string@DU?$char_traits@D@std@@V?$allocator@D@2@@std@@G@Z 1001ef00 f   Resolver.obj
 0001:0001e5f0       ?UpdateResolveRecord@Resolver@RAGEBOT@FEATURES@@AAEXPAVCBaseEntity@SDK@@@Z 1001f5f0 f   Resolver.obj
 0001:0001ec20       ?_Become_small@?$basic_string@DU?$char_traits@D@std@@V?$allocator@D@2@@std@@QAEXXZ 1001fc20 f i Resolver.obj
 0001:0001ec70       ?_Change_array@?$vector@V?$basic_string@DU?$char_traits@D@std@@V?$allocator@D@2@@std@@V?$allocator@V?$basic_string@DU?$char_traits@D@std@@V?$allocator@D@2@@std@@@2@@std@@AAEXQAV?$basic_string@DU?$char_traits@D@std@@V?$allocator@D@2@@2@II@Z 1001fc70 f i Resolver.obj
 0001:0001ed00       ?push_back@?$vector@V?$basic_string@DU?$char_traits@D@std@@V?$allocator@D@2@@std@@V?$allocator@V?$basic_string@DU?$char_traits@D@std@@V?$allocator@D@2@@std@@@2@@std@@QAEX$$QAV?$basic_string@DU?$char_traits@D@std@@V?$allocator@D@2@@2@@Z 1001fd00 f i Resolver.obj
 0001:0001ed60       ??0MainConfig@SETTINGS@@QAE@XZ 1001fd60 f i Configurations.obj
 0001:0001efd0       ?CreateConfig@Configuration@SETTINGS@@SA_NPBD0@Z 1001ffd0 f   Configurations.obj
 0001:0001f0b0       ?DeleteConfig@Configuration@SETTINGS@@SA_NPBD0@Z 100200b0 f   Configurations.obj
 0001:0001f100       ?GetConfigs@Configuration@SETTINGS@@SAHPAY0BAA@DPBD@Z 10020100 f   Configurations.obj
 0001:0001f280       ?Load@Configuration@SETTINGS@@QAE_NPBDI@Z 10020280 f   Configurations.obj
 0001:0001f5b0       ?Save@Configuration@SETTINGS@@QAE_NPBDI@Z 100205b0 f   Configurations.obj
 0001:0001f710       ?Do@SkeletonESP@VISUALS@FEATURES@@QAEXXZ 10020710 f   SkeletonESP.obj
 0001:0001f8a0       ?DrawSkeleton@SkeletonESP@VISUALS@FEATURES@@QAEXPAVCBaseEntity@SDK@@VCColor@@PBUmatrix3x4_t@@@Z 100208a0 f   SkeletonESP.obj
 0001:0001fdb0       ??0SkinChanger@MISC@FEATURES@@QAE@XZ 10020db0 f i SkinChanger.obj
 0001:0002aa20       ?Do@SkinChanger@MISC@FEATURES@@QAEXXZ 1002ba20 f   SkinChanger.obj
 0001:0002ad00       ?Do@VisualizeBacktrack@VISUALS@FEATURES@@QAEXXZ 1002bd00 f   VisualizeBacktrack.obj
 0001:0002b060       ?Do@VISUALS@FEATURES@@YAXXZ 1002c060 f   Visuals.obj
 0001:0002b640       ?DisableFlashDuration@VisualsMisc@VISUALS@FEATURES@@QAEXXZ 1002c640 f   VisualsMisc.obj
 0001:0002b680       ?Do@VisualsMisc@VISUALS@FEATURES@@QAEXXZ 1002c680 f   VisualsMisc.obj
 0001:0002b830       ?DrawAutowallCrosshair@VisualsMisc@VISUALS@FEATURES@@AAEXXZ 1002c830 f   VisualsMisc.obj
 0001:0002bb50       ?DrawGrenadePrediction@VisualsMisc@VISUALS@FEATURES@@AAEXXZ 1002cb50 f   VisualsMisc.obj
 0001:0002cba0       ?DrawSnaplines@VisualsMisc@VISUALS@FEATURES@@AAEXXZ 1002dba0 f   VisualsMisc.obj
 0001:0002ce10       ?DrawSpreadCircle@VisualsMisc@VISUALS@FEATURES@@AAEXXZ 1002de10 f   VisualsMisc.obj
 0001:0002d460       ?NoSmoke@VisualsMisc@VISUALS@FEATURES@@QAEXXZ 1002e460 f   VisualsMisc.obj
 0001:0002d5f0       ??0WorldTextures@VISUALS@FEATURES@@QAE@XZ 1002e5f0 f i World Textures.obj
 0001:0002dc90       ?DoFSN@WorldTextures@VISUALS@FEATURES@@QAEXXZ 1002ec90 f   World Textures.obj
 0001:0002e200       ??0?$ImVector@PAUImDrawList@@@@QAE@XZ 1002f200 f i imgui.obj
 0001:0002e220       ??0ImDrawList@@QAE@PBUImDrawListSharedData@@@Z 1002f220 f i imgui.obj
 0001:0002e320       ??0ImGuiContext@@QAE@PAUImFontAtlas@@@Z 1002f320 f i imgui.obj
 0001:0002f110       ??0ImGuiIO@@QAE@XZ         10030110 f   imgui.obj
 0001:0002f3e0       ??0ImGuiStyle@@QAE@XZ      100303e0 f   imgui.obj
 0001:0002f630       ??0ImGuiWindow@@QAE@PAUImGuiContext@@PBD@Z 10030630 f   imgui.obj
 0001:0002fc90       ??0ImRect@@QAE@XZ          10030c90 f i imgui.obj
 0001:0002fcb0       ??0ImVec2@@QAE@XZ          10030cb0 f i imgui.obj
 0001:0002fcc0       ??0ImVec4@@QAE@XZ          10030cc0 f i imgui.obj
 0001:0002fce0       ??1?$ImChunkStream@UImGuiWindowSettings@@@@QAE@XZ 10030ce0 f i imgui.obj
 0001:0002fce0       ??1ImGuiTextBuffer@@QAE@XZ 10030ce0 f i imgui.obj
 0001:0002fce0       ??1?$ImChunkStream@UImGuiTableSettings@@@@QAE@XZ 10030ce0 f i imgui.obj
 0001:0002fce0       ??1ImGuiStorage@@QAE@XZ    10030ce0 f i imgui.obj
 0001:0002fd40       ??1?$ImPool@UImGuiTabBar@@@@QAE@XZ 10030d40 f i imgui.obj
 0001:0002fde0       ??1?$ImPool@UImGuiTable@@@@QAE@XZ 10030de0 f i imgui.obj
 0001:0002fe80       ??1?$ImVector@G@@QAE@XZ    10030e80 f i imgui.obj
 0001:0002fe80       ??1?$ImVector@UImGuiGroupData@@@@QAE@XZ 10030e80 f i imgui.obj
 0001:0002fe80       ??1?$ImVector@UImGuiStyleMod@@@@QAE@XZ 10030e80 f i imgui.obj
 0001:0002fe80       ??1?$ImVector@UImGuiPtrOrIndex@@@@QAE@XZ 10030e80 f i imgui.obj
 0001:0002fe80       ??1?$ImVector@UImGuiPopupData@@@@QAE@XZ 10030e80 f i imgui.obj
 0001:0002fe80       ??1?$ImVector@E@@QAE@XZ    10030e80 f i imgui.obj
 0001:0002fe80       ??1?$ImVector@PAUImGuiWindow@@@@QAE@XZ 10030e80 f i imgui.obj
 0001:0002fe80       ??1?$ImVector@UImGuiColorMod@@@@QAE@XZ 10030e80 f i imgui.obj
 0001:0002fe80       ??1?$ImVector@I@@QAE@XZ    10030e80 f i imgui.obj
 0001:0002fe80       ??1?$ImVector@UImGuiOldColumns@@@@QAE@XZ 10030e80 f i imgui.obj
 0001:0002fe80       ??1?$ImVector@PAUImDrawList@@@@QAE@XZ 10030e80 f i imgui.obj
 0001:0002fe80       ??1?$ImVector@M@@QAE@XZ    10030e80 f i imgui.obj
 0001:0002fe80       ??1?$ImVector@PAUImFont@@@@QAE@XZ 10030e80 f i imgui.obj
 0001:0002fe80       ??1?$ImVector@UImGuiSettingsHandler@@@@QAE@XZ 10030e80 f i imgui.obj
 0001:0002fe80       ??1?$ImVector@H@@QAE@XZ    10030e80 f i imgui.obj
 0001:0002fe80       ??1?$ImVector@UImDrawChannel@@@@QAE@XZ 10030e80 f i imgui.obj
 0001:0002fe80       ??1?$ImVector@UImGuiShrinkWidthItem@@@@QAE@XZ 10030e80 f i imgui.obj
 0001:0002fe80       ??1?$ImVector@UImGuiContextHook@@@@QAE@XZ 10030e80 f i imgui.obj
 0001:0002fe80       ??1?$ImVector@PAUImGuiViewportP@@@@QAE@XZ 10030e80 f i imgui.obj
 0001:0002fe80       ??1?$ImVector@D@@QAE@XZ    10030e80 f i imgui.obj
 0001:0002fee0       ??1ImDrawList@@QAE@XZ      10030ee0 f i imgui.obj
 0001:00030070       ??1ImGuiIO@@QAE@XZ         10031070 f i imgui.obj
 0001:000300e0       ??1ImGuiInputTextState@@QAE@XZ 100310e0 f i imgui.obj
 0001:000301a0       ??1ImGuiWindowTempData@@QAE@XZ 100311a0 f i imgui.obj
 0001:00030360       ?AddInputCharacterUTF16@ImGuiIO@@QAEXG@Z 10031360 f   imgui.obj
 0001:00030650       ?Begin@ImGui@@YA_NPBDPA_NH@Z 10031650 f   imgui.obj
 0001:000328f0       ?BeginChildEx@ImGui@@YA_NPBDIABUImVec2@@_NH@Z 100338f0 f   imgui.obj
 0001:00032ae0       ?BeginGroup@ImGui@@YAXXZ   10033ae0 f   imgui.obj
 0001:00032c30       ?BeginTooltipEx@ImGui@@YAXHH@Z 10033c30 f   imgui.obj
 0001:00032d80       ?CalcFontSize@ImGuiWindow@@QBEMXZ 10033d80 f i imgui.obj
 0001:00032dc0       ?CalcItemSize@ImGui@@YA?AUImVec2@@U2@MM@Z 10033dc0 f   imgui.obj
 0001:00032e90       ?CalcItemWidth@ImGui@@YAMXZ 10033e90 f   imgui.obj
 0001:00033260       ?CalcTextSize@ImGui@@YA?AUImVec2@@PBD0_NM@Z 10034260 f   imgui.obj
 0001:00033320       ?CalcTypematicRepeatAmount@ImGui@@YAHMMMM@Z 10034320 f   imgui.obj
 0001:00033960       ?CalcWrapWidthForPos@ImGui@@YAMABUImVec2@@M@Z 10034960 f   imgui.obj
 0001:000339c0       ?CallContextHooks@ImGui@@YAXPAUImGuiContext@@W4ImGuiContextHookType@@@Z 100349c0 f   imgui.obj
 0001:00033b00       ?Clear@?$ImPool@UImGuiTabBar@@@@QAEXXZ 10034b00 f i imgui.obj
 0001:00033c90       ?Clear@?$ImPool@UImGuiTable@@@@QAEXXZ 10034c90 f i imgui.obj
 0001:00033e90       ?ClearActiveID@ImGui@@YAXXZ 10034e90 f   imgui.obj
 0001:00033f20       ?ClearDragDrop@ImGui@@YAXXZ 10034f20 f   imgui.obj
 0001:00034010       ?CloseCurrentPopup@ImGui@@YAXXZ 10035010 f   imgui.obj
 0001:00034140       ?ClosePopupToLevel@ImGui@@YAXH_N@Z 10035140 f   imgui.obj
 0001:00034270       ?ClosePopupsOverWindow@ImGui@@YAXPAUImGuiWindow@@_N@Z 10035270 f   imgui.obj
 0001:000343e0       ?ColorConvertFloat4ToU32@ImGui@@YAIABUImVec4@@@Z 100353e0 f   imgui.obj
 0001:000344a0       ?Contains@ImRect@@QBE_NABUImVec2@@@Z 100354a0 f i imgui.obj
 0001:000344e0       ?CreateContext@ImGui@@YAPAUImGuiContext@@PAUImFontAtlas@@@Z 100354e0 f   imgui.obj
 0001:00034920       ?CreateNewWindowSettings@ImGui@@YAPAUImGuiWindowSettings@@PBD@Z 10035920 f   imgui.obj
 0001:000349f0       ?End@ImGui@@YAXXZ          100359f0 f   imgui.obj
 0001:00034df0       ?EndChild@ImGui@@YAXXZ     10035df0 f   imgui.obj
 0001:00034ff0       ?EndFrame@ImGui@@YAXXZ     10035ff0 f   imgui.obj
 0001:000353e0       ?EndGroup@ImGui@@YAXXZ     100363e0 f   imgui.obj
 0001:000358e0       ?FindBestWindowPosForPopup@ImGui@@YA?AUImVec2@@PAUImGuiWindow@@@Z 100368e0 f   imgui.obj
 0001:00035c50       ?FindBestWindowPosForPopupEx@ImGui@@YA?AUImVec2@@ABU2@0PAHABUImRect@@2W4ImGuiPopupPositionPolicy@@@Z 10036c50 f   imgui.obj
 0001:000361e0       ?FindWindowByID@ImGui@@YAPAUImGuiWindow@@I@Z 100371e0 f   imgui.obj
 0001:00036250       ?FindWindowByName@ImGui@@YAPAUImGuiWindow@@PBD@Z 10037250 f   imgui.obj
 0001:000363b0       ?FindWindowSettings@ImGui@@YAPAUImGuiWindowSettings@@I@Z 100373b0 f   imgui.obj
 0001:00036460       ?FocusTopMostWindowUnderOne@ImGui@@YAXPAUImGuiWindow@@0@Z 10037460 f   imgui.obj
 0001:00036520       ?FocusWindow@ImGui@@YAXPAUImGuiWindow@@@Z 10037520 f   imgui.obj
 0001:00036880       ?FocusableItemRegister@ImGui@@YA_NPAUImGuiWindow@@I@Z 10037880 f   imgui.obj
 0001:00036900       ?FocusableItemUnregister@ImGui@@YAXPAUImGuiWindow@@@Z 10037900 f   imgui.obj
 0001:00036920       ?GetClipboardText@ImGui@@YAPBDXZ 10037920 f   imgui.obj
 0001:00036a40       ?GetColorU32@ImGui@@YAIHM@Z 10037a40 f   imgui.obj
 0001:00036b20       ?GetCurrentContext@ImGui@@YAPAUImGuiContext@@XZ 10037b20 f   imgui.obj
 0001:00036b30       ?GetDrawData@ImGui@@YAPAUImDrawData@@XZ 10037b30 f   imgui.obj
 0001:00036b70       ?GetForegroundDrawList@ImGui@@YAPAUImDrawList@@XZ 10037b70 f   imgui.obj
 0001:00036bb0       ?GetFrameHeight@ImGui@@YAMXZ 10037bb0 f   imgui.obj
 0001:00036be0       ?GetID@ImGuiWindow@@QAEIH@Z 10037be0 f   imgui.obj
 0001:00036c70       ?GetID@ImGuiWindow@@QAEIPBD0@Z 10037c70 f   imgui.obj
 0001:00036cf0       ?GetIDNoKeepAlive@ImGuiWindow@@QAEIPBD0@Z 10037cf0 f   imgui.obj
 0001:00036d50       ?GetIO@ImGui@@YAAAUImGuiIO@@XZ 10037d50 f   imgui.obj
 0001:00036d80       ?GetMainViewport@ImGui@@YAPAUImGuiViewport@@XZ 10037d80 f   imgui.obj
 0001:00036dc0       ?GetMergedKeyModFlags@ImGui@@YAHXZ 10037dc0 f   imgui.obj
 0001:00036e10       ?GetMouseCursor@ImGui@@YAHXZ 10037e10 f   imgui.obj
 0001:00036e20       ?GetNavInputAmount2d@ImGui@@YA?AUImVec2@@HW4ImGuiInputReadMode@@MM@Z 10037e20 f   imgui.obj
 0001:00036ff0       ?GetNavInputAmount@ImGui@@YAMHW4ImGuiInputReadMode@@@Z 10037ff0 f   imgui.obj
 0001:000372d0       ?GetScrollMaxY@ImGui@@YAMXZ 100382d0 f   imgui.obj
 0001:000372e0       ?GetStyle@ImGui@@YAAAUImGuiStyle@@XZ 100382e0 f   imgui.obj
 0001:00037310       ?GetTextLineHeight@ImGui@@YAMXZ 10038310 f   imgui.obj
 0001:00037320       ?GetTopMostPopupModal@ImGui@@YAPAUImGuiWindow@@XZ 10038320 f   imgui.obj
 0001:000374a0       ?GetWindowDrawList@ImGui@@YAPAUImDrawList@@XZ 100384a0 f   imgui.obj
 0001:000374c0       ?GetWindowPos@ImGui@@YA?AUImVec2@@XZ 100384c0 f   imgui.obj
 0001:000374e0       ?GetWindowSize@ImGui@@YA?AUImVec2@@XZ 100384e0 f   imgui.obj
 0001:00037500       ?ImFileLoadToMemory@@YAPAXPBD0PAIH@Z 10038500 f   imgui.obj
 0001:00037640       ?ImFileOpen@@YAPAU_iobuf@@PBD0@Z 10038640 f   imgui.obj
 0001:000377c0       ?ImFormatString@@YAHPADIPBDZZ 100387c0 f   imgui.obj
 0001:00037810       ?ImFormatStringV@@YAHPADIPBD0@Z 10038810 f   imgui.obj
 0001:00037860       ?ImHashStr@@YAIPBDII@Z     10038860 f   imgui.obj
 0001:000378f0       ?ImStrSkipBlank@@YAPBDPBD@Z 100388f0 f   imgui.obj
 0001:00037910       ?ImStrTrimBlanks@@YAXPAD@Z 10038910 f   imgui.obj
 0001:00037970       ?ImStrbolW@@YAPBGPBG0@Z    10038970 f   imgui.obj
 0001:00037990       ?ImStrncpy@@YAXPADPBDI@Z   10038990 f   imgui.obj
 0001:000379c0       ?ImTextCharFromUtf8@@YAHPAIPBD1@Z 100389c0 f   imgui.obj
 0001:00037b20       ?ImTextCountCharsFromUtf8@@YAHPBD0@Z 10038b20 f   imgui.obj
 0001:00037cc0       ?ImTextCountUtf8BytesFromStr@@YAHPBG0@Z 10038cc0 f   imgui.obj
 0001:00037d20       ?ImTextStrFromUtf8@@YAHPAGHPBD1PAPBD@Z 10038d20 f   imgui.obj
 0001:00037f00       ?ImTextStrToUtf8@@YAHPADHPBG1@Z 10038f00 f   imgui.obj
 0001:00038050       ?Initialize@ImGui@@YAXPAUImGuiContext@@@Z 10039050 f   imgui.obj
 0001:00038450       ?IsAnyMouseDown@ImGui@@YA_NXZ 10039450 f   imgui.obj
 0001:00038480       ?IsClippedEx@ImGui@@YA_NABUImRect@@I_N@Z 10039480 f   imgui.obj
 0001:000384f0       ?IsItemActive@ImGui@@YA_NXZ 100394f0 f   imgui.obj
 0001:00038520       ?IsItemHovered@ImGui@@YA_NH@Z 10039520 f   imgui.obj
 0001:00038620       ?IsKeyDown@ImGui@@YA_NH@Z  10039620 f   imgui.obj
 0001:00038670       ?IsKeyPressed@ImGui@@YA_NH_N@Z 10039670 f   imgui.obj
 0001:000387e0       ?IsMouseClicked@ImGui@@YA_NH_N@Z 100397e0 f   imgui.obj
 0001:00038880       ?IsMouseDown@ImGui@@YA_NH@Z 10039880 f   imgui.obj
 0001:000388c0       ?IsMouseDragging@ImGui@@YA_NHM@Z 100398c0 f   imgui.obj
 0001:00038960       ?IsMouseHoveringRect@ImGui@@YA_NABUImVec2@@0_N@Z 10039960 f   imgui.obj
 0001:00038a20       ?IsMousePosValid@ImGui@@YA_NPBUImVec2@@@Z 10039a20 f   imgui.obj
 0001:00038a80       ?IsPopupOpen@ImGui@@YA_NIH@Z 10039a80 f   imgui.obj
 0001:00038bd0       ?ItemAdd@ImGui@@YA_NABUImRect@@IPBU2@@Z 10039bd0 f   imgui.obj
 0001:00038d80       ?ItemHoverable@ImGui@@YA_NABUImRect@@I@Z 10039d80 f   imgui.obj
 0001:00038f50       ?ItemSize@ImGui@@YAXABUImRect@@M@Z 10039f50 f   imgui.obj
 0001:00038fa0       ?ItemSize@ImGui@@YAXABUImVec2@@M@Z 10039fa0 f   imgui.obj
 0001:000390e0       ?KeepAliveID@ImGui@@YAXI@Z 1003a0e0 f   imgui.obj
 0001:00039110       ?LoadIniSettingsFromMemory@ImGui@@YAXPBDI@Z 1003a110 f   imgui.obj
 0001:00039540       ?LogRenderedText@ImGui@@YAXPBUImVec2@@PBD1@Z 1003a540 f   imgui.obj
 0001:00039700       ?LogSetNextTextDecoration@ImGui@@YAXPBD0@Z 1003a700 f   imgui.obj
 0001:00039720       ?LogText@ImGui@@YAXPBDZZ   1003a720 f   imgui.obj
 0001:000397e0       ?MarkIniSettingsDirty@ImGui@@YAXPAUImGuiWindow@@@Z 1003a7e0 f   imgui.obj
 0001:00039810       ?MarkItemEdited@ImGui@@YAXI@Z 1003a810 f   imgui.obj
 0001:00039870       ?MemAlloc@ImGui@@YAPAXI@Z  1003a870 f   imgui.obj
 0001:000398a0       ?MemFree@ImGui@@YAXPAX@Z   1003a8a0 f   imgui.obj
 0001:000398d0       ?MenuChild@ImGui@@YA_NPBDABUImVec2@@_NH@Z 1003a8d0 f   imgui.obj
 0001:00039de0       ?NavInitWindow@ImGui@@YAXPAUImGuiWindow@@_N@Z 1003ade0 f   imgui.obj
 0001:00039ea0       ?NavMoveRequestForward@ImGui@@YAXHHABUImRect@@H@Z 1003aea0 f   imgui.obj
 0001:0003cb00       ?NewFrame@ImGui@@YAXXZ     1003db00 f   imgui.obj
 0001:0003ddf0       ?PopClipRect@ImGui@@YAXXZ  1003edf0 f   imgui.obj
 0001:0003de70       ?PopFont@ImGui@@YAXXZ      1003ee70 f   imgui.obj
 0001:0003df40       ?PopID@ImGui@@YAXXZ        1003ef40 f   imgui.obj
 0001:0003dfa0       ?PopItemWidth@ImGui@@YAXXZ 1003efa0 f   imgui.obj
 0001:0003e030       ?PopStyleColor@ImGui@@YAXH@Z 1003f030 f   imgui.obj
 0001:0003e0c0       ?PopStyleVar@ImGui@@YAXH@Z 1003f0c0 f   imgui.obj
 0001:0003e1d0       ?PushClipRect@ImGui@@YAXABUImVec2@@0_N@Z 1003f1d0 f   imgui.obj
 0001:0003e260       ?PushFont@ImGui@@YAXPAUImFont@@@Z 1003f260 f   imgui.obj
 0001:0003e390       ?PushID@ImGui@@YAXPBD@Z    1003f390 f   imgui.obj
 0001:0003e430       ?PushStyleColor@ImGui@@YAXHABUImVec4@@@Z 1003f430 f   imgui.obj
 0001:0003e480       ?PushStyleVar@ImGui@@YAXHM@Z 1003f480 f   imgui.obj
 0001:0003e530       ?Render@ImGui@@YAXXZ       1003f530 f   imgui.obj
 0001:0003ea10       ?RenderFrame@ImGui@@YAXUImVec2@@0I_NM@Z 1003fa10 f   imgui.obj
 0001:0003eb30       ?RenderNavHighlight@ImGui@@YAXABUImRect@@IH@Z 1003fb30 f   imgui.obj
 0001:0003ed80       ?RenderText@ImGui@@YAXUImVec2@@PBD1_N@Z 1003fd80 f   imgui.obj
 0001:0003ee40       ?RenderTextClipped@ImGui@@YAXABUImVec2@@0PBD1PBU2@0PBUImRect@@@Z 1003fe40 f   imgui.obj
 0001:0003eed0       ?RenderTextClippedEx@ImGui@@YAXPAUImDrawList@@ABUImVec2@@1PBD2PBU3@1PBUImRect@@@Z 1003fed0 f   imgui.obj
 0001:0003f0b0       ?RenderTextWrapped@ImGui@@YAXUImVec2@@PBD1M@Z 100400b0 f   imgui.obj
 0001:000403d0       ?SameLine@ImGui@@YAXMM@Z   100413d0 f   imgui.obj
 0001:000404a0       ?SaveIniSettingsToDisk@ImGui@@YAXPBD@Z 100414a0 f   imgui.obj
 0001:00040500       ?SaveIniSettingsToMemory@ImGui@@YAPBDPAI@Z 10041500 f   imgui.obj
 0001:000405f0       ?ScrollToBringRectIntoView@ImGui@@YA?AUImVec2@@PAUImGuiWindow@@ABUImRect@@@Z 100415f0 f   imgui.obj
 0001:000407f0       ?SetActiveID@ImGui@@YAXIPAUImGuiWindow@@@Z 100417f0 f   imgui.obj
 0001:000408d0       ?SetClipboardText@ImGui@@YAXPBD@Z 100418d0 f   imgui.obj
 0001:00040990       ?SetCurrentFont@ImGui@@YAXPAUImFont@@@Z 10041990 f   imgui.obj
 0001:00040b20       ?SetCursorPosX@ImGui@@YAXM@Z 10041b20 f   imgui.obj
 0001:00040b70       ?SetCursorPosY@ImGui@@YAXM@Z 10041b70 f   imgui.obj
 0001:00040bc0       ?SetFocusID@ImGui@@YAXIPAUImGuiWindow@@@Z 10041bc0 f   imgui.obj
 0001:00040cb0       ?SetHoveredID@ImGui@@YAXI@Z 10041cb0 f   imgui.obj
 0001:00040cf0       ?SetItemAllowOverlap@ImGui@@YAXXZ 10041cf0 f   imgui.obj
 0001:00040d30       ?SetNavID@ImGui@@YAXIHIABUImRect@@@Z 10041d30 f   imgui.obj
 0001:00040dc0       ?SetNextWindowSize@ImGui@@YAXABUImVec2@@H@Z 10041dc0 f   imgui.obj
 0001:00040e20       ?SetScrollFromPosX@ImGui@@YAXPAUImGuiWindow@@MM@Z 10041e20 f   imgui.obj
 0001:00040e90       ?SetScrollFromPosY@ImGui@@YAXPAUImGuiWindow@@MM@Z 10041e90 f   imgui.obj
 0001:00040f90       ?SetScrollY@ImGui@@YAXPAUImGuiWindow@@M@Z 10041f90 f   imgui.obj
 0001:00040fb0       ?SetTooltip@ImGui@@YAXPBDZZ 10041fb0 f   imgui.obj
 0001:00041000       ?SetWindowPos@ImGui@@YAXPAUImGuiWindow@@ABUImVec2@@H@Z 10042000 f   imgui.obj
 0001:00041140       ?SetWindowSize@ImGui@@YAXPAUImGuiWindow@@ABUImVec2@@H@Z 10042140 f   imgui.obj
 0001:00041250       ?StartMouseMovingWindow@ImGui@@YAXPAUImGuiWindow@@@Z 10042250 f   imgui.obj
 0001:000412d0       ?TitleBarRect@ImGuiWindow@@QBE?AUImRect@@XZ 100422d0 f i imgui.obj
 0001:00041350       ?UpdateHoveredWindowAndCaptureFlags@ImGui@@YAXXZ 10042350 f   imgui.obj
 0001:00041a30       ?UpdateMouseMovingWindowEndFrame@ImGui@@YAXXZ 10042a30 f   imgui.obj
 0001:00042fe0       ?append@ImGuiTextBuffer@@QAEXPBD0@Z 10043fe0 f   imgui.obj
 0001:000430d0       ?appendf@ImGuiTextBuffer@@QAAXPBDZZ 100440d0 f   imgui.obj
 0001:000430f0       ?appendfv@ImGuiTextBuffer@@QAEXPBDPAD@Z 100440f0 f   imgui.obj
 0001:00043200       ?back@?$ImVector@UImGuiPopupData@@@@QAEAAUImGuiPopupData@@XZ 10044200 f i imgui.obj
 0001:00043230       ?beginchildex@ImGui@@YA_NPBDIABUImVec2@@_NH@Z 10044230 f   imgui.obj
 0001:000437c0       ?insert@?$ImVector@UImGuiStoragePair@ImGuiStorage@@@@QAEPAUImGuiStoragePair@ImGuiStorage@@PBU23@ABU23@@Z 100447c0 f i imgui.obj
 0001:000438e0       ?offset_from_ptr@?$ImChunkStream@UImGuiWindowSettings@@@@QAEHPBUImGuiWindowSettings@@@Z 100448e0 f i imgui.obj
 0001:00043930       ?push_back@?$ImVector@G@@QAEXABG@Z 10044930 f i imgui.obj
 0001:00043980       ?push_back@?$ImVector@PAUImGuiWindow@@@@QAEXABQAUImGuiWindow@@@Z 10044980 f i imgui.obj
 0001:000439d0       ?push_back@?$ImVector@UImGuiColorMod@@@@QAEXABUImGuiColorMod@@@Z 100449d0 f i imgui.obj
 0001:00043aa0       ?push_back@?$ImVector@UImGuiPopupData@@@@QAEXABUImGuiPopupData@@@Z 10044aa0 f i imgui.obj
 0001:00043b00       ?push_back@?$ImVector@UImGuiStyleMod@@@@QAEXABUImGuiStyleMod@@@Z 10044b00 f i imgui.obj
 0001:00043bd0       ?reserve@?$ImVector@D@@QAEXH@Z 10044bd0 f i imgui.obj
 0001:00043c50       ?reserve@?$ImVector@G@@QAEXH@Z 10044c50 f i imgui.obj
 0001:00043cd0       ?reserve@?$ImVector@I@@QAEXH@Z 10044cd0 f i imgui.obj
 0001:00043cd0       ?reserve@?$ImVector@PAUImGuiWindow@@@@QAEXH@Z 10044cd0 f i imgui.obj
 0001:00043cd0       ?reserve@?$ImVector@PAUImDrawList@@@@QAEXH@Z 10044cd0 f i imgui.obj
 0001:00043cd0       ?reserve@?$ImVector@H@@QAEXH@Z 10044cd0 f i imgui.obj
 0001:00043cd0       ?reserve@?$ImVector@M@@QAEXH@Z 10044cd0 f i imgui.obj
 0001:00043d60       ?reserve@?$ImVector@UImGuiPopupData@@@@QAEXH@Z 10044d60 f i imgui.obj
 0001:00043df0       ?resize@?$ImVector@D@@QAEXH@Z 10044df0 f i imgui.obj
 0001:00043e30       ?resize@?$ImVector@UImGuiGroupData@@@@QAEXH@Z 10044e30 f i imgui.obj
 0001:00043ef0       ___local_stdio_scanf_options 10044ef0 f i imgui.obj
 0001:00043f00       _sscanf                    10044f00 f i imgui.obj
 0001:00043f30       ?push_back@?$ImVector@UImVec2@@@@QAEXABUImVec2@@@Z 10044f30 f i imgui_demo.obj
 0001:00043fc0       ?resize@?$ImVector@UImVec2@@@@QAEXH@Z 10044fc0 f i imgui_demo.obj
 0001:00044040       ??0ImDrawListSharedData@@QAE@XZ 10045040 f   imgui_draw.obj
 0001:00044140       ??0ImFont@@QAE@XZ          10045140 f   imgui_draw.obj
 0001:000441e0       ??0ImFontAtlas@@QAE@XZ     100451e0 f   imgui_draw.obj
 0001:000442d0       ??0ImFontConfig@@QAE@XZ    100452d0 f   imgui_draw.obj
 0001:00044320       ??1?$ImVector@UImFontConfig@@@@QAE@XZ 10045320 f i imgui_draw.obj
 0001:00044320       ??1?$ImVector@Ustbtt_packedchar@@@@QAE@XZ 10045320 f i imgui_draw.obj
 0001:00044320       ??1?$ImVector@UImFontBuildSrcData@@@@QAE@XZ 10045320 f i imgui_draw.obj
 0001:00044320       ??1?$ImVector@UImFontAtlasCustomRect@@@@QAE@XZ 10045320 f i imgui_draw.obj
 0001:00044320       ??1?$ImVector@Ustbrp_rect@@@@QAE@XZ 10045320 f i imgui_draw.obj
 0001:00044320       ??1?$ImVector@UImFontBuildDstData@@@@QAE@XZ 10045320 f i imgui_draw.obj
 0001:00044370       ??1ImFont@@QAE@XZ          10045370 f   imgui_draw.obj
 0001:000443f0       ?AddCircleFilled@ImDrawList@@QAEXABUImVec2@@MIH@Z 100453f0 f   imgui_draw.obj
 0001:000444c0       ?AddConvexPolyFilled@ImDrawList@@QAEXPBUImVec2@@HI@Z 100454c0 f   imgui_draw.obj
 0001:000448c0       ?AddDrawCmd@ImDrawList@@QAEXXZ 100458c0 f   imgui_draw.obj
 0001:00044930       ?AddFont@ImFontAtlas@@QAEPAUImFont@@PBUImFontConfig@@@Z 10045930 f   imgui_draw.obj
 0001:00044c80       ?AddFontFromFileTTF@ImFontAtlas@@QAEPAUImFont@@PBDMPBUImFontConfig@@PBG@Z 10045c80 f   imgui_draw.obj
 0001:00044e00       ?AddFontFromMemoryCompressedBase85TTF@ImFontAtlas@@QAEPAUImFont@@PBDMPBUImFontConfig@@PBG@Z 10045e00 f   imgui_draw.obj
 0001:00045030       ?AddFontFromMemoryTTF@ImFontAtlas@@QAEPAUImFont@@PAXHMPBUImFontConfig@@PBG@Z 10046030 f   imgui_draw.obj
 0001:00045150       ?AddGlyph@ImFont@@QAEXPBUImFontConfig@@GMMMMMMMMM@Z 10046150 f   imgui_draw.obj
 0001:00045350       ?AddLine@ImDrawList@@QAEXABUImVec2@@0IM@Z 10046350 f   imgui_draw.obj
 0001:00045400       ?AddPolyline@ImDrawList@@QAEXPBUImVec2@@HIHM@Z 10046400 f   imgui_draw.obj
 0001:000460c0       ?AddRect@ImDrawList@@QAEXABUImVec2@@0IMHM@Z 100470c0 f   imgui_draw.obj
 0001:000461a0       ?AddRectFilled@ImDrawList@@QAEXABUImVec2@@0IMH@Z 100471a0 f   imgui_draw.obj
 0001:00046300       ?AddText@ImDrawList@@QAEXABUImVec2@@IPBD1@Z 10047300 f   imgui_draw.obj
 0001:000463b0       ?AddText@ImDrawList@@QAEXPBUImFont@@MABUImVec2@@IPBD2MPBUImVec4@@@Z 100473b0 f   imgui_draw.obj
 0001:000464e0       ?BuildLookupTable@ImFont@@QAEXXZ 100474e0 f   imgui_draw.obj
 0001:00046950       ?CalcTextSizeA@ImFont@@QBE?AUImVec2@@MMMPBD0PAPBD@Z 10047950 f   imgui_draw.obj
 0001:00046b70       ?CalcWordWrapPositionA@ImFont@@QBEPBDMPBD0M@Z 10047b70 f   imgui_draw.obj
 0001:00046d40       ?ClearFreeMemory@ImDrawListSplitter@@QAEXXZ 10047d40 f   imgui_draw.obj
 0001:00046e80       ?ClearOutputData@ImFont@@QAEXXZ 10047e80 f   imgui_draw.obj
 0001:00046f30       ?FindGlyph@ImFont@@QBEPBUImFontGlyph@@G@Z 10047f30 f   imgui_draw.obj
 0001:00046f70       ?GetCustomRectByIndex@ImFontAtlas@@QAEPAUImFontAtlasCustomRect@@H@Z 10047f70 f i imgui_draw.obj
 0001:00046fd0       ?GetGlyphRangesJapanese@ImFontAtlas@@QAEPBGXZ 10047fd0 f   imgui_draw.obj
 0001:00047030       ?GetTexDataAsRGBA32@ImFontAtlas@@QAEXPAPAEPAH11@Z 10048030 f   imgui_draw.obj
 0001:00047260       ?GrowIndex@ImFont@@QAEXH@Z 10048260 f   imgui_draw.obj
 0001:000473a0       ?ImFontAtlasBuildFinish@@YAXPAUImFontAtlas@@@Z 100483a0 f   imgui_draw.obj
 0001:00047680       ?ImFontAtlasBuildPackCustomRects@@YAXPAUImFontAtlas@@PAX@Z 10048680 f   imgui_draw.obj
 0001:00047a80       ?ImFontAtlasBuildRender32bppRectFromString@@YAXPAUImFontAtlas@@HHHHPBDDI@Z 10048a80 f   imgui_draw.obj
 0001:00047b30       ?ImFontAtlasBuildRender8bppRectFromString@@YAXPAUImFontAtlas@@HHHHPBDDE@Z 10048b30 f   imgui_draw.obj
 0001:00049940       ?Merge@ImDrawListSplitter@@QAEXPAUImDrawList@@@Z 1004a940 f   imgui_draw.obj
 0001:00049ec0       ?PathArcTo@ImDrawList@@QAEXABUImVec2@@MMMH@Z 1004aec0 f   imgui_draw.obj
 0001:0004a1b0       ?PathArcToFast@ImDrawList@@QAEXABUImVec2@@MHH@Z 1004b1b0 f   imgui_draw.obj
 0001:0004a220       ?PathRect@ImDrawList@@QAEXABUImVec2@@0MH@Z 1004b220 f   imgui_draw.obj
 0001:0004a4c0       ?PopClipRect@ImDrawList@@QAEXXZ 1004b4c0 f   imgui_draw.obj
 0001:0004a520       ?PopTextureID@ImDrawList@@QAEXXZ 1004b520 f   imgui_draw.obj
 0001:0004a570       ?PrimRectUV@ImDrawList@@QAEXABUImVec2@@000I@Z 1004b570 f   imgui_draw.obj
 0001:0004a690       ?PrimReserve@ImDrawList@@QAEXHH@Z 1004b690 f   imgui_draw.obj
 0001:0004a740       ?PushClipRect@ImDrawList@@QAEXUImVec2@@0_N@Z 1004b740 f   imgui_draw.obj
 0001:0004a860       ?PushTextureID@ImDrawList@@QAEXPAX@Z 1004b860 f   imgui_draw.obj
 0001:0004a8f0       ?RenderArrow@ImGui@@YAXPAUImDrawList@@UImVec2@@IHM@Z 1004b8f0 f   imgui_draw.obj
 0001:0004aae0       ?RenderCheckMark@ImGui@@YAXPAUImDrawList@@UImVec2@@IM@Z 1004bae0 f   imgui_draw.obj
 0001:0004abf0       ?RenderMouseCursor@ImGui@@YAXPAUImDrawList@@UImVec2@@MHIII@Z 1004bbf0 f   imgui_draw.obj
 0001:0004aff0       ?RenderText@ImFont@@QBEXPAUImDrawList@@MUImVec2@@IABUImVec4@@PBD3M_N@Z 1004bff0 f   imgui_draw.obj
 0001:0004b5b0       ?SetCircleTessellationMaxError@ImDrawListSharedData@@QAEXM@Z 1004c5b0 f   imgui_draw.obj
 0001:0004b6e0       ?SetCurrentChannel@ImDrawListSplitter@@QAEXPAUImDrawList@@H@Z 1004c6e0 f   imgui_draw.obj
 0001:0004b7f0       ?StyleColorsDark@ImGui@@YAXPAUImGuiStyle@@@Z 1004c7f0 f   imgui_draw.obj
 0001:0004bcf0       ?_CalcCircleAutoSegmentCount@ImDrawList@@QBEHM@Z 1004ccf0 f   imgui_draw.obj
 0001:0004bdb0       ?_ClearFreeMemory@ImDrawList@@QAEXXZ 1004cdb0 f   imgui_draw.obj
 0001:0004bec0       ?_OnChangedClipRect@ImDrawList@@QAEXXZ 1004cec0 f   imgui_draw.obj
 0001:0004bf70       ?_OnChangedTextureID@ImDrawList@@QAEXXZ 1004cf70 f   imgui_draw.obj
 0001:0004c000       ?_PathArcToFastEx@ImDrawList@@QAEXABUImVec2@@MHHH@Z 1004d000 f   imgui_draw.obj
 0001:0004c1e0       ?_PathArcToN@ImDrawList@@QAEXABUImVec2@@MMMH@Z 1004d1e0 f   imgui_draw.obj
 0001:0004c3a0       ?_PopUnusedDrawCmd@ImDrawList@@QAEXXZ 1004d3a0 f   imgui_draw.obj
 0001:0004c3f0       ?_ResetForNewFrame@ImDrawList@@QAEXXZ 1004d3f0 f   imgui_draw.obj
 0001:0004c540       ?back@?$ImVector@UImDrawCmd@@@@QAEAAUImDrawCmd@@XZ 1004d540 f i imgui_draw.obj
 0001:0004c570       ?pop_back@?$ImVector@UImDrawCmd@@@@QAEXXZ 1004d570 f i imgui_draw.obj
 0001:0004c5a0       ?push_back@?$ImVector@UImDrawCmd@@@@QAEXABUImDrawCmd@@@Z 1004d5a0 f i imgui_draw.obj
 0001:0004c640       ?push_back@?$ImVector@UImFontAtlasCustomRect@@@@QAEXABUImFontAtlasCustomRect@@@Z 1004d640 f i imgui_draw.obj
 0001:0004c760       ?reserve@?$ImVector@UImVec2@@@@QAEXH@Z 1004d760 f i imgui_draw.obj
 0001:0004c7b0       ?resize@?$ImVector@G@@QAEXH@Z 1004d7b0 f i imgui_draw.obj
 0001:0004c830       ?resize@?$ImVector@I@@QAEXH@Z 1004d830 f i imgui_draw.obj
 0001:0004c8b0       ?resize@?$ImVector@UImDrawCmd@@@@QAEXH@Z 1004d8b0 f i imgui_draw.obj
 0001:0004c8b0       ?resize@?$ImVector@UImFontGlyph@@@@QAEXH@Z 1004d8b0 f i imgui_draw.obj
 0001:0004c930       ?resize@?$ImVector@UImDrawVert@@@@QAEXH@Z 1004d930 f i imgui_draw.obj
 0001:0004c9b0       ?resize@?$ImVector@Ustbrp_rect@@@@QAEXH@Z 1004d9b0 f i imgui_draw.obj
 0001:00053950       ?ImGui_ImplDX9_Init@@YA_NPAUIDirect3DDevice9@@@Z 10054950 f   imgui_impl_dx9.obj
 0001:00053980       ?ImGui_ImplDX9_NewFrame@@YAXXZ 10054980 f   imgui_impl_dx9.obj
 0001:000539a0       ?ImGui_ImplDX9_RenderDrawData@@YAXPAUImDrawData@@@Z 100549a0 f   imgui_impl_dx9.obj
 0001:00054280       ?ImGui_ImplWin32_Init@@YA_NPAX@Z 10055280 f   imgui_impl_win32.obj
 0001:00054420       ?ImGui_ImplWin32_NewFrame@@YAXXZ 10055420 f   imgui_impl_win32.obj
 0001:00054a60       ?ImGui_ImplWin32_WndProcHandler@@YAJPAUHWND__@@IIJ@Z 10055a60 f   imgui_impl_win32.obj
 0001:00054df0       ?EndColumns@ImGui@@YAXXZ   10055df0 f   imgui_tables.obj
 0001:00055240       ?GetColumnOffset@ImGui@@YAMH@Z 10056240 f   imgui_tables.obj
 0001:000552e0       ?PopColumnsBackground@ImGui@@YAXXZ 100562e0 f   imgui_tables.obj
 0001:00055360       ?PushColumnsBackground@ImGui@@YAXXZ 10056360 f   imgui_tables.obj
 0001:000553f0       ?SetColumnOffset@ImGui@@YAXHM@Z 100563f0 f   imgui_tables.obj
 0001:00055640       ?TableGcCompactSettings@ImGui@@YAXXZ 10056640 f   imgui_tables.obj
 0001:00055890       ?TableGcCompactTransientBuffers@ImGui@@YAXPAUImGuiTable@@@Z 10056890 f   imgui_tables.obj
 0001:00055a20       ?TablePopBackgroundChannel@ImGui@@YAXXZ 10056a20 f   imgui_tables.obj
 0001:00055ae0       ?TablePushBackgroundChannel@ImGui@@YAXXZ 10056ae0 f   imgui_tables.obj
 0001:00055b80       ?TableSettingsCreate@ImGui@@YAPAUImGuiTableSettings@@IH@Z 10056b80 f   imgui_tables.obj
 0001:00055be0       ?TableSettingsFindByID@ImGui@@YAPAUImGuiTableSettings@@I@Z 10056be0 f   imgui_tables.obj
 0001:00056370       ?TableSettingsInstallHandler@ImGui@@YAXPAUImGuiContext@@@Z 10057370 f   imgui_tables.obj
 0001:00056590       ??$RoundScalarWithFormatT@HH@ImGui@@YAHPBDHH@Z 10057590 f i imgui_widgets.obj
 0001:00056660       ??$RoundScalarWithFormatT@IH@ImGui@@YAIPBDHI@Z 10057660 f i imgui_widgets.obj
 0001:00056730       ??$RoundScalarWithFormatT@MM@ImGui@@YAMPBDHM@Z 10057730 f i imgui_widgets.obj
 0001:00056880       ??$RoundScalarWithFormatT@NN@ImGui@@YANPBDHN@Z 10057880 f i imgui_widgets.obj
 0001:000569c0       ??$RoundScalarWithFormatT@_J_J@ImGui@@YA_JPBDH_J@Z 100579c0 f i imgui_widgets.obj
 0001:00056a90       ??$RoundScalarWithFormatT@_K_J@ImGui@@YA_KPBDH_K@Z 10057a90 f i imgui_widgets.obj
 0001:00056bb0       ??$ScaleRatioFromValueT@HHM@ImGui@@YAMHHHH_NMM@Z 10057bb0 f i imgui_widgets.obj
 0001:00056ed0       ??$ScaleRatioFromValueT@IHM@ImGui@@YAMHIII_NMM@Z 10057ed0 f i imgui_widgets.obj
 0001:00057240       ??$ScaleRatioFromValueT@MMM@ImGui@@YAMHMMM_NMM@Z 10058240 f i imgui_widgets.obj
 0001:00057540       ??$ScaleRatioFromValueT@NNN@ImGui@@YAMHNNN_NMM@Z 10058540 f i imgui_widgets.obj
 0001:00057830       ??$ScaleRatioFromValueT@_J_JN@ImGui@@YAMH_J00_NMM@Z 10058830 f i imgui_widgets.obj
 0001:00057c80       ??$ScaleRatioFromValueT@_K_JN@ImGui@@YAMH_K00_NMM@Z 10058c80 f i imgui_widgets.obj
 0001:000580d0       ??$ScaleValueFromRatioT@HHM@ImGui@@YAHHMHH_NMM@Z 100590d0 f i imgui_widgets.obj
 0001:000583d0       ??$ScaleValueFromRatioT@IHM@ImGui@@YAIHMII_NMM@Z 100593d0 f i imgui_widgets.obj
 0001:00058720       ??$ScaleValueFromRatioT@MMM@ImGui@@YAMHMMM_NMM@Z 10059720 f i imgui_widgets.obj
 0001:000589e0       ??$ScaleValueFromRatioT@NNN@ImGui@@YANHMNN_NMM@Z 100599e0 f i imgui_widgets.obj
 0001:00058cd0       ??$ScaleValueFromRatioT@_J_JN@ImGui@@YA_JHM_J0_NMM@Z 10059cd0 f i imgui_widgets.obj
 0001:000590d0       ??$ScaleValueFromRatioT@_K_JN@ImGui@@YA_KHM_K0_NMM@Z 1005a0d0 f i imgui_widgets.obj
 0001:000594d0       ??$SliderBehaviorT@HHM@ImGui@@YA_NABUImRect@@IHPAHHHPBDHPAU1@@Z 1005a4d0 f i imgui_widgets.obj
 0001:00059b30       ??$SliderBehaviorT@IHM@ImGui@@YA_NABUImRect@@IHPAIIIPBDHPAU1@@Z 1005ab30 f i imgui_widgets.obj
 0001:0005a1a0       ??$SliderBehaviorT@MMM@ImGui@@YA_NABUImRect@@IHPAMMMPBDHPAU1@@Z 1005b1a0 f i imgui_widgets.obj
 0001:0005a8a0       ??$SliderBehaviorT@NNN@ImGui@@YA_NABUImRect@@IHPANNNPBDHPAU1@@Z 1005b8a0 f i imgui_widgets.obj
 0001:0005afc0       ??$SliderBehaviorT@_J_JN@ImGui@@YA_NABUImRect@@IHPA_J_J2PBDHPAU1@@Z 1005bfc0 f i imgui_widgets.obj
 0001:0005b6c0       ??$SliderBehaviorT@_K_JN@ImGui@@YA_NABUImRect@@IHPA_K_K2PBDHPAU1@@Z 1005c6c0 f i imgui_widgets.obj
 0001:0005bdc0       ??$_Buynode@U?$pair@$$CBIUtab_anim@@@std@@@?$_Tree_comp_alloc@V?$_Tmap_traits@IUtab_anim@@U?$less@I@std@@V?$allocator@U?$pair@$$CBIUtab_anim@@@std@@@3@$0A@@std@@@std@@QAEPAU?$_Tree_node@U?$pair@$$CBIUtab_anim@@@std@@PAX@1@$$QAU?$pair@$$CBIUtab_anim@@@1@@Z 1005cdc0 f i imgui_widgets.obj
 0001:0005bdf0       ??$_Insert_at@U?$pair@$$CBIUtab_anim@@@std@@U_Not_a_node_tag@2@@?$_Tree@V?$_Tmap_traits@IUtab_anim@@U?$less@I@std@@V?$allocator@U?$pair@$$CBIUtab_anim@@@std@@@3@$0A@@std@@@std@@IAE?AV?$_Tree_iterator@V?$_Tree_val@U?$_Tree_simple_types@U?$pair@$$CBIUtab_anim@@@std@@@std@@@std@@@1@_NPAU?$_Tree_node@U?$pair@$$CBIUtab_anim@@@std@@PAX@1@$$QAU?$pair@$$CBIUtab_anim@@@1@U_Not_a_node_tag@1@@Z 1005cdf0 f i imgui_widgets.obj
 0001:0005bf50       ??$_Insert_nohint@U?$pair@$$CBIUtab_anim@@@std@@U_Not_a_node_tag@2@@?$_Tree@V?$_Tmap_traits@IUtab_anim@@U?$less@I@std@@V?$allocator@U?$pair@$$CBIUtab_anim@@@std@@@3@$0A@@std@@@std@@IAE?AU?$pair@V?$_Tree_iterator@V?$_Tree_val@U?$_Tree_simple_types@U?$pair@$$CBIUtab_anim@@@std@@@std@@@std@@@std@@_N@1@_N$$QAU?$pair@$$CBIUtab_anim@@@1@U_Not_a_node_tag@1@@Z 1005cf50 f i imgui_widgets.obj
 0001:0005c0b0       ??1?$_Tree@V?$_Tmap_traits@IUtab_anim@@U?$less@I@std@@V?$allocator@U?$pair@$$CBIUtab_anim@@@std@@@3@$0A@@std@@@std@@QAE@XZ 1005d0b0 f i imgui_widgets.obj
 0001:0005c150       ??A?$ImVector@G@@QAEAAGH@Z 1005d150 f i imgui_widgets.obj
 0001:0005c190       ??AImVec2@@QAEAAMI@Z       1005d190 f i imgui_widgets.obj
 0001:0005c1c0       ?ButtonBehavior@ImGui@@YA_NABUImRect@@IPA_N1H@Z 1005d1c0 f   imgui_widgets.obj
 0001:0005c770       ?Checkbox@ImGui@@YA_NPBDPA_N@Z 1005d770 f   imgui_widgets.obj
 0001:0005cc70       ?CloseButton@ImGui@@YA_NIABUImVec2@@@Z 1005dc70 f   imgui_widgets.obj
 0001:0005cf70       ?CollapseButton@ImGui@@YA_NIABUImVec2@@@Z 1005df70 f   imgui_widgets.obj
 0001:0005d160       ?CursorClamp@ImGuiInputTextState@@QAEXXZ 1005e160 f i imgui_widgets.obj
 0001:0005d190       ?DataTypeApplyOpFromText@ImGui@@YA_NPBD0HPAX0@Z 1005e190 f   imgui_widgets.obj
 0001:0005d620       ?DataTypeClamp@ImGui@@YA_NHPAXPBX1@Z 1005e620 f   imgui_widgets.obj
 0001:0005d890       ?DataTypeCompare@ImGui@@YAHHPBX0@Z 1005e890 f   imgui_widgets.obj
 0001:0005da30       ?DataTypeFormatString@ImGui@@YAHPADHHPBXPBD@Z 1005ea30 f   imgui_widgets.obj
 0001:0005db60       ?DataTypeGetInfo@ImGui@@YAPBUImGuiDataTypeInfo@@H@Z 1005eb60 f   imgui_widgets.obj
 0001:0005dbc0       ?ImParseFormatFindEnd@@YAPBDPBD@Z 1005ebc0 f   imgui_widgets.obj
 0001:0005dc20       ?ImParseFormatPrecision@@YAHPBDH@Z 1005ec20 f   imgui_widgets.obj
 0001:0005dd20       ?InputTextEx@ImGui@@YA_NPBD0PADHABUImVec2@@HP6AHPAUImGuiInputTextCallbackData@@@ZPAX@Z 1005ed20 f   imgui_widgets.obj
 0001:000606f0       ?InvisibleButton@ImGui@@YA_NPBDABUImVec2@@H@Z 100616f0 f   imgui_widgets.obj
 0001:00060810       ?IsKeyPressedMap@ImGui@@YA_NH_N@Z 10061810 f i imgui_widgets.obj
 0001:00060830       ?OnKeyPressed@ImGuiInputTextState@@QAEXH@Z 10061830 f   imgui_widgets.obj
 0001:00060ef0       ?Scrollbar@ImGui@@YAXW4ImGuiAxis@@@Z 10061ef0 f   imgui_widgets.obj
 0001:00061160       ?ScrollbarEx@ImGui@@YA_NABUImRect@@IW4ImGuiAxis@@PAMMMH@Z 10062160 f   imgui_widgets.obj
 0001:00061640       ?Selectable@ImGui@@YA_NPBD_NHABUImVec2@@@Z 10062640 f   imgui_widgets.obj
 0001:00061bf0       ?SliderBehavior@ImGui@@YA_NABUImRect@@IHPAXPBX2PBDHPAU2@@Z 10062bf0 f   imgui_widgets.obj
 0001:00061fd0       ?SliderInt@ImGui@@YA_NPBDPAHHH0H@Z 10062fd0 f   imgui_widgets.obj
 0001:00062000       ?SliderScalar@ImGui@@YA_NPBDHPAXPBX20H@Z 10063000 f   imgui_widgets.obj
 0001:00062720       ?Spacing@ImGui@@YAXXZ      10063720 f   imgui_widgets.obj
 0001:00062770       ?TempInputScalar@ImGui@@YA_NABUImRect@@IPBDHPAX1PBX3@Z 10063770 f   imgui_widgets.obj
 0001:00062a00       ?Text@ImGui@@YAXPBDZZ      10063a00 f   imgui_widgets.obj
 0001:00062a20       ?TextColored@ImGui@@YAXABUImVec4@@PBDZZ 10063a20 f   imgui_widgets.obj
 0001:00062a80       ?TextEx@ImGui@@YAXPBD0H@Z  10063a80 f   imgui_widgets.obj
 0001:00062e90       ?TextV@ImGui@@YAXPBDPAD@Z  10063e90 f   imgui_widgets.obj
 0001:00062ef0       ?Update@ImGuiMenuColumns@@QAEXHM_N@Z 10063ef0 f   imgui_widgets.obj
 0001:00062fa0       ?_Buyheadnode@?$_Tree_comp_alloc@V?$_Tmap_traits@IUtab_anim@@U?$less@I@std@@V?$allocator@U?$pair@$$CBIUtab_anim@@@std@@@3@$0A@@std@@@std@@QAEPAU?$_Tree_node@U?$pair@$$CBIUtab_anim@@@std@@PAX@2@XZ 10063fa0 f i imgui_widgets.obj
 0001:00062fc0       ?_Buynode0@?$_Tree_comp_alloc@V?$_Tmap_traits@IUtab_anim@@U?$less@I@std@@V?$allocator@U?$pair@$$CBIUtab_anim@@@std@@@3@$0A@@std@@@std@@QAEPAU?$_Tree_node@U?$pair@$$CBIUtab_anim@@@std@@PAX@2@XZ 10063fc0 f i imgui_widgets.obj
 0001:00062fe0       ?_Erase@?$_Tree@V?$_Tmap_traits@IUtab_anim@@U?$less@I@std@@V?$allocator@U?$pair@$$CBIUtab_anim@@@std@@@3@$0A@@std@@@std@@IAEXPAU?$_Tree_node@U?$pair@$$CBIUtab_anim@@@std@@PAX@2@@Z 10063fe0 f i imgui_widgets.obj
 0001:00063020       ?find@?$_Tree@V?$_Tmap_traits@IUtab_anim@@U?$less@I@std@@V?$allocator@U?$pair@$$CBIUtab_anim@@@std@@@3@$0A@@std@@@std@@QAE?AV?$_Tree_iterator@V?$_Tree_val@U?$_Tree_simple_types@U?$pair@$$CBIUtab_anim@@@std@@@std@@@std@@@2@ABI@Z 10064020 f i imgui_widgets.obj
 0001:000645b0       ?tab@ImGui@@YA_NPBD_N@Z    100655b0 f   imgui_widgets.obj
 0001:00064920       ??$_snprintf_s@$0GE@@@YAHAAY0GE@DIPBDZZ 10065920 f i sounds.obj
 0001:00065720       ?playback_loop@@YAXXZ      10066720 f   sounds.obj
 0001:00065af0       _printf                    10066af0 f i sounds.obj
 0001:00065b20       ?EjectThread@@YGKPAX@Z     10066b20 f   main.obj
 0001:00065b40       ?EnumWindowsCallback@@YGHPAUHWND__@@J@Z 10066b40 f   main.obj
 0001:00065b80       ?MainThread@@YGKPAX@Z      10066b80 f   main.obj
 0001:00065bc0       ?Menue@@YGKPAUHINSTANCE__@@@Z 10066bc0 f   main.obj
 0001:00065cf0       ?Start@@YAXXZ              10066cf0 f   main.obj
 0001:00065e20       ?WndProc@@YGJQAUHWND__@@IIJ@Z 10066e20 f   main.obj
 0001:00065e60       ?hookedEndScene@@YGJPAUIDirect3DDevice9@@@Z 10066e60 f   main.obj
 0001:00066510       _DllMain@12                10067510 f   main.obj
 0001:000666e0       ??0exception@std@@QAE@QBD@Z 100676e0 f i Menu.obj
 0001:00066d00       ?Do@MENU@PPGUI@@YAXXZ      10067d00 f   Menu.obj
 0001:00068af0       ?Load@Configuration@SETTINGS@@QAE_NPBD0I@Z 10069af0 f i Menu.obj
 0001:00068b50       ?PPGUI_AlphaModulate@PPGUI@@YAXM@Z 10069b50 f i Menu.obj
 0001:00068ba0       ?Save@Configuration@SETTINGS@@QAE_NPBD0I@Z 10069ba0 f i Menu.obj
 0001:00068c00       ??$_Buynode@ABUpiecewise_construct_t@std@@V?$tuple@ABI@2@V?$tuple@$$V@2@@?$_List_buy@U?$pair@$$CBITPPGUI_Command_Data@PPGUI_Command_Data_Base@PPGUI@@@std@@V?$allocator@U?$pair@$$CBITPPGUI_Command_Data@PPGUI_Command_Data_Base@PPGUI@@@std@@@2@@std@@QAEPAU?$_List_node@U?$pair@$$CBITPPGUI_Command_Data@PPGUI_Command_Data_Base@PPGUI@@@std@@PAX@1@PAU21@0ABUpiecewise_construct_t@1@$$QAV?$tuple@ABI@1@$$QAV?$tuple@$$V@1@@Z 10069c00 f i PPGUI.obj
 0001:00068c20       ??$_Emplace_reallocate@ABUPPGUI_Column@PPGUI_Command_Frame@PPGUI@@@?$vector@UPPGUI_Column@PPGUI_Command_Frame@PPGUI@@V?$allocator@UPPGUI_Column@PPGUI_Command_Frame@PPGUI@@@std@@@std@@QAEPAUPPGUI_Column@PPGUI_Command_Frame@PPGUI@@QAU234@ABU234@@Z 10069c20 f i PPGUI.obj
 0001:00068dd0       ??$_Emplace_reallocate@ABVPPGUI_Command_Frame@PPGUI@@@?$vector@VPPGUI_Command_Frame@PPGUI@@V?$allocator@VPPGUI_Command_Frame@PPGUI@@@std@@@std@@QAEPAVPPGUI_Command_Frame@PPGUI@@QAV23@ABV23@@Z 10069dd0 f i PPGUI.obj
 0001:00068fd0       ??$_Fill_unchecked@PAV?$_List_unchecked_iterator@V?$_List_val@U?$_List_simple_types@U?$pair@$$CBITPPGUI_Command_Data@PPGUI_Command_Data_Base@PPGUI@@@std@@@std@@@std@@@std@@V12@@std@@YAXPAV?$_List_unchecked_iterator@V?$_List_val@U?$_List_simple_types@U?$pair@$$CBITPPGUI_Command_Data@PPGUI_Command_Data_Base@PPGUI@@@std@@@std@@@std@@@0@0ABV10@@Z 10069fd0 f i PPGUI.obj
 0001:00069050       ??$_Insert@AAU?$pair@$$CBITPPGUI_Command_Data@PPGUI_Command_Data_Base@PPGUI@@@std@@V?$_List_unchecked_iterator@V?$_List_val@U?$_List_simple_types@U?$pair@$$CBITPPGUI_Command_Data@PPGUI_Command_Data_Base@PPGUI@@@std@@@std@@@std@@@2@@?$_Hash@V?$_Umap_traits@ITPPGUI_Command_Data@PPGUI_Command_Data_Base@PPGUI@@V?$_Uhash_compare@IU?$hash@I@std@@U?$equal_to@I@2@@std@@V?$allocator@U?$pair@$$CBITPPGUI_Command_Data@PPGUI_Command_Data_Base@PPGUI@@@std@@@5@$0A@@std@@@std@@IAE?AU?$pair@V?$_List_iterator@V?$_List_val@U?$_List_simple_types@U?$pair@$$CBITPPGUI_Command_Data@PPGUI_Command_Data_Base@PPGUI@@@std@@@std@@@std@@@std@@_N@1@AAU?$pair@$$CBITPPGUI_Command_Data@PPGUI_Command_Data_Base@PPGUI@@@1@V?$_List_unchecked_iterator@V?$_List_val@U?$_List_simple_types@U?$pair@$$CBITPPGUI_Command_Data@PPGUI_Command_Data_Base@PPGUI@@@std@@@std@@@std@@@1@@Z 1006a050 f i PPGUI.obj
 0001:00069270       ??$_Uninitialized_move@PAVPPGUI_Command_Frame@PPGUI@@PAV12@V?$allocator@VPPGUI_Command_Frame@PPGUI@@@std@@@std@@YAPAVPPGUI_Command_Frame@PPGUI@@QAV12@0PAV12@AAV?$allocator@VPPGUI_Command_Frame@PPGUI@@@0@@Z 1006a270 f i PPGUI.obj
 0001:00069300       ??$construct@VPPGUI_Command_Frame@PPGUI@@V12@@?$_Default_allocator_traits@V?$allocator@VPPGUI_Command_Frame@PPGUI@@@std@@@std@@SAXAAV?$allocator@VPPGUI_Command_Frame@PPGUI@@@1@QAVPPGUI_Command_Frame@PPGUI@@$$QAV34@@Z 1006a300 f i PPGUI.obj
 0001:00069370       ??$erase@V?$_List_iterator@V?$_List_val@U?$_List_simple_types@U?$pair@$$CBITPPGUI_Command_Data@PPGUI_Command_Data_Base@PPGUI@@@std@@@std@@@std@@@std@@X@?$_Hash@V?$_Umap_traits@ITPPGUI_Command_Data@PPGUI_Command_Data_Base@PPGUI@@V?$_Uhash_compare@IU?$hash@I@std@@U?$equal_to@I@2@@std@@V?$allocator@U?$pair@$$CBITPPGUI_Command_Data@PPGUI_Command_Data_Base@PPGUI@@@std@@@5@$0A@@std@@@std@@QAE?AV?$_List_iterator@V?$_List_val@U?$_List_simple_types@U?$pair@$$CBITPPGUI_Command_Data@PPGUI_Command_Data_Base@PPGUI@@@std@@@std@@@std@@@1@V21@@Z 1006a370 f i PPGUI.obj
 0001:00069420       ??0?$vector@UPPGUI_Column@PPGUI_Command_Frame@PPGUI@@V?$allocator@UPPGUI_Column@PPGUI_Command_Frame@PPGUI@@@std@@@std@@QAE@ABV01@@Z 1006a420 f i PPGUI.obj
 0001:000694d0       ??0PPGUI_Command_Frame@PPGUI@@QAE@PAVPPGUI_Command@1@H@Z 1006a4d0 f   PPGUI.obj
 0001:00069720       ??1?$vector@UPPGUI_Column@PPGUI_Command_Frame@PPGUI@@V?$allocator@UPPGUI_Column@PPGUI_Command_Frame@PPGUI@@@std@@@std@@QAE@XZ 1006a720 f i PPGUI.obj
 0001:00069730       ??1?$vector@VPPGUI_Command_Frame@PPGUI@@V?$allocator@VPPGUI_Command_Frame@PPGUI@@@std@@@std@@QAE@XZ 1006a730 f i PPGUI.obj
 0001:000697a0       ??1PPGUI_Command_Frame@PPGUI@@QAE@XZ 1006a7a0 f i PPGUI.obj
 0001:000697b0       ??1PPGUI_Command_List@PPGUI@@QAE@XZ 1006a7b0 f i PPGUI.obj
 0001:00069850       ??4PPGUI_Command_Frame@PPGUI@@QAEAAV01@$$QAV01@@Z 1006a850 f i PPGUI.obj
 0001:000698c0       ??A?$unordered_map@ITPPGUI_Command_Data@PPGUI_Command_Data_Base@PPGUI@@U?$hash@I@std@@U?$equal_to@I@5@V?$allocator@U?$pair@$$CBITPPGUI_Command_Data@PPGUI_Command_Data_Base@PPGUI@@@std@@@5@@std@@QAEAATPPGUI_Command_Data@PPGUI_Command_Data_Base@PPGUI@@ABI@Z 1006a8c0 f i PPGUI.obj
 0001:00069950       ??R<lambda_8026473273ad38e21d271a762a48cf59>@@QBEXAATPPGUI_Command_Data@PPGUI_Command_Data_Base@PPGUI@@ABW4PPGUI_Command_Types@3@@Z 1006a950 f i PPGUI_Commands.obj
 0001:00069950       ??R<lambda_c63487d0a68111f5e6930a79b22ca9cf>@@QBEXAATPPGUI_Command_Data@PPGUI_Command_Data_Base@PPGUI@@ABW4PPGUI_Command_Types@3@@Z 1006a950 f i PPGUI.obj
 0001:00069950       ??R<lambda_f72052e9904a007b22ce8dc0827c70d7>@@QBEXAATPPGUI_Command_Data@PPGUI_Command_Data_Base@PPGUI@@ABW4PPGUI_Command_Types@3@@Z 1006a950 f i PPGUI_Commands.obj
 0001:00069950       ??R<lambda_ebd3fe8d89f8826226563be13e65e40a>@@QBEXAATPPGUI_Command_Data@PPGUI_Command_Data_Base@PPGUI@@ABW4PPGUI_Command_Types@3@@Z 1006a950 f i PPGUI_Commands.obj
 0001:00069950       ??R<lambda_a4b7f7056c3066ba3213e3cb871fcf9f>@@QBEXAATPPGUI_Command_Data@PPGUI_Command_Data_Base@PPGUI@@ABW4PPGUI_Command_Types@3@@Z 1006a950 f i PPGUI_Commands.obj
 0001:00069950       ??R<lambda_edaebc954b53efb5b9670c2111df7194>@@QBEXAATPPGUI_Command_Data@PPGUI_Command_Data_Base@PPGUI@@ABW4PPGUI_Command_Types@3@@Z 1006a950 f i PPGUI_Commands.obj
 0001:00069950       ??R<lambda_c1a44e165f1181c651573858c7f31a02>@@QBEXAATPPGUI_Command_Data@PPGUI_Command_Data_Base@PPGUI@@ABW4PPGUI_Command_Types@3@@Z 1006a950 f i PPGUI_Commands.obj
 0001:00069950       ??R<lambda_4736b5e46205fa413f66b35da70f91eb>@@QBEXAATPPGUI_Command_Data@PPGUI_Command_Data_Base@PPGUI@@ABW4PPGUI_Command_Types@3@@Z 1006a950 f i PPGUI_Commands.obj
 0001:00069950       ??R<lambda_dda52d86197754781a619e9cd2a6795d>@@QBEXAATPPGUI_Command_Data@PPGUI_Command_Data_Base@PPGUI@@ABW4PPGUI_Command_Types@3@@Z 1006a950 f i PPGUI_Commands.obj
 0001:00069950       ??R<lambda_9e77de5ae44ad38ef2ba1f6f90f70737>@@QBEXAATPPGUI_Command_Data@PPGUI_Command_Data_Base@PPGUI@@ABW4PPGUI_Command_Types@3@@Z 1006a950 f i PPGUI_Commands.obj
 0001:00069950       ??R<lambda_754a2942ec65f727641f86a744eec9ca>@@QBEXAATPPGUI_Command_Data@PPGUI_Command_Data_Base@PPGUI@@ABW4PPGUI_Command_Types@3@@Z 1006a950 f i PPGUI_Commands.obj
 0001:00069a60       ?AddCommandFrame@PPGUI_Framework@PPGUI@@QAEXAAVPPGUI_Command_Frame@2@@Z 1006aa60 f i PPGUI.obj
 0001:00069ba0       ?AllocateSpace@PPGUI_Command_Frame@PPGUI@@QAE_NVPPGUI_Vector2D@HELPERS@2@AAV342@AA_N_N@Z 1006aba0 f   PPGUI.obj
 0001:00069df0       ?AllocateSpace@PPGUI_Framework@PPGUI@@QAE_NVPPGUI_Vector2D@HELPERS@2@AAV342@AA_N@Z 1006adf0 f   PPGUI.obj
 0001:00069e60       ?BeginFrame@PPGUI_Framework@PPGUI@@QAEXXZ 1006ae60 f   PPGUI.obj
 0001:00069e70       ?DrawMouse@PPGUI_Framework@PPGUI@@AAEXXZ 1006ae70 f   PPGUI.obj
 0001:0006a060       ?EndFrame@PPGUI_Framework@PPGUI@@QAEXXZ 1006b060 f   PPGUI.obj
 0001:0006a230       ?GetCommandFrame@PPGUI_Framework@PPGUI@@QAEAAVPPGUI_Command_Frame@2@XZ 1006b230 f   PPGUI.obj
 0001:0006a270       ?GetCurrentFrameSize@PPGUI_Framework@PPGUI@@QAE?AVPPGUI_Vector2D@HELPERS@2@XZ 1006b270 f i PPGUI.obj
 0001:0006a310       ?PPGUI_BeginGroupbox@PPGUI@@YAXPBDHH_N@Z 1006b310 f   PPGUI.obj
 0001:0006a430       ?PPGUI_BeginWindow@PPGUI@@YAXPBDVPPGUI_Vector2D@HELPERS@1@1H@Z 1006b430 f   PPGUI.obj
 0001:0006a500       ?PPGUI_Button@PPGUI@@YA_NPBD_N@Z 1006b500 f   PPGUI.obj
 0001:0006a680       ?PPGUI_Checkbox@PPGUI@@YA_NPBDAA_N_N@Z 1006b680 f   PPGUI.obj
 0001:0006a790       ?PPGUI_ColorPicker@PPGUI@@YAXPBDAAE111_N@Z 1006b790 f   PPGUI.obj
 0001:0006a8a0       ?PPGUI_Combobox@PPGUI@@YAHPBDHPAY0BAA@DAAH_N@Z 1006b8a0 f   PPGUI.obj
 0001:0006a9b0       ?PPGUI_EndGroupbox@PPGUI@@YAXXZ 1006b9b0 f   PPGUI.obj
 0001:0006aa10       ?PPGUI_EndWindow@PPGUI@@YAXXZ 1006ba10 f   PPGUI.obj
 0001:0006aaf0       ?PPGUI_Keybind@PPGUI@@YAHPBDAAH_N@Z 1006baf0 f   PPGUI.obj
 0001:0006ac10       ?PPGUI_MultiselectCombobox@PPGUI@@YAXPBDHPAY0BAA@DPA_N_N@Z 1006bc10 f   PPGUI.obj
 0001:0006ad00       ?PPGUI_Separator@PPGUI@@YAXPBD_N@Z 1006bd00 f   PPGUI.obj
 0001:0006ade0       ?PPGUI_Slider@PPGUI@@YAMPBD0MMAAMH_N@Z 1006bde0 f   PPGUI.obj
 0001:0006af20       ?PPGUI_Tab@PPGUI@@YAHHPAY0BAA@DAAH_N@Z 1006bf20 f   PPGUI.obj
 0001:0006b040       ?PPGUI_TextInput@PPGUI@@YAPBDPBDPAD_N@Z 1006c040 f   PPGUI.obj
 0001:0006b150       ?PPGUI_ToolTip@PPGUI@@YAXPBDHVPPGUI_Vector2D@HELPERS@1@@Z 1006c150 f   PPGUI.obj
 0001:0006b1f0       ?RemoveCommandFrame@PPGUI_Framework@PPGUI@@QAEXXZ 1006c1f0 f i PPGUI.obj
 0001:0006b300       ?_Buynode0@?$_List_alloc@U?$_List_base_types@U?$pair@$$CBITPPGUI_Command_Data@PPGUI_Command_Data_Base@PPGUI@@@std@@V?$allocator@U?$pair@$$CBITPPGUI_Command_Data@PPGUI_Command_Data_Base@PPGUI@@@std@@@2@@std@@@std@@QAEPAU?$_List_node@U?$pair@$$CBITPPGUI_Command_Data@PPGUI_Command_Data_Base@PPGUI@@@std@@PAX@2@PAU32@0@Z 1006c300 f i PPGUI.obj
 0001:0006b330       ?_Destroy@?$vector@VPPGUI_Command_Frame@PPGUI@@V?$allocator@VPPGUI_Command_Frame@PPGUI@@@std@@@std@@AAEXPAVPPGUI_Command_Frame@PPGUI@@0@Z 1006c330 f i PPGUI.obj
 0001:0006b360       ?_Init@?$_Hash@V?$_Umap_traits@ITPPGUI_Command_Data@PPGUI_Command_Data_Base@PPGUI@@V?$_Uhash_compare@IU?$hash@I@std@@U?$equal_to@I@2@@std@@V?$allocator@U?$pair@$$CBITPPGUI_Command_Data@PPGUI_Command_Data_Base@PPGUI@@@std@@@5@$0A@@std@@@std@@IAEXI@Z 1006c360 f i PPGUI.obj
 0001:0006b4a0       ?_Make_iter@?$_Hash@V?$_Umap_traits@ITPPGUI_Command_Data@PPGUI_Command_Data_Base@PPGUI@@V?$_Uhash_compare@IU?$hash@I@std@@U?$equal_to@I@2@@std@@V?$allocator@U?$pair@$$CBITPPGUI_Command_Data@PPGUI_Command_Data_Base@PPGUI@@@std@@@5@$0A@@std@@@std@@QBE?AV?$_List_iterator@V?$_List_val@U?$_List_simple_types@U?$pair@$$CBITPPGUI_Command_Data@PPGUI_Command_Data_Base@PPGUI@@@std@@@std@@@std@@@2@V?$_List_unchecked_const_iterator@V?$_List_val@U?$_List_simple_types@U?$pair@$$CBITPPGUI_Command_Data@PPGUI_Command_Data_Base@PPGUI@@@std@@@std@@@std@@U_Iterator_base0@2@@2@@Z 1006c4a0 f i PPGUI.obj
 0001:0006b4b0       ?_Reallocate_exactly@?$vector@V?$_List_unchecked_iterator@V?$_List_val@U?$_List_simple_types@U?$pair@$$CBITPPGUI_Command_Data@PPGUI_Command_Data_Base@PPGUI@@@std@@@std@@@std@@@std@@V?$allocator@V?$_List_unchecked_iterator@V?$_List_val@U?$_List_simple_types@U?$pair@$$CBITPPGUI_Command_Data@PPGUI_Command_Data_Base@PPGUI@@@std@@@std@@@std@@@std@@@2@@std@@AAEXI@Z 1006c4b0 f i PPGUI.obj
 0001:0006b560       ?_Tidy@?$vector@UPPGUI_Column@PPGUI_Command_Frame@PPGUI@@V?$allocator@UPPGUI_Column@PPGUI_Command_Frame@PPGUI@@@std@@@std@@AAEXXZ 1006c560 f i PPGUI.obj
 0001:0006b5d0       ?_Umove@?$vector@UPPGUI_Column@PPGUI_Command_Frame@PPGUI@@V?$allocator@UPPGUI_Column@PPGUI_Command_Frame@PPGUI@@@std@@@std@@AAEPAUPPGUI_Column@PPGUI_Command_Frame@PPGUI@@PAU345@00@Z 1006c5d0 f i PPGUI.obj
 0001:0006b620       ?allocate@?$allocator@UPPGUI_Column@PPGUI_Command_Frame@PPGUI@@@std@@QAEPAUPPGUI_Column@PPGUI_Command_Frame@PPGUI@@I@Z 1006c620 f i PPGUI.obj
 0001:0006b690       ?deallocate@?$allocator@V?$_List_unchecked_iterator@V?$_List_val@U?$_List_simple_types@U?$pair@$$CBITPPGUI_Command_Data@PPGUI_Command_Data_Base@PPGUI@@@std@@@std@@@std@@@std@@@std@@QAEXQAV?$_List_unchecked_iterator@V?$_List_val@U?$_List_simple_types@U?$pair@$$CBITPPGUI_Command_Data@PPGUI_Command_Data_Base@PPGUI@@@std@@@std@@@std@@@2@I@Z 1006c690 f i PPGUI.obj
 0001:0006b6d0       ?deallocate@?$allocator@VPPGUI_Command_Frame@PPGUI@@@std@@QAEXQAVPPGUI_Command_Frame@PPGUI@@I@Z 1006c6d0 f i PPGUI.obj
 0001:0006b710       ?find@?$_Hash@V?$_Umap_traits@ITPPGUI_Command_Data@PPGUI_Command_Data_Base@PPGUI@@V?$_Uhash_compare@IU?$hash@I@std@@U?$equal_to@I@2@@std@@V?$allocator@U?$pair@$$CBITPPGUI_Command_Data@PPGUI_Command_Data_Base@PPGUI@@@std@@@5@$0A@@std@@@std@@QAE?AV?$_List_iterator@V?$_List_val@U?$_List_simple_types@U?$pair@$$CBITPPGUI_Command_Data@PPGUI_Command_Data_Base@PPGUI@@@std@@@std@@@std@@@2@ABI@Z 1006c710 f i PPGUI.obj
 0001:0006b7b0       ?insert@?$vector@PAVPPGUI_Command@PPGUI@@V?$allocator@PAVPPGUI_Command@PPGUI@@@std@@@std@@QAE?AV?$_Vector_iterator@V?$_Vector_val@U?$_Simple_types@PAVPPGUI_Command@PPGUI@@@std@@@std@@@2@V?$_Vector_const_iterator@V?$_Vector_val@U?$_Simple_types@PAVPPGUI_Command@PPGUI@@@std@@@std@@@2@ABQAVPPGUI_Command@PPGUI@@@Z 1006c7b0 f i PPGUI.obj
 0001:0006b830       ??$Get@UPPGUI_Slider_Command_Data@PPGUI_Command_Data_Base@PPGUI@@@PPGUI_Command_Data_Base@PPGUI@@QAEAAUPPGUI_Slider_Command_Data@01@ABIABW4PPGUI_Command_Types@1@@Z 1006c830 f i PPGUI_Commands.obj
 0001:0006b830       ??$Get@UPPGUI_Text_Input_Command_Data@PPGUI_Command_Data_Base@PPGUI@@@PPGUI_Command_Data_Base@PPGUI@@QAEAAUPPGUI_Text_Input_Command_Data@01@ABIABW4PPGUI_Command_Types@1@@Z 1006c830 f i PPGUI_Commands.obj
 0001:0006b830       ??$Get@UPPGUI_Window_Command_Data@PPGUI_Command_Data_Base@PPGUI@@@PPGUI_Command_Data_Base@PPGUI@@QAEAAUPPGUI_Window_Command_Data@01@ABIABW4PPGUI_Command_Types@1@@Z 1006c830 f i PPGUI_Commands.obj
 0001:0006b830       ??$Get@UPPGUI_Multiselect_Combobox_Command_Data@PPGUI_Command_Data_Base@PPGUI@@@PPGUI_Command_Data_Base@PPGUI@@QAEAAUPPGUI_Multiselect_Combobox_Command_Data@01@ABIABW4PPGUI_Command_Types@1@@Z 1006c830 f i PPGUI_Commands.obj
 0001:0006b830       ??$Get@UPPGUI_Groupbox_Command_Data@PPGUI_Command_Data_Base@PPGUI@@@PPGUI_Command_Data_Base@PPGUI@@QAEAAUPPGUI_Groupbox_Command_Data@01@ABIABW4PPGUI_Command_Types@1@@Z 1006c830 f i PPGUI_Commands.obj
 0001:0006b830       ??$Get@UPPGUI_Button_Command_Data@PPGUI_Command_Data_Base@PPGUI@@@PPGUI_Command_Data_Base@PPGUI@@QAEAAUPPGUI_Button_Command_Data@01@ABIABW4PPGUI_Command_Types@1@@Z 1006c830 f i PPGUI_Commands.obj
 0001:0006b830       ??$Get@UPPGUI_Tool_Tip_Command_Data@PPGUI_Command_Data_Base@PPGUI@@@PPGUI_Command_Data_Base@PPGUI@@QAEAAUPPGUI_Tool_Tip_Command_Data@01@ABIABW4PPGUI_Command_Types@1@@Z 1006c830 f i PPGUI_Commands.obj
 0001:0006b830       ??$Get@UPPGUI_Color_Picker_Command_Data@PPGUI_Command_Data_Base@PPGUI@@@PPGUI_Command_Data_Base@PPGUI@@QAEAAUPPGUI_Color_Picker_Command_Data@01@ABIABW4PPGUI_Command_Types@1@@Z 1006c830 f i PPGUI_Commands.obj
 0001:0006b830       ??$Get@UPPGUI_Keybind_Command_Data@PPGUI_Command_Data_Base@PPGUI@@@PPGUI_Command_Data_Base@PPGUI@@QAEAAUPPGUI_Keybind_Command_Data@01@ABIABW4PPGUI_Command_Types@1@@Z 1006c830 f i PPGUI_Commands.obj
 0001:0006b830       ??$Get@UPPGUI_Combobox_Command_Data@PPGUI_Command_Data_Base@PPGUI@@@PPGUI_Command_Data_Base@PPGUI@@QAEAAUPPGUI_Combobox_Command_Data@01@ABIABW4PPGUI_Command_Types@1@@Z 1006c830 f i PPGUI_Commands.obj
 0001:0006b830       ??$Get@UPPGUI_Checkbox_Command_Data@PPGUI_Command_Data_Base@PPGUI@@@PPGUI_Command_Data_Base@PPGUI@@QAEAAUPPGUI_Checkbox_Command_Data@01@ABIABW4PPGUI_Command_Types@1@@Z 1006c830 f i PPGUI_Commands.obj
 0001:0006b8c0       ??$ReturnCorrectData@UPPGUI_Slider_Command_Data@PPGUI_Command_Data_Base@PPGUI@@@PPGUI_Command_Data_Base@PPGUI@@AAEAAUPPGUI_Slider_Command_Data@01@AATPPGUI_Command_Data@01@ABW4PPGUI_Command_Types@1@@Z 1006c8c0 f i PPGUI_Commands.obj
 0001:0006b8c0       ??$ReturnCorrectData@UPPGUI_Checkbox_Command_Data@PPGUI_Command_Data_Base@PPGUI@@@PPGUI_Command_Data_Base@PPGUI@@AAEAAUPPGUI_Checkbox_Command_Data@01@AATPPGUI_Command_Data@01@ABW4PPGUI_Command_Types@1@@Z 1006c8c0 f i PPGUI_Commands.obj
 0001:0006b8c0       ??$ReturnCorrectData@UPPGUI_Tool_Tip_Command_Data@PPGUI_Command_Data_Base@PPGUI@@@PPGUI_Command_Data_Base@PPGUI@@AAEAAUPPGUI_Tool_Tip_Command_Data@01@AATPPGUI_Command_Data@01@ABW4PPGUI_Command_Types@1@@Z 1006c8c0 f i PPGUI_Commands.obj
 0001:0006b8c0       ??$ReturnCorrectData@UPPGUI_Multiselect_Combobox_Command_Data@PPGUI_Command_Data_Base@PPGUI@@@PPGUI_Command_Data_Base@PPGUI@@AAEAAUPPGUI_Multiselect_Combobox_Command_Data@01@AATPPGUI_Command_Data@01@ABW4PPGUI_Command_Types@1@@Z 1006c8c0 f i PPGUI_Commands.obj
 0001:0006b8c0       ??$ReturnCorrectData@UPPGUI_Color_Picker_Command_Data@PPGUI_Command_Data_Base@PPGUI@@@PPGUI_Command_Data_Base@PPGUI@@AAEAAUPPGUI_Color_Picker_Command_Data@01@AATPPGUI_Command_Data@01@ABW4PPGUI_Command_Types@1@@Z 1006c8c0 f i PPGUI_Commands.obj
 0001:0006b8c0       ??$ReturnCorrectData@UPPGUI_Button_Command_Data@PPGUI_Command_Data_Base@PPGUI@@@PPGUI_Command_Data_Base@PPGUI@@AAEAAUPPGUI_Button_Command_Data@01@AATPPGUI_Command_Data@01@ABW4PPGUI_Command_Types@1@@Z 1006c8c0 f i PPGUI_Commands.obj
 0001:0006b8c0       ??$ReturnCorrectData@UPPGUI_Window_Command_Data@PPGUI_Command_Data_Base@PPGUI@@@PPGUI_Command_Data_Base@PPGUI@@AAEAAUPPGUI_Window_Command_Data@01@AATPPGUI_Command_Data@01@ABW4PPGUI_Command_Types@1@@Z 1006c8c0 f i PPGUI_Commands.obj
 0001:0006b8c0       ??$ReturnCorrectData@UPPGUI_Groupbox_Command_Data@PPGUI_Command_Data_Base@PPGUI@@@PPGUI_Command_Data_Base@PPGUI@@AAEAAUPPGUI_Groupbox_Command_Data@01@AATPPGUI_Command_Data@01@ABW4PPGUI_Command_Types@1@@Z 1006c8c0 f i PPGUI_Commands.obj
 0001:0006b8c0       ??$ReturnCorrectData@UPPGUI_Text_Input_Command_Data@PPGUI_Command_Data_Base@PPGUI@@@PPGUI_Command_Data_Base@PPGUI@@AAEAAUPPGUI_Text_Input_Command_Data@01@AATPPGUI_Command_Data@01@ABW4PPGUI_Command_Types@1@@Z 1006c8c0 f i PPGUI_Commands.obj
 0001:0006b8c0       ??$ReturnCorrectData@UPPGUI_Keybind_Command_Data@PPGUI_Command_Data_Base@PPGUI@@@PPGUI_Command_Data_Base@PPGUI@@AAEAAUPPGUI_Keybind_Command_Data@01@AATPPGUI_Command_Data@01@ABW4PPGUI_Command_Types@1@@Z 1006c8c0 f i PPGUI_Commands.obj
 0001:0006b8c0       ??$ReturnCorrectData@UPPGUI_Combobox_Command_Data@PPGUI_Command_Data_Base@PPGUI@@@PPGUI_Command_Data_Base@PPGUI@@AAEAAUPPGUI_Combobox_Command_Data@01@AATPPGUI_Command_Data@01@ABW4PPGUI_Command_Types@1@@Z 1006c8c0 f i PPGUI_Commands.obj
 0001:0006b920       ??$use_facet@V?$numpunct@D@std@@@std@@YAABV?$numpunct@D@0@ABVlocale@0@@Z 1006c920 f i PPGUI_Commands.obj
 0001:0006baa0       ??0PPGUI_Button_Command@PPGUI@@QAE@PBDVPPGUI_Vector2D@HELPERS@1@1_N@Z 1006caa0 f   PPGUI_Commands.obj
 0001:0006bb20       ??0PPGUI_Checkbox_Command@PPGUI@@QAE@PBDAA_NVPPGUI_Vector2D@HELPERS@1@2_N@Z 1006cb20 f   PPGUI_Commands.obj
 0001:0006bba0       ??0PPGUI_Color_Picker_Command@PPGUI@@QAE@PBDVPPGUI_Vector2D@HELPERS@1@1AAE222_N@Z 1006cba0 f   PPGUI_Commands.obj
 0001:0006bc30       ??0PPGUI_Combobox_Command@PPGUI@@QAE@PBDVPPGUI_Vector2D@HELPERS@1@1PAY0BAA@DHAAH_N@Z 1006cc30 f   PPGUI_Commands.obj
 0001:0006bcf0       ??0PPGUI_Command@PPGUI@@QAE@XZ 1006ccf0 f i PPGUI_Commands.obj
 0001:0006bdb0       ??0PPGUI_Groupbox_Command@PPGUI@@QAE@PBDVPPGUI_Vector2D@HELPERS@1@1_N@Z 1006cdb0 f   PPGUI_Commands.obj
 0001:0006be30       ??0PPGUI_Keybind_Command@PPGUI@@QAE@PBDAAHVPPGUI_Vector2D@HELPERS@1@2_N@Z 1006ce30 f   PPGUI_Commands.obj
 0001:0006bed0       ??0PPGUI_Multiselect_Combobox_Command@PPGUI@@QAE@PBDVPPGUI_Vector2D@HELPERS@1@1PAY0BAA@DPA_NH_N@Z 1006ced0 f   PPGUI_Commands.obj
 0001:0006bf70       ??0PPGUI_Separator_Command@PPGUI@@QAE@PBDVPPGUI_Vector2D@HELPERS@1@1_N@Z 1006cf70 f   PPGUI_Commands.obj
 0001:0006bff0       ??0PPGUI_Slider_Command@PPGUI@@QAE@PBD0MMAAMH_NVPPGUI_Vector2D@HELPERS@1@3@Z 1006cff0 f   PPGUI_Commands.obj
 0001:0006c0e0       ??0PPGUI_Tab_Command@PPGUI@@QAE@VPPGUI_Vector2D@HELPERS@1@0AAHPAY0BAA@DH_N@Z 1006d0e0 f   PPGUI_Commands.obj
 0001:0006c1a0       ??0PPGUI_Text_Input_Command@PPGUI@@QAE@PBDVPPGUI_Vector2D@HELPERS@1@1PAD_N@Z 1006d1a0 f   PPGUI_Commands.obj
 0001:0006c220       ??0PPGUI_Tool_Tip_Command@PPGUI@@QAE@PBDHVPPGUI_Vector2D@HELPERS@1@PAVPPGUI_Command@1@@Z 1006d220 f   PPGUI_Commands.obj
 0001:0006c310       ??0PPGUI_Window_Command@PPGUI@@QAE@PBDVPPGUI_Vector2D@HELPERS@1@1@Z 1006d310 f   PPGUI_Commands.obj
 0001:0006c3c0       ??1?$basic_stringbuf@DU?$char_traits@D@std@@V?$allocator@D@2@@std@@UAE@XZ 1006d3c0 f i PPGUI_Commands.obj
 0001:0006c4d0       ??1PPGUI_Command@PPGUI@@UAE@XZ 1006d4d0 f i PPGUI_Commands.obj
 0001:0006c4e0       ??6?$basic_ostream@DU?$char_traits@D@std@@@std@@QAEAAV01@M@Z 1006d4e0 f i PPGUI_Commands.obj
 0001:0006cc60       ??_D?$basic_stringstream@DU?$char_traits@D@std@@V?$allocator@D@2@@std@@QAEXXZ 1006dc60 f i PPGUI_Commands.obj
 0001:0006cd1f       ??_E?$basic_stringstream@DU?$char_traits@D@std@@V?$allocator@D@2@@std@@$4PPPPPPPM@A@AEPAXI@Z 1006dd1f f i PPGUI_Commands.obj
 0001:0006cd30       ??_G?$basic_stringbuf@DU?$char_traits@D@std@@V?$allocator@D@2@@std@@UAEPAXI@Z 1006dd30 f i PPGUI_Commands.obj
 0001:0006cd30       ??_E?$basic_stringbuf@DU?$char_traits@D@std@@V?$allocator@D@2@@std@@UAEPAXI@Z 1006dd30 f i PPGUI_Commands.obj
 0001:0006cd60       ??_E?$basic_stringstream@DU?$char_traits@D@std@@V?$allocator@D@2@@std@@UAEPAXI@Z 1006dd60 f i PPGUI_Commands.obj
 0001:0006cd60       ??_G?$basic_stringstream@DU?$char_traits@D@std@@V?$allocator@D@2@@std@@UAEPAXI@Z 1006dd60 f i PPGUI_Commands.obj
 0001:0006cd90       ??_G?$numpunct@D@std@@MAEPAXI@Z 1006dd90 f i PPGUI_Commands.obj
 0001:0006cd90       ??_E?$numpunct@D@std@@MAEPAXI@Z 1006dd90 f i PPGUI_Commands.obj
 0001:0006cde0       ??_EPPGUI_Button_Command@PPGUI@@UAEPAXI@Z 1006dde0 f i PPGUI_Commands.obj
 0001:0006cde0       ??_GPPGUI_Separator_Command@PPGUI@@UAEPAXI@Z 1006dde0 f i PPGUI_Commands.obj
 0001:0006cde0       ??_EPPGUI_Command@PPGUI@@UAEPAXI@Z 1006dde0 f i PPGUI_Commands.obj
 0001:0006cde0       ??_EPPGUI_Separator_Command@PPGUI@@UAEPAXI@Z 1006dde0 f i PPGUI_Commands.obj
 0001:0006cde0       ??_GPPGUI_Command@PPGUI@@UAEPAXI@Z 1006dde0 f i PPGUI_Commands.obj
 0001:0006cde0       ??_GPPGUI_Button_Command@PPGUI@@UAEPAXI@Z 1006dde0 f i PPGUI_Commands.obj
 0001:0006cde0       ??_GPPGUI_Groupbox_Command@PPGUI@@UAEPAXI@Z 1006dde0 f i PPGUI_Commands.obj
 0001:0006cde0       ??_EPPGUI_Groupbox_Command@PPGUI@@UAEPAXI@Z 1006dde0 f i PPGUI_Commands.obj
 0001:0006cde0       ??_EPPGUI_Window_Command@PPGUI@@UAEPAXI@Z 1006dde0 f i PPGUI_Commands.obj
 0001:0006cde0       ??_GPPGUI_Window_Command@PPGUI@@UAEPAXI@Z 1006dde0 f i PPGUI_Commands.obj
 0001:0006ce10       ??_EPPGUI_Text_Input_Command@PPGUI@@UAEPAXI@Z 1006de10 f i PPGUI_Commands.obj
 0001:0006ce10       ??_GPPGUI_Checkbox_Command@PPGUI@@UAEPAXI@Z 1006de10 f i PPGUI_Commands.obj
 0001:0006ce10       ??_GPPGUI_Text_Input_Command@PPGUI@@UAEPAXI@Z 1006de10 f i PPGUI_Commands.obj
 0001:0006ce10       ??_GPPGUI_Keybind_Command@PPGUI@@UAEPAXI@Z 1006de10 f i PPGUI_Commands.obj
 0001:0006ce10       ??_EPPGUI_Checkbox_Command@PPGUI@@UAEPAXI@Z 1006de10 f i PPGUI_Commands.obj
 0001:0006ce10       ??_EPPGUI_Keybind_Command@PPGUI@@UAEPAXI@Z 1006de10 f i PPGUI_Commands.obj
 0001:0006ce40       ??_EPPGUI_Color_Picker_Command@PPGUI@@UAEPAXI@Z 1006de40 f i PPGUI_Commands.obj
 0001:0006ce40       ??_GPPGUI_Color_Picker_Command@PPGUI@@UAEPAXI@Z 1006de40 f i PPGUI_Commands.obj
 0001:0006ce70       ??_GPPGUI_Multiselect_Combobox_Command@PPGUI@@UAEPAXI@Z 1006de70 f i PPGUI_Commands.obj
 0001:0006ce70       ??_EPPGUI_Combobox_Command@PPGUI@@UAEPAXI@Z 1006de70 f i PPGUI_Commands.obj
 0001:0006ce70       ??_EPPGUI_Tab_Command@PPGUI@@UAEPAXI@Z 1006de70 f i PPGUI_Commands.obj
 0001:0006ce70       ??_GPPGUI_Combobox_Command@PPGUI@@UAEPAXI@Z 1006de70 f i PPGUI_Commands.obj
 0001:0006ce70       ??_GPPGUI_Tab_Command@PPGUI@@UAEPAXI@Z 1006de70 f i PPGUI_Commands.obj
 0001:0006ce70       ??_EPPGUI_Multiselect_Combobox_Command@PPGUI@@UAEPAXI@Z 1006de70 f i PPGUI_Commands.obj
 0001:0006cea0       ??_EPPGUI_Slider_Command@PPGUI@@UAEPAXI@Z 1006dea0 f i PPGUI_Commands.obj
 0001:0006cea0       ??_GPPGUI_Slider_Command@PPGUI@@UAEPAXI@Z 1006dea0 f i PPGUI_Commands.obj
 0001:0006ced0       ??_GPPGUI_Tool_Tip_Command@PPGUI@@UAEPAXI@Z 1006ded0 f i PPGUI_Commands.obj
 0001:0006ced0       ??_EPPGUI_Tool_Tip_Command@PPGUI@@UAEPAXI@Z 1006ded0 f i PPGUI_Commands.obj
 0001:0006cf00       ?Brightness@PPGUI_Color@HELPERS@PPGUI@@QBEMXZ 1006df00 f i PPGUI_Commands.obj
 0001:0006cf60       ?ClampToBounds@PPGUI_Vector2D@HELPERS@PPGUI@@SA_NAAV123@0ABV123@1@Z 1006df60 f i PPGUI_Commands.obj
 0001:0006d040       ?Draw@PPGUI_Button_Command@PPGUI@@UAEXXZ 1006e040 f   PPGUI_Commands.obj
 0001:0006d380       ?Draw@PPGUI_Checkbox_Command@PPGUI@@UAEXXZ 1006e380 f   PPGUI_Commands.obj
 0001:0006d610       ?Draw@PPGUI_Color_Picker_Command@PPGUI@@UAEXXZ 1006e610 f   PPGUI_Commands.obj
 0001:0006e5f0       ?Draw@PPGUI_Combobox_Command@PPGUI@@UAEXXZ 1006f5f0 f   PPGUI_Commands.obj
 0001:0006eca0       ?Draw@PPGUI_Groupbox_Command@PPGUI@@UAEXXZ 1006fca0 f   PPGUI_Commands.obj
 0001:0006ee70       ?Draw@PPGUI_Keybind_Command@PPGUI@@UAEXXZ 1006fe70 f   PPGUI_Commands.obj
 0001:0006f2b0       ?Draw@PPGUI_Multiselect_Combobox_Command@PPGUI@@UAEXXZ 100702b0 f   PPGUI_Commands.obj
 0001:0006fa30       ?Draw@PPGUI_Separator_Command@PPGUI@@UAEXXZ 10070a30 f   PPGUI_Commands.obj
 0001:0006fc40       ?Draw@PPGUI_Slider_Command@PPGUI@@UAEXXZ 10070c40 f   PPGUI_Commands.obj
 0001:00070240       ?Draw@PPGUI_Tab_Command@PPGUI@@UAEXXZ 10071240 f   PPGUI_Commands.obj
 0001:00070560       ?Draw@PPGUI_Text_Input_Command@PPGUI@@UAEXXZ 10071560 f   PPGUI_Commands.obj
 0001:00070b10       ?Draw@PPGUI_Tool_Tip_Command@PPGUI@@UAEXXZ 10071b10 f   PPGUI_Commands.obj
 0001:00070d60       ?Draw@PPGUI_Window_Command@PPGUI@@UAEXXZ 10071d60 f   PPGUI_Commands.obj
 0001:00071360       ?GetClampedPositionAndSize@PPGUI_Command@PPGUI@@QAE_NAAVPPGUI_Vector2D@HELPERS@2@0@Z 10072360 f i PPGUI_Commands.obj
 0001:00071430       ?GetDataHash@PPGUI_Command@PPGUI@@QAEIXZ 10072430 f   PPGUI_Commands.obj
 0001:00071550       ?GetKeyName@PPGUI_Input@PPGUI@@SAPBDH@Z 10072550 f i PPGUI_Commands.obj
 0001:00071980       ?GetScrollAlphaScale@PPGUI_Command@PPGUI@@QAEMXZ 10072980 f i PPGUI_Commands.obj
 0001:00071a20       ?GetScrollAmount@PPGUI_Groupbox_Command@PPGUI@@UAEHXZ 10072a20 f   PPGUI_Commands.obj
 0001:00071a50       ?GetScrollAmount@PPGUI_Window_Command@PPGUI@@UAEHXZ 10072a50 f   PPGUI_Commands.obj
 0001:00071a80       ?HSBtoRGB@PPGUI_Color@HELPERS@PPGUI@@SA?AV123@MMMH@Z 10072a80 f i PPGUI_Commands.obj
 0001:00071c90       ?Hue@PPGUI_Color@HELPERS@PPGUI@@QBEMXZ 10072c90 f i PPGUI_Commands.obj
 0001:00071d80       ?IsPointInBounds@PPGUI_Command@PPGUI@@QAE_NVPPGUI_Vector2D@HELPERS@2@@Z 10072d80 f i PPGUI_Commands.obj
 0001:00071e20       ?IsRectInBounds@PPGUI_Command@PPGUI@@QAE_NVPPGUI_Vector2D@HELPERS@2@0@Z 10072e20 f i PPGUI_Commands.obj
 0001:00071f20       ?IsValidKey@PPGUI_Input@PPGUI@@SA_NH@Z 10072f20 f i PPGUI_Commands.obj
 0001:00071fb0       ?KeyToChar@PPGUI_Input@PPGUI@@SADH@Z 10072fb0 f i PPGUI_Commands.obj
 0001:000721c0       ?PPGUI_GetTime@HELPERS@PPGUI@@YAMXZ 100731c0 f i PPGUI_Commands.obj
 0001:00072200       ?Saturation@PPGUI_Color@HELPERS@PPGUI@@QBEMXZ 10073200 f i PPGUI_Commands.obj
 0001:00072280       ?SetupCommandInfo@PPGUI_Command@PPGUI@@QAEXAAUPPGUI_Command_Info@2@VPPGUI_Vector2D@HELPERS@2@1PBD_N@Z 10073280 f   PPGUI_Commands.obj
 0001:000724b0       ?TestInput@PPGUI_Button_Command@PPGUI@@UAEXAAVPPGUI_Input@2@@Z 100734b0 f   PPGUI_Commands.obj
 0001:000725b0       ?TestInput@PPGUI_Checkbox_Command@PPGUI@@UAEXAAVPPGUI_Input@2@@Z 100735b0 f   PPGUI_Commands.obj
 0001:000726b0       ?TestInput@PPGUI_Color_Picker_Command@PPGUI@@UAEXAAVPPGUI_Input@2@@Z 100736b0 f   PPGUI_Commands.obj
 0001:00072a90       ?TestInput@PPGUI_Combobox_Command@PPGUI@@UAEXAAVPPGUI_Input@2@@Z 10073a90 f   PPGUI_Commands.obj
 0001:00072e50       ?TestInput@PPGUI_Groupbox_Command@PPGUI@@UAEXAAVPPGUI_Input@2@@Z 10073e50 f   PPGUI_Commands.obj
 0001:00072f70       ?TestInput@PPGUI_Keybind_Command@PPGUI@@UAEXAAVPPGUI_Input@2@@Z 10073f70 f   PPGUI_Commands.obj
 0001:00073130       ?TestInput@PPGUI_Multiselect_Combobox_Command@PPGUI@@UAEXAAVPPGUI_Input@2@@Z 10074130 f   PPGUI_Commands.obj
 0001:000734e0       ?TestInput@PPGUI_Slider_Command@PPGUI@@UAEXAAVPPGUI_Input@2@@Z 100744e0 f   PPGUI_Commands.obj
 0001:00073890       ?TestInput@PPGUI_Tab_Command@PPGUI@@UAEXAAVPPGUI_Input@2@@Z 10074890 f   PPGUI_Commands.obj
 0001:000739a0       ?TestInput@PPGUI_Text_Input_Command@PPGUI@@UAEXAAVPPGUI_Input@2@@Z 100749a0 f   PPGUI_Commands.obj
 0001:00073b50       ?TestInput@PPGUI_Tool_Tip_Command@PPGUI@@UAEXAAVPPGUI_Input@2@@Z 10074b50 f   PPGUI_Commands.obj
 0001:00073c70       ?TestInput@PPGUI_Window_Command@PPGUI@@UAEXAAVPPGUI_Input@2@@Z 10074c70 f   PPGUI_Commands.obj
 0001:00073dc0       ?_Ffmt@?$num_put@DV?$ostreambuf_iterator@DU?$char_traits@D@std@@@std@@@std@@ABAPADPADDH@Z 10074dc0 f i PPGUI_Commands.obj
 0001:00073e80       ?_Fput@?$num_put@DV?$ostreambuf_iterator@DU?$char_traits@D@std@@@std@@@std@@ABA?AV?$ostreambuf_iterator@DU?$char_traits@D@std@@@2@V32@AAVios_base@2@DPBDI@Z 10074e80 f i PPGUI_Commands.obj
 0001:00074440       ?_Ifmt@?$num_put@DV?$ostreambuf_iterator@DU?$char_traits@D@std@@@std@@@std@@ABAPADPADPBDH@Z 10075440 f i PPGUI_Commands.obj
 0001:000744d0       ?_Init@?$numpunct@D@std@@IAEXABV_Locinfo@2@_N@Z 100754d0 f i PPGUI_Commands.obj
 0001:00074660       ?_Iput@?$num_put@DV?$ostreambuf_iterator@DU?$char_traits@D@std@@@std@@@std@@ABA?AV?$ostreambuf_iterator@DU?$char_traits@D@std@@@2@V32@AAVios_base@2@DPADI@Z 10075660 f i PPGUI_Commands.obj
 0001:00074b80       ?_Put@?$num_put@DV?$ostreambuf_iterator@DU?$char_traits@D@std@@@std@@@std@@ABA?AV?$ostreambuf_iterator@DU?$char_traits@D@std@@@2@V32@PBDI@Z 10075b80 f i PPGUI_Commands.obj
 0001:00074c00       ?_Rep@?$num_put@DV?$ostreambuf_iterator@DU?$char_traits@D@std@@@std@@@std@@ABA?AV?$ostreambuf_iterator@DU?$char_traits@D@std@@@2@V32@DI@Z 10075c00 f i PPGUI_Commands.obj
 0001:00074c70       ?_Tidy@?$numpunct@D@std@@AAEXXZ 10075c70 f i PPGUI_Commands.obj
 0001:00074c90       ?deallocate@?$allocator@D@std@@QAEXQADI@Z 10075c90 f i PPGUI_Commands.obj
 0001:00074cd0       ?do_decimal_point@?$numpunct@D@std@@MBEDXZ 10075cd0 f i PPGUI_Commands.obj
 0001:00074ce0       ?do_falsename@?$numpunct@D@std@@MBE?AV?$basic_string@DU?$char_traits@D@std@@V?$allocator@D@2@@2@XZ 10075ce0 f i PPGUI_Commands.obj
 0001:00074d20       ?do_grouping@?$numpunct@D@std@@MBE?AV?$basic_string@DU?$char_traits@D@std@@V?$allocator@D@2@@2@XZ 10075d20 f i PPGUI_Commands.obj
 0001:00074d60       ?do_put@?$num_put@DV?$ostreambuf_iterator@DU?$char_traits@D@std@@@std@@@std@@MBE?AV?$ostreambuf_iterator@DU?$char_traits@D@std@@@2@V32@AAVios_base@2@DJ@Z 10075d60 f i PPGUI_Commands.obj
 0001:00074dd0       ?do_put@?$num_put@DV?$ostreambuf_iterator@DU?$char_traits@D@std@@@std@@@std@@MBE?AV?$ostreambuf_iterator@DU?$char_traits@D@std@@@2@V32@AAVios_base@2@DK@Z 10075dd0 f i PPGUI_Commands.obj
 0001:00074e40       ?do_put@?$num_put@DV?$ostreambuf_iterator@DU?$char_traits@D@std@@@std@@@std@@MBE?AV?$ostreambuf_iterator@DU?$char_traits@D@std@@@2@V32@AAVios_base@2@DN@Z 10075e40 f i PPGUI_Commands.obj
 0001:00074ff0       ?do_put@?$num_put@DV?$ostreambuf_iterator@DU?$char_traits@D@std@@@std@@@std@@MBE?AV?$ostreambuf_iterator@DU?$char_traits@D@std@@@2@V32@AAVios_base@2@DO@Z 10075ff0 f i PPGUI_Commands.obj
 0001:000751a0       ?do_put@?$num_put@DV?$ostreambuf_iterator@DU?$char_traits@D@std@@@std@@@std@@MBE?AV?$ostreambuf_iterator@DU?$char_traits@D@std@@@2@V32@AAVios_base@2@DPBX@Z 100761a0 f i PPGUI_Commands.obj
 0001:00075200       ?do_put@?$num_put@DV?$ostreambuf_iterator@DU?$char_traits@D@std@@@std@@@std@@MBE?AV?$ostreambuf_iterator@DU?$char_traits@D@std@@@2@V32@AAVios_base@2@D_J@Z 10076200 f i PPGUI_Commands.obj
 0001:00075270       ?do_put@?$num_put@DV?$ostreambuf_iterator@DU?$char_traits@D@std@@@std@@@std@@MBE?AV?$ostreambuf_iterator@DU?$char_traits@D@std@@@2@V32@AAVios_base@2@D_K@Z 10076270 f i PPGUI_Commands.obj
 0001:000752e0       ?do_put@?$num_put@DV?$ostreambuf_iterator@DU?$char_traits@D@std@@@std@@@std@@MBE?AV?$ostreambuf_iterator@DU?$char_traits@D@std@@@2@V32@AAVios_base@2@D_N@Z 100762e0 f i PPGUI_Commands.obj
 0001:000754f0       ?do_thousands_sep@?$numpunct@D@std@@MBEDXZ 100764f0 f i PPGUI_Commands.obj
 0001:00075500       ?do_truename@?$numpunct@D@std@@MBE?AV?$basic_string@DU?$char_traits@D@std@@V?$allocator@D@2@@2@XZ 10076500 f i PPGUI_Commands.obj
 0001:00075540       ?fixed@std@@YAAAVios_base@1@AAV21@@Z 10076540 f i PPGUI_Commands.obj
 0001:00075560       ?overflow@?$basic_stringbuf@DU?$char_traits@D@std@@V?$allocator@D@2@@std@@MAEHH@Z 10076560 f i PPGUI_Commands.obj
 0001:000756c0       ?pbackfail@?$basic_stringbuf@DU?$char_traits@D@std@@V?$allocator@D@2@@std@@MAEHH@Z 100766c0 f i PPGUI_Commands.obj
 0001:00075720       ?seekoff@?$basic_stringbuf@DU?$char_traits@D@std@@V?$allocator@D@2@@std@@MAE?AV?$fpos@U_Mbstatet@@@2@_JHH@Z 10076720 f i PPGUI_Commands.obj
 0001:00075880       ?seekpos@?$basic_stringbuf@DU?$char_traits@D@std@@V?$allocator@D@2@@std@@MAE?AV?$fpos@U_Mbstatet@@@2@V32@H@Z 10076880 f i PPGUI_Commands.obj
 0001:00075970       ?underflow@?$basic_stringbuf@DU?$char_traits@D@std@@V?$allocator@D@2@@std@@MAEHXZ 10076970 f i PPGUI_Commands.obj
 0001:000759d0       ?PPGUI_DrawCircle@HELPERS@PPGUI@@YAXVPPGUI_Vector2D@12@VPPGUI_Color@12@HH_N@Z 100769d0 f   PPGUI_Helpers.obj
 0001:00075a30       ?PPGUI_DrawLine@HELPERS@PPGUI@@YAXVPPGUI_Vector2D@12@0VPPGUI_Color@12@@Z 10076a30 f   PPGUI_Helpers.obj
 0001:00075a80       ?PPGUI_DrawLineEx@HELPERS@PPGUI@@YAXVPPGUI_Vector2D@12@0VPPGUI_Color@12@@Z 10076a80 f   PPGUI_Helpers.obj
 0001:00075ac0       ?PPGUI_DrawRectangle@HELPERS@PPGUI@@YAXVPPGUI_Vector2D@12@0VPPGUI_Color@12@_N@Z 10076ac0 f   PPGUI_Helpers.obj
 0001:00075b30       ?PPGUI_DrawText@HELPERS@PPGUI@@YAXVPPGUI_Vector2D@12@I_N1VPPGUI_Color@12@PBD@Z 10076b30 f   PPGUI_Helpers.obj
 0001:00075bb0       ?PPGUI_GetFilteredTextWidth@HELPERS@PPGUI@@YAHPBDH@Z 10076bb0 f   PPGUI_Helpers.obj
 0001:00075c80       ?PPGUI_GetScreenSize@HELPERS@PPGUI@@YA?AVPPGUI_Vector2D@12@XZ 10076c80 f   PPGUI_Helpers.obj
 0001:00075cb0       ?PPGUI_GetTextSize@HELPERS@PPGUI@@YA?AVPPGUI_Vector2D@12@IPBD@Z 10076cb0 f   PPGUI_Helpers.obj
 0001:00075d10       ??0PPGUI_Color@HELPERS@PPGUI@@QAE@XZ 10076d10 f i PPGUI_Defines.obj
 0001:00075d20       ??1?$_Hash@V?$_Umap_traits@ITPPGUI_Command_Data@PPGUI_Command_Data_Base@PPGUI@@V?$_Uhash_compare@IU?$hash@I@std@@U?$equal_to@I@2@@std@@V?$allocator@U?$pair@$$CBITPPGUI_Command_Data@PPGUI_Command_Data_Base@PPGUI@@@std@@@5@$0A@@std@@@std@@QAE@XZ 10076d20 f i PPGUI_Defines.obj
 0001:00075d80       ??1?$list@U?$pair@$$CBITPPGUI_Command_Data@PPGUI_Command_Data_Base@PPGUI@@@std@@V?$allocator@U?$pair@$$CBITPPGUI_Command_Data@PPGUI_Command_Data_Base@PPGUI@@@std@@@2@@std@@QAE@XZ 10076d80 f i PPGUI_Defines.obj
 0001:00075dd0       ?Update@PPGUI_Input@PPGUI@@QAEXXZ 10076dd0 f   PPGUI_Defines.obj
 0001:00075f40       ??$_Insert_string@DU?$char_traits@D@std@@I@std@@YAAAV?$basic_ostream@DU?$char_traits@D@std@@@0@AAV10@QBDI@Z 10076f40 f i Debugger.obj
 0001:000761b0       ??$_Range_construct_or_tidy@PBQBD@?$vector@PBDV?$allocator@PBD@std@@@std@@AAEXPBQBD0Uforward_iterator_tag@1@@Z 100771b0 f i hooks.obj
 0001:00076270       ??A?$map@HPAXU?$less@H@std@@V?$allocator@U?$pair@$$CBHPAX@std@@@2@@std@@QAEAAPAXABH@Z 10077270 f i hooks.obj
 0001:000762f0       ?EyeAnglesPitchHook@HOOKS@@YAXPBVCRecvProxyData@SDK@@PAX1@Z 100772f0 f   hooks.obj
 0001:00076320       ?EyeAnglesYawHook@HOOKS@@YAXPBVCRecvProxyData@SDK@@PAX1@Z 10077320 f   hooks.obj
 0001:00076350       ?HookedCreateMove@HOOKS@@YI_NPAX0MPAVCUserCmd@SDK@@@Z 10077350 f   hooks.obj
 0001:000765e0       ?HookedDrawModelExecute@HOOKS@@YIXPAX0PAVIMatRenderContext@SDK@@ABUDrawModelState_t@3@ABUModelRenderInfo_t@3@PAUmatrix3x4_t@@@Z 100775e0 f   hooks.obj
 0001:00076670       ?HookedFrameStageNotify@HOOKS@@YIXPAX0H@Z 10077670 f   hooks.obj
 0001:00076720       ?HookedOverrideView@HOOKS@@YIXPAX0PAUCViewSetup@SDK@@@Z 10077720 f   hooks.obj
 0001:00076780       ?HookedPaintTraverse@HOOKS@@YGXH_N0@Z 10077780 f   hooks.obj
 0001:000768e0       ?HookedSceneEnd@HOOKS@@YIXPAX0@Z 100778e0 f   hooks.obj
 0001:00076b60       ?HookedTraceRay@HOOKS@@YIXPAX0ABURay_t@SDK@@IPAVITraceFilter@3@PAUtrace_t@3@@Z 10077b60 f   hooks.obj
 0001:00076b90       ?InitHooks@HOOKS@@YAXXZ    10077b90 f   hooks.obj
 0001:000773f0       ?InitNetvarHooks@HOOKS@@YAXXZ 100783f0 f   hooks.obj
 0001:00077550       ?SmokeEffectHook@HOOKS@@YAXPBVCRecvProxyData@SDK@@PAX1@Z 10078550 f   hooks.obj
 0001:00077560       ?UnHook@HOOKS@@YAXXZ       10078560 f   hooks.obj
 0001:000775b0       ??$_Emplace_reallocate@ABH@?$vector@HV?$allocator@H@std@@@std@@QAEPAHQAHABH@Z 100785b0 f i input_handler.obj
 0001:000775b0       ??$_Emplace_reallocate@H@?$vector@HV?$allocator@H@std@@@std@@QAEPAHQAH$$QAH@Z 100785b0 f i input_handler.obj
 0001:000776c0       ?GetCurrentKeyboardState@InputHandler@INPUT@UTILS@@QAEXPAH@Z 100786c0 f   input_handler.obj
 0001:000776e0       ?GetKeyState@InputHandler@INPUT@UTILS@@QAEHH@Z 100786e0 f   input_handler.obj
 0001:000776f0       ?GetMouseInfo@InputHandler@INPUT@UTILS@@QAE?AUMouseInfo@23@XZ 100786f0 f   input_handler.obj
 0001:00077770       ?Init@InputHandler@INPUT@UTILS@@QAEXXZ 10078770 f   input_handler.obj
 0001:000777b0       ?Update@InputHandler@INPUT@UTILS@@QAEXXZ 100787b0 f   input_handler.obj
 0001:000777e0       ?WndProcCallback@INPUT@UTILS@@YGJPAUHWND__@@IIJ@Z 100787e0 f   input_handler.obj
 0001:00077940       ?_Change_array@?$vector@HV?$allocator@H@std@@@std@@AAEXQAHII@Z 10078940 f i input_handler.obj
 0001:000779a0       ??6?$basic_ostream@DU?$char_traits@D@std@@@std@@QAEAAV01@PBX@Z 100789a0 f i interfaces.obj
 0001:00077c30       ?FindInterface@INTERFACES@@YAPAXPBD0@Z 10078c30 f   interfaces.obj
 0001:00077f60       ?InitInterfaces@INTERFACES@@YAXXZ 10078f60 f   interfaces.obj
 0001:00078e30       ?hex@std@@YAAAVios_base@1@AAV21@@Z 10079e30 f i interfaces.obj
 0001:00078e50       ??0?$basic_fstream@DU?$char_traits@D@std@@@std@@QAE@XZ 10079e50 f i logging.obj
 0001:00079100       ?Log@UTILS@@YAXV?$basic_string@DU?$char_traits@D@std@@V?$allocator@D@2@@std@@@Z 1007a100 f   logging.obj
 0001:00079290       ?open@?$basic_fstream@DU?$char_traits@D@std@@@std@@QAEXPBDHH@Z 1007a290 f i logging.obj
 0001:000793b0       ?AngleVectors2D@MATH@@YAXMAAVVector2D@@@Z 1007a3b0 f   math.obj
 0001:00079410       ?AngleVectors@MATH@@YAXABVVector@@PAV2@11@Z 1007a410 f   math.obj
 0001:000795a0       ?CalcAngle2D@MATH@@YAMABVVector2D@@0@Z 1007a5a0 f   math.obj
 0001:00079610       ?NormalizeAngleTest@MATH@@YAXAAM@Z 1007a610 f   math.obj
 0001:000796b0       ?VectorAngles@MATH@@YAXABVVector@@AAV2@@Z 1007a6b0 f   math.obj
 0001:00079810       ?VectorTransform@MATH@@YAXABVVector@@ABUmatrix3x4_t@@AAV2@@Z 1007a810 f   math.obj
 0001:000798b0       ??$_Traits_equal@U?$char_traits@D@std@@@std@@YA_NQBDI0I@Z 1007a8b0 f i NetvarManager.obj
 0001:00079920       ?GetOffset@CNetvarManager@UTILS@@QAEIV?$basic_string@DU?$char_traits@D@std@@V?$allocator@D@2@@std@@0@Z 1007a920 f   NetvarManager.obj
 0001:00079bb0       ?Hook@CNetvarManager@UTILS@@QAEPAXV?$basic_string@DU?$char_traits@D@std@@V?$allocator@D@2@@std@@0P6AXPBVCRecvProxyData@SDK@@PAX2@Z@Z 1007abb0 f   NetvarManager.obj
 0001:00079ee0       ?RecursivelyFindOffset@CNetvarManager@UTILS@@AAEIPAURecvTable@SDK@@V?$basic_string@DU?$char_traits@D@std@@V?$allocator@D@2@@std@@1@Z 1007aee0 f   NetvarManager.obj
 0001:0007a400       ?InitOffsets@OFFSETS@@YAXXZ 1007b400 f   offsets.obj
 0001:0007c970       ?c_str@?$basic_string@DU?$char_traits@D@std@@V?$allocator@D@2@@std@@QBEPBDXZ 1007d970 f i offsets.obj
 0001:0007c980       ??1?$unique_ptr@$$BY0A@_WU?$default_delete@$$BY0A@_W@std@@@std@@QAE@XZ 1007d980 f i render.obj
 0001:0007c990       ??1?$vector@UDrawCircleQueue@RenderQueue@RENDER@@V?$allocator@UDrawCircleQueue@RenderQueue@RENDER@@@std@@@std@@QAE@XZ 1007d990 f i render.obj
 0001:0007ca00       ?Clear@RenderQueue@RENDER@@QAEXXZ 1007da00 f   render.obj
 0001:0007caa0       ?CreateF@RENDER@@YAIV?$basic_string@DU?$char_traits@D@std@@V?$allocator@D@2@@std@@HHHHH@Z 1007daa0 f   render.obj
 0001:0007cb60       ?Draw@RenderQueue@RENDER@@QAEXXZ 1007db60 f   render.obj
 0001:0007cbd0       ?DrawCircle@RENDER@@YAXHHHHVCColor@@@Z 1007dbd0 f   render.obj
 0001:0007cc10       ?DrawEmptyRect@RENDER@@YAXHHHHVCColor@@E@Z 1007dc10 f   render.obj
 0001:0007cca0       ?DrawF@RENDER@@YAXHHI_N0VCColor@@V?$basic_string@DU?$char_traits@D@std@@V?$allocator@D@2@@std@@@Z 1007dca0 f   render.obj
 0001:0007ce60       ?DrawFilledCircle@RENDER@@YAXHHHHVCColor@@@Z 1007de60 f   render.obj
 0001:0007d0e0       ?DrawFilledRect@RENDER@@YAXHHHHVCColor@@@Z 1007e0e0 f   render.obj
 0001:0007d110       ?DrawLine@RENDER@@YAXHHHHVCColor@@@Z 1007e110 f   render.obj
 0001:0007d140       ?GetTextSize@RENDER@@YA?AVVector2D@@IV?$basic_string@DU?$char_traits@D@std@@V?$allocator@D@2@@std@@@Z 1007e140 f   render.obj
 0001:0007d260       ?TexturedPolygon@RENDER@@YAXHV?$vector@UVertex_t@SDK@@V?$allocator@UVertex_t@SDK@@@std@@@std@@VCColor@@@Z 1007e260 f   render.obj
 0001:0007d3a0       ?CanShoot@UTILS@@YA_N_N@Z  1007e3a0 f   utils.obj
 0001:0007d500       ?FindPattern@UTILS@@YAIPBDPBE0@Z 1007e500 f   utils.obj
 0001:0007d590       ?FindSignature@UTILS@@YAIPBD0@Z 1007e590 f   utils.obj
 0001:0007d680       ?GetCurtime@UTILS@@YAMXZ   1007e680 f   utils.obj
 0001:0007d6d0       ?GetHitgroupName@UTILS@@YAPBDH@Z 1007e6d0 f   utils.obj
 0001:0007d740       ?GetLBYRotatedYaw@UTILS@@YAMMM@Z 1007e740 f   utils.obj
 0001:0007d7d0       ?GetLatency@UTILS@@YAMXZ   1007e7d0 f   utils.obj
 0001:0007d810       ?GetPlayerName@UTILS@@YAPBDPAVCBaseEntity@SDK@@@Z 1007e810 f   utils.obj
 0001:0007d860       ?GetWeapon@UTILS@@YAPAVCBaseWeapon@SDK@@PAVCBaseEntity@3@@Z 1007e860 f   utils.obj
 0001:0007d880       ?IsPressingMovementKeys@UTILS@@YA_NPAVCUserCmd@SDK@@@Z 1007e880 f   utils.obj
 0001:0007d8a0       ?IsWeaponGrenade@UTILS@@YA_NPAVCBaseWeapon@SDK@@@Z 1007e8a0 f   utils.obj
 0001:0007d8d0       ?IsWeaponKnife@UTILS@@YA_NPAVCBaseWeapon@SDK@@@Z 1007e8d0 f   utils.obj
 0001:0007d910       ?IsWeaponSniper@UTILS@@YA_NPAVCBaseWeapon@SDK@@@Z 1007e910 f   utils.obj
 0001:0007d940       ?IsWeaponTaser@UTILS@@YA_NPAVCBaseWeapon@SDK@@@Z 1007e940 f   utils.obj
 0001:0007d960       ?RotateMovement@UTILS@@YAXPAVCUserCmd@SDK@@M@Z 1007e960 f   utils.obj
 0001:0007da00       ?TraceToEnd@UTILS@@YA?AVVector@@V2@0@Z 1007ea00 f   utils.obj
 0001:0007db50       ?InitFonts@FONTS@@YAXXZ    1007eb50 f   variables.obj
 0001:0007e440       ?ShouldReloadFonts@FONTS@@YA_NXZ 1007f440 f   variables.obj
 0001:0007e490       ??0VMTHookManager@VMT@@QAE@XZ 1007f490 f   vmt.obj
 0001:0007e4d0       ??1VMTHookManager@VMT@@QAE@XZ 1007f4d0 f   vmt.obj
 0001:0007e570       ?Init@VMTHookManager@VMT@@QAEXPAX@Z 1007f570 f   vmt.obj
 0001:0007e5e0       ?IsHooked@VMTHookManager@VMT@@QAE_NH@Z 1007f5e0 f   vmt.obj
 0001:0007e620       ?Restore@VMTHookManager@VMT@@QAEXXZ 1007f620 f   vmt.obj
 0001:0007e6a0       ?_Buyheadnode@?$_Tree_comp_alloc@V?$_Tmap_traits@HPAXU?$less@H@std@@V?$allocator@U?$pair@$$CBHPAX@std@@@2@$0A@@std@@@std@@QAEPAU?$_Tree_node@U?$pair@$$CBHPAX@std@@PAX@2@XZ 1007f6a0 f i vmt.obj
 0001:0007e6c0       ?_Erase@?$_Tree@V?$_Tmap_traits@HPAXU?$less@H@std@@V?$allocator@U?$pair@$$CBHPAX@std@@@2@$0A@@std@@@std@@IAEXPAU?$_Tree_node@U?$pair@$$CBHPAX@std@@PAX@2@@Z 1007f6c0 f i vmt.obj
 0001:0007e700       ?_Extract@?$_Tree_val@U?$_Tree_simple_types@U?$pair@$$CBHPAX@std@@@std@@@std@@QAEPAU?$_Tree_node@U?$pair@$$CBHPAX@std@@PAX@2@V?$_Tree_const_iterator@V?$_Tree_val@U?$_Tree_simple_types@U?$pair@$$CBHPAX@std@@@std@@@std@@@2@@Z 1007f700 f i vmt.obj
 0001:0007e970       ?clear@?$_Tree@V?$_Tmap_traits@HPAXU?$less@H@std@@V?$allocator@U?$pair@$$CBHPAX@std@@@2@$0A@@std@@@std@@QAEXXZ 1007f970 f i vmt.obj
 0001:0007ea00       ?erase@?$_Tree@V?$_Tmap_traits@HPAXU?$less@H@std@@V?$allocator@U?$pair@$$CBHPAX@std@@@2@$0A@@std@@@std@@QAE?AV?$_Tree_iterator@V?$_Tree_val@U?$_Tree_simple_types@U?$pair@$$CBHPAX@std@@@std@@@std@@@2@V?$_Tree_const_iterator@V?$_Tree_val@U?$_Tree_simple_types@U?$pair@$$CBHPAX@std@@@std@@@std@@@2@0@Z 1007fa00 f i vmt.obj
 0001:0007ea6f       _K32GetModuleInformation@16 1007fa6f f   kernel32:KERNEL32.dll
 0001:0007ea75       ??0_Init_locks@std@@QAE@XZ 1007fa75 f   libcpmt:xlock.obj
 0001:0007eaa2       ??0_Lockit@std@@QAE@H@Z    1007faa2 f   libcpmt:xlock.obj
 0001:0007ead3       ??1_Init_locks@std@@QAE@XZ 1007fad3 f   libcpmt:xlock.obj
 0001:0007eafa       ??1_Lockit@std@@QAE@XZ     1007fafa f   libcpmt:xlock.obj
 0001:0007eb19       ?uncaught_exception@std@@YA_NXZ 1007fb19 f   libcpmt:uncaught_exception.obj
 0001:0007eb1e       ??0bad_alloc@std@@QAE@ABV01@@Z 1007fb1e f i libcpmt:xthrow.obj
 0001:0007eb39       ??0bad_alloc@std@@QAE@XZ   1007fb39 f i libcpmt:xthrow.obj
 0001:0007eb51       ??0length_error@std@@QAE@ABV01@@Z 1007fb51 f i libcpmt:xthrow.obj
 0001:0007eb6c       ??0length_error@std@@QAE@PBD@Z 1007fb6c f i libcpmt:xthrow.obj
 0001:0007eb8b       ??0out_of_range@std@@QAE@ABV01@@Z 1007fb8b f i libcpmt:xthrow.obj
 0001:0007eba6       ??0out_of_range@std@@QAE@PBD@Z 1007fba6 f i libcpmt:xthrow.obj
 0001:0007ebc5       ??_Gbad_alloc@std@@UAEPAXI@Z 1007fbc5 f i libcpmt:xthrow.obj
 0001:0007ebc5       ??_Gout_of_range@std@@UAEPAXI@Z 1007fbc5 f i libcpmt:xthrow.obj
 0001:0007ebc5       ??_Gbad_exception@std@@UAEPAXI@Z 1007fbc5 f i libvcruntime:frame.obj
 0001:0007ebc5       ??_Eout_of_range@std@@UAEPAXI@Z 1007fbc5 f i libcpmt:xthrow.obj
 0001:0007ebc5       ??_Ebad_array_new_length@std@@UAEPAXI@Z 1007fbc5 f i LIBCMT:throw_bad_alloc.obj
 0001:0007ebc5       ??_Gbad_array_new_length@std@@UAEPAXI@Z 1007fbc5 f i LIBCMT:throw_bad_alloc.obj
 0001:0007ebc5       ??_Ebad_exception@std@@UAEPAXI@Z 1007fbc5 f i libvcruntime:frame.obj
 0001:0007ebc5       ??_Elength_error@std@@UAEPAXI@Z 1007fbc5 f i libcpmt:xthrow.obj
 0001:0007ebc5       ??_Glength_error@std@@UAEPAXI@Z 1007fbc5 f i libcpmt:xthrow.obj
 0001:0007ebc5       ??_Ebad_alloc@std@@UAEPAXI@Z 1007fbc5 f i libcpmt:xthrow.obj
 0001:0007ebf2       ?__scrt_throw_std_bad_alloc@@YAXXZ 1007fbf2 f   LIBCMT:throw_bad_alloc.obj
 0001:0007ebf2       ?_Xbad_alloc@std@@YAXXZ    1007fbf2 f   libcpmt:xthrow.obj
 0001:0007ec0f       ?_Xlength_error@std@@YAXPBD@Z 1007fc0f f   libcpmt:xthrow.obj
 0001:0007ec2f       ?_Xout_of_range@std@@YAXPBD@Z 1007fc2f f   libcpmt:xthrow.obj
 0001:0007ec4f       __Getctype                 1007fc4f f   libcpmt:_tolower.obj
 0001:0007ecb7       __Tolower                  1007fcb7 f   libcpmt:_tolower.obj
 0001:0007edb5       __Toupper                  1007fdb5 f   libcpmt:_toupper.obj
 0001:0007eeb3       ??0_Locimp@locale@std@@AAE@_N@Z 1007feb3 f i libcpmt:locale0.obj
 0001:0007eef4       ??1_Fac_node@std@@QAE@XZ   1007fef4 f i libcpmt:locale0.obj
 0001:0007ef53       ??1_Fac_tidy_reg_t@std@@QAE@XZ 1007ff53 f i libcpmt:locale0.obj
 0001:0007ef7a       ??1_Locimp@locale@std@@MAE@XZ 1007ff7a f i libcpmt:locale0.obj
 0001:0007efd3       ??4?$_Yarn@D@std@@QAEAAV01@PBD@Z 1007ffd3 f i libcpmt:locale0.obj
 0001:0007f027       ??_E_Locimp@locale@std@@MAEPAXI@Z 10080027 f i libcpmt:locale0.obj
 0001:0007f027       ??_G_Locimp@locale@std@@MAEPAXI@Z 10080027 f i libcpmt:locale0.obj
 0001:0007f049       ?_Facet_Register@std@@YAXPAV_Facet_base@1@@Z 10080049 f   libcpmt:locale0.obj
 0001:0007f075       ?_Getgloballocale@locale@std@@CAPAV_Locimp@12@XZ 10080075 f   libcpmt:locale0.obj
 0001:0007f07b       ?_Init@locale@std@@CAPAV_Locimp@12@_N@Z 1008007b f   libcpmt:locale0.obj
 0001:0007f10b       ?_Locimp_dtor@_Locimp@locale@std@@CAXPAV123@@Z 1008010b f   libcpmt:locale0.obj
 0001:0007f182       ?_Locinfo_ctor@_Locinfo@std@@SAXPAV12@PBD@Z 10080182 f   libcpmt:locale0.obj
 0001:0007f1cd       ?_Locinfo_dtor@_Locinfo@std@@SAXPAV12@@Z 100801cd f   libcpmt:locale0.obj
 0001:0007f1e7       ?_New_Locimp@_Locimp@locale@std@@CAPAV123@_N@Z 100801e7 f   libcpmt:locale0.obj
 0001:0007f20a       ?_Setgloballocale@locale@std@@CAXPAX@Z 1008020a f   libcpmt:locale0.obj
 0001:0007f232       __Deletegloballocale       10080232 f   libcpmt:locale0.obj
 0001:0007f297       ?_Execute_once@std@@YAHAAUonce_flag@1@P6GHPAX1PAPAX@Z1@Z 10080297 f   libcpmt:xonce.obj
 0001:0007f2af       ?_Syserror_map@std@@YAPBDH@Z 100802af f   libcpmt:syserror.obj
 0001:0007f2d4       ?_Addstd@ios_base@std@@SAXPAV12@@Z 100802d4 f   libcpmt:ios.obj
 0001:0007f320       ?_Callfns@ios_base@std@@AAEXW4event@12@@Z 10080320 f i libcpmt:ios.obj
 0001:0007f353       ?_Ios_base_dtor@ios_base@std@@CAXPAV12@@Z 10080353 f   libcpmt:ios.obj
 0001:0007f393       ?_Tidy@ios_base@std@@AAEXXZ 10080393 f i libcpmt:ios.obj
 0001:0007f3db       ??$_Xfiopen@D@std@@YAPAU_iobuf@@PBDHH@Z 100803db f i libcpmt:fiopen.obj
 0001:0007f47b       ?_Fiopen@std@@YAPAU_iobuf@@PBDHH@Z 1008047b f   libcpmt:fiopen.obj
 0001:0007f484       ?_Xfsopen@std@@YAPAU_iobuf@@PBDHH@Z 10080484 f   libcpmt:fiopen.obj
 0001:0007f4a1       ?_Random_device@std@@YAIXZ 100804a1 f   libcpmt:xrngdev.obj
 0001:0007f4c3       __Xtime_diff_to_millis2    100804c3 f   libcpmt:xtime.obj
 0001:0007f503       __Xtime_get_ticks          10080503 f   libcpmt:xtime.obj
 0001:0007f5dd       _xtime_get                 100805dd f   libcpmt:xtime.obj
 0001:0007f622       __Thrd_sleep               10080622 f   libcpmt:cthread.obj
 0001:0007f693       ??0?$basic_ostream@DU?$char_traits@D@std@@@std@@QAE@PAV?$basic_streambuf@DU?$char_traits@D@std@@@1@_N@Z 10080693 f i libcpmt:cout.obj
 0001:0007f6fa       ??0?$basic_streambuf@DU?$char_traits@D@std@@@std@@IAE@XZ 100806fa f i libcpmt:cout.obj
 0001:0007f741       ??0_Init_cout@std@@QAE@XZ  10080741 f i libcpmt:cout.obj
 0001:0007f79a       ??_D?$basic_ostream@DU?$char_traits@D@std@@@std@@QAEXXZ 1008079a f i libcpmt:cout.obj
 0001:0007f7f8       ?_Init@ios_base@std@@IAEXXZ 100807f8 f i libcpmt:cout.obj
 0001:0007f85e       ?init@?$basic_ios@DU?$char_traits@D@std@@@std@@IAEXPAV?$basic_streambuf@DU?$char_traits@D@std@@@2@_N@Z 1008085e f i libcpmt:cout.obj
 0001:0007f8a7       __Getcvt                   100808a7 f   libcpmt:xwctomb.obj
 0001:0007f91a       ?setprecision@std@@YA?AU?$_Smanip@_J@1@_J@Z 1008091a f   libcpmt:iomanip.obj
 0001:0007f948       __Mtxdst                   10080948 f   libcpmt:xmtx.obj
 0001:0007f956       __Mtxinit                  10080956 f   libcpmt:xmtx.obj
 0001:0007f96d       __Mtxlock                  1008096d f   libcpmt:xmtx.obj
 0001:0007f97b       __Mtxunlock                1008097b f   libcpmt:xmtx.obj
 0001:0007f989       ___crtLCMapStringA         10080989 f   libcpmt:StlLCMapStringA.obj
 0001:0007fb5e       __freea_crt                10080b5e f i libcpmt:StlLCMapStringA.obj
 0001:0007fb7c       ??1_Init_atexit@@QAE@XZ    10080b7c f i libcpmt:iosptrs.obj
 0001:0007fbdf       ?_Atexit@@YAXP6AXXZ@Z      10080bdf f   libcpmt:iosptrs.obj
 0001:0007ffb7       ___crtGetSystemTimePreciseAsFileTime 10080fb7 f   libcpmt:winapisupp.obj
 0001:0007ffe1       ___crtInitOnceExecuteOnce  10080fe1 f   libcpmt:winapisupp.obj
 0001:0008006f       ___crtInitializeCriticalSectionEx 1008106f f   libcpmt:winapisupp.obj
 0001:000800a8       _GetTableIndexFromLocaleName 100810a8 f   libcpmt:winapinls.obj
 0001:000800f6       ___crtDownlevelLocaleNameToLCID 100810f6 f   libcpmt:winapinls.obj
 0001:00080120       ___crtLCMapStringEx        10081120 f   libcpmt:winapinls.obj
 0001:00080177       ___wcsnicmp_ascii          10081177 f   libcpmt:winapinls.obj
 0001:000801df       ??2@YAPAXI@Z               100811df f   LIBCMT:new_scalar.obj
 0001:0008020f       ??3@YAXPAXI@Z              1008120f f   LIBCMT:delete_scalar_size.obj
 0001:0008021d       ??_U@YAPAXI@Z              1008121d f   LIBCMT:new_array.obj
 0001:00080226       ??_V@YAXPAX@Z              10081226 f   LIBCMT:delete_array.obj
 0001:0008022b       @__security_check_cookie@4 1008122b f   LIBCMT:secchk.obj
 0001:0008023c       ??_Etype_info@@UAEPAXI@Z   1008123c f i LIBCMT:std_type_info_static.obj
 0001:0008023c       ??_Gtype_info@@UAEPAXI@Z   1008123c f i LIBCMT:std_type_info_static.obj
 0001:00080286       ??$__crt_fast_encode_pointer@PAP6AXXZ@@YAPAP6AXXZQAP6AXXZ@Z 10081286 f i LIBCMT:utility.obj
 0001:00080286       ??$__crt_fast_encode_pointer@P6GXPAU_RTL_CONDITION_VARIABLE@@@Z@@YAP6GXPAU_RTL_CONDITION_VARIABLE@@@ZQ6GX0@Z@Z 10081286 f i LIBCMT:thread_safe_statics.obj
 0001:00080286       ??$__crt_fast_encode_pointer@PAX@@YAPAXQAX@Z 10081286 f i libvcruntime:winapi_downlevel.obj
 0001:00080286       ??$__crt_fast_encode_pointer@P6GHPAU_RTL_CONDITION_VARIABLE@@PAU_RTL_CRITICAL_SECTION@@K@Z@@YAP6GHPAU_RTL_CONDITION_VARIABLE@@PAU_RTL_CRITICAL_SECTION@@K@ZQ6GH01K@Z@Z 10081286 f i LIBCMT:thread_safe_statics.obj
 0001:000803ae       __Init_thread_abort        100813ae f   LIBCMT:thread_safe_statics.obj
 0001:000803d2       __Init_thread_footer       100813d2 f   LIBCMT:thread_safe_statics.obj
 0001:0008041c       __Init_thread_header       1008141c f   LIBCMT:thread_safe_statics.obj
 0001:0008046e       __Init_thread_notify       1008146e f   LIBCMT:thread_safe_statics.obj
 0001:000804b0       __Init_thread_wait         100814b0 f   LIBCMT:thread_safe_statics.obj
 0001:00080510       __alloca_probe             10081510 f   LIBCMT:chkstk.obj
 0001:00080510       __chkstk                   10081510 f   LIBCMT:chkstk.obj
 0001:0008053d       ??_L@YGXPAXIIP6EX0@Z1@Z    1008153d f   LIBCMT:ehvecctr.obj
 0001:000805b1       ??_M@YGXPAXIIP6EX0@Z@Z     100815b1 f   LIBCMT:ehvecdtr.obj
 0001:00080636       ?__ArrayUnwind@@YGXPAXIIP6EX0@Z@Z 10081636 f   LIBCMT:ehvecdtr.obj
 0001:000806f3       ___scrt_acquire_startup_lock 100816f3 f   LIBCMT:utility.obj
 0001:00080725       ___scrt_dllmain_after_initialize_c 10081725 f   LIBCMT:utility.obj
 0001:00080750       ___scrt_dllmain_before_initialize_c 10081750 f   LIBCMT:utility.obj
 0001:0008075e       ___scrt_dllmain_crt_thread_attach 1008175e f   LIBCMT:utility.obj
 0001:0008077d       ___scrt_dllmain_crt_thread_detach 1008177d f   LIBCMT:utility.obj
 0001:0008078a       ___scrt_dllmain_exception_filter 1008178a f   LIBCMT:utility.obj
 0001:000807be       ___scrt_dllmain_uninitialize_c 100817be f   LIBCMT:utility.obj
 0001:000807e1       ___scrt_dllmain_uninitialize_critical 100817e1 f   LIBCMT:utility.obj
 0001:000807ee       ___scrt_initialize_crt     100817ee f   LIBCMT:utility.obj
 0001:00080827       ___scrt_initialize_onexit_tables 10081827 f   LIBCMT:utility.obj
 0001:000808cc       ___scrt_is_nonwritable_in_current_image 100818cc f   LIBCMT:utility.obj
 0001:00080960       ___scrt_release_startup_lock 10081960 f   LIBCMT:utility.obj
 0001:0008097d       ___scrt_uninitialize_crt   1008197d f   LIBCMT:utility.obj
 0001:000809a5       __onexit                   100819a5 f   LIBCMT:utility.obj
 0001:000809e0       _atexit                    100819e0 f   LIBCMT:utility.obj
 0001:000809f5       ___raise_securityfailure   100819f5 f   LIBCMT:gs_report.obj
 0001:00080a1d       ___report_gsfailure        10081a1d f   LIBCMT:gs_report.obj
 0001:00080b16       ___report_rangecheckfailure 10081b16 f   LIBCMT:gs_report.obj
 0001:00080b22       ___report_securityfailure  10081b22 f   LIBCMT:gs_report.obj
 0001:00080bf0       __alloca_probe_16          10081bf0 f   LIBCMT:alloca16.obj
 0001:00080c06       __alloca_probe_8           10081c06     LIBCMT:alloca16.obj
 0001:00080c20       __ftoui3                   10081c20 f   LIBCMT:ftol3.obj
 0001:00080c2f       __ftoul3                   10081c2f f   LIBCMT:ftol3.obj
 0001:00080c3e       __ftol3                    10081c3e f   LIBCMT:ftol3.obj
 0001:00080c4b       __ftol3_NaN                10081c4b f   LIBCMT:ftol3.obj
 0001:00080c63       __ftol3_work               10081c63 f   LIBCMT:ftol3.obj
 0001:00080ce9       __ftol3_common             10081ce9 f   LIBCMT:ftol3.obj
 0001:00080dab       __ftol3_arg_error          10081dab f   LIBCMT:ftol3.obj
 0001:00080dbd       __ftol3_except             10081dbd f   LIBCMT:ftol3.obj
 0001:00080e01       __dtoui3                   10081e01 f   LIBCMT:ftol3.obj
 0001:00080e10       __dtoul3                   10081e10 f   LIBCMT:ftol3.obj
 0001:00080e1f       __dtol3                    10081e1f f   LIBCMT:ftol3.obj
 0001:00080e2c       __dtol3_NaN                10081e2c f   LIBCMT:ftol3.obj
 0001:00080e49       __dtol3_work               10081e49 f   LIBCMT:ftol3.obj
 0001:00080f30       __ultod3                   10081f30 f   LIBCMT:ftol3.obj
 0001:00080f70       __ltod3                    10081f70 f   LIBCMT:ftol3.obj
 0001:00080fa0       __allmul                   10081fa0 f   LIBCMT:llmul.obj
 0001:00080ff0       __ftol2_sse                10081ff0 f   LIBCMT:ftol2.obj
 0001:00080ff9       __ftol2_pentium4           10081ff9 f   LIBCMT:ftol2.obj
 0001:0008100c       __ftol2_sse_excpt          1008200c f   LIBCMT:ftol2.obj
 0001:00081030       __ftol2                    10082030 f   LIBCMT:ftol2.obj
 0001:000810b0       __alldiv                   100820b0 f   LIBCMT:lldiv.obj
 0001:00081160       __aulldiv                  10082160 f   LIBCMT:ulldiv.obj
 0001:000811d0       __alldvrm                  100821d0 f   LIBCMT:lldvrm.obj
 0001:000815cf       __DllMainCRTStartup@12     100825cf f   LIBCMT:dll_dllmain.obj
 0001:000815f2       ??3@YAXPAX@Z               100825f2 f   LIBCMT:delete_scalar.obj
 0001:000815f7       __EH_epilog3               100825f7 f   LIBCMT:ehprolg3.obj
 0001:0008160c       __EH_epilog3_GS            1008260c f   LIBCMT:ehprolg3.obj
 0001:0008161d       __EH_prolog3               1008261d f   LIBCMT:ehprolg3.obj
 0001:00081651       __EH_prolog3_GS            10082651 f   LIBCMT:ehprolg3.obj
 0001:00081688       __EH_prolog3_catch         10082688 f   LIBCMT:ehprolg3.obj
 0001:000816c0       __aulldvrm                 100826c0 f   LIBCMT:ulldvrm.obj
 0001:00081755       ??0bad_array_new_length@std@@QAE@ABV01@@Z 10082755 f i LIBCMT:throw_bad_alloc.obj
 0001:00081770       ??0bad_array_new_length@std@@QAE@XZ 10082770 f i LIBCMT:throw_bad_alloc.obj
 0001:00081788       ?__scrt_throw_std_bad_array_new_length@@YAXXZ 10082788 f   LIBCMT:throw_bad_alloc.obj
 0001:000817a5       ___scrt_fastfail           100827a5 f   LIBCMT:utility_desktop.obj
 0001:000818bf       __crt_debugger_hook        100828bf f   LIBCMT:utility_desktop.obj
 0001:000818d0       __SEH_prolog4              100828d0 f   LIBCMT:sehprolg4.obj
 0001:00081916       __SEH_epilog4              10082916 f   LIBCMT:sehprolg4.obj
 0001:0008192b       ___isa_available_init      1008292b f   LIBCMT:cpu_disp.obj
 0001:00081ac2       __get_startup_argv_mode    10082ac2 f   LIBCMT:argv_mode.obj
 0001:00081ac6       ___scrt_is_ucrt_dll_in_use 10082ac6 f   LIBCMT:ucrt_detection.obj
 0001:00081b1f       ___security_init_cookie    10082b1f f   LIBCMT:gs_support.obj
 0001:00081b6a       ?__scrt_initialize_type_info@@YAXXZ 10082b6a f   LIBCMT:tncleanup.obj
 0001:00081b76       ?__scrt_uninitialize_type_info@@YAXXZ 10082b76 f   LIBCMT:tncleanup.obj
 0001:00081b82       ___scrt_initialize_default_local_stdio_options 10082b82 f   LIBCMT:default_local_stdio_options.obj
 0001:00081b9f       ___scrt_get_dyn_tls_init_callback 10082b9f f   LIBCMT:dyn_tls_init.obj
 0001:00081ba5       __RTC_Initialize           10082ba5 f   LIBCMT:initsect.obj
 0001:00081bd1       __RTC_Terminate            10082bd1 f   LIBCMT:initsect.obj
 0001:00081c00       ??0_com_error@@QAE@ABV0@@Z 10082c00 f i comsuppw:comraise.obj
 0001:00081c40       ??0_com_error@@QAE@JPAUIErrorInfo@@_N@Z 10082c40 f i comsuppw:comraise.obj
 0001:00081c90       ??1_com_error@@UAE@XZ      10082c90 f i comsuppw:comraise.obj
 0001:00081cd0       ??_E_com_error@@UAEPAXI@Z  10082cd0 f i comsuppw:comraise.obj
 0001:00081cd0       ??_G_com_error@@UAEPAXI@Z  10082cd0 f i comsuppw:comraise.obj
 0001:00081d20       ?_com_raise_error@@YGXJPAUIErrorInfo@@@Z 10082d20 f   comsuppw:comraise.obj
 0001:00081d45       _URLDownloadToFileA@20     10082d45 f   urlmon:urlmon.dll
 0001:00081d4b       _ImmGetContext@4           10082d4b f   imm32:IMM32.dll
 0001:00081d51       _ImmReleaseContext@8       10082d51 f   imm32:IMM32.dll
 0001:00081d57       _ImmSetCompositionWindow@8 10082d57 f   imm32:IMM32.dll
 0001:00081d5d       _Direct3DCreate9@4         10082d5d f   d3d9:d3d9.dll
 0001:00081d63       ??1_NonReentrantBlockingLock@details@Concurrency@@QAE@XZ 10082d63 f   libconcrt:rtlocks.obj
 0001:00081d6b       ??1DefaultWaiterPool@platform@details@Concurrency@@QAE@XZ 10082d6b f i libconcrt:Platform.obj
 0001:00081d90       ??1WaiterThreadPool@platform@details@Concurrency@@QAE@XZ 10082d90 f i libconcrt:Platform.obj
 0001:00081db2       ?__TlsFree@platform@details@Concurrency@@YAXK@Z 10082db2 f   libconcrt:Platform.obj
 0001:00081dc0       ?notify@WaiterThread@platform@details@Concurrency@@AAEX_N@Z 10082dc0 f i libconcrt:Platform.obj
 0001:00081df4       __concrt_static_cleanup    10082df4 f   libconcrt:utils.obj
 0001:00081e02       ?InitializeCookie@Security@details@Concurrency@@SAKXZ 10082e02 f   libconcrt:utils.obj
 0001:00081e4e       __vfwprintf_l              10082e4e f i libconcrt:utils.obj
 0001:00081e71       _fwprintf                  10082e71 f i libconcrt:utils.obj
 0001:00081e8a       ?CheckOneShotStaticDestruction@SchedulerBase@details@Concurrency@@SAXXZ 10082e8a f   libconcrt:SchedulerBase.obj
 0001:00081eb0       ?OneShotStaticDestruction@SchedulerBase@details@Concurrency@@CAXXZ 10082eb0 f   libconcrt:SchedulerBase.obj
 0001:00081ec9       ?OneShotStaticDestruction@UMSThreadScheduler@details@Concurrency@@SAXXZ 10082ec9 f   libconcrt:UMSThreadScheduler.obj
 0001:00081edd       __get_purecall_handler     10082edd f   libvcruntime:purevirt.obj
 0001:00081ef2       __purecall                 10082ef2 f   libvcruntime:purevirt.obj
 0001:00081f0e       ___DestructExceptionObject 10082f0e f   libvcruntime:ehhelpers.obj
 0001:00081fae       ?_CallMemberFunction0@@YGXQAX0@Z 10082fae f i libvcruntime:ehhelpers.obj
 0001:00081fbb       __IsExceptionObjectToBeDestroyed 10082fbb f   libvcruntime:ehhelpers.obj
 0001:00081fe1       ___AdjustPointer           10082fe1 f   libvcruntime:ehhelpers.obj
 0001:00082006       ___FrameUnwindFilter       10083006 f   libvcruntime:ehhelpers.obj
 0001:0008204b       ___std_terminate           1008304b f   libvcruntime:ehhelpers.obj
 0001:00082050       ___std_exception_copy      10083050 f   libvcruntime:std_exception.obj
 0001:000820b3       ___std_exception_destroy   100830b3 f   libvcruntime:std_exception.obj
 0001:000820d2       __CxxThrowException@8      100830d2 f   libvcruntime:throw.obj
 0001:0008213f       ?GetRangeOfTrysToCheck@__FrameHandler3@@SA?AU?$pair@Viterator@TryBlockMap@__FrameHandler3@@V123@@std@@AAVTryBlockMap@1@HH@Z 1008313f f   libvcruntime:trnsctrl.obj
 0001:000821c1       ?_CallCatchBlock2@@YAPAXPAUEHRegistrationNode@@PBU_s_FuncInfo@@PAXHK@Z 100831c1 f   libvcruntime:trnsctrl.obj
 0001:0008221f       ?_CallSETranslator@@YAHPAUEHExceptionRecord@@PAUEHRegistrationNode@@PAX2PBU_s_FuncInfo@@H1@Z 1008321f f   libvcruntime:trnsctrl.obj
 0001:000822fa       ?_JumpToContinuation@@YGXPAXPAUEHRegistrationNode@@@Z 100832fa f   libvcruntime:trnsctrl.obj
 0001:0008232a       ?_UnwindNestedFrames@@YGXPAUEHRegistrationNode@@PAUEHExceptionRecord@@@Z 1008332a f   libvcruntime:trnsctrl.obj
 0001:0008237d       __CatchGuardHandler        1008337d f   libvcruntime:trnsctrl.obj
 0001:000823ae       __CreateFrameInfo          100833ae f   libvcruntime:trnsctrl.obj
 0001:000823d2       __FindAndUnlinkFrame       100833d2 f   libvcruntime:trnsctrl.obj
 0001:00082417       __TranslatorGuardHandler   10083417 f   libvcruntime:trnsctrl.obj
 0001:000824b4       ___CxxFrameHandler3        100834b4 f   libvcruntime:trnsctrl.obj
 0001:000824f0       _memcpy                    100834f0 f   libvcruntime:memcpy.obj
 0001:00082a70       _memmove                   10083a70 f   libvcruntime:memmove.obj
 0001:00082ff0       _memset                    10083ff0 f   libvcruntime:memset.obj
 0001:00083150       _strstr                    10084150 f   libvcruntime:strstr.obj
 0001:000833c0       _memchr                    100843c0 f   libvcruntime:memchr.obj
 0001:00083470       _strchr                    10084470 f   libvcruntime:strchr.obj
 0001:000834de       ___from_strstr_to_strchr   100844de     libvcruntime:strchr.obj
 0001:000835a0       __global_unwind2           100845a0 f   libvcruntime:exsup.obj
 0001:00083606       __local_unwind2            10084606 f   libvcruntime:exsup.obj
 0001:0008368a       __abnormal_termination     1008468a f   libvcruntime:exsup.obj
 0001:000836b0       __NLG_Notify1              100846b0 f   libvcruntime:exsup.obj
 0001:000836bc       __NLG_Notify               100846bc f   libvcruntime:exsup.obj
 0001:000836d3       __NLG_Dispatch             100846d3     libvcruntime:exsup.obj
 0001:000836d3       __NLG_Dispatch2            100846d3     libvcruntime:exsup.obj
 0001:000836db       __NLG_Call                 100846db f   libvcruntime:exsup.obj
 0001:000836dd       __NLG_Return2              100846dd     libvcruntime:exsup.obj
 0001:000836e8       __except_handler3          100846e8 f   libvcruntime:exsup3.obj
 0001:000837f4       __seh_longjmp_unwind@4     100847f4 f   libvcruntime:exsup3.obj
 0001:0008381b       _memcmp                    1008481b f   libvcruntime:memcmp.obj
 0001:000847bf       ___uncaught_exception      100857bf f   libvcruntime:uncaught_exception.obj
 0001:00084820       __except_handler4          10085820 f   libvcruntime:chandler4.obj
 0001:00084977       ___vcrt_initialize         10085977 f   libvcruntime:initialization.obj
 0001:000849a0       ___vcrt_thread_attach      100859a0 f   libvcruntime:initialization.obj
 0001:000849ab       ___vcrt_thread_detach      100859ab f   libvcruntime:initialization.obj
 0001:000849b6       ___vcrt_uninitialize       100859b6 f   libvcruntime:initialization.obj
 0001:000849d5       ___vcrt_uninitialize_critical 100859d5 f   libvcruntime:initialization.obj
 0001:000849dd       ___std_type_info_compare   100859dd f   libvcruntime:std_type_info.obj
 0001:00084a19       ___std_type_info_destroy_list 10085a19 f   libvcruntime:std_type_info.obj
 0001:00084a3c       ___vcrt_initialize_pure_virtual_call_handler 10085a3c f   libvcruntime:purevirt_data.obj
 0001:00084a47       ___vcrt_freefls@4          10085a47 f   libvcruntime:per_thread_data.obj
 0001:00084a63       ___vcrt_freeptd            10085a63 f   libvcruntime:per_thread_data.obj
 0001:00084a99       ___vcrt_getptd             10085a99 f   libvcruntime:per_thread_data.obj
 0001:00084aa7       ___vcrt_getptd_noexit      10085aa7 f   libvcruntime:per_thread_data.obj
 0001:00084b39       ___vcrt_getptd_noinit      10085b39 f   libvcruntime:per_thread_data.obj
 0001:00084b70       ___vcrt_initialize_ptd     10085b70 f   libvcruntime:per_thread_data.obj
 0001:00084ba3       ___vcrt_uninitialize_ptd   10085ba3 f   libvcruntime:per_thread_data.obj
 0001:000852b5       ??$TypeMatchHelper@V__FrameHandler3@@@@YAHPBU_s_HandlerType@@PBU_s_CatchableType@@PBU_s_ThrowInfo@@@Z 100862b5 f i libvcruntime:frame.obj
 0001:00085343       ??$__InternalCxxFrameHandler@V__FrameHandler3@@@@YA?AW4_EXCEPTION_DISPOSITION@@PAUEHExceptionRecord@@PAUEHRegistrationNode@@PAU_CONTEXT@@PAXPBU_s_FuncInfo@@H1E@Z 10086343 f i libvcruntime:frame.obj
 0001:00085445       ??0bad_exception@std@@QAE@ABV01@@Z 10086445 f i libvcruntime:frame.obj
 0001:00085460       ??0bad_exception@std@@QAE@XZ 10086460 f i libvcruntime:frame.obj
 0001:00085478       ??8type_info@@QBE_NABV0@@Z 10086478 f i libvcruntime:frame.obj
 0001:000856df       ?FrameUnwindToEmptyState@__FrameHandler3@@SAXPAUEHRegistrationNode@@PAXPBU_s_FuncInfo@@@Z 100866df f   libvcruntime:frame.obj
 0001:000856f7       ?FrameUnwindToState@__FrameHandler3@@SAXPAUEHRegistrationNode@@PAXPBU_s_FuncInfo@@H@Z 100866f7 f   libvcruntime:frame.obj
 0001:00085879       ?_CallMemberFunction1@@YGXQAX00@Z 10086879 f i libvcruntime:frame.obj
 0001:00085889       ?_CallMemberFunction2@@YGXQAX00H@Z 10086889 f i libvcruntime:frame.obj
 0001:0008589c       ?getESTypes@__FrameHandler3@@SAPBU_s_ESTypeList@@PBU_s_FuncInfo@@@Z 1008689c f i libvcruntime:frame.obj
 0001:000858b0       __CallSettingFrame@12      100868b0 f   libvcruntime:lowhelpr.obj
 0001:000858d7       __NLG_Return               100868d7     libvcruntime:lowhelpr.obj
 0001:000858fc       ___except_validate_context_record 100868fc f   libvcruntime:jbcxrval.obj
 0001:0008592c       ___except_validate_jump_buffer 1008692c f   libvcruntime:jbcxrval.obj
 0001:00085959       _CallDestructExceptionObject 10086959 f   libvcruntime:calldtor.obj
 0001:00085a60       __ValidateEH3RN            10086a60 f   libvcruntime:eh3valid.obj
 0001:00085dd0       __local_unwind4            10086dd0 f   libvcruntime:exsup4.obj
 0001:00085ea8       __seh_longjmp_unwind4@4    10086ea8 f   libvcruntime:exsup4.obj
 0001:00085ed0       @_EH4_CallFilterFunc@8     10086ed0 f   libvcruntime:exsup4.obj
 0001:00085ee8       @_EH4_TransferToHandler@8  10086ee8 f   libvcruntime:exsup4.obj
 0001:00085f04       @_EH4_GlobalUnwind2@8      10086f04 f   libvcruntime:exsup4.obj
 0001:00085f20       @_EH4_LocalUnwind@16       10086f20 f   libvcruntime:exsup4.obj
 0001:00085f37       ___vcrt_initialize_locks   10086f37 f   libvcruntime:locks.obj
 0001:00085f73       ___vcrt_uninitialize_locks 10086f73 f   libvcruntime:locks.obj
 0001:000860d5       ___vcrt_FlsAlloc           100870d5 f   libvcruntime:winapi_downlevel.obj
 0001:00086110       ___vcrt_FlsFree            10087110 f   libvcruntime:winapi_downlevel.obj
 0001:0008614b       ___vcrt_FlsGetValue        1008714b f   libvcruntime:winapi_downlevel.obj
 0001:00086186       ___vcrt_FlsSetValue        10087186 f   libvcruntime:winapi_downlevel.obj
 0001:000861c4       ___vcrt_InitializeCriticalSectionEx 100871c4 f   libvcruntime:winapi_downlevel.obj
 0001:0008620b       ___vcrt_initialize_winapi_thunks 1008720b f   libvcruntime:winapi_downlevel.obj
 0001:00086234       ___vcrt_uninitialize_winapi_thunks 10087234 f   libvcruntime:winapi_downlevel.obj
 0001:00086266       _unexpected                10087266 f   libvcruntime:unexpected.obj
 0001:00086283       ?GetCurrentState@__FrameHandler3@@SAHPAUEHRegistrationNode@@PAXPBU_s_FuncInfo@@@Z 10087283 f   libvcruntime:ehstate.obj
 0001:000862a0       ?SetState@__FrameHandler3@@SAXPAUEHRegistrationNode@@PBU_s_FuncInfo@@H@Z 100872a0 f   libvcruntime:ehstate.obj
 0001:000862ae       ___acrt_call_reportfault   100872ae f   libucrt:invalid_parameter.obj
 0001:000863e7       ___acrt_initialize_invalid_parameter_handler 100873e7 f   libucrt:invalid_parameter.obj
 0001:000863f6       __invalid_parameter        100873f6 f   libucrt:invalid_parameter.obj
 0001:0008645a       __invalid_parameter_noinfo 1008745a f   libucrt:invalid_parameter.obj
 0001:0008646a       __invalid_parameter_noinfo_noreturn 1008746a f   libucrt:invalid_parameter.obj
 0001:00086487       __invoke_watson            10087487 f   libucrt:invalid_parameter.obj
 0001:000864bb       ??0_LocaleUpdate@@QAE@QAU__crt_locale_pointers@@@Z 100874bb f i libucrt:stricmp.obj
 0001:0008653e       ??1_LocaleUpdate@@QAE@XZ   1008753e f i libucrt:stricmp.obj
 0001:0008654e       ___ascii_stricmp           1008754e f   libucrt:stricmp.obj
 0001:00086587       __stricmp                  10087587 f   libucrt:stricmp.obj
 0001:000865d0       __stricmp_l                100875d0 f   libucrt:stricmp.obj
 0001:0008665e       _free                      1008765e f   libucrt:free.obj
 0001:00086679       _realloc                   10087679 f   libucrt:realloc.obj
 0001:00086684       ___acrt_initialize_stdio   10087684 f   libucrt:_file.obj
 0001:0008674c       ___acrt_iob_func           1008774c f   libucrt:_file.obj
 0001:0008675c       ___acrt_uninitialize_stdio 1008775c f   libucrt:_file.obj
 0001:000867a8       __get_stream_buffer_pointers 100877a8 f   libucrt:_file.obj
 0001:000867ee       __lock_file                100877ee f   libucrt:_file.obj
 0001:00086802       __unlock_file              10087802 f   libucrt:_file.obj
 0001:00086816       __fclose_nolock            10087816 f   libucrt:fclose.obj
 0001:0008688d       _fclose                    1008788d f   libucrt:fclose.obj
 0001:00086b4e       ___acrt_stdio_flush_nolock 10087b4e f   libucrt:fflush.obj
 0001:00086bb3       __fflush_nolock            10087bb3 f   libucrt:fflush.obj
 0001:00086bfb       __flushall                 10087bfb f   libucrt:fflush.obj
 0001:00086c04       _fflush                    10087c04 f   libucrt:fflush.obj
 0001:00086c59       __fgetc_nolock             10087c59 f   libucrt:fgetc.obj
 0001:00086c95       _fgetc                     10087c95 f   libucrt:fgetc.obj
 0001:00086d9d       _fgetpos                   10087d9d f   libucrt:fgetpos.obj
 0001:00086df8       __fputc_nolock             10087df8 f   libucrt:fputc.obj
 0001:00086e21       _fputc                     10087e21 f   libucrt:fputc.obj
 0001:00086f2b       __fread_nolock_s           10087f2b f   libucrt:fread.obj
 0001:00087111       _fread                     10088111 f   libucrt:fread.obj
 0001:0008712e       _fread_s                   1008812e f   libucrt:fread.obj
 0001:0008724c       _fsetpos                   1008824c f   libucrt:fsetpos.obj
 0001:00087287       ?LongLongSub@@YAJ_J0PA_J@Z 10088287 f i libucrt:fseek.obj
 0001:00087543       __fseeki64                 10088543 f   libucrt:fseek.obj
 0001:0008755e       _fseek                     1008855e f   libucrt:fseek.obj
 0001:00087617       __fwrite_nolock            10088617 f   libucrt:fwrite.obj
 0001:00087798       _fwrite                    10088798 f   libucrt:fwrite.obj
 0001:00087923       _setvbuf                   10088923 f   libucrt:setvbuf.obj
 0001:000879a5       __ungetc_nolock            100889a5 f   libucrt:ungetc.obj
 0001:00087a9f       _ungetc                    10088a9f f   libucrt:ungetc.obj
 0001:00087b12       _terminate                 10088b12 f   libucrt:terminate.obj
 0001:00087b4e       _roundf                    10088b4e f   libucrt:roundf.obj
 0001:00087ba0       __libm_sse2_cos_precise    10088ba0 f   libucrt:cos_sse2_precise.obj
 0001:00087d60       __libm_sse2_sin_precise    10088d60 f   libucrt:sin_sse2_precise.obj
 0001:00087f30       __libm_sse2_sqrt_precise   10088f30 f   libucrt:sqrt_sse2_precise.obj
 0001:00088030       _floor                     10089030 f   libucrt:floor_pentium4.obj
 0001:00088070       __floor_pentium4           10089070 f   libucrt:floor_pentium4.obj
 0001:0008812d       __fdlog                    1008912d f   libucrt:log2f.obj
 0001:00088287       _log2f                     10089287 f   libucrt:log2f.obj
 0001:000882a0       _ceil                      100892a0 f   libucrt:ceil_pentium4.obj
 0001:000882e0       __ceil_pentium4            100892e0 f   libucrt:ceil_pentium4.obj
 0001:000883c0       __CIatan2                  100893c0 f   libucrt:87ctriga.obj
 0001:000883d0       __libm_sse2_asin_precise   100893d0 f   libucrt:asin_sse2_precise.obj
 0001:00088914       _fmaxf                     10089914 f   libucrt:fmaxf.obj
 0001:00088970       _fminf                     10089970 f   libucrt:fminf.obj
 0001:000889d0       __libm_sse2_pow_precise    100899d0 f   libucrt:pow_sse2_precise.obj
 0001:00089520       ___acrt_errno_from_os_error 1008a520 f   libucrt:errno.obj
 0001:00089563       ___acrt_errno_map_os_error 1008a563 f   libucrt:errno.obj
 0001:00089586       ___doserrno                1008a586 f   libucrt:errno.obj
 0001:00089599       __errno                    1008a599 f   libucrt:errno.obj
 0001:00089c45       ??$count@D@formatting_buffer@__crt_stdio_output@@QBEIXZ 1008ac45 f i libucrt:output.obj
 0001:00089c5d       ??$count@_W@formatting_buffer@__crt_stdio_output@@QBEIXZ 1008ac5d f i libucrt:output.obj
 0001:00089c76       ??$ensure_buffer_is_big_enough@D@formatting_buffer@__crt_stdio_output@@QAE_NI@Z 1008ac76 f i libucrt:output.obj
 0001:00089cf3       ??$ensure_buffer_is_big_enough@_W@formatting_buffer@__crt_stdio_output@@QAE_NI@Z 1008acf3 f i libucrt:output.obj
 0001:00089d71       ??$is_wide_character_specifier@D@__crt_stdio_output@@YA_N_KDW4length_modifier@0@@Z 1008ad71 f i libucrt:output.obj
 0001:00089da2       ??$is_wide_character_specifier@_W@__crt_stdio_output@@YA_N_K_WW4length_modifier@0@@Z 1008ada2 f i libucrt:output.obj
 0001:00089df0       ??$scratch_data@D@formatting_buffer@__crt_stdio_output@@QAEPADXZ 1008adf0 f i libucrt:output.obj
 0001:00089e0e       ??$type_case_integer_parse_into_buffer@I@?$output_processor@DV?$stream_output_adapter@D@__crt_stdio_output@@V?$standard_base@DV?$stream_output_adapter@D@__crt_stdio_output@@@2@@__crt_stdio_output@@AAEXII_N@Z 1008ae0e f i libucrt:output.obj
 0001:00089e0e       ??$type_case_integer_parse_into_buffer@I@?$output_processor@DV?$string_output_adapter@D@__crt_stdio_output@@V?$format_validation_base@DV?$string_output_adapter@D@__crt_stdio_output@@@2@@__crt_stdio_output@@AAEXII_N@Z 1008ae0e f i libucrt:output.obj
 0001:00089e0e       ??$type_case_integer_parse_into_buffer@I@?$output_processor@DV?$string_output_adapter@D@__crt_stdio_output@@V?$standard_base@DV?$string_output_adapter@D@__crt_stdio_output@@@2@@__crt_stdio_output@@AAEXII_N@Z 1008ae0e f i libucrt:output.obj
 0001:00089e81       ??$type_case_integer_parse_into_buffer@I@?$output_processor@_WV?$string_output_adapter@_W@__crt_stdio_output@@V?$standard_base@_WV?$string_output_adapter@_W@__crt_stdio_output@@@2@@__crt_stdio_output@@AAEXII_N@Z 1008ae81 f i libucrt:output.obj
 0001:00089e81       ??$type_case_integer_parse_into_buffer@I@?$output_processor@_WV?$stream_output_adapter@_W@__crt_stdio_output@@V?$standard_base@_WV?$stream_output_adapter@_W@__crt_stdio_output@@@2@@__crt_stdio_output@@AAEXII_N@Z 1008ae81 f i libucrt:output.obj
 0001:00089f08       ??$type_case_integer_parse_into_buffer@_K@?$output_processor@DV?$string_output_adapter@D@__crt_stdio_output@@V?$format_validation_base@DV?$string_output_adapter@D@__crt_stdio_output@@@2@@__crt_stdio_output@@AAEX_KI_N@Z 1008af08 f i libucrt:output.obj
 0001:00089f08       ??$type_case_integer_parse_into_buffer@_K@?$output_processor@DV?$string_output_adapter@D@__crt_stdio_output@@V?$standard_base@DV?$string_output_adapter@D@__crt_stdio_output@@@2@@__crt_stdio_output@@AAEX_KI_N@Z 1008af08 f i libucrt:output.obj
 0001:00089f08       ??$type_case_integer_parse_into_buffer@_K@?$output_processor@DV?$stream_output_adapter@D@__crt_stdio_output@@V?$standard_base@DV?$stream_output_adapter@D@__crt_stdio_output@@@2@@__crt_stdio_output@@AAEX_KI_N@Z 1008af08 f i libucrt:output.obj
 0001:00089f96       ??$type_case_integer_parse_into_buffer@_K@?$output_processor@_WV?$stream_output_adapter@_W@__crt_stdio_output@@V?$standard_base@_WV?$stream_output_adapter@_W@__crt_stdio_output@@@2@@__crt_stdio_output@@AAEX_KI_N@Z 1008af96 f i libucrt:output.obj
 0001:00089f96       ??$type_case_integer_parse_into_buffer@_K@?$output_processor@_WV?$string_output_adapter@_W@__crt_stdio_output@@V?$standard_base@_WV?$string_output_adapter@_W@__crt_stdio_output@@@2@@__crt_stdio_output@@AAEX_KI_N@Z 1008af96 f i libucrt:output.obj
 0001:0008a038       ??$write_multiple_characters@V?$stream_output_adapter@D@__crt_stdio_output@@D@__crt_stdio_output@@YAXABV?$stream_output_adapter@D@0@DHQAH@Z 1008b038 f i libucrt:output.obj
 0001:0008a073       ??$write_multiple_characters@V?$stream_output_adapter@_W@__crt_stdio_output@@D@__crt_stdio_output@@YAXABV?$stream_output_adapter@_W@0@DHQAH@Z 1008b073 f i libucrt:output.obj
 0001:0008a0b3       ??$write_multiple_characters@V?$string_output_adapter@D@__crt_stdio_output@@D@__crt_stdio_output@@YAXABV?$string_output_adapter@D@0@DHQAH@Z 1008b0b3 f i libucrt:output.obj
 0001:0008a0df       ??$write_multiple_characters@V?$string_output_adapter@_W@__crt_stdio_output@@D@__crt_stdio_output@@YAXABV?$string_output_adapter@_W@0@DHQAH@Z 1008b0df f i libucrt:output.obj
 0001:0008a110       ??0?$common_data@D@__crt_stdio_output@@IAE@XZ 1008b110 f i libucrt:output.obj
 0001:0008a155       ??0?$common_data@_W@__crt_stdio_output@@IAE@XZ 1008b155 f i libucrt:output.obj
 0001:0008a19f       ??0?$output_adapter_data@DV?$string_output_adapter@D@__crt_stdio_output@@@__crt_stdio_output@@IAE@ABV?$string_output_adapter@D@1@_KQBDQAU__crt_locale_pointers@@QAD@Z 1008b19f f i libucrt:output.obj
 0001:0008a19f       ??0?$output_adapter_data@DV?$stream_output_adapter@D@__crt_stdio_output@@@__crt_stdio_output@@IAE@ABV?$stream_output_adapter@D@1@_KQBDQAU__crt_locale_pointers@@QAD@Z 1008b19f f i libucrt:output.obj
 0001:0008a1db       ??0?$output_adapter_data@_WV?$string_output_adapter@_W@__crt_stdio_output@@@__crt_stdio_output@@IAE@ABV?$string_output_adapter@_W@1@_KQB_WQAU__crt_locale_pointers@@QAD@Z 1008b1db f i libucrt:output.obj
 0001:0008a1db       ??0?$output_adapter_data@_WV?$stream_output_adapter@_W@__crt_stdio_output@@@__crt_stdio_output@@IAE@ABV?$stream_output_adapter@_W@1@_KQB_WQAU__crt_locale_pointers@@QAD@Z 1008b1db f i libucrt:output.obj
 0001:0008a217       ??1formatting_buffer@__crt_stdio_output@@QAE@XZ 1008b217 f i libucrt:output.obj
 0001:0008a231       ??4?$__crt_unique_heap_ptr@DU__crt_internal_free_policy@@@@QAEAAV0@$$QAV0@@Z 1008b231 f i libucrt:output.obj
 0001:0008a3d3       ?crop_zeroes@__crt_stdio_output@@YAXPADQAU__crt_locale_pointers@@@Z 1008b3d3 f i libucrt:output.obj
 0001:0008a433       ?find_next_state@?$output_processor@DV?$string_output_adapter@D@__crt_stdio_output@@V?$standard_base@DV?$string_output_adapter@D@__crt_stdio_output@@@2@@__crt_stdio_output@@ABE?AW4state@2@DW432@@Z 1008b433 f i libucrt:output.obj
 0001:0008a433       ?find_next_state@?$output_processor@DV?$stream_output_adapter@D@__crt_stdio_output@@V?$standard_base@DV?$stream_output_adapter@D@__crt_stdio_output@@@2@@__crt_stdio_output@@ABE?AW4state@2@DW432@@Z 1008b433 f i libucrt:output.obj
 0001:0008a470       ?find_next_state@?$output_processor@DV?$string_output_adapter@D@__crt_stdio_output@@V?$format_validation_base@DV?$string_output_adapter@D@__crt_stdio_output@@@2@@__crt_stdio_output@@ABE?AW4state@2@DW432@@Z 1008b470 f i libucrt:output.obj
 0001:0008a4b0       ?find_next_state@?$output_processor@_WV?$string_output_adapter@_W@__crt_stdio_output@@V?$standard_base@_WV?$string_output_adapter@_W@__crt_stdio_output@@@2@@__crt_stdio_output@@ABE?AW4state@2@_WW432@@Z 1008b4b0 f i libucrt:output.obj
 0001:0008a4b0       ?find_next_state@?$output_processor@_WV?$stream_output_adapter@_W@__crt_stdio_output@@V?$standard_base@_WV?$stream_output_adapter@_W@__crt_stdio_output@@@2@@__crt_stdio_output@@ABE?AW4state@2@_WW432@@Z 1008b4b0 f i libucrt:output.obj
 0001:0008a4ef       ?force_decimal_point@__crt_stdio_output@@YAXPADQAU__crt_locale_pointers@@@Z 1008b4ef f i libucrt:output.obj
 0001:0008a54b       ?parse_int_from_format_string@?$output_processor@DV?$stream_output_adapter@D@__crt_stdio_output@@V?$standard_base@DV?$stream_output_adapter@D@__crt_stdio_output@@@2@@__crt_stdio_output@@AAE_NQAH@Z 1008b54b f i libucrt:output.obj
 0001:0008a54b       ?parse_int_from_format_string@?$output_processor@DV?$string_output_adapter@D@__crt_stdio_output@@V?$format_validation_base@DV?$string_output_adapter@D@__crt_stdio_output@@@2@@__crt_stdio_output@@AAE_NQAH@Z 1008b54b f i libucrt:output.obj
 0001:0008a54b       ?parse_int_from_format_string@?$output_processor@DV?$string_output_adapter@D@__crt_stdio_output@@V?$standard_base@DV?$string_output_adapter@D@__crt_stdio_output@@@2@@__crt_stdio_output@@AAE_NQAH@Z 1008b54b f i libucrt:output.obj
 0001:0008a5bf       ?parse_int_from_format_string@?$output_processor@_WV?$stream_output_adapter@_W@__crt_stdio_output@@V?$standard_base@_WV?$stream_output_adapter@_W@__crt_stdio_output@@@2@@__crt_stdio_output@@AAE_NQAH@Z 1008b5bf f i libucrt:output.obj
 0001:0008a5bf       ?parse_int_from_format_string@?$output_processor@_WV?$string_output_adapter@_W@__crt_stdio_output@@V?$standard_base@_WV?$string_output_adapter@_W@__crt_stdio_output@@@2@@__crt_stdio_output@@AAE_NQAH@Z 1008b5bf f i libucrt:output.obj
 0001:0008a635       ?process@?$output_processor@DV?$stream_output_adapter@D@__crt_stdio_output@@V?$standard_base@DV?$stream_output_adapter@D@__crt_stdio_output@@@2@@__crt_stdio_output@@QAEHXZ 1008b635 f i libucrt:output.obj
 0001:0008a749       ?process@?$output_processor@DV?$string_output_adapter@D@__crt_stdio_output@@V?$format_validation_base@DV?$string_output_adapter@D@__crt_stdio_output@@@2@@__crt_stdio_output@@QAEHXZ 1008b749 f i libucrt:output.obj
 0001:0008a86d       ?process@?$output_processor@DV?$string_output_adapter@D@__crt_stdio_output@@V?$standard_base@DV?$string_output_adapter@D@__crt_stdio_output@@@2@@__crt_stdio_output@@QAEHXZ 1008b86d f i libucrt:output.obj
 0001:0008a981       ?process@?$output_processor@_WV?$stream_output_adapter@_W@__crt_stdio_output@@V?$standard_base@_WV?$stream_output_adapter@_W@__crt_stdio_output@@@2@@__crt_stdio_output@@QAEHXZ 1008b981 f i libucrt:output.obj
 0001:0008aa9d       ?process@?$output_processor@_WV?$string_output_adapter@_W@__crt_stdio_output@@V?$standard_base@_WV?$string_output_adapter@_W@__crt_stdio_output@@@2@@__crt_stdio_output@@QAEHXZ 1008ba9d f i libucrt:output.obj
 0001:0008abb9       ?state_case_flag@?$output_processor@DV?$stream_output_adapter@D@__crt_stdio_output@@V?$standard_base@DV?$stream_output_adapter@D@__crt_stdio_output@@@2@@__crt_stdio_output@@AAE_NXZ 1008bbb9 f i libucrt:output.obj
 0001:0008abb9       ?state_case_flag@?$output_processor@DV?$string_output_adapter@D@__crt_stdio_output@@V?$format_validation_base@DV?$string_output_adapter@D@__crt_stdio_output@@@2@@__crt_stdio_output@@AAE_NXZ 1008bbb9 f i libucrt:output.obj
 0001:0008abb9       ?state_case_flag@?$output_processor@DV?$string_output_adapter@D@__crt_stdio_output@@V?$standard_base@DV?$string_output_adapter@D@__crt_stdio_output@@@2@@__crt_stdio_output@@AAE_NXZ 1008bbb9 f i libucrt:output.obj
 0001:0008abf6       ?state_case_flag@?$output_processor@_WV?$stream_output_adapter@_W@__crt_stdio_output@@V?$standard_base@_WV?$stream_output_adapter@_W@__crt_stdio_output@@@2@@__crt_stdio_output@@AAE_NXZ 1008bbf6 f i libucrt:output.obj
 0001:0008abf6       ?state_case_flag@?$output_processor@_WV?$string_output_adapter@_W@__crt_stdio_output@@V?$standard_base@_WV?$string_output_adapter@_W@__crt_stdio_output@@@2@@__crt_stdio_output@@AAE_NXZ 1008bbf6 f i libucrt:output.obj
 0001:0008ac33       ?state_case_normal@?$output_processor@DV?$stream_output_adapter@D@__crt_stdio_output@@V?$standard_base@DV?$stream_output_adapter@D@__crt_stdio_output@@@2@@__crt_stdio_output@@AAE_NXZ 1008bc33 f i libucrt:output.obj
 0001:0008ac52       ?state_case_normal@?$output_processor@DV?$string_output_adapter@D@__crt_stdio_output@@V?$standard_base@DV?$string_output_adapter@D@__crt_stdio_output@@@2@@__crt_stdio_output@@AAE_NXZ 1008bc52 f i libucrt:output.obj
 0001:0008ac52       ?state_case_normal@?$output_processor@DV?$string_output_adapter@D@__crt_stdio_output@@V?$format_validation_base@DV?$string_output_adapter@D@__crt_stdio_output@@@2@@__crt_stdio_output@@AAE_NXZ 1008bc52 f i libucrt:output.obj
 0001:0008ac71       ?state_case_normal@?$output_processor@_WV?$stream_output_adapter@_W@__crt_stdio_output@@V?$standard_base@_WV?$stream_output_adapter@_W@__crt_stdio_output@@@2@@__crt_stdio_output@@AAE_NXZ 1008bc71 f i libucrt:output.obj
 0001:0008ac90       ?state_case_normal@?$output_processor@_WV?$string_output_adapter@_W@__crt_stdio_output@@V?$standard_base@_WV?$string_output_adapter@_W@__crt_stdio_output@@@2@@__crt_stdio_output@@AAE_NXZ 1008bc90 f i libucrt:output.obj
 0001:0008acaf       ?state_case_normal_common@?$output_processor@DV?$stream_output_adapter@D@__crt_stdio_output@@V?$standard_base@DV?$stream_output_adapter@D@__crt_stdio_output@@@2@@__crt_stdio_output@@AAE_NXZ 1008bcaf f i libucrt:output.obj
 0001:0008ace9       ?state_case_normal_common@?$output_processor@DV?$string_output_adapter@D@__crt_stdio_output@@V?$standard_base@DV?$string_output_adapter@D@__crt_stdio_output@@@2@@__crt_stdio_output@@AAE_NXZ 1008bce9 f i libucrt:output.obj
 0001:0008ace9       ?state_case_normal_common@?$output_processor@DV?$string_output_adapter@D@__crt_stdio_output@@V?$format_validation_base@DV?$string_output_adapter@D@__crt_stdio_output@@@2@@__crt_stdio_output@@AAE_NXZ 1008bce9 f i libucrt:output.obj
 0001:0008ad13       ?state_case_normal_common@?$output_processor@_WV?$stream_output_adapter@_W@__crt_stdio_output@@V?$standard_base@_WV?$stream_output_adapter@_W@__crt_stdio_output@@@2@@__crt_stdio_output@@AAE_NXZ 1008bd13 f i libucrt:output.obj
 0001:0008ad3d       ?state_case_normal_common@?$output_processor@_WV?$string_output_adapter@_W@__crt_stdio_output@@V?$standard_base@_WV?$string_output_adapter@_W@__crt_stdio_output@@@2@@__crt_stdio_output@@AAE_NXZ 1008bd3d f i libucrt:output.obj
 0001:0008ad58       ?state_case_normal_tchar@?$output_processor@DV?$stream_output_adapter@D@__crt_stdio_output@@V?$standard_base@DV?$stream_output_adapter@D@__crt_stdio_output@@@2@@__crt_stdio_output@@AAE_ND@Z 1008bd58 f i libucrt:output.obj
 0001:0008adc5       ?state_case_normal_tchar@?$output_processor@DV?$string_output_adapter@D@__crt_stdio_output@@V?$format_validation_base@DV?$string_output_adapter@D@__crt_stdio_output@@@2@@__crt_stdio_output@@AAE_ND@Z 1008bdc5 f i libucrt:output.obj
 0001:0008adc5       ?state_case_normal_tchar@?$output_processor@DV?$string_output_adapter@D@__crt_stdio_output@@V?$standard_base@DV?$string_output_adapter@D@__crt_stdio_output@@@2@@__crt_stdio_output@@AAE_ND@Z 1008bdc5 f i libucrt:output.obj
 0001:0008ae29       ?state_case_precision@?$output_processor@DV?$stream_output_adapter@D@__crt_stdio_output@@V?$standard_base@DV?$stream_output_adapter@D@__crt_stdio_output@@@2@@__crt_stdio_output@@AAE_NXZ 1008be29 f i libucrt:output.obj
 0001:0008ae29       ?state_case_precision@?$output_processor@DV?$string_output_adapter@D@__crt_stdio_output@@V?$standard_base@DV?$string_output_adapter@D@__crt_stdio_output@@@2@@__crt_stdio_output@@AAE_NXZ 1008be29 f i libucrt:output.obj
 0001:0008ae29       ?state_case_precision@?$output_processor@DV?$string_output_adapter@D@__crt_stdio_output@@V?$format_validation_base@DV?$string_output_adapter@D@__crt_stdio_output@@@2@@__crt_stdio_output@@AAE_NXZ 1008be29 f i libucrt:output.obj
 0001:0008ae4f       ?state_case_precision@?$output_processor@_WV?$string_output_adapter@_W@__crt_stdio_output@@V?$standard_base@_WV?$string_output_adapter@_W@__crt_stdio_output@@@2@@__crt_stdio_output@@AAE_NXZ 1008be4f f i libucrt:output.obj
 0001:0008ae4f       ?state_case_precision@?$output_processor@_WV?$stream_output_adapter@_W@__crt_stdio_output@@V?$standard_base@_WV?$stream_output_adapter@_W@__crt_stdio_output@@@2@@__crt_stdio_output@@AAE_NXZ 1008be4f f i libucrt:output.obj
 0001:0008ae76       ?state_case_size@?$output_processor@DV?$stream_output_adapter@D@__crt_stdio_output@@V?$standard_base@DV?$stream_output_adapter@D@__crt_stdio_output@@@2@@__crt_stdio_output@@AAE_NXZ 1008be76 f i libucrt:output.obj
 0001:0008afc4       ?state_case_size@?$output_processor@DV?$string_output_adapter@D@__crt_stdio_output@@V?$format_validation_base@DV?$string_output_adapter@D@__crt_stdio_output@@@2@@__crt_stdio_output@@AAE_NXZ 1008bfc4 f i libucrt:output.obj
 0001:0008afc4       ?state_case_size@?$output_processor@DV?$string_output_adapter@D@__crt_stdio_output@@V?$standard_base@DV?$string_output_adapter@D@__crt_stdio_output@@@2@@__crt_stdio_output@@AAE_NXZ 1008bfc4 f i libucrt:output.obj
 0001:0008b112       ?state_case_size@?$output_processor@_WV?$stream_output_adapter@_W@__crt_stdio_output@@V?$standard_base@_WV?$stream_output_adapter@_W@__crt_stdio_output@@@2@@__crt_stdio_output@@AAE_NXZ 1008c112 f i libucrt:output.obj
 0001:0008b28a       ?state_case_size@?$output_processor@_WV?$string_output_adapter@_W@__crt_stdio_output@@V?$standard_base@_WV?$string_output_adapter@_W@__crt_stdio_output@@@2@@__crt_stdio_output@@AAE_NXZ 1008c28a f i libucrt:output.obj
 0001:0008b402       ?state_case_type@?$output_processor@DV?$stream_output_adapter@D@__crt_stdio_output@@V?$standard_base@DV?$stream_output_adapter@D@__crt_stdio_output@@@2@@__crt_stdio_output@@AAE_NXZ 1008c402 f i libucrt:output.obj
 0001:0008b634       ?state_case_type@?$output_processor@DV?$string_output_adapter@D@__crt_stdio_output@@V?$standard_base@DV?$string_output_adapter@D@__crt_stdio_output@@@2@@__crt_stdio_output@@AAE_NXZ 1008c634 f i libucrt:output.obj
 0001:0008b634       ?state_case_type@?$output_processor@DV?$string_output_adapter@D@__crt_stdio_output@@V?$format_validation_base@DV?$string_output_adapter@D@__crt_stdio_output@@@2@@__crt_stdio_output@@AAE_NXZ 1008c634 f i libucrt:output.obj
 0001:0008b866       ?state_case_type@?$output_processor@_WV?$stream_output_adapter@_W@__crt_stdio_output@@V?$standard_base@_WV?$stream_output_adapter@_W@__crt_stdio_output@@@2@@__crt_stdio_output@@AAE_NXZ 1008c866 f i libucrt:output.obj
 0001:0008bacb       ?state_case_type@?$output_processor@_WV?$string_output_adapter@_W@__crt_stdio_output@@V?$standard_base@_WV?$string_output_adapter@_W@__crt_stdio_output@@@2@@__crt_stdio_output@@AAE_NXZ 1008cacb f i libucrt:output.obj
 0001:0008bd30       ?state_case_width@?$output_processor@DV?$stream_output_adapter@D@__crt_stdio_output@@V?$standard_base@DV?$stream_output_adapter@D@__crt_stdio_output@@@2@@__crt_stdio_output@@AAE_NXZ 1008cd30 f i libucrt:output.obj
 0001:0008bd30       ?state_case_width@?$output_processor@DV?$string_output_adapter@D@__crt_stdio_output@@V?$format_validation_base@DV?$string_output_adapter@D@__crt_stdio_output@@@2@@__crt_stdio_output@@AAE_NXZ 1008cd30 f i libucrt:output.obj
 0001:0008bd30       ?state_case_width@?$output_processor@DV?$string_output_adapter@D@__crt_stdio_output@@V?$standard_base@DV?$string_output_adapter@D@__crt_stdio_output@@@2@@__crt_stdio_output@@AAE_NXZ 1008cd30 f i libucrt:output.obj
 0001:0008bd5b       ?state_case_width@?$output_processor@_WV?$stream_output_adapter@_W@__crt_stdio_output@@V?$standard_base@_WV?$stream_output_adapter@_W@__crt_stdio_output@@@2@@__crt_stdio_output@@AAE_NXZ 1008cd5b f i libucrt:output.obj
 0001:0008bd5b       ?state_case_width@?$output_processor@_WV?$string_output_adapter@_W@__crt_stdio_output@@V?$standard_base@_WV?$string_output_adapter@_W@__crt_stdio_output@@@2@@__crt_stdio_output@@AAE_NXZ 1008cd5b f i libucrt:output.obj
 0001:0008bd87       ?to_integer_size@__crt_stdio_output@@YAIW4length_modifier@1@@Z 1008cd87 f i libucrt:output.obj
 0001:0008bddb       ?type_case_Z@?$output_processor@DV?$stream_output_adapter@D@__crt_stdio_output@@V?$standard_base@DV?$stream_output_adapter@D@__crt_stdio_output@@@2@@__crt_stdio_output@@AAE_NXZ 1008cddb f i libucrt:output.obj
 0001:0008bddb       ?type_case_Z@?$output_processor@DV?$string_output_adapter@D@__crt_stdio_output@@V?$format_validation_base@DV?$string_output_adapter@D@__crt_stdio_output@@@2@@__crt_stdio_output@@AAE_NXZ 1008cddb f i libucrt:output.obj
 0001:0008bddb       ?type_case_Z@?$output_processor@DV?$string_output_adapter@D@__crt_stdio_output@@V?$standard_base@DV?$string_output_adapter@D@__crt_stdio_output@@@2@@__crt_stdio_output@@AAE_NXZ 1008cddb f i libucrt:output.obj
 0001:0008be35       ?type_case_Z@?$output_processor@_WV?$string_output_adapter@_W@__crt_stdio_output@@V?$standard_base@_WV?$string_output_adapter@_W@__crt_stdio_output@@@2@@__crt_stdio_output@@AAE_NXZ 1008ce35 f i libucrt:output.obj
 0001:0008be35       ?type_case_Z@?$output_processor@_WV?$stream_output_adapter@_W@__crt_stdio_output@@V?$standard_base@_WV?$stream_output_adapter@_W@__crt_stdio_output@@@2@@__crt_stdio_output@@AAE_NXZ 1008ce35 f i libucrt:output.obj
 0001:0008be8f       ?type_case_a@?$output_processor@DV?$string_output_adapter@D@__crt_stdio_output@@V?$standard_base@DV?$string_output_adapter@D@__crt_stdio_output@@@2@@__crt_stdio_output@@AAE_NXZ 1008ce8f f i libucrt:output.obj
 0001:0008be8f       ?type_case_a@?$output_processor@DV?$string_output_adapter@D@__crt_stdio_output@@V?$format_validation_base@DV?$string_output_adapter@D@__crt_stdio_output@@@2@@__crt_stdio_output@@AAE_NXZ 1008ce8f f i libucrt:output.obj
 0001:0008be8f       ?type_case_a@?$output_processor@DV?$stream_output_adapter@D@__crt_stdio_output@@V?$standard_base@DV?$stream_output_adapter@D@__crt_stdio_output@@@2@@__crt_stdio_output@@AAE_NXZ 1008ce8f f i libucrt:output.obj
 0001:0008bfde       ?type_case_a@?$output_processor@_WV?$string_output_adapter@_W@__crt_stdio_output@@V?$standard_base@_WV?$string_output_adapter@_W@__crt_stdio_output@@@2@@__crt_stdio_output@@AAE_NXZ 1008cfde f i libucrt:output.obj
 0001:0008bfde       ?type_case_a@?$output_processor@_WV?$stream_output_adapter@_W@__crt_stdio_output@@V?$standard_base@_WV?$stream_output_adapter@_W@__crt_stdio_output@@@2@@__crt_stdio_output@@AAE_NXZ 1008cfde f i libucrt:output.obj
 0001:0008c143       ?type_case_c_tchar@?$output_processor@DV?$string_output_adapter@D@__crt_stdio_output@@V?$standard_base@DV?$string_output_adapter@D@__crt_stdio_output@@@2@@__crt_stdio_output@@AAE_ND@Z 1008d143 f i libucrt:output.obj
 0001:0008c143       ?type_case_c_tchar@?$output_processor@DV?$string_output_adapter@D@__crt_stdio_output@@V?$format_validation_base@DV?$string_output_adapter@D@__crt_stdio_output@@@2@@__crt_stdio_output@@AAE_ND@Z 1008d143 f i libucrt:output.obj
 0001:0008c143       ?type_case_c_tchar@?$output_processor@DV?$stream_output_adapter@D@__crt_stdio_output@@V?$standard_base@DV?$stream_output_adapter@D@__crt_stdio_output@@@2@@__crt_stdio_output@@AAE_ND@Z 1008d143 f i libucrt:output.obj
 0001:0008c1d3       ?type_case_c_tchar@?$output_processor@_WV?$stream_output_adapter@_W@__crt_stdio_output@@V?$standard_base@_WV?$stream_output_adapter@_W@__crt_stdio_output@@@2@@__crt_stdio_output@@AAE_N_W@Z 1008d1d3 f i libucrt:output.obj
 0001:0008c1d3       ?type_case_c_tchar@?$output_processor@_WV?$string_output_adapter@_W@__crt_stdio_output@@V?$standard_base@_WV?$string_output_adapter@_W@__crt_stdio_output@@@2@@__crt_stdio_output@@AAE_N_W@Z 1008d1d3 f i libucrt:output.obj
 0001:0008c269       ?type_case_integer@?$output_processor@DV?$string_output_adapter@D@__crt_stdio_output@@V?$standard_base@DV?$string_output_adapter@D@__crt_stdio_output@@@2@@__crt_stdio_output@@AAE_NI_N@Z 1008d269 f i libucrt:output.obj
 0001:0008c269       ?type_case_integer@?$output_processor@DV?$stream_output_adapter@D@__crt_stdio_output@@V?$standard_base@DV?$stream_output_adapter@D@__crt_stdio_output@@@2@@__crt_stdio_output@@AAE_NI_N@Z 1008d269 f i libucrt:output.obj
 0001:0008c269       ?type_case_integer@?$output_processor@DV?$string_output_adapter@D@__crt_stdio_output@@V?$format_validation_base@DV?$string_output_adapter@D@__crt_stdio_output@@@2@@__crt_stdio_output@@AAE_NI_N@Z 1008d269 f i libucrt:output.obj
 0001:0008c3ba       ?type_case_integer@?$output_processor@_WV?$stream_output_adapter@_W@__crt_stdio_output@@V?$standard_base@_WV?$stream_output_adapter@_W@__crt_stdio_output@@@2@@__crt_stdio_output@@AAE_NI_N@Z 1008d3ba f i libucrt:output.obj
 0001:0008c3ba       ?type_case_integer@?$output_processor@_WV?$string_output_adapter@_W@__crt_stdio_output@@V?$standard_base@_WV?$string_output_adapter@_W@__crt_stdio_output@@@2@@__crt_stdio_output@@AAE_NI_N@Z 1008d3ba f i libucrt:output.obj
 0001:0008c50f       ?type_case_n@?$output_processor@DV?$string_output_adapter@D@__crt_stdio_output@@V?$format_validation_base@DV?$string_output_adapter@D@__crt_stdio_output@@@2@@__crt_stdio_output@@AAE_NXZ 1008d50f f i libucrt:output.obj
 0001:0008c50f       ?type_case_n@?$output_processor@DV?$stream_output_adapter@D@__crt_stdio_output@@V?$standard_base@DV?$stream_output_adapter@D@__crt_stdio_output@@@2@@__crt_stdio_output@@AAE_NXZ 1008d50f f i libucrt:output.obj
 0001:0008c50f       ?type_case_n@?$output_processor@_WV?$stream_output_adapter@_W@__crt_stdio_output@@V?$standard_base@_WV?$stream_output_adapter@_W@__crt_stdio_output@@@2@@__crt_stdio_output@@AAE_NXZ 1008d50f f i libucrt:output.obj
 0001:0008c50f       ?type_case_n@?$output_processor@DV?$string_output_adapter@D@__crt_stdio_output@@V?$standard_base@DV?$string_output_adapter@D@__crt_stdio_output@@@2@@__crt_stdio_output@@AAE_NXZ 1008d50f f i libucrt:output.obj
 0001:0008c50f       ?type_case_n@?$output_processor@_WV?$string_output_adapter@_W@__crt_stdio_output@@V?$standard_base@_WV?$string_output_adapter@_W@__crt_stdio_output@@@2@@__crt_stdio_output@@AAE_NXZ 1008d50f f i libucrt:output.obj
 0001:0008c583       ?type_case_o@?$output_processor@DV?$stream_output_adapter@D@__crt_stdio_output@@V?$standard_base@DV?$stream_output_adapter@D@__crt_stdio_output@@@2@@__crt_stdio_output@@AAE_NXZ 1008d583 f i libucrt:output.obj
 0001:0008c583       ?type_case_o@?$output_processor@DV?$string_output_adapter@D@__crt_stdio_output@@V?$standard_base@DV?$string_output_adapter@D@__crt_stdio_output@@@2@@__crt_stdio_output@@AAE_NXZ 1008d583 f i libucrt:output.obj
 0001:0008c583       ?type_case_o@?$output_processor@DV?$string_output_adapter@D@__crt_stdio_output@@V?$format_validation_base@DV?$string_output_adapter@D@__crt_stdio_output@@@2@@__crt_stdio_output@@AAE_NXZ 1008d583 f i libucrt:output.obj
 0001:0008c5a2       ?type_case_o@?$output_processor@_WV?$stream_output_adapter@_W@__crt_stdio_output@@V?$standard_base@_WV?$stream_output_adapter@_W@__crt_stdio_output@@@2@@__crt_stdio_output@@AAE_NXZ 1008d5a2 f i libucrt:output.obj
 0001:0008c5a2       ?type_case_o@?$output_processor@_WV?$string_output_adapter@_W@__crt_stdio_output@@V?$standard_base@_WV?$string_output_adapter@_W@__crt_stdio_output@@@2@@__crt_stdio_output@@AAE_NXZ 1008d5a2 f i libucrt:output.obj
 0001:0008c5c1       ?type_case_p@?$output_processor@DV?$string_output_adapter@D@__crt_stdio_output@@V?$standard_base@DV?$string_output_adapter@D@__crt_stdio_output@@@2@@__crt_stdio_output@@AAE_NXZ 1008d5c1 f i libucrt:output.obj
 0001:0008c5c1       ?type_case_p@?$output_processor@DV?$string_output_adapter@D@__crt_stdio_output@@V?$format_validation_base@DV?$string_output_adapter@D@__crt_stdio_output@@@2@@__crt_stdio_output@@AAE_NXZ 1008d5c1 f i libucrt:output.obj
 0001:0008c5c1       ?type_case_p@?$output_processor@DV?$stream_output_adapter@D@__crt_stdio_output@@V?$standard_base@DV?$stream_output_adapter@D@__crt_stdio_output@@@2@@__crt_stdio_output@@AAE_NXZ 1008d5c1 f i libucrt:output.obj
 0001:0008c5d9       ?type_case_p@?$output_processor@_WV?$string_output_adapter@_W@__crt_stdio_output@@V?$standard_base@_WV?$string_output_adapter@_W@__crt_stdio_output@@@2@@__crt_stdio_output@@AAE_NXZ 1008d5d9 f i libucrt:output.obj
 0001:0008c5d9       ?type_case_p@?$output_processor@_WV?$stream_output_adapter@_W@__crt_stdio_output@@V?$standard_base@_WV?$stream_output_adapter@_W@__crt_stdio_output@@@2@@__crt_stdio_output@@AAE_NXZ 1008d5d9 f i libucrt:output.obj
 0001:0008c5f1       ?type_case_s@?$output_processor@DV?$stream_output_adapter@D@__crt_stdio_output@@V?$standard_base@DV?$stream_output_adapter@D@__crt_stdio_output@@@2@@__crt_stdio_output@@AAE_NXZ 1008d5f1 f i libucrt:output.obj
 0001:0008c5f1       ?type_case_s@?$output_processor@DV?$string_output_adapter@D@__crt_stdio_output@@V?$format_validation_base@DV?$string_output_adapter@D@__crt_stdio_output@@@2@@__crt_stdio_output@@AAE_NXZ 1008d5f1 f i libucrt:output.obj
 0001:0008c5f1       ?type_case_s@?$output_processor@DV?$string_output_adapter@D@__crt_stdio_output@@V?$standard_base@DV?$string_output_adapter@D@__crt_stdio_output@@@2@@__crt_stdio_output@@AAE_NXZ 1008d5f1 f i libucrt:output.obj
 0001:0008c662       ?type_case_s@?$output_processor@_WV?$string_output_adapter@_W@__crt_stdio_output@@V?$standard_base@_WV?$string_output_adapter@_W@__crt_stdio_output@@@2@@__crt_stdio_output@@AAE_NXZ 1008d662 f i libucrt:output.obj
 0001:0008c662       ?type_case_s@?$output_processor@_WV?$stream_output_adapter@_W@__crt_stdio_output@@V?$standard_base@_WV?$stream_output_adapter@_W@__crt_stdio_output@@@2@@__crt_stdio_output@@AAE_NXZ 1008d662 f i libucrt:output.obj
 0001:0008c6d5       ?type_case_s_compute_narrow_string_length@?$output_processor@_WV?$stream_output_adapter@_W@__crt_stdio_output@@V?$standard_base@_WV?$stream_output_adapter@_W@__crt_stdio_output@@@2@@__crt_stdio_output@@ABEHH_W@Z 1008d6d5 f i libucrt:output.obj
 0001:0008c6d5       ?type_case_s_compute_narrow_string_length@?$output_processor@_WV?$string_output_adapter@_W@__crt_stdio_output@@V?$standard_base@_WV?$string_output_adapter@_W@__crt_stdio_output@@@2@@__crt_stdio_output@@ABEHH_W@Z 1008d6d5 f i libucrt:output.obj
 0001:0008c71c       ?validate@?$stream_output_adapter@D@__crt_stdio_output@@QBE_NXZ 1008d71c f i libucrt:output.obj
 0001:0008c73d       ?validate@?$c_string_character_source@D@__crt_strtox@@QBE_NXZ 1008d73d f i libucrt:strtox.obj
 0001:0008c73d       ?validate@?$string_output_adapter@_W@__crt_stdio_output@@QBE_NXZ 1008d73d f i libucrt:output.obj
 0001:0008c73d       ?validate@?$c_string_character_source@_W@__crt_strtox@@QBE_NXZ 1008d73d f i libucrt:strtox.obj
 0001:0008c73d       ?validate@?$stream_output_adapter@_W@__crt_stdio_output@@QBE_NXZ 1008d73d f i libucrt:output.obj
 0001:0008c73d       ?validate@?$string_output_adapter@D@__crt_stdio_output@@QBE_NXZ 1008d73d f i libucrt:output.obj
 0001:0008c758       ?validate_and_update_state_at_end_of_format_string@?$format_validation_base@DV?$string_output_adapter@D@__crt_stdio_output@@@__crt_stdio_output@@IBE_NXZ 1008d758 f i libucrt:output.obj
 0001:0008c77a       ?validate_stream_is_ansi_if_required@?$__acrt_stdio_char_traits@D@@SA_NQAU_iobuf@@@Z 1008d77a f i libucrt:output.obj
 0001:0008c801       ?write_character@?$string_output_adapter@D@__crt_stdio_output@@QBE_NDQAH@Z 1008d801 f i libucrt:output.obj
 0001:0008c843       ?write_character@?$string_output_adapter@_W@__crt_stdio_output@@QBE_N_WQAH@Z 1008d843 f i libucrt:output.obj
 0001:0008c888       ?write_character_without_count_update@?$stream_output_adapter@D@__crt_stdio_output@@QBE_ND@Z 1008d888 f i libucrt:output.obj
 0001:0008c8be       ?write_character_without_count_update@?$stream_output_adapter@_W@__crt_stdio_output@@QBE_N_W@Z 1008d8be f i libucrt:output.obj
 0001:0008c8f7       ?write_stored_string_tchar@?$output_processor@DV?$stream_output_adapter@D@__crt_stdio_output@@V?$standard_base@DV?$stream_output_adapter@D@__crt_stdio_output@@@2@@__crt_stdio_output@@AAE_ND@Z 1008d8f7 f i libucrt:output.obj
 0001:0008c99e       ?write_stored_string_tchar@?$output_processor@DV?$string_output_adapter@D@__crt_stdio_output@@V?$format_validation_base@DV?$string_output_adapter@D@__crt_stdio_output@@@2@@__crt_stdio_output@@AAE_ND@Z 1008d99e f i libucrt:output.obj
 0001:0008c99e       ?write_stored_string_tchar@?$output_processor@DV?$string_output_adapter@D@__crt_stdio_output@@V?$standard_base@DV?$string_output_adapter@D@__crt_stdio_output@@@2@@__crt_stdio_output@@AAE_ND@Z 1008d99e f i libucrt:output.obj
 0001:0008ca45       ?write_stored_string_tchar@?$output_processor@_WV?$stream_output_adapter@_W@__crt_stdio_output@@V?$standard_base@_WV?$stream_output_adapter@_W@__crt_stdio_output@@@2@@__crt_stdio_output@@AAE_N_W@Z 1008da45 f i libucrt:output.obj
 0001:0008cad8       ?write_stored_string_tchar@?$output_processor@_WV?$string_output_adapter@_W@__crt_stdio_output@@V?$standard_base@_WV?$string_output_adapter@_W@__crt_stdio_output@@@2@@__crt_stdio_output@@AAE_N_W@Z 1008dad8 f i libucrt:output.obj
 0001:0008cb6b       ?write_string@?$stream_output_adapter@D@__crt_stdio_output@@QBEXQBDHQAHAAV__crt_deferred_errno_cache@@@Z 1008db6b f i libucrt:output.obj
 0001:0008cb97       ?write_string@?$stream_output_adapter@_W@__crt_stdio_output@@QBEXQB_WHQAHAAV__crt_deferred_errno_cache@@@Z 1008db97 f i libucrt:output.obj
 0001:0008cbc3       ?write_string@?$string_output_adapter@D@__crt_stdio_output@@QBEXQBDHQAHAAV__crt_deferred_errno_cache@@@Z 1008dbc3 f i libucrt:output.obj
 0001:0008cc2a       ?write_string@?$string_output_adapter@_W@__crt_stdio_output@@QBEXQB_WHQAHAAV__crt_deferred_errno_cache@@@Z 1008dc2a f i libucrt:output.obj
 0001:0008cc9b       ?write_string_impl@?$output_adapter_common@DV?$stream_output_adapter@D@__crt_stdio_output@@@__crt_stdio_output@@IBEXQBDHQAHAAV__crt_deferred_errno_cache@@@Z 1008dc9b f i libucrt:output.obj
 0001:0008cd39       ?write_string_impl@?$output_adapter_common@_WV?$stream_output_adapter@_W@__crt_stdio_output@@@__crt_stdio_output@@IBEXQB_WHQAHAAV__crt_deferred_errno_cache@@@Z 1008dd39 f i libucrt:output.obj
 0001:0008cdda       ___acrt_locale_get_ctype_array_value 1008ddda f i libucrt:output.obj
 0001:0008cdfc       ___stdio_common_vfprintf   1008ddfc f   libucrt:output.obj
 0001:0008ce7f       ___stdio_common_vfwprintf  1008de7f f   libucrt:output.obj
 0001:0008cf02       ___stdio_common_vsnprintf_s 1008df02 f   libucrt:output.obj
 0001:0008cf29       ___stdio_common_vsprintf   1008df29 f   libucrt:output.obj
 0001:0008cf4d       ___stdio_common_vsprintf_s 1008df4d f   libucrt:output.obj
 0001:0008cf71       ___stdio_common_vswprintf  1008df71 f   libucrt:output.obj
 0001:0008cfa0       __CIfmod                   1008dfa0 f   libucrt:87fmod_impl.obj
 0001:0008cfb0       __fFMOD                    1008dfb0 f   libucrt:87fmod_impl.obj
 0001:0008cfbe       _malloc                    1008dfbe f   libucrt:malloc.obj
 0001:0008cfc9       ??$is_overflow_condition@K@__crt_strtox@@YA_NIK@Z 1008dfc9 f i libucrt:strtox.obj
 0001:0008cffa       ??$is_overflow_condition@_K@__crt_strtox@@YA_NI_K@Z 1008dffa f i libucrt:strtox.obj
 0001:0008d03b       ??$make_c_string_character_source@_WPAPA_W@__crt_strtox@@YA?AV?$c_string_character_source@_W@0@QB_WQAPA_W@Z 1008e03b f i libucrt:strtox.obj
 0001:0008d03b       ??$make_c_string_character_source@DPAPAD@__crt_strtox@@YA?AV?$c_string_character_source@D@0@QBDQAPAD@Z 1008e03b f i libucrt:strtox.obj
 0001:0008d056       ??$parse_integer@KV?$c_string_character_source@D@__crt_strtox@@@__crt_strtox@@YAKQAU__crt_locale_pointers@@V?$c_string_character_source@D@0@H_N@Z 1008e056 f i libucrt:strtox.obj
 0001:0008d27b       ??$parse_integer@KV?$c_string_character_source@_W@__crt_strtox@@@__crt_strtox@@YAKQAU__crt_locale_pointers@@V?$c_string_character_source@_W@0@H_N@Z 1008e27b f i libucrt:strtox.obj
 0001:0008d883       ??$parse_integer@_KV?$c_string_character_source@D@__crt_strtox@@@__crt_strtox@@YA_KQAU__crt_locale_pointers@@V?$c_string_character_source@D@0@H_N@Z 1008e883 f i libucrt:strtox.obj
 0001:0008db29       ?unget@?$c_string_character_source@D@__crt_strtox@@QAEXD@Z 1008eb29 f i libucrt:strtox.obj
 0001:0008db52       ?unget@?$c_string_character_source@_W@__crt_strtox@@QAEX_W@Z 1008eb52 f i libucrt:strtox.obj
 0001:0008db80       __ischartype_l             1008eb80 f i libucrt:strtox.obj
 0001:0008dbd4       _strtol                    1008ebd4 f   libucrt:strtox.obj
 0001:0008dbfe       _strtoul                   1008ebfe f   libucrt:strtox.obj
 0001:0008dc28       _strtoull                  1008ec28 f   libucrt:strtox.obj
 0001:0008dc52       _wcstol                    1008ec52 f   libucrt:strtox.obj
 0001:0008dd2e       ??$__acrt_mbs_to_wcs_cp@U__crt_win32_buffer_internal_dynamic_resizing@@@@YAHQBDAAV?$__crt_win32_buffer@_WU__crt_win32_buffer_internal_dynamic_resizing@@@@I@Z 1008ed2e f i libucrt:unlink.obj
 0001:0008dd4b       ?__acrt_get_utf8_acp_compatibility_codepage@@YAIXZ 1008ed4b f i libucrt:unlink.obj
 0001:0008dd8a       ?_deallocate@?$__crt_win32_buffer@DU__crt_win32_buffer_internal_dynamic_resizing@@@@AAEXXZ 1008ed8a f i libucrt:argv_wildcards.obj
 0001:0008dd8a       ?_deallocate@?$__crt_win32_buffer@_WU__crt_win32_buffer_internal_dynamic_resizing@@@@AAEXXZ 1008ed8a f i libucrt:unlink.obj
 0001:0008dda4       ?allocate@?$__crt_win32_buffer@_WU__crt_win32_buffer_internal_dynamic_resizing@@@@QAEHI@Z 1008eda4 f i libucrt:unlink.obj
 0001:0008dde3       ?allocate@__crt_win32_buffer_internal_dynamic_resizing@@SAHQAPAXIABV__crt_win32_buffer_empty_debug_info@@@Z 1008ede3 f i libucrt:unlink.obj
 0001:0008de02       _remove                    1008ee02 f   libucrt:unlink.obj
 0001:0008de70       _strncpy                   1008ee70 f   libucrt:strncpy.obj
 0001:0008e593       ??$ftprintf@PAU_iobuf@@PB_WABQB_WABQB_WABI@?$__crt_char_traits@_W@@SAH$$QAPAU_iobuf@@$$QAPB_WABQB_W2ABI@Z 1008f593 f i libucrt:assert.obj
 0001:0008e670       __vswprintf_c_l            1008f670 f i libucrt:assert.obj
 0001:0008e69f       __wassert                  1008f69f f   libucrt:assert.obj
 0001:0008e6e7       _swprintf                  1008f6e7 f i libucrt:assert.obj
 0001:0008e872       __fsopen                   1008f872 f   libucrt:fopen.obj
 0001:0008e87d       __wfopen                   1008f87d f   libucrt:fopen.obj
 0001:0008ef0a       __ftelli64                 1008ff0a f   libucrt:ftell.obj
 0001:0008ef15       __ftelli64_nolock          1008ff15 f   libucrt:ftell.obj
 0001:0008ef20       _ftell                     1008ff20 f   libucrt:ftell.obj
 0001:0008ef2b       ??$assemble_floating_point_snan@N@__crt_strtox@@YAX_NAAN@Z 1008ff2b f i libucrt:input.obj
 0001:0008ef4c       ??$assemble_floating_point_value_t@M@__crt_strtox@@YA?AW4SLD_STATUS@@_NH_KAAM@Z 1008ff4c f i libucrt:input.obj
 0001:0008ef7c       ??$assemble_floating_point_value_t@N@__crt_strtox@@YA?AW4SLD_STATUS@@_NH_KAAN@Z 1008ff7c f i libucrt:input.obj
 0001:0008f072       ??$convert_decimal_string_to_floating_type@M@__crt_strtox@@YA?AW4SLD_STATUS@@ABUfloating_point_string@0@AAM@Z 10090072 f i libucrt:input.obj
 0001:0008f093       ??$convert_decimal_string_to_floating_type@N@__crt_strtox@@YA?AW4SLD_STATUS@@ABUfloating_point_string@0@AAN@Z 10090093 f i libucrt:input.obj
 0001:0008f0b4       ??$convert_hexadecimal_string_to_floating_type@M@__crt_strtox@@YA?AW4SLD_STATUS@@ABUfloating_point_string@0@AAM@Z 100900b4 f i libucrt:input.obj
 0001:0008f0d5       ??$convert_hexadecimal_string_to_floating_type@N@__crt_strtox@@YA?AW4SLD_STATUS@@ABUfloating_point_string@0@AAN@Z 100900d5 f i libucrt:input.obj
 0001:0008f0f6       ??$make_input_adapter_character_source@V?$string_input_adapter@D@__crt_stdio_input@@@__crt_strtox@@YA?AV?$input_adapter_character_source@V?$string_input_adapter@D@__crt_stdio_input@@@0@QAV?$string_input_adapter@D@__crt_stdio_input@@_KQA_N@Z 100900f6 f i libucrt:input.obj
 0001:0008f114       ??$parse_floating_point@V?$input_adapter_character_source@V?$string_input_adapter@D@__crt_stdio_input@@@__crt_strtox@@M@__crt_strtox@@YA?AW4SLD_STATUS@@QAU__crt_locale_pointers@@V?$input_adapter_character_source@V?$string_input_adapter@D@__crt_stdio_input@@@0@QAM@Z 10090114 f i libucrt:input.obj
 0001:0008f18d       ??$parse_floating_point@V?$input_adapter_character_source@V?$string_input_adapter@D@__crt_stdio_input@@@__crt_strtox@@N@__crt_strtox@@YA?AW4SLD_STATUS@@QAU__crt_locale_pointers@@V?$input_adapter_character_source@V?$string_input_adapter@D@__crt_stdio_input@@@0@QAN@Z 1009018d f i libucrt:input.obj
 0001:0008f206       ??$parse_floating_point_from_source@V?$input_adapter_character_source@V?$string_input_adapter@D@__crt_stdio_input@@@__crt_strtox@@@__crt_strtox@@YA?AW4floating_point_parse_result@0@QAU__crt_locale_pointers@@AAV?$input_adapter_character_source@V?$string_input_adapter@D@__crt_stdio_input@@@0@AAUfloating_point_string@0@@Z 10090206 f i libucrt:input.obj
 0001:0008f663       ??$parse_floating_point_possible_infinity@DV?$input_adapter_character_source@V?$string_input_adapter@D@__crt_stdio_input@@@__crt_strtox@@_K@__crt_strtox@@YA?AW4floating_point_parse_result@0@AADAAV?$input_adapter_character_source@V?$string_input_adapter@D@__crt_stdio_input@@@0@_K@Z 10090663 f i libucrt:input.obj
 0001:0008f722       ??$parse_floating_point_possible_nan@DV?$input_adapter_character_source@V?$string_input_adapter@D@__crt_stdio_input@@@__crt_strtox@@_K@__crt_strtox@@YA?AW4floating_point_parse_result@0@AADAAV?$input_adapter_character_source@V?$string_input_adapter@D@__crt_stdio_input@@@0@_K@Z 10090722 f i libucrt:input.obj
 0001:0008f83d       ??$parse_floating_point_possible_nan_is_ind@DV?$input_adapter_character_source@V?$string_input_adapter@D@__crt_stdio_input@@@__crt_strtox@@@__crt_strtox@@YA_NAADAAV?$input_adapter_character_source@V?$string_input_adapter@D@__crt_stdio_input@@@0@@Z 1009083d f i libucrt:input.obj
 0001:0008f877       ??$parse_floating_point_possible_nan_is_snan@DV?$input_adapter_character_source@V?$string_input_adapter@D@__crt_stdio_input@@@__crt_strtox@@@__crt_strtox@@YA_NAADAAV?$input_adapter_character_source@V?$string_input_adapter@D@__crt_stdio_input@@@0@@Z 10090877 f i libucrt:input.obj
 0001:0008f8b1       ??$parse_floating_point_write_result@M@__crt_strtox@@YA?AW4SLD_STATUS@@W4floating_point_parse_result@0@ABUfloating_point_string@0@QAM@Z 100908b1 f i libucrt:input.obj
 0001:0008fa1d       ??$parse_floating_point_write_result@N@__crt_strtox@@YA?AW4SLD_STATUS@@W4floating_point_parse_result@0@ABUfloating_point_string@0@QAN@Z 10090a1d f i libucrt:input.obj
 0001:0008fb41       ??$parse_integer@_KV?$input_adapter_character_source@V?$string_input_adapter@D@__crt_stdio_input@@@__crt_strtox@@@__crt_strtox@@YA_KQAU__crt_locale_pointers@@V?$input_adapter_character_source@V?$string_input_adapter@D@__crt_stdio_input@@@0@H_N@Z 10090b41 f i libucrt:input.obj
 0001:0008fdff       ??$process_floating_point_specifier_t@M@?$input_processor@DV?$string_input_adapter@D@__crt_stdio_input@@@__crt_stdio_input@@AAE_NXZ 10090dff f i libucrt:input.obj
 0001:0008fe65       ??$process_floating_point_specifier_t@N@?$input_processor@DV?$string_input_adapter@D@__crt_stdio_input@@@__crt_stdio_input@@AAE_NXZ 10090e65 f i libucrt:input.obj
 0001:0008fecb       ??$process_string_specifier_tchar@D@?$input_processor@DV?$string_input_adapter@D@__crt_stdio_input@@@__crt_stdio_input@@AAE_NW4conversion_mode@1@D@Z 10090ecb f i libucrt:input.obj
 0001:00090028       ??$process_string_specifier_tchar@_W@?$input_processor@DV?$string_input_adapter@D@__crt_stdio_input@@@__crt_stdio_input@@AAE_NW4conversion_mode@1@_W@Z 10091028 f i libucrt:input.obj
 0001:0009018f       ??$skip_whitespace@Vstring_input_adapter@__crt_stdio_input@@D@__crt_stdio_input@@YAHAAV?$string_input_adapter@D@0@QAU__crt_locale_pointers@@@Z 1009118f f i libucrt:input.obj
 0001:000901be       ??$write_floating_point@M@?$input_processor@DV?$string_input_adapter@D@__crt_stdio_input@@@__crt_stdio_input@@AAE_NABM@Z 100911be f i libucrt:input.obj
 0001:000901f2       ??$write_floating_point@N@?$input_processor@DV?$string_input_adapter@D@__crt_stdio_input@@@__crt_stdio_input@@AAE_NABN@Z 100911f2 f i libucrt:input.obj
 0001:0009022c       ??0?$format_string_parser@D@__crt_stdio_input@@QAE@_KQBE@Z 1009122c f i libucrt:input.obj
 0001:00090276       ??0?$input_adapter_character_source@V?$string_input_adapter@D@__crt_stdio_input@@@__crt_strtox@@QAE@QAV?$string_input_adapter@D@__crt_stdio_input@@_KQA_N@Z 10091276 f i libucrt:input.obj
 0001:000902a7       ??0?$input_processor@DV?$string_input_adapter@D@__crt_stdio_input@@@__crt_stdio_input@@QAE@ABV?$string_input_adapter@D@1@_KQBDQAU__crt_locale_pointers@@QAD@Z 100912a7 f i libucrt:input.obj
 0001:00090315       ?advance@?$format_string_parser@D@__crt_stdio_input@@QAE_NXZ 10091315 f i libucrt:input.obj
 0001:0009042d       ?as_double@floating_point_value@__crt_strtox@@QBEAANXZ 1009142d f i libucrt:input.obj
 0001:00090452       ?as_float@floating_point_value@__crt_strtox@@QBEAAMXZ 10091452 f i libucrt:input.obj
 0001:00090477       ?assemble_floating_point_infinity@__crt_strtox@@YAX_NABVfloating_point_value@1@@Z 10091477 f i libucrt:input.obj
 0001:000904b7       ?assemble_floating_point_value@__crt_strtox@@YA?AW4SLD_STATUS@@_KH_N1ABVfloating_point_value@1@@Z 100914b7 f i libucrt:input.obj
 0001:00090800       ?assemble_floating_point_value_from_big_integer@__crt_strtox@@YA?AW4SLD_STATUS@@ABUbig_integer@1@I_N1ABVfloating_point_value@1@@Z 10091800 f i libucrt:input.obj
 0001:00090994       ?assemble_floating_point_zero@__crt_strtox@@YAX_NABVfloating_point_value@1@@Z 10091994 f i libucrt:input.obj
 0001:000909c9       ?convert_decimal_string_to_floating_type_common@__crt_strtox@@YA?AW4SLD_STATUS@@ABUfloating_point_string@1@ABVfloating_point_value@1@@Z 100919c9 f i libucrt:input.obj
 0001:00092708       ?convert_hexadecimal_string_to_floating_type_common@__crt_strtox@@YA?AW4SLD_STATUS@@ABUfloating_point_string@1@ABVfloating_point_value@1@@Z 10093708 f i libucrt:input.obj
 0001:000927ae       ?denormal_mantissa_mask@floating_point_value@__crt_strtox@@QBE_KXZ 100937ae f i libucrt:input.obj
 0001:000927d0       ?divide@__crt_strtox@@YA_KAAUbig_integer@1@ABU21@@Z 100937d0 f i libucrt:input.obj
 0001:00092c68       ?get@?$input_adapter_character_source@V?$string_input_adapter@D@__crt_stdio_input@@@__crt_strtox@@QAEDXZ 10093c68 f i libucrt:input.obj
 0001:00092c9f       ?get@?$string_input_adapter@D@__crt_stdio_input@@QAEHXZ 10093c9f f i libucrt:input.obj
 0001:00092cb5       ?invert@?$scanset_buffer@E@__crt_stdio_input@@QAEXXZ 10093cb5 f i libucrt:input.obj
 0001:00092cd3       ?is_character_allowed_in_string@?$input_processor@DV?$string_input_adapter@D@__crt_stdio_input@@@__crt_stdio_input@@ABE_NW4conversion_mode@2@H@Z 10093cd3 f i libucrt:input.obj
 0001:00092d23       ?length@?$format_string_parser@D@__crt_stdio_input@@QBEIXZ 10093d23 f i libucrt:input.obj
 0001:00092d64       ?normal_mantissa_mask@floating_point_value@__crt_strtox@@QBE_KXZ 10093d64 f i libucrt:input.obj
 0001:00092d7b       ?process@?$input_processor@DV?$string_input_adapter@D@__crt_stdio_input@@@__crt_stdio_input@@QAEHXZ 10093d7b f i libucrt:input.obj
 0001:00092dff       ?process_character_count_specifier@?$input_processor@DV?$string_input_adapter@D@__crt_stdio_input@@@__crt_stdio_input@@AAE_NXZ 10093dff f i libucrt:input.obj
 0001:00092e17       ?process_conversion_specifier@?$input_processor@DV?$string_input_adapter@D@__crt_stdio_input@@@__crt_stdio_input@@AAE_NXZ 10093e17 f i libucrt:input.obj
 0001:00092e8b       ?process_floating_point_specifier@?$input_processor@DV?$string_input_adapter@D@__crt_stdio_input@@@__crt_stdio_input@@AAE_NXZ 10093e8b f i libucrt:input.obj
 0001:00092ebb       ?process_integer_specifier@?$input_processor@DV?$string_input_adapter@D@__crt_stdio_input@@@__crt_stdio_input@@AAE_NI_N@Z 10093ebb f i libucrt:input.obj
 0001:00092f1d       ?process_literal_character@?$input_processor@DV?$string_input_adapter@D@__crt_stdio_input@@@__crt_stdio_input@@AAE_NXZ 10093f1d f i libucrt:input.obj
 0001:00092f53       ?process_literal_character_tchar@?$input_processor@DV?$string_input_adapter@D@__crt_stdio_input@@@__crt_stdio_input@@AAE_ND@Z 10093f53 f i libucrt:input.obj
 0001:00092fa1       ?process_state@?$input_processor@DV?$string_input_adapter@D@__crt_stdio_input@@@__crt_stdio_input@@AAE_NXZ 10093fa1 f i libucrt:input.obj
 0001:00092fe3       ?process_string_specifier@?$input_processor@DV?$string_input_adapter@D@__crt_stdio_input@@@__crt_stdio_input@@AAE_NW4conversion_mode@2@@Z 10093fe3 f i libucrt:input.obj
 0001:0009302b       ?process_whitespace@?$input_processor@DV?$string_input_adapter@D@__crt_stdio_input@@@__crt_stdio_input@@AAE_NXZ 1009402b f i libucrt:input.obj
 0001:00093048       ?restore_state@?$input_adapter_character_source@V?$string_input_adapter@D@__crt_stdio_input@@@__crt_strtox@@QAE_N_K@Z 10094048 f i libucrt:input.obj
 0001:0009306d       ?scan_conversion_specifier@?$format_string_parser@D@__crt_stdio_input@@AAE_NXZ 1009406d f i libucrt:input.obj
 0001:000931dd       ?scan_optional_field_width@?$format_string_parser@D@__crt_stdio_input@@AAE_NXZ 100941dd f i libucrt:input.obj
 0001:0009327a       ?scan_optional_length_modifier@?$format_string_parser@D@__crt_stdio_input@@AAEXXZ 1009427a f i libucrt:input.obj
 0001:00093389       ?scan_optional_literal_character_trail_bytes_tchar@?$format_string_parser@D@__crt_stdio_input@@AAE_ND@Z 10094389 f i libucrt:input.obj
 0001:000933db       ?scan_optional_wide_modifier@?$format_string_parser@D@__crt_stdio_input@@AAEXXZ 100943db f i libucrt:input.obj
 0001:000933f9       ?scan_scanset_range@?$format_string_parser@D@__crt_stdio_input@@AAE_NXZ 100943f9 f i libucrt:input.obj
 0001:00093531       ?set_wide_for_c_s_or_scanset@?$format_string_parser@D@__crt_stdio_input@@AAEXXZ 10094531 f i libucrt:input.obj
 0001:00093551       ?to_floating_point_length@__crt_stdio_input@@YAIW4length_modifier@1@@Z 10094551 f i libucrt:input.obj
 0001:00093574       ?to_integer_length@__crt_stdio_input@@YAIW4length_modifier@1@@Z 10094574 f i libucrt:input.obj
 0001:000935c7       ?unget@?$input_adapter_character_source@V?$string_input_adapter@D@__crt_stdio_input@@@__crt_strtox@@QAEXD@Z 100945c7 f i libucrt:input.obj
 0001:0009360e       ?unget@?$string_input_adapter@D@__crt_stdio_input@@QAEXH@Z 1009460e f i libucrt:input.obj
 0001:0009362d       ?validate@?$format_string_parser@D@__crt_stdio_input@@QBE_NXZ 1009462d f i libucrt:input.obj
 0001:00093649       ?validate@?$input_adapter_character_source@V?$string_input_adapter@D@__crt_stdio_input@@@__crt_strtox@@QBE_NXZ 10094649 f i libucrt:input.obj
 0001:0009366a       ?validate@?$string_input_adapter@D@__crt_stdio_input@@QAE_NXZ 1009466a f i libucrt:input.obj
 0001:0009368c       ?write_character@?$input_processor@DV?$string_input_adapter@D@__crt_stdio_input@@@__crt_stdio_input@@AAE_NQA_WIAAPA_WAAID@Z 1009468c f i libucrt:input.obj
 0001:000936f9       ?write_integer@?$input_processor@DV?$string_input_adapter@D@__crt_stdio_input@@@__crt_stdio_input@@AAE_N_K@Z 100946f9 f i libucrt:input.obj
 0001:00093767       ___stdio_common_vsscanf    10094767 f   libucrt:input.obj
 0001:000937d0       _qsort                     100947d0 f   libucrt:qsort.obj
 0001:00093c14       __tolower_l                10094c14 f   libucrt:tolower_toupper.obj
 0001:00093d18       _tolower                   10094d18 f   libucrt:tolower_toupper.obj
 0001:00093d50       _strncmp                   10094d50 f   libucrt:strncmp.obj
 0001:00093dd0       __libm_sse2_acos_precise   10094dd0 f   libucrt:acos_sse2_precise.obj
 0001:00094354       ??$parse_floating_point@V?$c_string_character_source@D@__crt_strtox@@N@__crt_strtox@@YA?AW4SLD_STATUS@@QAU__crt_locale_pointers@@V?$c_string_character_source@D@0@QAN@Z 10095354 f i libucrt:atof.obj
 0001:000943c8       ??$parse_floating_point_from_source@V?$c_string_character_source@D@__crt_strtox@@@__crt_strtox@@YA?AW4floating_point_parse_result@0@QAU__crt_locale_pointers@@AAV?$c_string_character_source@D@0@AAUfloating_point_string@0@@Z 100953c8 f i libucrt:atof.obj
 0001:000947b1       ??$parse_floating_point_possible_infinity@DV?$c_string_character_source@D@__crt_strtox@@PBD@__crt_strtox@@YA?AW4floating_point_parse_result@0@AADAAV?$c_string_character_source@D@0@PBD@Z 100957b1 f i libucrt:atof.obj
 0001:00094852       ??$parse_floating_point_possible_nan@DV?$c_string_character_source@D@__crt_strtox@@PBD@__crt_strtox@@YA?AW4floating_point_parse_result@0@AADAAV?$c_string_character_source@D@0@PBD@Z 10095852 f i libucrt:atof.obj
 0001:00094961       ??$parse_floating_point_possible_nan_is_ind@DV?$c_string_character_source@D@__crt_strtox@@@__crt_strtox@@YA_NAADAAV?$c_string_character_source@D@0@@Z 10095961 f i libucrt:atof.obj
 0001:0009499d       ??$parse_floating_point_possible_nan_is_snan@DV?$c_string_character_source@D@__crt_strtox@@@__crt_strtox@@YA_NAADAAV?$c_string_character_source@D@0@@Z 1009599d f i libucrt:atof.obj
 0001:000949ff       _atof                      100959ff f   libucrt:atof.obj
 0001:00094a20       __libm_sse2_log_precise    10095a20 f   libucrt:log_sse2_precise.obj
 0001:00094cb0       _strcpy_s                  10095cb0 f   libucrt:strcpy_s.obj
 0001:00094d0a       __strdup                   10095d0a f   libucrt:strdup.obj
 0001:00094d5e       __strnicmp                 10095d5e f   libucrt:strnicmp.obj
 0001:00094dcb       __strnicmp_l               10095dcb f   libucrt:strnicmp.obj
 0001:00094f9c       _freopen_s                 10095f9c f   libucrt:freopen.obj
 0001:00094fc0       _strcspn                   10095fc0 f   libucrt:strcspn.obj
 0001:00095006       _calloc                    10096006 f   libucrt:calloc.obj
 0001:00095011       _frexp                     10096011 f   libucrt:frexp.obj
 0001:0009510b       _localeconv                1009610b f   libucrt:localeconv.obj
 0001:000953c2       __localtime64              100963c2 f   libucrt:localtime.obj
 0001:000954b0       ??$__acrt_wcs_to_mbs_cp@U__crt_win32_buffer_no_resizing@@@@YAHQB_WAAV?$__crt_win32_buffer@DU__crt_win32_buffer_no_resizing@@@@I@Z 100964b0 f i libucrt:strftime.obj
 0001:000954cd       ?allocate@?$__crt_win32_buffer@DU__crt_win32_buffer_no_resizing@@@@QAEHI@Z 100964cd f i libucrt:strftime.obj
 0001:000954f4       ?set_to_nullptr@?$__crt_win32_buffer@DU__crt_win32_buffer_no_resizing@@@@QAEXXZ 100964f4 f i libucrt:strftime.obj
 0001:00095508       __Strftime_l               10096508 f   libucrt:strftime.obj
 0001:00095605       _strftime                  10096605 f   libucrt:strftime.obj
 0001:0009569c       __fd_int                   1009669c f   libucrt:_test.obj
 0001:00095769       __fdtest                   10096769 f   libucrt:_test.obj
 0001:000957b7       __fperrraise               100967b7 f   libucrt:_test.obj
 0001:0009597b       __mbstowcs_s_l             1009697b f   libucrt:mbstowcs.obj
 0001:00095a5b       _mbstowcs_s                10096a5b f   libucrt:mbstowcs.obj
 0001:00095a80       _strcpy                    10096a80 f   libucrt:strcat.obj
 0001:00095a90       _strcat                    10096a90 f   libucrt:strcat.obj
 0001:00095b80       _strcmp                    10096b80 f   libucrt:strcmp.obj
 0001:00095c0c       ___acrt_initialize_locks   10096c0c f   libucrt:locks.obj
 0001:00095c4d       ___acrt_lock               10096c4d f   libucrt:locks.obj
 0001:00095c64       ___acrt_uninitialize_locks 10096c64 f   libucrt:locks.obj
 0001:00095c95       ___acrt_unlock             10096c95 f   libucrt:locks.obj
 0001:00095cac       __lock_locales             10096cac f   libucrt:locks.obj
 0001:00095cba       __unlock_locales           10096cba f   libucrt:locks.obj
 0001:00095cc3       ___pctype_func             10096cc3 f   libucrt:ctype.obj
 0001:00095ce7       __islower_l                10096ce7 f i libucrt:_ctype.obj
 0001:00095d1d       __isspace_l                10096d1d f i libucrt:_ctype.obj
 0001:00095d53       __isupper_l                10096d53 f i libucrt:_ctype.obj
 0001:00095d89       _islower                   10096d89 f i libucrt:_ctype.obj
 0001:00095dba       _isspace                   10096dba f i libucrt:_ctype.obj
 0001:00095deb       _isupper                   10096deb f i libucrt:_ctype.obj
 0001:00095e1c       __wcsdup                   10096e1c f   libucrt:wcsdup.obj
 0001:00095e7b       ____lc_codepage_func       10096e7b f   libucrt:initctype.obj
 0001:00095ea0       ____lc_locale_name_func    10096ea0 f   libucrt:initctype.obj
 0001:00095ec7       ____mb_cur_max_func        10096ec7 f   libucrt:initctype.obj
 0001:00095eec       ___acrt_locale_initialize_ctype 10096eec f   libucrt:initctype.obj
 0001:000965a4       _setlocale                 100975a4 f   libucrt:setlocale.obj
 0001:000965dc       _rand_s                    100975dc f   libucrt:rand_s.obj
 0001:00096624       _abort                     10097624 f   libucrt:abort.obj
 0001:00096668       ___strncnt                 10097668 f   libucrt:strncnt.obj
 0001:00096690       __CIpow                    10097690 f   libucrt:pow_impl.obj
 0001:000966cb       __CIpow_default            100976cb f   libucrt:pow_impl.obj
 0001:000966e4       __pow_default              100976e4     libucrt:pow_impl.obj
 0001:000968d9       _wcscpy_s                  100978d9 f   libucrt:wcscpy_s.obj
 0001:0009693d       _strnlen                   1009793d f   libucrt:strnlen.obj
 0001:00096a5f       _wcsnlen                   10097a5f f   libucrt:strnlen.obj
 0001:00096c0f       ??$__crt_time_is_leap_year@H@@YA_NH@Z 10097c0f f i libucrt:wcsftime.obj
 0001:00097ce9       __Wcsftime_l               10098ce9 f   libucrt:wcsftime.obj
 0001:00097e6c       ___acrt_initialize_new_handler 10098e6c f   libucrt:new_handler.obj
 0001:00097e7b       __callnewh                 10098e7b f   libucrt:new_handler.obj
 0001:00097ea8       __query_new_handler        10098ea8 f   libucrt:new_handler.obj
 0001:00097f04       __seh_filter_dll           10098f04 f   libucrt:exception_filter.obj
 0001:00097f24       __seh_filter_exe           10098f24 f   libucrt:exception_filter.obj
 0001:000982f2       ___acrt_initialize_thread_local_exit_callback 100992f2 f   libucrt:exit.obj
 0001:00098301       __cexit                    10099301 f   libucrt:exit.obj
 0001:00098310       __exit                     10099310 f   libucrt:exit.obj
 0001:00098326       __is_c_termination_complete 10099326 f   libucrt:exit.obj
 0001:000985da       ___acrt_allocate_buffer_for_argv 100995da f   libucrt:argv_parsing.obj
 0001:00098629       __configure_narrow_argv    10099629 f   libucrt:argv_parsing.obj
 0001:00098835       ??$uninitialize@A6AXAAPAPAD@Z@?$dual_state_global@PAPAD@__crt_state_management@@QAEXA6AXAAPAPAD@Z@Z 10099835 f i libucrt:environment_initialization.obj
 0001:00098835       ??$uninitialize@A6AXAAPAPA_W@Z@?$dual_state_global@PAPA_W@__crt_state_management@@QAEXA6AXAAPAPA_W@Z@Z 10099835 f i libucrt:environment_initialization.obj
 0001:00098894       ___dcrt_get_or_create_narrow_environment_nolock 10099894 f   libucrt:environment_initialization.obj
 0001:00098899       ___dcrt_uninitialize_environments_nolock 10099899 f   libucrt:environment_initialization.obj
 0001:000988d0       __initialize_narrow_environment 100998d0 f   libucrt:environment_initialization.obj
 0001:0009898b       ??$__crt_fast_encode_pointer@P6GHPA_WKJ@Z@@YAP6GHPA_WKJ@ZQ6GH0KJ@Z@Z 1009998b f i libucrt:winapi_thunks.obj
 0001:0009898b       ??$__crt_fast_encode_pointer@P6AHXZ@@YAP6AHXZQ6AHXZ@Z 1009998b f i libucrt:onexit.obj
 0001:00098bad       __crt_atexit               10099bad f   libucrt:onexit.obj
 0001:00098bc3       __execute_onexit_table     10099bc3 f   libucrt:onexit.obj
 0001:00098bf0       __initialize_onexit_table  10099bf0 f   libucrt:onexit.obj
 0001:00098c19       __register_onexit_function 10099c19 f   libucrt:onexit.obj
 0001:00098d47       ___acrt_initialize         10099d47 f   libucrt:initialization.obj
 0001:00098d59       ___acrt_thread_attach      10099d59 f   libucrt:initialization.obj
 0001:00098d64       ___acrt_thread_detach      10099d64 f   libucrt:initialization.obj
 0001:00098d6c       ___acrt_uninitialize       10099d6c f   libucrt:initialization.obj
 0001:00098d9c       ___acrt_uninitialize_critical 10099d9c f   libucrt:initialization.obj
 0001:00098dae       __errcode                  10099dae f   libucrt:fpexcept.obj
 0001:00098de2       __except1                  10099de2 f   libucrt:fpexcept.obj
 0001:00098eb0       __handle_exc               10099eb0 f   libucrt:fpexcept.obj
 0001:0009909b       __raise_exc                1009a09b f   libucrt:fpexcept.obj
 0001:000990be       __raise_exc_ex             1009a0be f   libucrt:fpexcept.obj
 0001:000993b4       __set_errno_from_matherr   1009a3b4 f   libucrt:fpexcept.obj
 0001:000993e3       __umatherr                 1009a3e3 f   libucrt:fpexcept.obj
 0001:00099483       __initterm                 1009a483 f   libucrt:initterm.obj
 0001:000994c8       __initterm_e               1009a4c8 f   libucrt:initterm.obj
 0001:00099500       __CIexp                    1009a500 f   libucrt:87ctran.obj
 0001:0009953b       __exp_default              1009a53b f   libucrt:87ctran.obj
 0001:00099545       __CIexp_default            1009a545 f   libucrt:87ctran.obj
 0001:00099550       __CIsqrt                   1009a550 f   libucrt:sqrt_impl.obj
 0001:00099564       __sqrt_common              1009a564     libucrt:sqrt_impl.obj
 0001:000996cc       _wcsncpy_s                 1009a6cc f   libucrt:wcsncpy_s.obj
 0001:000996d7       _wcsncmp                   1009a6d7 f   libucrt:wcsncmp.obj
 0001:00099711       __wtol                     1009a711 f   libucrt:atox.obj
 0001:00099734       _atol                      1009a734 f   libucrt:atox.obj
 0001:00099a95       ___acrt_freeptd            1009aa95 f   libucrt:per_thread_data.obj
 0001:00099ac1       ___acrt_getptd             1009aac1 f   libucrt:per_thread_data.obj
 0001:00099b7e       ___acrt_getptd_head        1009ab7e f   libucrt:per_thread_data.obj
 0001:00099c18       ___acrt_getptd_noexit      1009ac18 f   libucrt:per_thread_data.obj
 0001:00099ccd       ___acrt_initialize_ptd     1009accd f   libucrt:per_thread_data.obj
 0001:00099cf9       ___acrt_uninitialize_ptd   1009acf9 f   libucrt:per_thread_data.obj
 0001:00099d13       ___acrt_update_locale_info 1009ad13 f   libucrt:locale_update.obj
 0001:00099d40       ___acrt_update_multibyte_info 1009ad40 f   libucrt:locale_update.obj
 0001:00099e6d       ??0_expandlocale_locale_name_cache@@QAE@QA_WIQAU__crt_qualified_locale_data@@@Z 1009ae6d f i libucrt:wsetlocale.obj
 0001:00099eb7       ??1_expandlocale_locale_name_cache@@QAE@XZ 1009aeb7 f i libucrt:wsetlocale.obj
 0001:0009a04f       ?commit_locale_name@_expandlocale_locale_name_cache@@QAEXQB_WI@Z 1009b04f f i libucrt:wsetlocale.obj
 0001:0009a093       ?commit_locale_name_cache_already_updated@_expandlocale_locale_name_cache@@QAEXQB_WI@Z 1009b093 f i libucrt:wsetlocale.obj
 0001:0009a0c8       ___acrt_copy_locale_name   1009b0c8 f   libucrt:wsetlocale.obj
 0001:0009a128       ___acrt_set_locale_changed 1009b128 f   libucrt:wsetlocale.obj
 0001:0009a133       ___acrt_uninitialize_locale 1009b133 f   libucrt:wsetlocale.obj
 0001:0009a15a       ___lc_lctowcs              1009b15a f   libucrt:wsetlocale.obj
 0001:0009a1ca       ___lc_wcstolc              1009b1ca f   libucrt:wsetlocale.obj
 0001:0009a70f       __wcscats                  1009b70f f   libucrt:wsetlocale.obj
 0001:0009a750       __wsetlocale               1009b750 f   libucrt:wsetlocale.obj
 0001:0009b455       __free_base                1009c455 f   libucrt:free_base.obj
 0001:0009b48f       __realloc_base             1009c48f f   libucrt:realloc_base.obj
 0001:0009b4f8       __calloc_base              1009c4f8 f   libucrt:calloc_base.obj
 0001:0009b8a9       ___acrt_AppPolicyGetProcessTerminationMethodInternal@4 1009c8a9 f   libucrt:winapi_thunks.obj
 0001:0009b8e9       ___acrt_AppPolicyGetShowDeveloperDiagnosticInternal@4 1009c8e9 f   libucrt:winapi_thunks.obj
 0001:0009b929       ___acrt_AppPolicyGetWindowingModelInternal@4 1009c929 f   libucrt:winapi_thunks.obj
 0001:0009b969       ___acrt_AreFileApisANSI@0  1009c969 f   libucrt:winapi_thunks.obj
 0001:0009b988       ___acrt_CompareStringEx@36 1009c988 f   libucrt:winapi_thunks.obj
 0001:0009b9e5       ___acrt_EnumSystemLocalesEx@16 1009c9e5 f   libucrt:winapi_thunks.obj
 0001:0009ba39       ___acrt_FlsAlloc@4         1009ca39 f   libucrt:winapi_thunks.obj
 0001:0009ba78       ___acrt_FlsFree@4          1009ca78 f   libucrt:winapi_thunks.obj
 0001:0009bab7       ___acrt_FlsGetValue@4      1009cab7 f   libucrt:winapi_thunks.obj
 0001:0009baf6       ___acrt_FlsSetValue@8      1009caf6 f   libucrt:winapi_thunks.obj
 0001:0009bb38       ___acrt_GetDateFormatEx@28 1009cb38 f   libucrt:winapi_thunks.obj
 0001:0009bb8f       ___acrt_GetLocaleInfoEx@16 1009cb8f f   libucrt:winapi_thunks.obj
 0001:0009bbce       ___acrt_GetTimeFormatEx@24 1009cbce f   libucrt:winapi_thunks.obj
 0001:0009bc13       ___acrt_GetUserDefaultLocaleName@8 1009cc13 f   libucrt:winapi_thunks.obj
 0001:0009bc4f       ___acrt_InitializeCriticalSectionEx@12 1009cc4f f   libucrt:winapi_thunks.obj
 0001:0009bc9a       ___acrt_IsValidLocaleName@4 1009cc9a f   libucrt:winapi_thunks.obj
 0001:0009bcd2       ___acrt_LCIDToLocaleName@16 1009ccd2 f   libucrt:winapi_thunks.obj
 0001:0009bd11       ___acrt_LCMapStringEx@36   1009cd11 f   libucrt:winapi_thunks.obj
 0001:0009bd6e       ___acrt_LocaleNameToLCID@8 1009cd6e f   libucrt:winapi_thunks.obj
 0001:0009bd9f       ___acrt_MessageBoxW@16     1009cd9f f   libucrt:winapi_thunks.obj
 0001:0009bdd1       ___acrt_RtlGenRandom@8     1009cdd1 f   libucrt:winapi_thunks.obj
 0001:0009be11       ___acrt_can_show_message_box 1009ce11 f   libucrt:winapi_thunks.obj
 0001:0009be38       ___acrt_can_use_vista_locale_apis 1009ce38 f   libucrt:winapi_thunks.obj
 0001:0009be43       ___acrt_eagerly_load_locale_apis 1009ce43 f   libucrt:winapi_thunks.obj
 0001:0009be7a       ___acrt_get_parent_window  1009ce7a f   libucrt:winapi_thunks.obj
 0001:0009bee2       ___acrt_initialize_winapi_thunks 1009cee2 f   libucrt:winapi_thunks.obj
 0001:0009bf0d       ___acrt_is_interactive     1009cf0d f   libucrt:winapi_thunks.obj
 0001:0009bfac       ___acrt_uninitialize_winapi_thunks 1009cfac f   libucrt:winapi_thunks.obj
 0001:0009bfe2       __fcloseall                1009cfe2 f   libucrt:closeall.obj
 0001:0009c08d       ___acrt_stdio_free_buffer_nolock 1009d08d f   libucrt:_freebuf.obj
 0001:0009c237       ___acrt_initialize_lowio   1009d237 f   libucrt:ioinit.obj
 0001:0009c297       ___acrt_uninitialize_lowio 1009d297 f   libucrt:ioinit.obj
 0001:0009c34f       __close                    1009d34f f   libucrt:close.obj
 0001:0009c3dc       __close_nolock             1009d3dc f   libucrt:close.obj
 0001:0009c478       __fileno                   1009d478 f   libucrt:fileno.obj
 0001:0009c49f       ?__acrt_stdio_allocate_stream@@YA?AV__crt_stdio_stream@@XZ 1009d49f f   libucrt:stream.obj
 0001:0009c508       ?__acrt_stdio_free_stream@@YAXV__crt_stdio_stream@@@Z 1009d508 f   libucrt:stream.obj
 0001:0009c6a7       __commit                   1009d6a7 f   libucrt:commit.obj
 0001:0009ce9d       __write                    1009de9d f   libucrt:write.obj
 0001:0009cf8f       __write_nolock             1009df8f f   libucrt:write.obj
 0001:0009d2fb       ___acrt_stdio_refill_and_read_narrow_nolock 1009e2fb f   libucrt:_filbuf.obj
 0001:0009d753       ___acrt_stdio_flush_and_write_narrow_nolock 1009e753 f   libucrt:_flsbuf.obj
 0001:0009d75e       ___acrt_stdio_flush_and_write_wide_nolock 1009e75e f   libucrt:_flsbuf.obj
 0001:0009dc6d       __read                     1009ec6d f   libucrt:read.obj
 0001:0009dd81       __read_nolock              1009ed81 f   libucrt:read.obj
 0001:0009e2b9       __lseeki64                 1009f2b9 f   libucrt:lseek.obj
 0001:0009e2d4       __lseeki64_nolock          1009f2d4 f   libucrt:lseek.obj
 0001:0009e2ef       ___acrt_stdio_begin_temporary_buffering_nolock 1009f2ef f   libucrt:_sftbuf.obj
 0001:0009e3a2       ___acrt_stdio_end_temporary_buffering_nolock 1009f3a2 f   libucrt:_sftbuf.obj
 0001:0009e3dc       __malloc_base              1009f3dc f   libucrt:malloc_base.obj
 0001:0009e42a       ___acrt_stdio_allocate_buffer_nolock 1009f42a f   libucrt:_getbuf.obj
 0001:0009e490       __CIcos                    1009f490 f   libucrt:cos_impl.obj
 0001:0009e4cb       __CIcos_default            1009f4cb f   libucrt:cos_impl.obj
 0001:0009e4df       __cos_default              1009f4df     libucrt:cos_impl.obj
 0001:0009e580       __CIsin                    1009f580 f   libucrt:sin_impl.obj
 0001:0009e5bb       __CIsin_default            1009f5bb f   libucrt:sin_impl.obj
 0001:0009e5cf       __sin_default              1009f5cf     libucrt:sin_impl.obj
 0001:0009e662       ___libm_error_support      1009f662 f   libucrt:libm_error.obj
 0001:0009e860       _sqrt                      1009f860 f   libucrt:sqrt.obj
 0001:0009e86e       ___acrt_initialize_sse2    1009f86e f   libucrt:mathfcns.obj
 0001:0009e87e       __floor_default            1009f87e f   libucrt:floor.obj
 0001:0009e933       __fdunscale                1009f933 f   libucrt:_unscale.obj
 0001:0009e9ba       __ceil_default             1009f9ba f   libucrt:ceil.obj
 0001:0009ea90       __fFATN2                   1009fa90 f   libucrt:87triga.obj
 0001:0009eae0       __rtpiby2                  1009fae0     libucrt:87triga.obj
 0001:0009eaf0       __rtforatn20               1009faf0 f   libucrt:87triga.obj
 0001:0009eb20       __rtforatnby0              1009fb20 f   libucrt:87triga.obj
 0001:0009eb30       __cintrindisp2             1009fb30 f   libucrt:87cdisp.obj
 0001:0009eb80       __cintrindisp1             1009fb80 f   libucrt:87cdisp.obj
 0001:0009ebc9       __ctrandisp2               1009fbc9 f   libucrt:87cdisp.obj
 0001:0009ed58       __ctrandisp1               1009fd58 f   libucrt:87cdisp.obj
 0001:0009ed8b       __fload                    1009fd8b f   libucrt:87cdisp.obj
 0001:0009edd0       __CIasin                   1009fdd0 f   libucrt:asin_impl.obj
 0001:0009ee0b       __CIasin_default           1009fe0b f   libucrt:asin_impl.obj
 0001:0009ee1f       __asin_default             1009fe1f     libucrt:asin_impl.obj
 0001:0009eed6       __mbtowc_l                 1009fed6 f   libucrt:mbtowc.obj
 0001:0009f018       _mbtowc                    100a0018 f   libucrt:mbtowc.obj
 0001:0009f032       __wctomb_s_l               100a0032 f   libucrt:wctomb.obj
 0001:0009f18d       _wctomb_s                  100a018d f   libucrt:wctomb.obj
 0001:0009f1aa       ?__acrt_fp_classify@@YA?AW4__acrt_fp_class@@ABN@Z 100a01aa f i libucrt:cvt.obj
 0001:0009f9f5       ___acrt_fp_format          100a09f5 f   libucrt:cvt.obj
 0001:0009fb60       __fputwc_nolock            100a0b60 f   libucrt:fputwc.obj
 0001:0009fc89       __get_printf_count_output  100a0c89 f   libucrt:printf_count_output.obj
 0001:0009fca0       __trandisp1                100a0ca0 f   libucrt:87disp.obj
 0001:0009fd15       __trandisp2                100a0d15 f   libucrt:87disp.obj
 0001:0009fdaf       __rttospopde               100a0daf     libucrt:87disp.obj
 0001:0009fdb4       __rttospop                 100a0db4     libucrt:87disp.obj
 0001:0009fdc0       __rtnospop                 100a0dc0 f   libucrt:87disp.obj
 0001:0009fdd0       __rttosnpop                100a0dd0 f   libucrt:87disp.obj
 0001:0009fdd1       __rtnospopde               100a0dd1     libucrt:87disp.obj
 0001:0009fdd8       __rtzeropop                100a0dd8     libucrt:87disp.obj
 0001:0009fdda       __rtzeronpop               100a0dda     libucrt:87disp.obj
 0001:0009fde0       __rtzerospop               100a0de0 f   libucrt:87disp.obj
 0001:0009fded       __rtonepop                 100a0ded     libucrt:87disp.obj
 0001:0009fdf0       __rtonenpop                100a0df0 f   libucrt:87disp.obj
 0001:0009fe00       __tosnan1                  100a0e00 f   libucrt:87disp.obj
 0001:0009fe30       __nosnan2                  100a0e30 f   libucrt:87disp.obj
 0001:0009fe40       __tosnan2                  100a0e40 f   libucrt:87disp.obj
 0001:0009fe70       __nan2                     100a0e70 f   libucrt:87disp.obj
 0001:0009feb0       __rtindfpop                100a0eb0 f   libucrt:87disp.obj
 0001:0009feb2       __rtindfnpop               100a0eb2     libucrt:87disp.obj
 0001:0009fec3       __rttosnpopde              100a0ec3     libucrt:87disp.obj
 0001:0009fed0       __rtatan2inf               100a0ed0 f   libucrt:87disp.obj
 0001:0009feed       __rtchsifneg               100a0eed     libucrt:87disp.obj
 0001:0009fef4       _iswctype                  100a0ef4 f   libucrt:iswctype.obj
 0001:0009ff5d       __isctype_l                100a0f5d f   libucrt:isctype.obj
 0001:000a0028       ___acrt_MultiByteToWideChar 100a1028 f   libucrt:multibytetowidechar.obj
 0001:000a00a4       __wremove                  100a10a4 f   libucrt:wunlink.obj
 0001:000a00cc       __query_app_type           100a10cc f   libucrt:report_runtime_error.obj
 0001:000a01f7       __itow_s                   100a11f7 f   libucrt:xtoa.obj
 0001:000a022a       __set_error_mode           100a122a f   libucrt:set_error_mode.obj
 0001:000a0269       _wcscat_s                  100a1269 f   libucrt:wcscat_s.obj
 0001:000a03c5       _wcsncat_s                 100a13c5 f   libucrt:wcsncat_s.obj
 0001:000a03d0       ___acrt_GetModuleFileNameA 100a13d0 f   libucrt:getmodulefilenamea.obj
 0001:000a04ef       ___acrt_show_wide_message_box 100a14ef f   libucrt:crtmbox.obj
 0001:000a05c8       ___acrt_get_sigabrt_handler 100a15c8 f   libucrt:signal.obj
 0001:000a05ef       ___acrt_initialize_signal_handlers 100a15ef f   libucrt:signal.obj
 0001:000a060d       ___fpecode                 100a160d f   libucrt:signal.obj
 0001:000a0616       _raise                     100a1616 f   libucrt:signal.obj
 0001:000a0811       ??$__acrt_stdio_parse_mode@D@@YA?AU__acrt_stdio_stream_mode@@QBD@Z 100a1811 f i libucrt:openfile.obj
 0001:000a0a3b       ??$__acrt_stdio_parse_mode@_W@@YA?AU__acrt_stdio_stream_mode@@QB_W@Z 100a1a3b f i libucrt:openfile.obj
 0001:000a0dac       ?__acrt_stdio_parse_mode_D@@YA_NAAU__acrt_stdio_stream_mode@@@Z 100a1dac f i libucrt:openfile.obj
 0001:000a0dc7       ?__acrt_stdio_parse_mode_T@@YA_NAAU__acrt_stdio_stream_mode@@@Z 100a1dc7 f i libucrt:openfile.obj
 0001:000a0de6       ?__acrt_stdio_parse_mode_b@@YA_NAAU__acrt_stdio_stream_mode@@@Z 100a1de6 f i libucrt:openfile.obj
 0001:000a0e06       ?__acrt_stdio_parse_mode_c@@YA_NAAU__acrt_stdio_stream_mode@@AA_N@Z 100a1e06 f i libucrt:openfile.obj
 0001:000a0e28       ?__acrt_stdio_parse_mode_n@@YA_NAAU__acrt_stdio_stream_mode@@AA_N@Z 100a1e28 f i libucrt:openfile.obj
 0001:000a0e4a       ?__acrt_stdio_parse_mode_plus@@YA_NAAU__acrt_stdio_stream_mode@@AA_N@Z 100a1e4a f i libucrt:openfile.obj
 0001:000a0e80       ?__acrt_stdio_parse_mode_t@@YA_NAAU__acrt_stdio_stream_mode@@@Z 100a1e80 f i libucrt:openfile.obj
 0001:000a0ea0       ?__acrt_stdio_parse_mode_x@@YA_NAAU__acrt_stdio_stream_mode@@@Z 100a1ea0 f i libucrt:openfile.obj
 0001:000a0ec0       __openfile                 100a1ec0 f   libucrt:openfile.obj
 0001:000a0ecb       __wopenfile                100a1ecb f   libucrt:openfile.obj
 0001:000a0ed6       _fegetround                100a1ed6 f   libucrt:fegetround.obj
 0001:000a0ee3       __isleadbyte_l             100a1ee3 f i libucrt:_wctype.obj
 0001:000a1107       ___acrt_LCMapStringA       100a2107 f   libucrt:lcmapstringa.obj
 0001:000a1150       __CIacos                   100a2150 f   libucrt:acos_impl.obj
 0001:000a118b       __CIacos_default           100a218b f   libucrt:acos_impl.obj
 0001:000a119f       __acos_default             100a219f     libucrt:acos_impl.obj
 0001:000a1260       __CIlog                    100a2260 f   libucrt:log_impl.obj
 0001:000a129b       __CIlog_default            100a229b f   libucrt:log_impl.obj
 0001:000a12af       __log_default              100a22af     libucrt:log_impl.obj
 0001:000a1370       ___ascii_strnicmp          100a2370 f   libucrt:_strnicm.obj
 0001:000a13d1       __dsign                    100a23d1 f   libucrt:nan.obj
 0001:000a13e1       __decomp                   100a23e1 f   libucrt:util.obj
 0001:000a14b3       __set_exp                  100a24b3 f   libucrt:util.obj
 0001:000a14e0       __sptype                   100a24e0 f   libucrt:util.obj
 0001:000a153e       __clrfp                    100a253e f   libucrt:fpctrl.obj
 0001:000a154f       __ctrlfp                   100a254f f   libucrt:fpctrl.obj
 0001:000a1579       __set_statfp               100a2579 f   libucrt:fpctrl.obj
 0001:000a15d2       __statfp                   100a25d2 f   libucrt:fpctrl.obj
 0001:000a15e2       ___acrt_initialize_timeset 100a25e2 f   libucrt:timeset.obj
 0001:000a160d       ___daylight                100a260d f   libucrt:timeset.obj
 0001:000a1613       ___dstbias                 100a2613 f   libucrt:timeset.obj
 0001:000a1619       ___timezone                100a2619 f   libucrt:timeset.obj
 0001:000a161f       ___tzname                  100a261f f   libucrt:timeset.obj
 0001:000a1625       __get_daylight             100a2625 f   libucrt:timeset.obj
 0001:000a1651       __get_dstbias              100a2651 f   libucrt:timeset.obj
 0001:000a167d       __get_timezone             100a267d f   libucrt:timeset.obj
 0001:000a16a9       ??$__crt_time_elapsed_leap_years@H@@YAHH@Z 100a26a9 f i libucrt:gmtime.obj
 0001:000a18e6       ___getgmtimebuf            100a28e6 f   libucrt:gmtime.obj
 0001:000a1924       __gmtime64_s               100a2924 f   libucrt:gmtime.obj
 0001:000a209d       ___tzset                   100a309d f   libucrt:tzset.obj
 0001:000a20fa       __isindst                  100a30fa f   libucrt:tzset.obj
 0001:000a214e       ___acrt_WideCharToMultiByte 100a314e f   libucrt:widechartomultibyte.obj
 0001:000a21fb       _fegetexceptflag           100a31fb f   libucrt:fegetexceptflag.obj
 0001:000a222c       _fesetexceptflag           100a322c f   libucrt:fesetexceptflag.obj
 0001:000a2592       ___acrt_fenv_get_common_round_control 100a3592 f   libucrt:_fenvutils.obj
 0001:000a25b4       ___acrt_fenv_get_control   100a35b4 f   libucrt:_fenvutils.obj
 0001:000a2634       ___acrt_fenv_get_fp_status_word_from_exception_mask 100a3634 f   libucrt:_fenvutils.obj
 0001:000a264e       ___acrt_fenv_get_status    100a364e f   libucrt:_fenvutils.obj
 0001:000a2706       ___acrt_fenv_set_control   100a3706 f   libucrt:_fenvutils.obj
 0001:000a276e       ___acrt_fenv_set_status    100a376e f   libucrt:_fenvutils.obj
 0001:000a2891       ?__mbrtowc_utf8@__crt_mbstring@@YAIPA_WPBDIPAU_Mbstatet@@@Z 100a3891 f   libucrt:mbrtowc.obj
 0001:000a28d1       ?__mbsrtowcs_utf8@__crt_mbstring@@YAIPA_WPAPBDIPAU_Mbstatet@@@Z 100a38d1 f   libucrt:mbrtowc.obj
 0001:000a2aab       ___acrt_GetLocaleInfoA     100a3aab f   libucrt:getlocaleinfoa.obj
 0001:000a2c5b       ___acrt_GetStringTypeA     100a3c5b f   libucrt:getstringtypea.obj
 0001:000a3007       __wcstombs_s_l             100a4007 f   libucrt:wcstombs.obj
 0001:000a30d2       ___acrt_get_developer_information_policy 100a40d2 f   libucrt:win_policies.obj
 0001:000a3116       ___acrt_get_process_end_policy 100a4116 f   libucrt:win_policies.obj
 0001:000a3147       ___acrt_get_windowing_model_policy 100a4147 f   libucrt:win_policies.obj
 0001:000a31a3       __fpclass                  100a41a3 f   libucrt:ieeemisc.obj
 0001:000a3250       __CIpow_pentium4           100a4250 f   libucrt:pow_pentium4.obj
 0001:000a3269       __pow_pentium4             100a4269     libucrt:pow_pentium4.obj
 0001:000a3d90       __fFEXP                    100a4d90 f   libucrt:87tran.obj
 0001:000a3de7       __rtinfpopse               100a4de7     libucrt:87tran.obj
 0001:000a3de9       __rtinfnpopse              100a4de9     libucrt:87tran.obj
 0001:000a3df9       __fFLN                     100a4df9     libucrt:87tran.obj
 0001:000a3eae       __rtinfpop                 100a4eae     libucrt:87tran.obj
 0001:000a3eb0       __rtinfnpop                100a4eb0     libucrt:87tran.obj
 0001:000a3ec0       __rtforexpinf              100a4ec0 f   libucrt:87tran.obj
 0001:000a3ecd       __ffexpm1                  100a4ecd     libucrt:87tran.obj
 0001:000a3f80       __startTwoArgErrorHandling 100a4f80 f   libucrt:genexcep.obj
 0001:000a3f97       __startOneArgErrorHandling 100a4f97 f   libucrt:genexcep.obj
 0001:000a3fe0       __twoToTOS                 100a4fe0 f   libucrt:common.obj
 0001:000a3ff5       __load_CW                  100a4ff5 f   libucrt:common.obj
 0001:000a400c       __convertTOStoQNaN         100a500c f   libucrt:common.obj
 0001:000a4025       __fload_withFB             100a5025 f   libucrt:common.obj
 0001:000a4068       __checkTOS_withFB          100a5068 f   libucrt:common.obj
 0001:000a407e       __fast_exit                100a507e f   libucrt:common.obj
 0001:000a408b       __math_exit                100a508b f   libucrt:common.obj
 0001:000a40b5       __check_overflow_exit      100a50b5 f   libucrt:common.obj
 0001:000a40c9       __check_range_exit         100a50c9 f   libucrt:common.obj
 0001:000a416c       __d_inttype                100a516c f   libucrt:powhlp.obj
 0001:000a41d4       __powhlp                   100a51d4 f   libucrt:powhlp.obj
 0001:000a42ff       ___ascii_wcsicmp           100a52ff f   libucrt:wcsicmp.obj
 0001:000a433c       __towlower_internal        100a533c f i libucrt:wcsicmp.obj
 0001:000a437b       __wcsicmp                  100a537b f   libucrt:wcsicmp.obj
 0001:000a43c4       __wcsicmp_l                100a53c4 f   libucrt:wcsicmp.obj
 0001:000a4a5a       ?allocate@?$__crt_win32_buffer@DU__crt_win32_buffer_internal_dynamic_resizing@@@@QAEHI@Z 100a5a5a f i libucrt:argv_wildcards.obj
 0001:000a4b1d       ___acrt_expand_narrow_argv_wildcards 100a5b1d f   libucrt:argv_wildcards.obj
 0001:000a5046       ___acrt_initialize_multibyte 100a6046 f   libucrt:mbctype.obj
 0001:000a508e       ___acrt_update_thread_multibyte_data 100a608e f   libucrt:mbctype.obj
 0001:000a50a1       __setmbcp_nolock           100a60a1 f   libucrt:mbctype.obj
 0001:000a52eb       __ismbblead                100a62eb f   libucrt:ismbbyte.obj
 0001:000a5303       ___acrt_initialize_command_line 100a6303 f   libucrt:argv_data.obj
 0001:000a5353       ___dcrt_get_narrow_environment_from_os 100a6353 f   libucrt:get_environment_from_os.obj
 0001:000a5734       ___dcrt_set_variable_in_narrow_environment_nolock 100a6734 f   libucrt:setenv.obj
 0001:000a573f       __recalloc_base            100a673f f   libucrt:recalloc.obj
 0001:000a57ac       ___acrt_initialize_heap    100a67ac f   libucrt:heap_handle.obj
 0001:000a57bd       ___acrt_uninitialize_heap  100a67bd f   libucrt:heap_handle.obj
 0001:000a57c7       ___acrt_execute_initializers 100a67c7 f   libucrt:shared_initialization.obj
 0001:000a582f       ___acrt_execute_uninitializers 100a682f f   libucrt:shared_initialization.obj
 0001:000a5860       ___acrt_has_user_matherr   100a6860 f   libucrt:matherr.obj
 0001:000a5878       ___acrt_initialize_user_matherr 100a6878 f   libucrt:matherr.obj
 0001:000a5887       ___acrt_invoke_user_matherr 100a6887 f   libucrt:matherr.obj
 0001:000a58c0       __CIexp_pentium4           100a68c0 f   libucrt:exp_pentium4.obj
 0001:000a58d8       __exp_pentium4             100a68d8     libucrt:exp_pentium4.obj
 0001:000a5b80       ___acrt_add_locale_ref     100a6b80 f   libucrt:locale_refcounting.obj
 0001:000a5bfd       ___acrt_free_locale        100a6bfd f   libucrt:locale_refcounting.obj
 0001:000a5d45       ___acrt_locale_add_lc_time_reference 100a6d45 f   libucrt:locale_refcounting.obj
 0001:000a5d6e       ___acrt_locale_free_lc_time_if_unreferenced 100a6d6e f   libucrt:locale_refcounting.obj
 0001:000a5d9f       ___acrt_locale_release_lc_time_reference 100a6d9f f   libucrt:locale_refcounting.obj
 0001:000a5dc8       ___acrt_release_locale_ref 100a6dc8 f   libucrt:locale_refcounting.obj
 0001:000a5e49       ___acrt_update_thread_locale_data 100a6e49 f   libucrt:locale_refcounting.obj
 0001:000a5eca       __updatetlocinfoEx_nolock  100a6eca f   libucrt:locale_refcounting.obj
 0001:000a5f1a       ___acrt_locale_free_monetary 100a6f1a f   libucrt:initmon.obj
 0001:000a6018       ___acrt_locale_initialize_monetary 100a7018 f   libucrt:initmon.obj
 0001:000a63cf       ___acrt_locale_free_numeric 100a73cf f   libucrt:initnum.obj
 0001:000a6438       ___acrt_locale_initialize_numeric 100a7438 f   libucrt:initnum.obj
 0001:000a68fb       ___acrt_locale_free_time   100a78fb f   libucrt:inittime.obj
 0001:000a69df       ___acrt_locale_initialize_time 100a79df f   libucrt:inittime.obj
 0001:000a6a5a       _wcscspn                   100a7a5a f   libucrt:wcscspn.obj
 0001:000a6ab3       _wcspbrk                   100a7ab3 f   libucrt:wcspbrk.obj
 0001:000a71fd       ___acrt_get_qualified_locale 100a81fd f   libucrt:get_qualified_locale.obj
 0001:000a7b5e       ___acrt_get_qualified_locale_downlevel 100a8b5e f   libucrt:getqloc_downlevel.obj
 0001:000a7d53       __query_new_mode           100a8d53 f   libucrt:new_mode.obj
 0001:000a7daa       ___acrt_DownlevelLCIDToLocaleName 100a8daa f   libucrt:lcidtoname_downlevel.obj
 0001:000a7e54       ___acrt_DownlevelLocaleNameToLCID 100a8e54 f   libucrt:lcidtoname_downlevel.obj
 0001:000a7e80       ___acrt_lowio_create_handle_array 100a8e80 f   libucrt:osfinfo.obj
 0001:000a7efb       ___acrt_lowio_destroy_handle_array 100a8efb f   libucrt:osfinfo.obj
 0001:000a7f30       ___acrt_lowio_ensure_fh_exists 100a8f30 f   libucrt:osfinfo.obj
 0001:000a7fce       ___acrt_lowio_lock_fh      100a8fce f   libucrt:osfinfo.obj
 0001:000a7ff1       ___acrt_lowio_set_os_handle 100a8ff1 f   libucrt:osfinfo.obj
 0001:000a8083       ___acrt_lowio_unlock_fh    100a9083 f   libucrt:osfinfo.obj
 0001:000a80a6       __alloc_osfhnd             100a90a6 f   libucrt:osfinfo.obj
 0001:000a81b9       __free_osfhnd              100a91b9 f   libucrt:osfinfo.obj
 0001:000a824a       __get_osfhandle            100a924a f   libucrt:osfinfo.obj
 0001:000a82b4       __isatty                   100a92b4 f   libucrt:isatty.obj
 0001:000a830a       __putwch_nolock            100a930a f   libucrt:putwch.obj
 0001:000a8340       __CIcos_pentium4           100a9340 f   libucrt:cos_pentium4.obj
 0001:000a8358       __cos_pentium4             100a9358     libucrt:cos_pentium4.obj
 0001:000a84f0       __CIsin_pentium4           100a94f0 f   libucrt:sin_pentium4.obj
 0001:000a8508       __sin_pentium4             100a9508     libucrt:sin_pentium4.obj
 0001:000a86b8       __frnd                     100a96b8 f   libucrt:frnd.obj
 0001:000a86cc       __fdnorm                   100a96cc f   libucrt:_norm.obj
 0001:000a87a1       __87except                 100a97a1 f   libucrt:87except.obj
 0001:000a88b0       __CIasin_pentium4          100a98b0 f   libucrt:asin_pentium4.obj
 0001:000a88c8       __asin_pentium4            100a98c8     libucrt:asin_pentium4.obj
 0001:000a8e30       ?__c32rtomb_utf8@__crt_mbstring@@YAIPAD_UPAU_Mbstatet@@@Z 100a9e30 f   libucrt:c32rtomb.obj
 0001:000a8edb       ?return_illegal_sequence@__crt_mbstring@@YAIPAU_Mbstatet@@@Z 100a9edb f i libucrt:c32rtomb.obj
 0001:000a8efa       _c32rtomb                  100a9efa f   libucrt:c32rtomb.obj
 0001:000a8f05       ___acrt_fp_strflt_to_string 100a9f05 f   libucrt:_fptostr.obj
 0001:000a8fc5       ___acrt_fltout             100a9fc5 f   libucrt:cfout.obj
 0001:000aa30f       ___acrt_GetStringTypeW     100ab30f f   libucrt:getstringtypew.obj
 0001:000aa328       ___ascii_wcsnicmp          100ab328 f   libucrt:wcsnicmp.obj
 0001:000aa377       __wcsnicmp                 100ab377 f   libucrt:wcsnicmp.obj
 0001:000aa3c3       __wcsnicmp_l               100ab3c3 f   libucrt:wcsnicmp.obj
 0001:000aab24       __sopen_nolock             100abb24 f   libucrt:open.obj
 0001:000aab92       __sopen_s                  100abb92 f   libucrt:open.obj
 0001:000aabb2       __wsopen_nolock            100abbb2 f   libucrt:open.obj
 0001:000aaedc       __wsopen_s                 100abedc f   libucrt:open.obj
 0001:000aaf00       __CIacos_pentium4          100abf00 f   libucrt:acos_pentium4.obj
 0001:000aaf18       __acos_pentium4            100abf18     libucrt:acos_pentium4.obj
 0001:000ab460       __CIlog_pentium4           100ac460 f   libucrt:log_pentium4.obj
 0001:000ab478       __log_pentium4             100ac478     libucrt:log_pentium4.obj
 0001:000ab842       _getenv_s                  100ac842 f   libucrt:getenv.obj
 0001:000ab900       _strncpy_s                 100ac900 f   libucrt:strncpy_s.obj
 0001:000ab90b       _fetestexcept              100ac90b f   libucrt:fetestexcept.obj
 0001:000ab92b       ?__mbrtoc32_utf8@__crt_mbstring@@YAIPA_UPBDIPAU_Mbstatet@@@Z 100ac92b f   libucrt:mbrtoc32.obj
 0001:000abad2       ?__wcsrtombs_utf8@__crt_mbstring@@YAIPADPAPB_WIPAU_Mbstatet@@@Z 100acad2 f   libucrt:wcrtomb.obj
 0001:000abbd0       __towlower_l               100acbd0 f   libucrt:towlower.obj
 0001:000abc80       _strpbrk                   100acc80 f   libucrt:strpbrk.obj
 0001:000abcc0       __mbsdec                   100accc0 f   libucrt:mbsdec.obj
 0001:000abcd7       __mbsdec_l                 100accd7 f   libucrt:mbsdec.obj
 0001:000abd73       __strnicoll                100acd73 f   libucrt:strnicol.obj
 0001:000abd9c       __strnicoll_l              100acd9c f   libucrt:strnicol.obj
 0001:000abe64       ___acrt_SetEnvironmentVariableA 100ace64 f   libucrt:setenvironmentvariablea.obj
 0001:000abef9       __msize_base               100acef9 f   libucrt:msize.obj
 0001:000abf4b       ___dcrt_lowio_ensure_console_output_initialized 100acf4b f   libucrt:initcon.obj
 0001:000abf6a       ___dcrt_terminate_console_output 100acf6a f   libucrt:initcon.obj
 0001:000abf81       ___dcrt_write_console      100acf81 f   libucrt:initcon.obj
 0001:000abfd6       _fegetenv                  100acfd6 f   libucrt:fegetenv.obj
 0001:000abff3       _fesetenv                  100acff3 f   libucrt:fesetenv.obj
 0001:000ac03e       _feholdexcept              100ad03e f   libucrt:feholdexcept.obj
 0001:000ac090       __CIlog10                  100ad090 f   libucrt:log10_impl.obj
 0001:000ac0cb       __CIlog10_default          100ad0cb f   libucrt:log10_impl.obj
 0001:000ac0df       __log10_default            100ad0df     libucrt:log10_impl.obj
 0001:000ac1a0       __get_fmode                100ad1a0 f   libucrt:setmode.obj
 0001:000ac1cd       __setmode_nolock           100ad1cd f   libucrt:setmode.obj
 0001:000ac29c       ??0__crt_seek_guard@@QAE@H_J@Z 100ad29c f i libucrt:chsize.obj
 0001:000ac2e9       __chsize_nolock            100ad2e9 f   libucrt:chsize.obj
 0001:000ac459       ?__c16rtomb_utf8@__crt_mbstring@@YAIPAD_SPAU_Mbstatet@@@Z 100ad459 f   libucrt:c16rtomb.obj
 0001:000ac4f3       ___acrt_LCMapStringW       100ad4f3 f   libucrt:lcmapstringw.obj
 0001:000ac7bc       ___acrt_CompareStringA     100ad7bc f   libucrt:comparestringa.obj
 0001:000ac802       __clearfp                  100ad802 f   libucrt:ieee87.obj
 0001:000ac8e0       __CIlog10_pentium4         100ad8e0 f   libucrt:log10_pentium4.obj
 0001:000ac8f8       __log10_pentium4           100ad8f8     libucrt:log10_pentium4.obj
 0001:000acb70       _IsProcessorFeaturePresent@4 100adb70 f   kernel32:KERNEL32.dll
 0001:000acb80       __aullrem                  100adb80 f   LIBCMT:ullrem.obj
 0001:000acc00       __FindPESection            100adc00 f   LIBCMT:pesect.obj
 0001:000acc50       __IsNonwritableInCurrentImage 100adc50 f   LIBCMT:pesect.obj
 0001:000acd10       __ValidateImageBase        100add10 f   LIBCMT:pesect.obj
 0001:000acd50       __allshl                   100add50 f   LIBCMT:llshl.obj
 0001:000acd70       __aullshr                  100add70 f   LIBCMT:ullshr.obj
 0001:000acd90       __allrem                   100add90 f   LIBCMT:llrem.obj
 0001:000ace50       _strrchr                   100ade50 f   libvcruntime:strrchr.obj
 0001:000acf87       _wcschr                    100adf87 f   libvcruntime:wcschr.obj
 0002:00000000       __imp__AddFontResourceA@4  100b2000     gdi32:GDI32.dll
 0002:00000004       \177GDI32_NULL_THUNK_DATA  100b2004     gdi32:GDI32.dll
 0002:00000008       __imp__ImmGetContext@4     100b2008     imm32:IMM32.dll
 0002:0000000c       __imp__ImmReleaseContext@8 100b200c     imm32:IMM32.dll
 0002:00000010       __imp__ImmSetCompositionWindow@8 100b2010     imm32:IMM32.dll
 0002:00000014       \177IMM32_NULL_THUNK_DATA  100b2014     imm32:IMM32.dll
 0002:00000018       __imp__GetProcAddress@8    100b2018     kernel32:KERNEL32.dll
 0002:0000001c       __imp__LoadLibraryA@4      100b201c     kernel32:KERNEL32.dll
 0002:00000020       __imp__IsBadReadPtr@8      100b2020     kernel32:KERNEL32.dll
 0002:00000024       __imp__GetModuleHandleA@4  100b2024     kernel32:KERNEL32.dll
 0002:00000028       __imp__GetTickCount@0      100b2028     kernel32:KERNEL32.dll
 0002:0000002c       __imp__FindFirstFileA@8    100b202c     kernel32:KERNEL32.dll
 0002:00000030       __imp__FindNextFileA@8     100b2030     kernel32:KERNEL32.dll
 0002:00000034       __imp__GlobalAlloc@8       100b2034     kernel32:KERNEL32.dll
 0002:00000038       __imp__GlobalUnlock@4      100b2038     kernel32:KERNEL32.dll
 0002:0000003c       __imp__GlobalLock@4        100b203c     kernel32:KERNEL32.dll
 0002:00000040       __imp__GlobalFree@4        100b2040     kernel32:KERNEL32.dll
 0002:00000044       __imp__MultiByteToWideChar@24 100b2044     kernel32:KERNEL32.dll
 0002:00000048       __imp__WideCharToMultiByte@32 100b2048     kernel32:KERNEL32.dll
 0002:0000004c       __imp__QueryPerformanceCounter@4 100b204c     kernel32:KERNEL32.dll
 0002:00000050       __imp__QueryPerformanceFrequency@4 100b2050     kernel32:KERNEL32.dll
 0002:00000054       __imp__CreateDirectoryA@8  100b2054     kernel32:KERNEL32.dll
 0002:00000058       __imp__Sleep@4             100b2058     kernel32:KERNEL32.dll
 0002:0000005c       __imp__GetCurrentProcessId@0 100b205c     kernel32:KERNEL32.dll
 0002:00000060       __imp__CreateThread@24     100b2060     kernel32:KERNEL32.dll
 0002:00000064       __imp__FreeLibraryAndExitThread@8 100b2064     kernel32:KERNEL32.dll
 0002:00000068       __imp__AllocConsole@0      100b2068     kernel32:KERNEL32.dll
 0002:0000006c       __imp__FreeConsole@0       100b206c     kernel32:KERNEL32.dll
 0002:00000070       __imp__GetModuleHandleExA@12 100b2070     kernel32:KERNEL32.dll
 0002:00000074       __imp__GetCurrentProcess@0 100b2074     kernel32:KERNEL32.dll
 0002:00000078       __imp__K32GetModuleInformation@16 100b2078     kernel32:KERNEL32.dll
 0002:0000007c       __imp__VirtualQuery@12     100b207c     kernel32:KERNEL32.dll
 0002:00000080       __imp__SetEndOfFile@4      100b2080     kernel32:KERNEL32.dll
 0002:00000084       __imp__HeapSize@12         100b2084     kernel32:KERNEL32.dll
 0002:00000088       __imp__CreateFileW@28      100b2088     kernel32:KERNEL32.dll
 0002:0000008c       __imp__SetStdHandle@8      100b208c     kernel32:KERNEL32.dll
 0002:00000090       __imp__SetEnvironmentVariableW@8 100b2090     kernel32:KERNEL32.dll
 0002:00000094       __imp__FreeEnvironmentStringsW@4 100b2094     kernel32:KERNEL32.dll
 0002:00000098       __imp__GetEnvironmentStringsW@0 100b2098     kernel32:KERNEL32.dll
 0002:0000009c       __imp__FreeLibrary@4       100b209c     kernel32:KERNEL32.dll
 0002:000000a0       __imp__GetCommandLineA@0   100b20a0     kernel32:KERNEL32.dll
 0002:000000a4       __imp__GetOEMCP@0          100b20a4     kernel32:KERNEL32.dll
 0002:000000a8       __imp__GetACP@0            100b20a8     kernel32:KERNEL32.dll
 0002:000000ac       __imp__IsValidCodePage@4   100b20ac     kernel32:KERNEL32.dll
 0002:000000b0       __imp__FindNextFileW@8     100b20b0     kernel32:KERNEL32.dll
 0002:000000b4       __imp__FindFirstFileExW@24 100b20b4     kernel32:KERNEL32.dll
 0002:000000b8       __imp__FindClose@4         100b20b8     kernel32:KERNEL32.dll
 0002:000000bc       __imp__GetTimeZoneInformation@4 100b20bc     kernel32:KERNEL32.dll
 0002:000000c0       __imp__DeleteFileW@4       100b20c0     kernel32:KERNEL32.dll
 0002:000000c4       __imp__ReadConsoleW@20     100b20c4     kernel32:KERNEL32.dll
 0002:000000c8       __imp__SetFilePointerEx@20 100b20c8     kernel32:KERNEL32.dll
 0002:000000cc       __imp__GetFileSizeEx@8     100b20cc     kernel32:KERNEL32.dll
 0002:000000d0       __imp__GetConsoleMode@8    100b20d0     kernel32:KERNEL32.dll
 0002:000000d4       __imp__GetConsoleCP@0      100b20d4     kernel32:KERNEL32.dll
 0002:000000d8       __imp__WriteFile@20        100b20d8     kernel32:KERNEL32.dll
 0002:000000dc       __imp__FlushFileBuffers@4  100b20dc     kernel32:KERNEL32.dll
 0002:000000e0       __imp__EnumSystemLocalesW@8 100b20e0     kernel32:KERNEL32.dll
 0002:000000e4       __imp__GetUserDefaultLCID@0 100b20e4     kernel32:KERNEL32.dll
 0002:000000e8       __imp__IsValidLocale@8     100b20e8     kernel32:KERNEL32.dll
 0002:000000ec       __imp__GetTimeFormatW@24   100b20ec     kernel32:KERNEL32.dll
 0002:000000f0       __imp__GetDateFormatW@24   100b20f0     kernel32:KERNEL32.dll
 0002:000000f4       __imp__HeapReAlloc@16      100b20f4     kernel32:KERNEL32.dll
 0002:000000f8       __imp__ExitProcess@4       100b20f8     kernel32:KERNEL32.dll
 0002:000000fc       __imp__VirtualFree@12      100b20fc     kernel32:KERNEL32.dll
 0002:00000100       __imp__VirtualProtect@16   100b2100     kernel32:KERNEL32.dll
 0002:00000104       __imp__VirtualAlloc@16     100b2104     kernel32:KERNEL32.dll
 0002:00000108       __imp__GetNativeSystemInfo@4 100b2108     kernel32:KERNEL32.dll
 0002:0000010c       __imp__GetProcessHeap@0    100b210c     kernel32:KERNEL32.dll
 0002:00000110       __imp__ReadFile@20         100b2110     kernel32:KERNEL32.dll
 0002:00000114       __imp__WriteConsoleW@20    100b2114     kernel32:KERNEL32.dll
 0002:00000118       __imp__GetModuleHandleExW@12 100b2118     kernel32:KERNEL32.dll
 0002:0000011c       __imp__GetFileType@4       100b211c     kernel32:KERNEL32.dll
 0002:00000120       __imp__GetStdHandle@4      100b2120     kernel32:KERNEL32.dll
 0002:00000124       __imp__RtlUnwind@16        100b2124     kernel32:KERNEL32.dll
 0002:00000128       __imp__RaiseException@16   100b2128     kernel32:KERNEL32.dll
 0002:0000012c       __imp__HeapFree@12         100b212c     kernel32:KERNEL32.dll
 0002:00000130       __imp__HeapAlloc@12        100b2130     kernel32:KERNEL32.dll
 0002:00000134       __imp__GetCommandLineW@0   100b2134     kernel32:KERNEL32.dll
 0002:00000138       __imp__SetLastError@4      100b2138     kernel32:KERNEL32.dll
 0002:0000013c       __imp__InterlockedFlushSList@4 100b213c     kernel32:KERNEL32.dll
 0002:00000140       __imp__FlushInstructionCache@12 100b2140     kernel32:KERNEL32.dll
 0002:00000144       __imp__GetLastError@0      100b2144     kernel32:KERNEL32.dll
 0002:00000148       __imp__CloseHandle@4       100b2148     kernel32:KERNEL32.dll
 0002:0000014c       __imp__WaitForSingleObjectEx@12 100b214c     kernel32:KERNEL32.dll
 0002:00000150       __imp__SwitchToThread@0    100b2150     kernel32:KERNEL32.dll
 0002:00000154       __imp__GetCurrentThread@0  100b2154     kernel32:KERNEL32.dll
 0002:00000158       __imp__GetCurrentThreadId@0 100b2158     kernel32:KERNEL32.dll
 0002:0000015c       __imp__EnterCriticalSection@4 100b215c     kernel32:KERNEL32.dll
 0002:00000160       __imp__LeaveCriticalSection@4 100b2160     kernel32:KERNEL32.dll
 0002:00000164       __imp__DeleteCriticalSection@4 100b2164     kernel32:KERNEL32.dll
 0002:00000168       __imp__EncodePointer@4     100b2168     kernel32:KERNEL32.dll
 0002:0000016c       __imp__DecodePointer@4     100b216c     kernel32:KERNEL32.dll
 0002:00000170       __imp__InitializeCriticalSectionAndSpinCount@8 100b2170     kernel32:KERNEL32.dll
 0002:00000174       __imp__CreateEventW@16     100b2174     kernel32:KERNEL32.dll
 0002:00000178       __imp__TlsAlloc@0          100b2178     kernel32:KERNEL32.dll
 0002:0000017c       __imp__TlsGetValue@4       100b217c     kernel32:KERNEL32.dll
 0002:00000180       __imp__TlsSetValue@8       100b2180     kernel32:KERNEL32.dll
 0002:00000184       __imp__TlsFree@4           100b2184     kernel32:KERNEL32.dll
 0002:00000188       __imp__GetSystemTimeAsFileTime@4 100b2188     kernel32:KERNEL32.dll
 0002:0000018c       __imp__GetModuleHandleW@4  100b218c     kernel32:KERNEL32.dll
 0002:00000190       __imp__CompareStringW@24   100b2190     kernel32:KERNEL32.dll
 0002:00000194       __imp__LCMapStringW@24     100b2194     kernel32:KERNEL32.dll
 0002:00000198       __imp__GetLocaleInfoW@16   100b2198     kernel32:KERNEL32.dll
 0002:0000019c       __imp__GetStringTypeW@16   100b219c     kernel32:KERNEL32.dll
 0002:000001a0       __imp__GetCPInfo@8         100b21a0     kernel32:KERNEL32.dll
 0002:000001a4       __imp__SetEvent@4          100b21a4     kernel32:KERNEL32.dll
 0002:000001a8       __imp__ResetEvent@4        100b21a8     kernel32:KERNEL32.dll
 0002:000001ac       __imp__UnhandledExceptionFilter@4 100b21ac     kernel32:KERNEL32.dll
 0002:000001b0       __imp__SetUnhandledExceptionFilter@4 100b21b0     kernel32:KERNEL32.dll
 0002:000001b4       __imp__TerminateProcess@8  100b21b4     kernel32:KERNEL32.dll
 0002:000001b8       __imp__IsProcessorFeaturePresent@4 100b21b8     kernel32:KERNEL32.dll
 0002:000001bc       __imp__IsDebuggerPresent@0 100b21bc     kernel32:KERNEL32.dll
 0002:000001c0       __imp__GetStartupInfoW@4   100b21c0     kernel32:KERNEL32.dll
 0002:000001c4       __imp__InitializeSListHead@4 100b21c4     kernel32:KERNEL32.dll
 0002:000001c8       __imp__LocalFree@4         100b21c8     kernel32:KERNEL32.dll
 0002:000001cc       __imp__OutputDebugStringW@4 100b21cc     kernel32:KERNEL32.dll
 0002:000001d0       __imp__GetThreadTimes@20   100b21d0     kernel32:KERNEL32.dll
 0002:000001d4       __imp__GetModuleFileNameW@12 100b21d4     kernel32:KERNEL32.dll
 0002:000001d8       __imp__LoadLibraryExW@12   100b21d8     kernel32:KERNEL32.dll
 0002:000001dc       \177KERNEL32_NULL_THUNK_DATA 100b21dc     kernel32:KERNEL32.dll
 0002:000001e0       __imp__VariantClear@4      100b21e0     oleaut32:OLEAUT32.dll
 0002:000001e4       \177OLEAUT32_NULL_THUNK_DATA 100b21e4     oleaut32:OLEAUT32.dll
 0002:000001e8       __imp__SetClipboardData@8  100b21e8     user32:USER32.dll
 0002:000001ec       __imp__OpenClipboard@4     100b21ec     user32:USER32.dll
 0002:000001f0       __imp__GetAsyncKeyState@4  100b21f0     user32:USER32.dll
 0002:000001f4       __imp__CloseClipboard@0    100b21f4     user32:USER32.dll
 0002:000001f8       __imp__GetClipboardData@4  100b21f8     user32:USER32.dll
 0002:000001fc       __imp__FindWindowA@8       100b21fc     user32:USER32.dll
 0002:00000200       __imp__MapVirtualKeyA@8    100b2200     user32:USER32.dll
 0002:00000204       __imp__ToAscii@20          100b2204     user32:USER32.dll
 0002:00000208       __imp__GetKeyboardState@4  100b2208     user32:USER32.dll
 0002:0000020c       __imp__GetWindowThreadProcessId@8 100b220c     user32:USER32.dll
 0002:00000210       __imp__EnumWindows@8       100b2210     user32:USER32.dll
 0002:00000214       __imp__SetWindowLongA@12   100b2214     user32:USER32.dll
 0002:00000218       __imp__CallWindowProcA@20  100b2218     user32:USER32.dll
 0002:0000021c       __imp__LoadCursorA@8       100b221c     user32:USER32.dll
 0002:00000220       __imp__ScreenToClient@8    100b2220     user32:USER32.dll
 0002:00000224       __imp__ClientToScreen@8    100b2224     user32:USER32.dll
 0002:00000228       __imp__GetCursorPos@4      100b2228     user32:USER32.dll
 0002:0000022c       __imp__SetCursor@4         100b222c     user32:USER32.dll
 0002:00000230       __imp__SetCursorPos@8      100b2230     user32:USER32.dll
 0002:00000234       __imp__GetClientRect@8     100b2234     user32:USER32.dll
 0002:00000238       __imp__GetForegroundWindow@0 100b2238     user32:USER32.dll
 0002:0000023c       __imp__ReleaseCapture@0    100b223c     user32:USER32.dll
 0002:00000240       __imp__SetCapture@4        100b2240     user32:USER32.dll
 0002:00000244       __imp__GetCapture@0        100b2244     user32:USER32.dll
 0002:00000248       __imp__GetKeyState@4       100b2248     user32:USER32.dll
 0002:0000024c       __imp__IsChild@8           100b224c     user32:USER32.dll
 0002:00000250       __imp__EmptyClipboard@0    100b2250     user32:USER32.dll
 0002:00000254       \177USER32_NULL_THUNK_DATA 100b2254     user32:USER32.dll
 0002:00000258       __imp__timeBeginPeriod@4   100b2258     Winmm:WINMM.dll
 0002:0000025c       __imp__PlaySoundA@12       100b225c     Winmm:WINMM.dll
 0002:00000260       __imp__timeGetTime@0       100b2260     Winmm:WINMM.dll
 0002:00000264       \177WINMM_NULL_THUNK_DATA  100b2264     Winmm:WINMM.dll
 0002:00000268       __imp__Direct3DCreate9@4   100b2268     d3d9:d3d9.dll
 0002:0000026c       \177d3d9_NULL_THUNK_DATA   100b226c     d3d9:d3d9.dll
 0002:00000270       __imp__URLDownloadToFileA@20 100b2270     urlmon:urlmon.dll
 0002:00000274       \177urlmon_NULL_THUNK_DATA 100b2274     urlmon:urlmon.dll
 0002:00000278       ___guard_check_icall_fptr  100b2278     LIBCMT:guard_support.obj
 0002:0000027c       ___xc_a                    100b227c     LIBCMT:initializers.obj
 0002:00000334       ___xc_z                    100b2334     LIBCMT:initializers.obj
 0002:00000338       ___xi_a                    100b2338     LIBCMT:initializers.obj
 0002:00000344       ___acrt_stdio_initializer  100b2344     libucrt:stdio_initializer.obj
 0002:00000348       ___acrt_tran_sse2_initializer 100b2348     libucrt:sse2_initializer.obj
 0002:0000034c       ___acrt_timeset_initializer 100b234c     libucrt:timeset_initializer.obj
 0002:00000350       ___acrt_multibyte_initializer 100b2350     libucrt:multibyte_initializer.obj
 0002:00000354       ___xi_z                    100b2354     LIBCMT:initializers.obj
 0002:00000358       ___xl_a                    100b2358     LIBCMT:tlssup.obj
 0002:0000035c       ___xl_z                    100b235c     LIBCMT:tlssup.obj
 0002:00000360       ___xp_a                    100b2360     LIBCMT:initializers.obj
 0002:00000368       ___acrt_locale_terminator  100b2368     libucrt:locale_initializer.obj
 0002:0000036c       ___dcrt_console_output_terminator 100b236c     libucrt:console_output_initializer.obj
 0002:00000370       ___acrt_stdio_terminator   100b2370     libucrt:stdio_initializer.obj
 0002:00000374       ___xp_z                    100b2374     LIBCMT:initializers.obj
 0002:00000378       ___xt_a                    100b2378     LIBCMT:initializers.obj
 0002:0000037c       ___xt_z                    100b237c     LIBCMT:initializers.obj
 0002:00000384       ??_7exception@std@@6B@     100b2384     dll.obj
 0002:0000038c       ??_C@_0BC@EOODALEL@Unknown?5exception@ 100b238c     dll.obj
 0002:000003a4       ??_7runtime_error@std@@6B@ 100b23a4     dll.obj
 0002:000003ac       ??_C@_0BA@ELKIONDK@bad?5locale?5name@ 100b23ac     dll.obj
 0002:000003c0       ??_7_Facet_base@std@@6B@   100b23c0     dll.obj
 0002:000003cc       ??_C@_00CNPNBAHC@@         100b23cc     dll.obj
 0002:000003d4       ??_7?$ctype@D@std@@6B@     100b23d4     dll.obj
 0002:00000404       ??_7_System_error@std@@6B@ 100b2404     dll.obj
 0002:0000040c       ??_C@_02LMMGGCAJ@?3?5@     100b240c     dll.obj
 0002:00000414       ??_7system_error@std@@6B@  100b2414     dll.obj
 0002:00000420       ??_7_Iostream_error_category@std@@6B@ 100b2420     dll.obj
 0002:00000438       ??_C@_08LLGCOLLL@iostream@ 100b2438     dll.obj
 0002:00000444       ??_C@_0BG@PADBLCHM@iostream?5stream?5error@ 100b2444     dll.obj
 0002:00000460       ??_7failure@ios_base@std@@6B@ 100b2460     dll.obj
 0002:0000046c       ??_7ios_base@std@@6B@      100b246c     dll.obj
 0002:00000470       ??_C@_0BF@PHHKMMFD@ios_base?3?3badbit?5set@ 100b2470     dll.obj
 0002:00000488       ??_C@_0BG@FMKFHCIL@ios_base?3?3failbit?5set@ 100b2488     dll.obj
 0002:000004a0       ??_C@_0BF@OOHOMBOF@ios_base?3?3eofbit?5set@ 100b24a0     dll.obj
 0002:000004bc       ??_7?$basic_ios@DU?$char_traits@D@std@@@std@@6B@ 100b24bc     dll.obj
 0002:000004c4       ??_7?$basic_istream@DU?$char_traits@D@std@@@std@@6B@ 100b24c4     dll.obj
 0002:000004cc       ??_7?$basic_ostream@DU?$char_traits@D@std@@@std@@6B@ 100b24cc     dll.obj
 0002:000004d0       ??_8?$basic_ostream@DU?$char_traits@D@std@@@std@@7B@ 100b24d0     dll.obj
 0002:000004dc       ??_7?$basic_iostream@DU?$char_traits@D@std@@@std@@6B@ 100b24dc     dll.obj
 0002:000004e0       ??_8?$basic_iostream@DU?$char_traits@D@std@@@std@@7B?$basic_istream@DU?$char_traits@D@std@@@1@@ 100b24e0     dll.obj
 0002:000004e8       ??_8?$basic_iostream@DU?$char_traits@D@std@@@std@@7B?$basic_ostream@DU?$char_traits@D@std@@@1@@ 100b24e8     dll.obj
 0002:000004f4       ??_7?$basic_streambuf@DU?$char_traits@D@std@@@std@@6B@ 100b24f4     dll.obj
 0002:00000534       ??_7?$basic_filebuf@DU?$char_traits@D@std@@@std@@6B@ 100b2534     dll.obj
 0002:00000574       ??_7?$basic_fstream@DU?$char_traits@D@std@@@std@@6B@ 100b2574     dll.obj
 0002:00000578       ??_8?$basic_fstream@DU?$char_traits@D@std@@@std@@7B?$basic_istream@DU?$char_traits@D@std@@@1@@ 100b2578     dll.obj
 0002:00000580       ??_8?$basic_fstream@DU?$char_traits@D@std@@@std@@7B?$basic_ostream@DU?$char_traits@D@std@@@1@@ 100b2580     dll.obj
 0002:0000058c       ??_7?$codecvt@DDU_Mbstatet@@@std@@6B@ 100b258c     dll.obj
 0002:000005b4       ??_C@_0BI@CFPLBAOH@invalid?5string?5position@ 100b25b4     dll.obj
 0002:000005cc       ??_C@_0BA@JFNIOLAK@string?5too?5long@ 100b25cc     dll.obj
 0002:000005dc       ??_C@_0M@EINGCJHB@vstdlib?4dll@ 100b25dc     Aimbot.obj
 0002:000005ec       ??_7CTraceFilterOneEntity@SDK@@6B@ 100b25ec     Aimbot.obj
 0002:000005f8       ??_7CTraceFilterOneEntity2@SDK@@6B@ 100b25f8     Aimbot.obj
 0002:00000600       ??_C@_0M@MPLEGCP@RandomFloat@ 100b2600     Aimbot.obj
 0002:0000060c       ??_C@_0BD@OLBABOEK@vector?$DMT?$DO?5too?5long@ 100b260c     Aimbot.obj
 0002:00000620       __real@3a83126f            100b2620     Aimbot.obj
 0002:00000624       __real@3b800000            100b2624     Aimbot.obj
 0002:00000628       __real@3c23d70a            100b2628     Aimbot.obj
 0002:0000062c       __real@3dcccccd            100b262c     Aimbot.obj
 0002:00000630       __real@3f000000            100b2630     Aimbot.obj
 0002:00000634       __real@3f800000            100b2634     Aimbot.obj
 0002:00000638       __real@40400000            100b2638     Aimbot.obj
 0002:0000063c       __real@41a00000            100b263c     Aimbot.obj
 0002:00000640       __real@42480000            100b2640     Aimbot.obj
 0002:00000644       __real@425c0000            100b2644     Aimbot.obj
 0002:00000648       __real@42940000            100b2648     Aimbot.obj
 0002:0000064c       __real@42b20000            100b264c     Aimbot.obj
 0002:00000650       __real@42b40000            100b2650     Aimbot.obj
 0002:00000654       __real@42c80000            100b2654     Aimbot.obj
 0002:00000658       __real@43340000            100b2658     Aimbot.obj
 0002:0000065c       __real@43b40000            100b265c     Aimbot.obj
 0002:00000660       __real@43e10000            100b2660     Aimbot.obj
 0002:00000664       __real@45fce000            100b2664     Aimbot.obj
 0002:00000668       __real@7f7fffff            100b2668     Aimbot.obj
 0002:0000066c       __real@c2b20000            100b266c     Aimbot.obj
 0002:00000670       __real@c3340000            100b2670     Aimbot.obj
 0002:00000678       ??_7CTraceFilter@SDK@@6B@  100b2678     Antiaim.obj
 0002:00000684       ??_7CTraceWorldOnly@SDK@@6B@ 100b2684     Antiaim.obj
 0002:0000068c       __real@00000000            100b268c     Antiaim.obj
 0002:00000690       __real@3fb999999999999a    100b2690     Antiaim.obj
 0002:00000698       __real@3fcc28f5c28f5c29    100b2698     Antiaim.obj
 0002:000006a0       __real@3fd3333333333333    100b26a0     Antiaim.obj
 0002:000006a8       __real@3ff199999999999a    100b26a8     Antiaim.obj
 0002:000006b0       __real@40a00000            100b26b0     Antiaim.obj
 0002:000006b4       __real@41700000            100b26b4     Antiaim.obj
 0002:000006b8       __real@41880000            100b26b8     Antiaim.obj
 0002:000006bc       __real@41900000            100b26bc     Antiaim.obj
 0002:000006c0       __real@41c00000            100b26c0     Antiaim.obj
 0002:000006c4       __real@41c80000            100b26c4     Antiaim.obj
 0002:000006c8       __real@420c0000            100b26c8     Antiaim.obj
 0002:000006cc       __real@42440000            100b26cc     Antiaim.obj
 0002:000006d0       __real@42700000            100b26d0     Antiaim.obj
 0002:000006d4       __real@42800000            100b26d4     Antiaim.obj
 0002:000006d8       __real@42e60000            100b26d8     Antiaim.obj
 0002:000006dc       __real@43020000            100b26dc     Antiaim.obj
 0002:000006e0       __real@4f800000            100b26e0     Antiaim.obj
 0002:000006e4       __real@bf000000            100b26e4     Antiaim.obj
 0002:000006e8       __real@bf800000            100b26e8     Antiaim.obj
 0002:000006ec       __real@c2e60000            100b26ec     Antiaim.obj
 0002:000006f0       __xmm@41f00000000000000000000000000000 100b26f0     Antiaim.obj
 0002:00000700       __xmm@7fffffffffffffff7fffffffffffffff 100b2700     Antiaim.obj
 0002:00000710       __xmm@80000000800000008000000080000000 100b2710     Antiaim.obj
 0002:00000720       __real@402e000000000000    100b2720     Autostrafer.obj
 0002:00000728       __real@41f00000            100b2728     Autostrafer.obj
 0002:0000072c       __real@42340000            100b272c     Autostrafer.obj
 0002:00000730       __real@42652ee0            100b2730     Autostrafer.obj
 0002:00000734       __real@43070000            100b2734     Autostrafer.obj
 0002:00000738       __real@c2340000            100b2738     Autostrafer.obj
 0002:0000073c       __real@c2b40000            100b273c     Autostrafer.obj
 0002:00000740       __real@c3070000            100b2740     Autostrafer.obj
 0002:00000744       __real@c3e10000            100b2744     Autostrafer.obj
 0002:0000074c       ??_7logic_error@std@@6B@   100b274c     Autowall.obj
 0002:00000754       ??_C@_0L@PHFEFMEF@client?4dll@ 100b2754     Autowall.obj
 0002:00000760       ??_C@_0CA@PLJFAFPH@xxxxxxxxxxxxxxxxxxxxxxxx?$DP?$DP?$DP?$DPxxx@ 100b2760     Autowall.obj
 0002:00000780       ??_C@_0CA@NCNDOMBC@S?$IL?$NM?$ID?l?$AI?$ID?d?p?$ID?D?$AEU?$ILk?$AE?$IJl$?$AE?$IL?l?$IB?l?$AA?$AA?$AA?$AA?$ILC?$BA@ 100b2780     Autowall.obj
 0002:000007a0       ??_C@_0BN@CCHNNEEM@xxxxxxxxxxxxxxxxxxxxxxxxxxxx@ 100b27a0     Autowall.obj
 0002:000007c0       ??_C@_0BN@HMPJPBK@S?$IL?$NM?$ID?l?$AI?$ID?d?x?$ID?D?$AEU?$ILk?$AE?$IJl$?$AE?$IL?l?$ID?lx?$ILS?$BE@ 100b27c0     Autowall.obj
 0002:000007e0       ??_C@_0BC@BCICHOML@CBreakableSurface@ 100b27e0     Autowall.obj
 0002:000007f4       __real@3d4ccccd            100b27f4     Autowall.obj
 0002:000007f8       __real@3f400000            100b27f8     Autowall.obj
 0002:000007fc       __real@3f7d70a4            100b27fc     Autowall.obj
 0002:00000800       __real@3fa00000            100b2800     Autowall.obj
 0002:00000804       __real@40000000            100b2804     Autowall.obj
 0002:00000808       __real@40800000            100b2808     Autowall.obj
 0002:0000080c       __real@42200000            100b280c     Autowall.obj
 0002:00000810       __real@43fa0000            100b2810     Autowall.obj
 0002:00000814       ??_C@_0BA@NAOEFMHJ@xxxxxxxxxxxxx?$DP?$DP@ 100b2814     Backtracking.obj
 0002:00000824       ??_C@_0BA@LIFLIIA@U?$IL?l?$ID?d?xQSVW?$IL?q?h?$AA?$AA@ 100b2824     Backtracking.obj
 0002:00000834       ??_C@_0BA@BKAJBOPO@xxxxxxxxxxxxxxx@ 100b2834     Backtracking.obj
 0002:00000844       ??_C@_0BA@KOOOMFIC@U?$IL?l?$ID?d?x?$ID?ldSVW?$IL?q?h@ 100b2844     Backtracking.obj
 0002:00000854       ??_C@_0L@FKMMBKBD@sv_gravity@ 100b2854     Backtracking.obj
 0002:00000860       ??_C@_0L@OJEIPPLD@xx?$DP?$DP?$DP?$DPxxxx@ 100b2860     Backtracking.obj
 0002:0000086c       ??_C@_0L@DFHOBHKF@?$IA?$DN?$AA?$AA?$AA?$AA?$AAt?$BG?$KB@ 100b286c     Backtracking.obj
 0002:00000878       ??_C@_0BA@EALHDOPA@cl_interp_ratio@ 100b2878     Backtracking.obj
 0002:00000888       ??_C@_0O@GLEIJHMA@cl_updaterate@ 100b2888     Backtracking.obj
 0002:00000898       ??_C@_09EEMEFIMK@cl_interp@ 100b2898     Backtracking.obj
 0002:000008a4       ??_C@_0BC@KBDMBKEH@deque?$DMT?$DO?5too?5long@ 100b28a4     Backtracking.obj
 0002:000008b8       __real@3e4ccccc            100b28b8     Backtracking.obj
 0002:000008c0       __real@3fe0000000000000    100b28c0     Backtracking.obj
 0002:000008c8       ??_C@_02NJPGOMH@?$CFf@     100b28c8     BoxESP.obj
 0002:000008cc       ??_C@_0N@CNADAMED@Breaking?5LBY@ 100b28cc     BoxESP.obj
 0002:000008dc       ??_C@_05BOOJJLKO@LBY?3?5@  100b28dc     BoxESP.obj
 0002:000008e4       ??_C@_05INKFKLBN@?$CFs?5?$CFi@ 100b28e4     BoxESP.obj
 0002:000008ec       __real@3b449ba6            100b28ec     BoxESP.obj
 0002:000008f0       __real@3f0ccccd            100b28f0     BoxESP.obj
 0002:000008f4       __real@40c00000            100b28f4     BoxESP.obj
 0002:000008f8       __real@41000000            100b28f8     BoxESP.obj
 0002:000008fc       __real@41100000            100b28fc     BoxESP.obj
 0002:00000900       __real@43160000            100b2900     BoxESP.obj
 0002:00000904       __real@437f0000            100b2904     BoxESP.obj
 0002:00000908       ??_C@_0BA@MMAMBACG@KeyValuesSystem@ 100b2908     Chams.obj
 0002:00000918       ??_C@_0BI@LDFJIEBB@55?58B?5EC?551?533?5C0?5C7?545@ 100b2918     Chams.obj
 0002:00000930       ??_C@_0DD@PILKPPAK@55?58B?5EC?583?5E4?5F8?583?5EC?534?553?58@ 100b2930     Chams.obj
 0002:00000a94       ??_C@_0BB@PJFNHEEA@VertexLitGeneric@ 100b2a94     Chams.obj
 0002:00000aa8       ??_C@_0N@KOCEKFOI@UnlitGeneric@ 100b2aa8     Chams.obj
 0002:00000ab8       ??_C@_0BL@GHDFFJPE@?$CDnice_pener_material?$CFi?4vmt@ 100b2ab8     Chams.obj
 0002:00000ad4       __real@447a0000            100b2ad4     CircleStrafer.obj
 0002:00000ad8       ??_C@_0BE@HPOMLKFC@xx?$DP?$DP?$DP?$DPx?$DP?$DP?$DP?$DPx?$DP?$DP?$DP?$DPxxx@ 100b2ad8     EnginePrediction.obj
 0002:00000aec       ??_C@_0BE@OINIJPGK@?$IL?$AN?$AA?$AA?$AA?$AA?$LK?$AA?$AA?$AA?$AA?h?$AA?$AA?$AA?$AA?$ID?D?$AE@ 100b2aec     EnginePrediction.obj
 0002:00000b04       ??_7IGameEventListener@SDK@@6B@ 100b2b04     EventListeners.obj
 0002:00000b14       ??_7ItemPurchaseListener@MISC@FEATURES@@6B@ 100b2b14     EventListeners.obj
 0002:00000b24       ??_7PlayerHurtListener@MISC@FEATURES@@6B@ 100b2b24     EventListeners.obj
 0002:00000b34       ??_7BulletImpactListener@MISC@FEATURES@@6B@ 100b2b34     EventListeners.obj
 0002:00000b44       ??_7WeaponFireListener@MISC@FEATURES@@6B@ 100b2b44     EventListeners.obj
 0002:00000b50       ??_C@_0O@JAENPIHH@item_purchase@ 100b2b50     EventListeners.obj
 0002:00000b60       ??_C@_0M@GPCKBPEK@player_hurt@ 100b2b60     EventListeners.obj
 0002:00000b6c       ??_C@_0O@FEPDDHEK@bullet_impact@ 100b2b6c     EventListeners.obj
 0002:00000b7c       ??_C@_0M@LMEOBDP@weapon_fire@ 100b2b7c     EventListeners.obj
 0002:00000b88       ??_C@_06IHAGGOEE@userid@   100b2b88     EventListeners.obj
 0002:00000b90       ??_C@_0L@HKNLFHNA@?5bought?5a?5@ 100b2b90     EventListeners.obj
 0002:00000b9c       ??_C@_06GEPNGEJI@weapon@   100b2b9c     EventListeners.obj
 0002:00000ba4       ??_C@_08MANLKGDL@attacker@ 100b2ba4     EventListeners.obj
 0002:00000bb0       ??_C@_0L@CPHGICGA@dmg_health@ 100b2bb0     EventListeners.obj
 0002:00000bbc       ??_C@_04NBAMEHMN@Hit?5@    100b2bbc     EventListeners.obj
 0002:00000bc4       ??_C@_08KBGNDPBA@hitgroup@ 100b2bc4     EventListeners.obj
 0002:00000bd0       ??_C@_08KBNOFEGG@?5in?5the?5@ 100b2bd0     EventListeners.obj
 0002:00000bdc       ??_C@_05POFHKGEO@?5for?5@  100b2bdc     EventListeners.obj
 0002:00000be4       ??_C@_08BBLFANMG@?5damage?4@ 100b2be4     EventListeners.obj
 0002:00000bf0       ??_C@_01GLPGHMHM@z@        100b2bf0     EventListeners.obj
 0002:00000bf4       ??_C@_01EANLCPLP@y@        100b2bf4     EventListeners.obj
 0002:00000bf8       ??_C@_01FJMABOPO@x@        100b2bf8     EventListeners.obj
 0002:00000c00       __real@3fc3333333333333    100b2c00     Fakewalk.obj
 0002:00000c08       ?piecewise_construct@std@@3Upiecewise_construct_t@1@B 100b2c08     Misc.obj
 0002:00000c0c       ??_C@_0L@EMPDFJNI@engine?4dll@ 100b2c0c     Misc.obj
 0002:00000c18       ??_C@_09CPPOEBIG@xxxxxxxxx@ 100b2c18     Misc.obj
 0002:00000c24       ??_C@_09JNDMODPH@SVW?$IL?Z?$IL?y?$PP?$BF@ 100b2c24     Misc.obj
 0002:00000d34       ??_C@_0DJ@JGNBOHDK@?2?2?5These?5are?5options?5that?5are?5r@ 100b2d34     Misc.obj
 0002:00000d70       ??_C@_0DO@JNMLMOP@?2?2?5Use?5?$CIENABLED?$CJ?5and?5?$CIDISABLED?$CJ@ 100b2d70     Misc.obj
 0002:00000db0       ??_C@_0EF@IIFAIFIA@?$FLLoad?5config?$FN?5?$CIDISABLED?$CJ?5?2?2?5rag@ 100b2db0     Misc.obj
 0002:00000df8       ??_C@_0FH@JDAANJIH@?$FLLoad?5visuals?1misc?5config?$FN?5?$CIDIS@ 100b2df8     Misc.obj
 0002:00000e50       ??_C@_0CF@EPGJBHPJ@?$FLLoad?5skins?5on?5injection?$FN?5?$CIDISA@ 100b2e50     Misc.obj
 0002:00000e78       ??_C@_08GLNGGDPJ@DISABLED@ 100b2e78     Misc.obj
 0002:00000e84       ??_C@_07DKCFBCHE@ENABLED@  100b2e84     Misc.obj
 0002:00000e8c       ??_C@_0BC@LPEFKFMP@skins_config?4scfg@ 100b2e8c     Misc.obj
 0002:00000ea0       ?bameware_text@?4???R<lambda_8598c850d2f80c08bd6af5fc93c9f3cd>@@QBE@XZ@4QBDB 100b2ea0     Misc.obj
 0002:00000eb4       ??_C@_03BHBOHINF@LBY@      100b2eb4     Misc.obj
 0002:00000eb8       ??_C@_0BE@JONHPENG@map?1set?$DMT?$DO?5too?5long@ 100b2eb8     Misc.obj
 0002:00000ecc       __real@3c8efa35            100b2ecc     Misc.obj
 0002:00000ed0       __real@3e19999a            100b2ed0     Misc.obj
 0002:00000ed4       __real@40200000            100b2ed4     Misc.obj
 0002:00000ed8       __real@4024000000000000    100b2ed8     Misc.obj
 0002:00000ee0       __real@41200000            100b2ee0     Misc.obj
 0002:00000ee4       __real@42fa0000            100b2ee4     Misc.obj
 0002:00000ee8       ??_C@_0CE@LNFEJFHG@55?58B?5EC?583?57D?508?5FF?556?58B?5F1?57@ 100b2ee8     Resolver.obj
 0002:00000f0c       ??_C@_0N@BCODAK@Hit?5shot?5at?5@ 100b2f0c     Resolver.obj
 0002:00000f1c       ??_C@_0BA@CNOHEFKK@Missed?5shot?5at?5@ 100b2f1c     Resolver.obj
 0002:00000f2c       ??_C@_08ICLDDLKE@OVERRIDE@ 100b2f2c     Resolver.obj
 0002:00000f38       ??_C@_07BGPPLLDP@NO?5FAKE@ 100b2f38     Resolver.obj
 0002:00000f40       ??_C@_0L@OAOBLFMH@LBY?5UPDATE@ 100b2f40     Resolver.obj
 0002:00000f4c       ??_C@_0BF@DHIMLONP@PREDICTED?5LBY?5UPDATE@ 100b2f4c     Resolver.obj
 0002:00000f64       ??_C@_0BB@PMIJMFPH@NOT?5BREAKING?5LBY@ 100b2f64     Resolver.obj
 0002:00000f78       ??_C@_0L@MFFDHCIK@BRUTEFORCE@ 100b2f78     Resolver.obj
 0002:00000f84       ??_C@_0BG@MKHIMGK@LAST?5MOVING?5LBY?5DELTA@ 100b2f84     Resolver.obj
 0002:00000f9c       ??_C@_0BA@CIIKPDGJ@LAST?5MOVING?5LBY@ 100b2f9c     Resolver.obj
 0002:00000fac       ??_C@_0P@BBFCPCM@ANTI?5FREESTAND@ 100b2fac     Resolver.obj
 0002:00000fbc       ??_C@_03MCFJEBIN@GAY@      100b2fbc     Resolver.obj
 0002:00000fc0       ??_C@_03NIBMKKKC@?5?1?5@   100b2fc0     Resolver.obj
 0002:00000fc4       __real@41800000            100b2fc4     Resolver.obj
 0002:00000fc8       __real@428c0000            100b2fc8     Resolver.obj
 0002:00000fcc       __real@42920000            100b2fcc     Resolver.obj
 0002:00000fd0       __real@42960000            100b2fd0     Resolver.obj
 0002:00000fd4       __real@430c0000            100b2fd4     Resolver.obj
 0002:00000fd8       __real@43200000            100b2fd8     Resolver.obj
 0002:00000fdc       ??_C@_0P@BNCJGDPG@gg?4gg?1chadhook@ 100b2fdc     Configurations.obj
 0002:00000fec       ??_C@_0BH@LABFDBK@C?3?2Bameware?2Configs?2?$CFs@ 100b2fec     Configurations.obj
 0002:00001004       ??_C@_05ODCCPGFJ@0x?$CFX?5@ 100b3004     Configurations.obj
 0002:0000100c       ??_C@_07BGCLIMJD@?$FLH?$FN0x?$CFX@ 100b300c     Configurations.obj
 0002:00001014       ??_C@_0BG@JEBIAHIG@C?3?2Bameware?2Configs?2?$CK@ 100b3014     Configurations.obj
 0002:0000102c       ??_C@_0BJ@HINLFPKK@C?3?2Bameware?2Configs?2?$CFs?$CFs@ 100b302c     Configurations.obj
 0002:00001048       ??_C@_05EECHHEFG@AK?947@   100b3048     SkinChanger.obj
 0002:00001050       ??_C@_09HEJEKDNG@CZ75?5Auto@ 100b3050     SkinChanger.obj
 0002:0000105c       ??_C@_0N@FAMDEIAF@Desert?5Eagle@ 100b305c     SkinChanger.obj
 0002:0000106c       ??_C@_0O@JJEHDGFO@Dual?5Berettas@ 100b306c     SkinChanger.obj
 0002:0000107c       ??_C@_05HLBPKPFE@FAMAS@    100b307c     SkinChanger.obj
 0002:00001084       ??_C@_0L@IHNFOILN@Five?9SeveN@ 100b3084     SkinChanger.obj
 0002:00001090       ??_C@_05NANBJKGF@G3SG1@    100b3090     SkinChanger.obj
 0002:00001098       ??_C@_08NJIMLAOK@Galil?5AR@ 100b3098     SkinChanger.obj
 0002:000010a4       ??_C@_08FJFDHDHA@Glock?918@ 100b30a4     SkinChanger.obj
 0002:000010b0       ??_C@_04OOHKGEMG@M249@     100b30b0     SkinChanger.obj
 0002:000010b8       ??_C@_06FEKDEEJK@M4A1?9S@  100b30b8     SkinChanger.obj
 0002:000010c0       ??_C@_04CMIFOPOM@M4A4@     100b30c0     SkinChanger.obj
 0002:000010c8       ??_C@_06DEKPABNP@MAC?910@  100b30c8     SkinChanger.obj
 0002:000010d0       ??_C@_05DODJCDBE@MAG?97@   100b30d0     SkinChanger.obj
 0002:000010d8       ??_C@_05LLDFNFHM@Negev@    100b30d8     SkinChanger.obj
 0002:000010e0       ??_C@_04JBMBEHJL@Nova@     100b30e0     SkinChanger.obj
 0002:000010e8       ??_C@_05JCFEJGIP@P2000@    100b30e8     SkinChanger.obj
 0002:000010f0       ??_C@_04KGAKOGIL@P250@     100b30f0     SkinChanger.obj
 0002:000010f8       ??_C@_08PKCNDFCK@PP?9Bizon@ 100b30f8     SkinChanger.obj
 0002:00001104       ??_C@_0M@HKKILMII@R8?5Revolver@ 100b3104     SkinChanger.obj
 0002:00001110       ??_C@_09GMOLFBMP@Sawed?9Off@ 100b3110     SkinChanger.obj
 0002:0000111c       ??_C@_07BILBIONL@SCAR?920@ 100b311c     SkinChanger.obj
 0002:00001124       ??_C@_06IDKBNLPO@SSG?508@  100b3124     SkinChanger.obj
 0002:0000112c       ??_C@_06LCAMIMKD@SG?5553@  100b312c     SkinChanger.obj
 0002:00001134       ??_C@_05JPHCOMGE@Tec?99@   100b3134     SkinChanger.obj
 0002:0000113c       ??_C@_06ELKAMIPB@UMP?945@  100b313c     SkinChanger.obj
 0002:00001144       ??_C@_05HMDKGIF@USP?9S@    100b3144     SkinChanger.obj
 0002:0000114c       ??_C@_06DDIGILCE@XM1014@   100b314c     SkinChanger.obj
 0002:00001154       ??_C@_08ONJOKMEB@KNIFE?5CT@ 100b3154     SkinChanger.obj
 0002:00001160       ??_C@_07EPKKHAPL@KNIFE?5T@ 100b3160     SkinChanger.obj
 0002:00001168       ??_C@_07MCAEODGB@Default@  100b3168     SkinChanger.obj
 0002:00001170       ??_C@_07HPCKEIPE@Genuine@  100b3170     SkinChanger.obj
 0002:00001178       ??_C@_07PPJOCJOF@Vintage@  100b3178     SkinChanger.obj
 0002:00001180       ??_C@_07GFLDDJPD@Unusual@  100b3180     SkinChanger.obj
 0002:00001188       ??_C@_09NNGLBCPE@Community@ 100b3188     SkinChanger.obj
 0002:00001194       ??_C@_09HCBPJCHD@Developer@ 100b3194     SkinChanger.obj
 0002:000011a0       ??_C@_09PIBPEEGK@Self?9Made@ 100b31a0     SkinChanger.obj
 0002:000011ac       ??_C@_0L@DMDPMNHP@Customized@ 100b31ac     SkinChanger.obj
 0002:000011b8       ??_C@_07DFAABAML@Strange@  100b31b8     SkinChanger.obj
 0002:000011c0       ??_C@_09MIJAKHKB@Completed@ 100b31c0     SkinChanger.obj
 0002:000011cc       ??_C@_0L@FENDKKGN@Tournament@ 100b31cc     SkinChanger.obj
 0002:000011d8       ??_C@_0M@EDOCMJDF@Groundwater@ 100b31d8     SkinChanger.obj
 0002:000011e4       ??_C@_0M@OPCAHGBI@Candy?5Apple@ 100b31e4     SkinChanger.obj
 0002:000011f0       ??_C@_0N@FFBELPGE@Forest?5DDPAT@ 100b31f0     SkinChanger.obj
 0002:00001200       ??_C@_0M@FCMIHBKN@Arctic?5Camo@ 100b3200     SkinChanger.obj
 0002:0000120c       ??_C@_0N@DGJJJNOM@Desert?5Storm@ 100b320c     SkinChanger.obj
 0002:0000121c       ??_C@_0N@FJAKLPOF@Bengal?5Tiger@ 100b321c     SkinChanger.obj
 0002:0000122c       ??_C@_0L@NFJHMHME@Copperhead@ 100b322c     SkinChanger.obj
 0002:00001238       ??_C@_06BHIABDEH@Skulls@   100b3238     SkinChanger.obj
 0002:00001240       ??_C@_0M@GFECCEP@Crimson?5Web@ 100b3240     SkinChanger.obj
 0002:0000124c       ??_C@_0M@DPCGOHHJ@Blue?5Streak@ 100b324c     SkinChanger.obj
 0002:00001258       ??_C@_0N@IJGLODJA@Red?5Laminate@ 100b3258     SkinChanger.obj
 0002:00001268       ??_C@_08EPGFLNDG@Gunsmoke@ 100b3268     SkinChanger.obj
 0002:00001274       ??_C@_0N@OBBBHNAI@Jungle?5Tiger@ 100b3274     SkinChanger.obj
 0002:00001284       ??_C@_0M@EPFCPDPH@Urban?5DDPAT@ 100b3284     SkinChanger.obj
 0002:00001290       ??_C@_05JHNGEIBD@Virus@    100b3290     SkinChanger.obj
 0002:00001298       ??_C@_0BD@GLPPKINJ@Granite?5Marbleized@ 100b3298     SkinChanger.obj
 0002:000012ac       ??_C@_0P@EJEOPGBF@Contrast?5Spray@ 100b32ac     SkinChanger.obj
 0002:000012bc       ??_C@_0O@GFJDNNLG@Forest?5Leaves@ 100b32bc     SkinChanger.obj
 0002:000012cc       ??_C@_0O@FPCNGBIN@Lichen?5Dashed@ 100b32cc     SkinChanger.obj
 0002:000012dc       ??_C@_09ONOELCGH@Bone?5Mask@ 100b32dc     SkinChanger.obj
 0002:000012e8       ??_C@_0O@NONFFFGP@Anodized?5Navy@ 100b32e8     SkinChanger.obj
 0002:000012f8       ??_C@_0L@JMBCBDGP@Snake?5Camo@ 100b32f8     SkinChanger.obj
 0002:00001304       ??_C@_06BONGPKIK@Silver@   100b3304     SkinChanger.obj
 0002:0000130c       ??_C@_07GPDHEAIG@Hot?5Rod@ 100b330c     SkinChanger.obj
 0002:00001314       ??_C@_0P@HCCJKNJE@Metallic?5DDPAT@ 100b3314     SkinChanger.obj
 0002:00001324       ??_C@_08NHKILINM@Ossified@ 100b3324     SkinChanger.obj
 0002:00001330       ??_C@_05JCBJINHF@Blaze@    100b3330     SkinChanger.obj
 0002:00001338       ??_C@_04DKKAMJHD@Fade@     100b3338     SkinChanger.obj
 0002:00001340       ??_C@_09CIMMKKHM@Bulldozer@ 100b3340     SkinChanger.obj
 0002:0000134c       ??_C@_05EECLMJKM@Night@    100b334c     SkinChanger.obj
 0002:00001354       ??_C@_06CPCKKAAG@Copper@   100b3354     SkinChanger.obj
 0002:0000135c       ??_C@_0L@DBOBANBN@Blue?5Steel@ 100b335c     SkinChanger.obj
 0002:00001368       ??_C@_07JKKNMOBA@Stained@  100b3368     SkinChanger.obj
 0002:00001370       ??_C@_0O@KJMMGPHG@Case?5Hardened@ 100b3370     SkinChanger.obj
 0002:00001380       ??_C@_0L@JLJHBLJO@Contractor@ 100b3380     SkinChanger.obj
 0002:0000138c       ??_C@_06GNOBKLGG@Colony@   100b338c     SkinChanger.obj
 0002:00001394       ??_C@_0O@HGAJGILG@Dragon?5Tattoo@ 100b3394     SkinChanger.obj
 0002:000013a4       ??_C@_0BB@PJJIOMOB@Lightning?5Strike@ 100b33a4     SkinChanger.obj
 0002:000013b8       ??_C@_09FNOLKBMB@Slaughter@ 100b33b8     SkinChanger.obj
 0002:000013c4       ??_C@_0L@FCDEGGNE@Dark?5Water@ 100b33c4     SkinChanger.obj
 0002:000013d0       ??_C@_08OHNMGBGI@Hypnotic@ 100b33d0     SkinChanger.obj
 0002:000013dc       ??_C@_0L@LKKFJNHI@Bloomstick@ 100b33dc     SkinChanger.obj
 0002:000013e8       ??_C@_0N@JEJOOMBJ@Cold?5Blooded@ 100b33e8     SkinChanger.obj
 0002:000013f8       ??_C@_0N@DGHIEPBK@Carbon?5Fiber@ 100b33f8     SkinChanger.obj
 0002:00001408       ??_C@_08DAFADDAO@Scorpion@ 100b3408     SkinChanger.obj
 0002:00001414       ??_C@_0M@GJILCPMG@Safari?5Mesh@ 100b3414     SkinChanger.obj
 0002:00001420       ??_C@_05FJOHAEIP@Wings@    100b3420     SkinChanger.obj
 0002:00001428       ??_C@_0L@CIMEEHIP@Polar?5Camo@ 100b3428     SkinChanger.obj
 0002:00001434       ??_C@_0BE@GEADEPCF@Blizzard?5Marbleized@ 100b3434     SkinChanger.obj
 0002:00001448       ??_C@_0O@DGOGMMCM@Winter?5Forest@ 100b3448     SkinChanger.obj
 0002:00001458       ??_C@_0O@HPJBMDBP@Boreal?5Forest@ 100b3458     SkinChanger.obj
 0002:00001468       ??_C@_0N@CDKOOGC@Forest?5Night@ 100b3468     SkinChanger.obj
 0002:00001478       ??_C@_0N@MOPPCCGL@Orange?5DDPAT@ 100b3478     SkinChanger.obj
 0002:00001488       ??_C@_0L@EKJBKFDM@Pink?5DDPAT@ 100b3488     SkinChanger.obj
 0002:00001494       ??_C@_06JHEDALCM@Mudder@   100b3494     SkinChanger.obj
 0002:0000149c       ??_C@_0N@CCIEDFOP@Cyanospatter@ 100b349c     SkinChanger.obj
 0002:000014ac       ??_C@_07LMKOFCEA@Caramel@  100b34ac     SkinChanger.obj
 0002:000014b4       ??_C@_09GOLBDHFM@Grassland@ 100b34b4     SkinChanger.obj
 0002:000014c0       ??_C@_0M@GJKJALBA@Blue?5Spruce@ 100b34c0     SkinChanger.obj
 0002:000014cc       ??_C@_0M@IIBENIHK@Ultraviolet@ 100b34cc     SkinChanger.obj
 0002:000014d8       ??_C@_09BDCLDHID@Sand?5Dune@ 100b34d8     SkinChanger.obj
 0002:000014e4       ??_C@_05CMBGCMIL@Storm@    100b34e4     SkinChanger.obj
 0002:000014ec       ??_C@_07HIIGAALC@Tornado@  100b34ec     SkinChanger.obj
 0002:000014f4       ??_C@_08KJKIDDCA@Whiteout@ 100b34f4     SkinChanger.obj
 0002:00001500       ??_C@_0BB@IJLIHELD@Grassland?5Leaves@ 100b3500     SkinChanger.obj
 0002:00001514       ??_C@_0L@EBGPHGAE@Polar?5Mesh@ 100b3514     SkinChanger.obj
 0002:00001520       ??_C@_09PNFFLFGN@Condemned@ 100b3520     SkinChanger.obj
 0002:0000152c       ??_C@_0N@PFDPAIPH@Glacier?5Mesh@ 100b352c     SkinChanger.obj
 0002:0000153c       ??_C@_09OPHCEMAD@Sand?5Mesh@ 100b353c     SkinChanger.obj
 0002:00001548       ??_C@_0L@CBKDHAHP@Sage?5Spray@ 100b3548     SkinChanger.obj
 0002:00001554       ??_C@_0N@BCNOGOPJ@Jungle?5Spray@ 100b3554     SkinChanger.obj
 0002:00001564       ??_C@_0L@EBKKMGLK@Sand?5Spray@ 100b3564     SkinChanger.obj
 0002:00001570       ??_C@_0BB@HEBGBBOB@Urban?5Perforated@ 100b3570     SkinChanger.obj
 0002:00001584       ??_C@_0BB@ELFMLINJ@Waves?5Perforated@ 100b3584     SkinChanger.obj
 0002:00001598       ??_C@_0M@HNKEOFBH@Orange?5Peel@ 100b3598     SkinChanger.obj
 0002:000015a4       ??_C@_0N@IMLJNPJA@Urban?5Masked@ 100b35a4     SkinChanger.obj
 0002:000015b4       ??_C@_0O@PKEFHFCF@Jungle?5Dashed@ 100b35b4     SkinChanger.obj
 0002:000015c4       ??_C@_0M@BFMDBBKH@Sand?5Dashed@ 100b35c4     SkinChanger.obj
 0002:000015d0       ??_C@_0N@LJEDFKN@Urban?5Dashed@ 100b35d0     SkinChanger.obj
 0002:000015e0       ??_C@_06LDDNPE@Jungle@     100b35e0     SkinChanger.obj
 0002:000015e8       ??_C@_0L@PAKEHDBP@Demolition@ 100b35e8     SkinChanger.obj
 0002:000015f4       ??_C@_0L@IJCFDOEA@Afterimage@ 100b35f4     SkinChanger.obj
 0002:00001600       ??_C@_0M@FMDKJNJK@Bullet?5Rain@ 100b3600     SkinChanger.obj
 0002:0000160c       ??_C@_0P@IHGEAONB@Death?5by?5Kitty@ 100b360c     SkinChanger.obj
 0002:0000161c       ??_C@_04BDMKHAOB@Palm@     100b361c     SkinChanger.obj
 0002:00001624       ??_C@_06NJBLCHHC@Walnut@   100b3624     SkinChanger.obj
 0002:0000162c       ??_C@_05FOIACKMO@Brass@    100b362c     SkinChanger.obj
 0002:00001634       ??_C@_06FPEHODOG@Splash@   100b3634     SkinChanger.obj
 0002:0000163c       ??_C@_0O@NJHJEFAF@Modern?5Hunter@ 100b363c     SkinChanger.obj
 0002:0000164c       ??_C@_0L@LAHCMGBK@Splash?5Jam@ 100b364c     SkinChanger.obj
 0002:00001658       ??_C@_0N@EBKBHDNA@Blaze?5Orange@ 100b3658     SkinChanger.obj
 0002:00001668       ??_C@_0BB@JFAAMFPH@Radiation?5Hazard@ 100b3668     SkinChanger.obj
 0002:0000167c       ??_C@_0P@HJBNOAPI@Nuclear?5Threat@ 100b367c     SkinChanger.obj
 0002:0000168c       ??_C@_0BA@DDPOBJDM@Fallout?5Warning@ 100b368c     SkinChanger.obj
 0002:0000169c       ??_C@_08NBLHOMJL@Predator@ 100b369c     SkinChanger.obj
 0002:000016a8       ??_C@_0BB@PNJHOBHG@Irradiated?5Alert@ 100b36a8     SkinChanger.obj
 0002:000016bc       ??_C@_0P@FDOPKCNK@Black?5Laminate@ 100b36bc     SkinChanger.obj
 0002:000016cc       ??_C@_04OGIILABF@BOOM@     100b36cc     SkinChanger.obj
 0002:000016d4       ??_C@_08FINENEGF@Scorched@ 100b36d4     SkinChanger.obj
 0002:000016e0       ??_C@_0M@NJLBJPLI@Faded?5Zebra@ 100b36e0     SkinChanger.obj
 0002:000016ec       ??_C@_07HOBHEHIF@Memento@  100b36ec     SkinChanger.obj
 0002:000016f4       ??_C@_09FEBNDOEJ@Doomkitty@ 100b36f4     SkinChanger.obj
 0002:00001700       ??_C@_0N@PDJEIBLM@Fire?5Serpent@ 100b3700     SkinChanger.obj
 0002:00001710       ??_C@_09MKHCLFGM@Corticera@ 100b3710     SkinChanger.obj
 0002:0000171c       ??_C@_0P@NPFKAJJB@Emerald?5Dragon@ 100b371c     SkinChanger.obj
 0002:0000172c       ??_C@_0L@MJLDIDNI@Overgrowth@ 100b372c     SkinChanger.obj
 0002:00001738       ??_C@_0L@DEABGANA@Golden?5Koi@ 100b3738     SkinChanger.obj
 0002:00001744       ??_C@_0L@CKMBFFMP@Wave?5Spray@ 100b3744     SkinChanger.obj
 0002:00001750       ??_C@_05IOFIHGMB@Zirka@    100b3750     SkinChanger.obj
 0002:00001758       ??_C@_06PKLBCJOD@Graven@   100b3758     SkinChanger.obj
 0002:00001760       ??_C@_0N@PPAEPDMO@Bright?5Water@ 100b3760     SkinChanger.obj
 0002:00001770       ??_C@_0M@JAKPGAD@Black?5Limba@ 100b3770     SkinChanger.obj
 0002:0000177c       ??_C@_07MOJLCPGJ@Tempest@  100b377c     SkinChanger.obj
 0002:00001784       ??_C@_09OCFBKFPG@Shattered@ 100b3784     SkinChanger.obj
 0002:00001790       ??_C@_09DJNJAAHI@Bone?5Pile@ 100b3790     SkinChanger.obj
 0002:0000179c       ??_C@_08GPEHFICL@Spitfire@ 100b379c     SkinChanger.obj
 0002:000017a8       ??_C@_07LMHEEOAO@Demeter@  100b37a8     SkinChanger.obj
 0002:000017b0       ??_C@_07JCMOAPN@Emerald@   100b37b0     SkinChanger.obj
 0002:000017b8       ??_C@_06LAMDLNPF@Hazard@   100b37b8     SkinChanger.obj
 0002:000017c0       ??_C@_0L@IKAKJAHL@Dry?5Season@ 100b37c0     SkinChanger.obj
 0002:000017cc       ??_C@_0N@PLLLECK@Mayan?5Dreams@ 100b37cc     SkinChanger.obj
 0002:000017dc       ??_C@_0N@EKPADJCG@Jungle?5DDPAT@ 100b37dc     SkinChanger.obj
 0002:000017ec       ??_C@_09FIKEPIDC@Rust?5Coat@ 100b37ec     SkinChanger.obj
 0002:000017f8       ??_C@_07JCIFFAKM@Mosaico@  100b37f8     SkinChanger.obj
 0002:00001800       ??_C@_06DGAFMCI@Facets@    100b3800     SkinChanger.obj
 0002:00001808       ??_C@_0BC@DJOAJEGD@Anodized?5Gunmetal@ 100b3808     SkinChanger.obj
 0002:0000181c       ??_C@_0L@BADILEEI@Ocean?5Foam@ 100b381c     SkinChanger.obj
 0002:00001828       ??_C@_08MPINICIJ@Graphite@ 100b3828     SkinChanger.obj
 0002:00001834       ??_C@_05EBFNJLPC@X?9Ray@   100b3834     SkinChanger.obj
 0002:0000183c       ??_C@_0O@BBDNFEFG@Blue?5Titanium@ 100b383c     SkinChanger.obj
 0002:0000184c       ??_C@_0M@MMEPBAIN@Blood?5Tiger@ 100b384c     SkinChanger.obj
 0002:00001858       ??_C@_06FNLFMHNG@Hexane@   100b3858     SkinChanger.obj
 0002:00001860       ??_C@_04FPIGCIOD@Hive@     100b3860     SkinChanger.obj
 0002:00001868       ??_C@_0L@GMMIHJLB@Hemoglobin@ 100b3868     SkinChanger.obj
 0002:00001874       ??_C@_05NGKKALHO@Serum@    100b3874     SkinChanger.obj
 0002:0000187c       ??_C@_0BD@GDDEIJIB@Blood?5in?5the?5Water@ 100b387c     SkinChanger.obj
 0002:00001890       ??_C@_0L@OOKFNPIA@Nightshade@ 100b3890     SkinChanger.obj
 0002:0000189c       ??_C@_0M@KDIKPJEI@Water?5Sigil@ 100b389c     SkinChanger.obj
 0002:000018a8       ??_C@_0L@CJBGLCBH@Ghost?5Camo@ 100b38a8     SkinChanger.obj
 0002:000018b4       ??_C@_0O@MHHKDMCK@Blue?5Laminate@ 100b38b4     SkinChanger.obj
 0002:000018c4       ??_C@_0O@DDCKJBEO@Electric?5Hive@ 100b38c4     SkinChanger.obj
 0002:000018d4       ??_C@_0L@IACHMHBN@Blind?5Spot@ 100b38d4     SkinChanger.obj
 0002:000018e0       ??_C@_0M@OMJJPAEI@Azure?5Zebra@ 100b38e0     SkinChanger.obj
 0002:000018ec       ??_C@_0BB@PKLGBOHF@Steel?5Disruption@ 100b38ec     SkinChanger.obj
 0002:00001900       ??_C@_0BC@NHDLPGLP@Cobalt?5Disruption@ 100b3900     SkinChanger.obj
 0002:00001914       ??_C@_0P@FKICPIKI@Tropical?5Storm@ 100b3914     SkinChanger.obj
 0002:00001924       ??_C@_08OGFJLLOC@Ash?5Wood@ 100b3924     SkinChanger.obj
 0002:00001930       ??_C@_08GOFAHBPM@VariCamo@ 100b3930     SkinChanger.obj
 0002:0000193c       ??_C@_09MMFHFGJI@Night?5Ops@ 100b393c     SkinChanger.obj
 0002:00001948       ??_C@_0N@LDCKIIEM@Urban?5Rubble@ 100b3948     SkinChanger.obj
 0002:00001958       ??_C@_0O@NHFKGBMB@VariCamo?5Blue@ 100b3958     SkinChanger.obj
 0002:00001968       ??_C@_08LPOGJBFB@CaliCamo@ 100b3968     SkinChanger.obj
 0002:00001974       ??_C@_0O@MDIDBKJG@Hunting?5Blind@ 100b3974     SkinChanger.obj
 0002:00001984       ??_C@_09NBOCJJIP@Army?5Mesh@ 100b3984     SkinChanger.obj
 0002:00001990       ??_C@_0L@NKPJGFKE@Gator?5Mesh@ 100b3990     SkinChanger.obj
 0002:0000199c       ??_C@_08GAFPLAEL@Teardown@ 100b399c     SkinChanger.obj
 0002:000019a8       ??_C@_0L@CBHOMLFF@Army?5Recon@ 100b39a8     SkinChanger.obj
 0002:000019b4       ??_C@_0L@DCBPAFKE@Amber?5Fade@ 100b39b4     SkinChanger.obj
 0002:000019c0       ??_C@_0P@IEPDKCON@Damascus?5Steel@ 100b39c0     SkinChanger.obj
 0002:000019d0       ??_C@_0L@EGJMEOFH@Red?5Quartz@ 100b39d0     SkinChanger.obj
 0002:000019dc       ??_C@_0O@MNMPONAM@Cobalt?5Quartz@ 100b39dc     SkinChanger.obj
 0002:000019ec       ??_C@_09OEBIHJM@Full?5Stop@ 100b39ec     SkinChanger.obj
 0002:000019f8       ??_C@_09MENJMMDN@Pit?5Viper@ 100b39f8     SkinChanger.obj
 0002:00001a04       ??_C@_0O@OKGLFOKL@Silver?5Quartz@ 100b3a04     SkinChanger.obj
 0002:00001a14       ??_C@_09LMGPFBLH@Acid?5Fade@ 100b3a14     SkinChanger.obj
 0002:00001a20       ??_C@_05LOAANMOB@Nitro@    100b3a20     SkinChanger.obj
 0002:00001a28       ??_C@_07OKBBBOEO@Asiimov@  100b3a28     SkinChanger.obj
 0002:00001a30       ??_C@_0L@IMFMOONI@The?5Kraken@ 100b3a30     SkinChanger.obj
 0002:00001a3c       ??_C@_08LEGJHPMK@Guardian@ 100b3a3c     SkinChanger.obj
 0002:00001a48       ??_C@_06JGCMKFHP@Mehndi@   100b3a48     SkinChanger.obj
 0002:00001a50       ??_C@_07IHBKKBCO@Redline@  100b3a50     SkinChanger.obj
 0002:00001a58       ??_C@_05EMEMDIEE@Pulse@    100b3a58     SkinChanger.obj
 0002:00001a60       ??_C@_06HPHEFPCN@Marina@   100b3a60     SkinChanger.obj
 0002:00001a68       ??_C@_09PCJDOHJF@Rose?5Iron@ 100b3a68     SkinChanger.obj
 0002:00001a74       ??_C@_0N@FHDKMGNK@Rising?5Skull@ 100b3a74     SkinChanger.obj
 0002:00001a84       ??_C@_09NKFBJCLL@Sandstorm@ 100b3a84     SkinChanger.obj
 0002:00001a90       ??_C@_04GBFEHJEB@Kami@     100b3a90     SkinChanger.obj
 0002:00001a98       ??_C@_05MDLBNEDM@Magma@    100b3a98     SkinChanger.obj
 0002:00001aa0       ??_C@_0BA@EOAICINF@Cobalt?5Halftone@ 100b3aa0     SkinChanger.obj
 0002:00001ab0       ??_C@_0M@GCHHCDGM@Tread?5Plate@ 100b3ab0     SkinChanger.obj
 0002:00001abc       ??_C@_0BD@JMFFBFHD@The?5Fuschia?5Is?5Now@ 100b3abc     SkinChanger.obj
 0002:00001ad0       ??_C@_08BMEDFDFA@Victoria@ 100b3ad0     SkinChanger.obj
 0002:00001adc       ??_C@_08IHCIEMLG@Undertow@ 100b3adc     SkinChanger.obj
 0002:00001ae8       ??_C@_0N@FBCLANHN@Titanium?5Bit@ 100b3ae8     SkinChanger.obj
 0002:00001af8       ??_C@_08BACMKFID@Heirloom@ 100b3af8     SkinChanger.obj
 0002:00001b04       ??_C@_0O@MJNJKIDK@Copper?5Galaxy@ 100b3b04     SkinChanger.obj
 0002:00001b14       ??_C@_0M@EDEMNPDE@Red?5FragCam@ 100b3b14     SkinChanger.obj
 0002:00001b20       ??_C@_07HBBBHBHH@Panther@  100b3b20     SkinChanger.obj
 0002:00001b28       ??_C@_09NBBHJOGD@Stainless@ 100b3b28     SkinChanger.obj
 0002:00001b34       ??_C@_0N@OLEOFLGM@Blue?5Fissure@ 100b3b34     SkinChanger.obj
 0002:00001b44       ??_C@_09MIJFEMDG@Chameleon@ 100b3b44     SkinChanger.obj
 0002:00001b50       ??_C@_08NNPOKHHA@Corporal@ 100b3b50     SkinChanger.obj
 0002:00001b5c       ??_C@_06HJMFFBFN@Trigon@   100b3b5c     SkinChanger.obj
 0002:00001b64       ??_C@_04FPOAABLO@Heat@     100b3b64     SkinChanger.obj
 0002:00001b6c       ??_C@_07GICFIHGN@Terrain@  100b3b6c     SkinChanger.obj
 0002:00001b74       ??_C@_07DJMBHNBG@Antique@  100b3b74     SkinChanger.obj
 0002:00001b7c       ??_C@_08HPHGPEFO@Sergeant@ 100b3b7c     SkinChanger.obj
 0002:00001b88       ??_C@_0N@CHMAMEOK@Heaven?5Guard@ 100b3b88     SkinChanger.obj
 0002:00001b98       ??_C@_0N@ILNBIMKL@Death?5Rattle@ 100b3b98     SkinChanger.obj
 0002:00001ba8       ??_C@_0M@ECNHDICL@Green?5Apple@ 100b3ba8     SkinChanger.obj
 0002:00001bb4       ??_C@_08GGFOJGCL@Franklin@ 100b3bb4     SkinChanger.obj
 0002:00001bc0       ??_C@_09OHLNMKJN@Meteorite@ 100b3bc0     SkinChanger.obj
 0002:00001bcc       ??_C@_06IGAHMJPM@Tuxedo@   100b3bcc     SkinChanger.obj
 0002:00001bd4       ??_C@_0L@DKEOAGEL@Army?5Sheen@ 100b3bd4     SkinChanger.obj
 0002:00001be0       ??_C@_0M@OBLKEPFA@Caged?5Steel@ 100b3be0     SkinChanger.obj
 0002:00001bec       ??_C@_0BC@CKJIEBBE@Emerald?5Pinstripe@ 100b3bec     SkinChanger.obj
 0002:00001c00       ??_C@_0N@GFLAEKEB@Atomic?5Alloy@ 100b3c00     SkinChanger.obj
 0002:00001c10       ??_C@_06LOEDEFOB@Vulcan@   100b3c10     SkinChanger.obj
 0002:00001c18       ??_C@_05FMEHJGPC@Isaac@    100b3c18     SkinChanger.obj
 0002:00001c20       ??_C@_07MBKHMMEG@Slashed@  100b3c20     SkinChanger.obj
 0002:00001c28       ??_C@_06FGIKBBKF@Torque@   100b3c28     SkinChanger.obj
 0002:00001c30       ??_C@_0M@COPFEHFE@Retribution@ 100b3c30     SkinChanger.obj
 0002:00001c3c       ??_C@_04KKONKGEB@Howl@     100b3c3c     SkinChanger.obj
 0002:00001c44       ??_C@_05HJMIGINN@Curse@    100b3c44     SkinChanger.obj
 0002:00001c4c       ??_C@_0P@OCNIGEHA@Desert?5Warfare@ 100b3c4c     SkinChanger.obj
 0002:00001c5c       ??_C@_05FLPPDGAC@Cyrex@    100b3c5c     SkinChanger.obj
 0002:00001c64       ??_C@_05MNPKCHPH@Orion@    100b3c64     SkinChanger.obj
 0002:00001c6c       ??_C@_0M@HIIADPHC@Poison?5Dart@ 100b3c6c     SkinChanger.obj
 0002:00001c78       ??_C@_06GCKPJHNJ@Jaguar@   100b3c78     SkinChanger.obj
 0002:00001c80       ??_C@_08PINMCKGI@Bratatat@ 100b3c80     SkinChanger.obj
 0002:00001c8c       ??_C@_09HMIAHJAH@Road?5Rash@ 100b3c8c     SkinChanger.obj
 0002:00001c98       ??_C@_06KKMKPPJH@Detour@   100b3c98     SkinChanger.obj
 0002:00001ca0       ??_C@_0L@DOFALBFF@Red?5Python@ 100b3ca0     SkinChanger.obj
 0002:00001cac       ??_C@_0N@NAMMOCCE@Master?5Piece@ 100b3cac     SkinChanger.obj
 0002:00001cbc       ??_C@_07OMJPDLL@Chalice@   100b3cbc     SkinChanger.obj
 0002:00001cc4       ??_C@_06CJCFJDME@Knight@   100b3cc4     SkinChanger.obj
 0002:00001ccc       ??_C@_09NCKEDIDB@Chainmail@ 100b3ccc     SkinChanger.obj
 0002:00001cd8       ??_C@_0M@OHINAHGI@Hand?5Cannon@ 100b3cd8     SkinChanger.obj
 0002:00001ce4       ??_C@_08CIHGHFPP@Dark?5Age@ 100b3ce4     SkinChanger.obj
 0002:00001cf0       ??_C@_05JNINEEHO@Briar@    100b3cf0     SkinChanger.obj
 0002:00001cf8       ??_C@_0L@IGMOPFMM@Royal?5Blue@ 100b3cf8     SkinChanger.obj
 0002:00001d04       ??_C@_06EJPLNMI@Indigo@    100b3d04     SkinChanger.obj
 0002:00001d0c       ??_C@_05MJBKPKBA@Twist@    100b3d0c     SkinChanger.obj
 0002:00001d14       ??_C@_06NHPJKFDC@Module@   100b3d14     SkinChanger.obj
 0002:00001d1c       ??_C@_0O@DBOAECOC@Desert?9Strike@ 100b3d1c     SkinChanger.obj
 0002:00001d2c       ??_C@_06MNLLFCKB@Tatter@   100b3d2c     SkinChanger.obj
 0002:00001d34       ??_C@_06DLNNEOEG@Caiman@   100b3d34     SkinChanger.obj
 0002:00001d3c       ??_C@_07HGILOIFH@Jet?5Set@ 100b3d3c     SkinChanger.obj
 0002:00001d44       ??_C@_0M@KIOJABKK@First?5Class@ 100b3d44     SkinChanger.obj
 0002:00001d50       ??_C@_07FPBMMDNF@Leather@  100b3d50     SkinChanger.obj
 0002:00001d58       ??_C@_08CPFDBNOO@Commuter@ 100b3d58     SkinChanger.obj
 0002:00001d64       ??_C@_0M@HDHBCMFG@Dragon?5Lore@ 100b3d64     SkinChanger.obj
 0002:00001d70       ??_C@_0M@JDLCOAAH@Coach?5Class@ 100b3d70     SkinChanger.obj
 0002:00001d7c       ??_C@_05KPLJDLMD@Pilot@    100b3d7c     SkinChanger.obj
 0002:00001d84       ??_C@_0M@OKNFACJD@Red?5Leather@ 100b3d84     SkinChanger.obj
 0002:00001d90       ??_C@_06ELGGPNMP@Osiris@   100b3d90     SkinChanger.obj
 0002:00001d98       ??_C@_06DDMCKKGH@Tigris@   100b3d98     SkinChanger.obj
 0002:00001da0       ??_C@_0L@DKDHLIPD@Conspiracy@ 100b3da0     SkinChanger.obj
 0002:00001dac       ??_C@_09BPCPPBON@Fowl?5Play@ 100b3dac     SkinChanger.obj
 0002:00001db8       ??_C@_0BA@NJEGAHAD@Water?5Elemental@ 100b3db8     SkinChanger.obj
 0002:00001dc8       ??_C@_0N@KFEFMHNH@Urban?5Hazard@ 100b3dc8     SkinChanger.obj
 0002:00001dd8       ??_C@_05NKDFIJED@Ivory@    100b3dd8     SkinChanger.obj
 0002:00001de0       ??_C@_09KOILBCDN@Supernova@ 100b3de0     SkinChanger.obj
 0002:00001dec       ??_C@_05CNFJLAJC@Abyss@    100b3dec     SkinChanger.obj
 0002:00001df4       ??_C@_09MPDIMPJL@Labyrinth@ 100b3df4     SkinChanger.obj
 0002:00001e00       ??_C@_08FLLAGGHC@Traveler@ 100b3e00     SkinChanger.obj
 0002:00001e0c       ??_C@_0P@IDEJABCO@Business?5Class@ 100b3e0c     SkinChanger.obj
 0002:00001e1c       ??_C@_0M@PAKPELJJ@Olive?5Plaid@ 100b3e1c     SkinChanger.obj
 0002:00001e28       ??_C@_0M@NIDIFAMG@Green?5Plaid@ 100b3e28     SkinChanger.obj
 0002:00001e34       ??_C@_07PDLFMGKP@Reactor@  100b3e34     SkinChanger.obj
 0002:00001e3c       ??_C@_0M@MEAOMDN@Setting?5Sun@ 100b3e3c     SkinChanger.obj
 0002:00001e48       ??_C@_0O@NMIAJCNF@Nuclear?5Waste@ 100b3e48     SkinChanger.obj
 0002:00001e58       ??_C@_0N@GEJHIOBJ@Bone?5Machine@ 100b3e58     SkinChanger.obj
 0002:00001e68       ??_C@_04BOPFCKBD@Styx@     100b3e68     SkinChanger.obj
 0002:00001e70       ??_C@_0P@HLMACAB@Nuclear?5Garden@ 100b3e70     SkinChanger.obj
 0002:00001e80       ??_C@_0O@DICKIMG@Contamination@ 100b3e80     SkinChanger.obj
 0002:00001e90       ??_C@_05GFBNLEJJ@Toxic@    100b3e90     SkinChanger.obj
 0002:00001e98       ??_C@_0P@NDHCLHEB@Chemical?5Green@ 100b3e98     SkinChanger.obj
 0002:00001ea8       ??_C@_08ODAFFDEP@Hot?5Shot@ 100b3ea8     SkinChanger.obj
 0002:00001eb4       ??_C@_08JOOFAFLL@Cerberus@ 100b3eb4     SkinChanger.obj
 0002:00001ec0       ??_C@_0BA@OMCKGEFH@Wasteland?5Rebel@ 100b3ec0     SkinChanger.obj
 0002:00001ed0       ??_C@_07CMNKMPDF@Grinder@  100b3ed0     SkinChanger.obj
 0002:00001ed8       ??_C@_05LHIAKGDI@Murky@    100b3ed8     SkinChanger.obj
 0002:00001ee0       ??_C@_08MNPKLCHB@Basilisk@ 100b3ee0     SkinChanger.obj
 0002:00001eec       ??_C@_07FJMOOIEG@Griffin@  100b3eec     SkinChanger.obj
 0002:00001ef4       ??_C@_0M@FJKPDKBM@Firestarter@ 100b3ef4     SkinChanger.obj
 0002:00001f00       ??_C@_04LBCGGMB@Dart@      100b3f00     SkinChanger.obj
 0002:00001f08       ??_C@_06DEMDDKJO@Cartel@   100b3f08     SkinChanger.obj
 0002:00001f10       ??_C@_0P@KEPGKGOC@Fire?5Elemental@ 100b3f10     SkinChanger.obj
 0002:00001f20       ??_C@_0L@ILIPLGGE@Highwayman@ 100b3f20     SkinChanger.obj
 0002:00001f2c       ??_C@_07HLLNPOHE@Cardiac@  100b3f2c     SkinChanger.obj
 0002:00001f34       ??_C@_08FFNDEFME@Delusion@ 100b3f34     SkinChanger.obj
 0002:00001f40       ??_C@_0M@PBCFJGEP@Tranquility@ 100b3f40     SkinChanger.obj
 0002:00001f4c       ??_C@_0L@LNKBJIHF@Man?9o?8?9war@ 100b3f4c     SkinChanger.obj
 0002:00001f58       ??_C@_0M@JOOPFDJE@Urban?5Shock@ 100b3f58     SkinChanger.obj
 0002:00001f64       ??_C@_04GMPKPJOP@Naga@     100b3f64     SkinChanger.obj
 0002:00001f6c       ??_C@_0L@IMKOOGOB@Chatterbox@ 100b3f6c     SkinChanger.obj
 0002:00001f78       ??_C@_09DEDEOBDL@Catacombs@ 100b3f78     SkinChanger.obj
 0002:00001f84       ??_C@_0BB@HNNCLGJD@?$DP?$DP?5?$CIDragon?5King?$CJ@ 100b3f84     SkinChanger.obj
 0002:00001f98       ??_C@_0M@LNIJGCJM@System?5Lock@ 100b3f98     SkinChanger.obj
 0002:00001fa4       ??_C@_09LMNCNKEE@Malachite@ 100b3fa4     SkinChanger.obj
 0002:00001fb0       ??_C@_0O@NHPACFCG@Deadly?5Poison@ 100b3fb0     SkinChanger.obj
 0002:00001fc0       ??_C@_07OOPKLEID@Muertos@  100b3fc0     SkinChanger.obj
 0002:00001fc8       ??_C@_08CEMFBEEA@Serenity@ 100b3fc8     SkinChanger.obj
 0002:00001fd4       ??_C@_06OLHHKHAP@Grotto@   100b3fd4     SkinChanger.obj
 0002:00001fdc       ??_C@_0M@NKOEBMOD@Quicksilver@ 100b3fdc     SkinChanger.obj
 0002:00001fe8       ??_C@_0M@IFCNOIMG@Tiger?5Tooth@ 100b3fe8     SkinChanger.obj
 0002:00001ff4       ??_C@_0M@GBIOCIOA@Marble?5Fade@ 100b3ff4     SkinChanger.obj
 0002:00002000       ??_C@_07JKOBGHIH@Doppler@  100b4000     SkinChanger.obj
 0002:00002008       ??_C@_0M@NEPPDHBJ@Elite?5Build@ 100b4008     SkinChanger.obj
 0002:00002014       ??_C@_0L@JKFHCLFJ@Armor?5Core@ 100b4014     SkinChanger.obj
 0002:00002020       ??_C@_08EMILMFEB@Worm?5God@ 100b4020     SkinChanger.obj
 0002:0000202c       ??_C@_0M@KALMOOID@Bronze?5Deco@ 100b402c     SkinChanger.obj
 0002:00002038       ??_C@_07IDFDMADB@Valence@  100b4038     SkinChanger.obj
 0002:00002040       ??_C@_0BA@GIIJFPON@Monkey?5Business@ 100b4040     SkinChanger.obj
 0002:00002050       ??_C@_05PGGPGBEA@Djinn@    100b4050     SkinChanger.obj
 0002:00002058       ??_C@_0M@HLGDNDCN@Hyper?5Beast@ 100b4058     SkinChanger.obj
 0002:00002064       ??_C@_0L@JMLLLIIF@Neon?5Rider@ 100b4064     SkinChanger.obj
 0002:00002070       ??_C@_07GCNENMOB@Origami@  100b4070     SkinChanger.obj
 0002:00002078       ??_C@_0O@BICBAJBK@Pole?5Position@ 100b4078     SkinChanger.obj
 0002:00002088       ??_C@_0L@DGFOPJPJ@Grand?5Prix@ 100b4088     SkinChanger.obj
 0002:00002094       ??_C@_0BA@EHONPBGP@Twilight?5Galaxy@ 100b4094     SkinChanger.obj
 0002:000020a4       ??_C@_07EEHOINFE@Chronos@  100b40a4     SkinChanger.obj
 0002:000020ac       ??_C@_05PHCOMLAK@Hades@    100b40ac     SkinChanger.obj
 0002:000020b4       ??_C@_0M@GNPECMJG@Icarus?5Fell@ 100b40b4     SkinChanger.obj
 0002:000020c0       ??_C@_0BF@KNHBCLKE@Minotaur?8s?5Labyrinth@ 100b40c0     SkinChanger.obj
 0002:000020d8       ??_C@_08MPBHMBKF@Asterion@ 100b40d8     SkinChanger.obj
 0002:000020e4       ??_C@_0L@HKGMEJCE@Pathfinder@ 100b40e4     SkinChanger.obj
 0002:000020f0       ??_C@_08EPKIKBLJ@Daedalus@ 100b40f0     SkinChanger.obj
 0002:000020fc       ??_C@_06FHEKHBN@Medusa@    100b40fc     SkinChanger.obj
 0002:00002104       ??_C@_07NGGLMFNK@Duelist@  100b4104     SkinChanger.obj
 0002:0000210c       ??_C@_0O@MKKBLIHF@Pandora?8s?5Box@ 100b410c     SkinChanger.obj
 0002:0000211c       ??_C@_08HPEFPDDD@Poseidon@ 100b411c     SkinChanger.obj
 0002:00002128       ??_C@_0O@EKKFPJPP@Moon?5in?5Libra@ 100b4128     SkinChanger.obj
 0002:00002138       ??_C@_0L@JIDJFCLE@Sun?5in?5Leo@ 100b4138     SkinChanger.obj
 0002:00002144       ??_C@_0BC@MCGGLMDC@Shipping?5Forecast@ 100b4144     SkinChanger.obj
 0002:00002158       ??_C@_0L@PHJPEPDL@Para?5Green@ 100b4158     SkinChanger.obj
 0002:00002164       ??_C@_0BB@GDPCACML@Akihabara?5Accept@ 100b4164     SkinChanger.obj
 0002:00002178       ??_C@_0L@KCMEMHAE@Hydroponic@ 100b4178     SkinChanger.obj
 0002:00002184       ??_C@_0N@FFPLCOHP@Bamboo?5Print@ 100b4184     SkinChanger.obj
 0002:00002194       ??_C@_0O@HMIKKEOG@Bamboo?5Shadow@ 100b4194     SkinChanger.obj
 0002:000021a4       ??_C@_0O@PFIEKENH@Bamboo?5Forest@ 100b41a4     SkinChanger.obj
 0002:000021b4       ??_C@_0N@EFNEHC@Aqua?5Terrace@ 100b41b4     SkinChanger.obj
 0002:000021c4       ??_C@_0BA@PCIENHAL@Counter?5Terrace@ 100b41c4     SkinChanger.obj
 0002:000021d4       ??_C@_07IGEGNLHA@Terrace@  100b41d4     SkinChanger.obj
 0002:000021dc       ??_C@_0M@PKPMLKGD@Neon?5Kimono@ 100b41dc     SkinChanger.obj
 0002:000021e8       ??_C@_0O@EFBBJCOH@Orange?5Kimono@ 100b41e8     SkinChanger.obj
 0002:000021f8       ??_C@_0P@CGPHMODB@Crimson?5Kimono@ 100b41f8     SkinChanger.obj
 0002:00002208       ??_C@_0M@FBFEFJIF@Mint?5Kimono@ 100b4208     SkinChanger.obj
 0002:00002214       ??_C@_0P@EJOOMKPH@Midnight?5Storm@ 100b4214     SkinChanger.obj
 0002:00002224       ??_C@_0P@DCPEPKJF@Sunset?5Storm?5?$DP@ 100b4224     SkinChanger.obj
 0002:00002234       ??_C@_08PKPDIFDD@Daybreak@ 100b4234     SkinChanger.obj
 0002:00002240       ??_C@_0N@OHFADMEB@Impact?5Drill@ 100b4240     SkinChanger.obj
 0002:00002250       ??_C@_07KIGKOFDH@Seabird@  100b4250     SkinChanger.obj
 0002:00002258       ??_C@_0BD@CFPHDDIA@Aquamarine?5Revenge@ 100b4258     SkinChanger.obj
 0002:0000226c       ??_C@_0O@JKCCFDAH@Yellow?5Jacket@ 100b426c     SkinChanger.obj
 0002:0000227c       ??_C@_0L@JOHLJOPK@Neural?5Net@ 100b427c     SkinChanger.obj
 0002:00002288       ??_C@_0L@FDGMINFP@Rocket?5Pop@ 100b4288     SkinChanger.obj
 0002:00002294       ??_C@_0O@FGHHNPEB@Bunsen?5Burner@ 100b4294     SkinChanger.obj
 0002:000022a4       ??_C@_0M@MDGJMNFM@Evil?5Daimyo@ 100b42a4     SkinChanger.obj
 0002:000022b0       ??_C@_07KAGCKCFK@Nemesis@  100b42b0     SkinChanger.obj
 0002:000022b8       ??_C@_0BB@OMFBPJGD@Ruby?5Poison?5Dart@ 100b42b8     SkinChanger.obj
 0002:000022cc       ??_C@_09INFFEEEF@Loudmouth@ 100b42cc     SkinChanger.obj
 0002:000022d8       ??_C@_06MGJHBAMJ@Ranger@   100b42d8     SkinChanger.obj
 0002:000022e0       ??_C@_07BMJNCCBA@Handgun@  100b42e0     SkinChanger.obj
 0002:000022e8       ??_C@_04DFPIBMCP@Riot@     100b42e8     SkinChanger.obj
 0002:000022f0       ??_C@_0BA@CGABEKFP@Frontside?5Misty@ 100b42f0     SkinChanger.obj
 0002:00002300       ??_C@_0BA@EEFMEAPK@Dualing?5Dragons@ 100b4300     SkinChanger.obj
 0002:00002310       ??_C@_0L@LADGFEPB@Survivor?5Z@ 100b4310     SkinChanger.obj
 0002:0000231c       ??_C@_04CKECLEPF@Flux@     100b431c     SkinChanger.obj
 0002:00002324       ??_C@_0L@COFFBDHH@Stone?5Cold@ 100b4324     SkinChanger.obj
 0002:00002330       ??_C@_07EPMIFFOO@Wraiths@  100b4330     SkinChanger.obj
 0002:00002338       ??_C@_0BA@CMLJKFPL@Nebula?5Crusader@ 100b4338     SkinChanger.obj
 0002:00002348       ??_C@_0M@HPNPLMNO@Golden?5Coil@ 100b4348     SkinChanger.obj
 0002:00002354       ??_C@_07GJBONI@Rangeen@    100b4354     SkinChanger.obj
 0002:0000235c       ??_C@_0M@DFNHNNCO@Cobalt?5Core@ 100b435c     SkinChanger.obj
 0002:00002368       ??_C@_0BB@PFIGFEDK@Special?5Delivery@ 100b4368     SkinChanger.obj
 0002:0000237c       ??_C@_08EGCBABDI@Wingshot@ 100b437c     SkinChanger.obj
 0002:00002388       ??_C@_0N@PKBFEGGD@Green?5Marine@ 100b4388     SkinChanger.obj
 0002:00002398       ??_C@_08EDKLJEAG@Big?5Iron@ 100b4398     SkinChanger.obj
 0002:000023a4       ??_C@_0P@NAFNMAAC@Kill?5Confirmed@ 100b43a4     SkinChanger.obj
 0002:000023b4       ??_C@_08BPFDDEMB@Scumbria@ 100b43b4     SkinChanger.obj
 0002:000023c0       ??_C@_0P@JCGBCJDG@Point?5Disarray@ 100b43c0     SkinChanger.obj
 0002:000023d0       ??_C@_08OMEFLFIO@Ricochet@ 100b43d0     SkinChanger.obj
 0002:000023dc       ??_C@_08BEKJGINI@Fuel?5Rod@ 100b43dc     SkinChanger.obj
 0002:000023e8       ??_C@_0L@PMPCCFJH@Corinthian@ 100b43e8     SkinChanger.obj
 0002:000023f4       ??_C@_0M@OIJKEOND@Retrobution@ 100b43f4     SkinChanger.obj
 0002:00002400       ??_C@_0BA@MHHIFFNC@The?5Executioner@ 100b4400     SkinChanger.obj
 0002:00002410       ??_C@_0O@LIOOBDK@Royal?5Paladin@ 100b4410     SkinChanger.obj
 0002:00002420       ??_C@_0N@FNDJPCKA@Power?5Loader@ 100b4420     SkinChanger.obj
 0002:00002430       ??_C@_08NBBJCLDP@Imperial@ 100b4430     SkinChanger.obj
 0002:0000243c       ??_C@_09GLFAJOKN@Shapewood@ 100b443c     SkinChanger.obj
 0002:00002448       ??_C@_06CENIPNFJ@Yorick@   100b4448     SkinChanger.obj
 0002:00002450       ??_C@_08OBIAEFPP@Outbreak@ 100b4450     SkinChanger.obj
 0002:0000245c       ??_C@_0L@JAEFBDAH@Tiger?5Moth@ 100b445c     SkinChanger.obj
 0002:00002468       ??_C@_09CMJEIPLI@Avalanche@ 100b4468     SkinChanger.obj
 0002:00002474       ??_C@_0N@ELGDNGIL@Teclu?5Burner@ 100b4474     SkinChanger.obj
 0002:00002484       ??_C@_0O@DBGEMOHH@Fuel?5Injector@ 100b4484     SkinChanger.obj
 0002:00002494       ??_C@_0M@OGJGHIOM@Photic?5Zone@ 100b4494     SkinChanger.obj
 0002:000024a0       ??_C@_0P@JDJJCOEH@Kumicho?5Dragon@ 100b44a0     SkinChanger.obj
 0002:000024b0       ??_C@_0M@CKIIGILP@Triumvirate@ 100b44b0     SkinChanger.obj
 0002:000024bc       ??_C@_0N@DFKLIDOE@Royal?5Legion@ 100b44bc     SkinChanger.obj
 0002:000024cc       ??_C@_0P@LHOIDDPP@The?5Battlestar@ 100b44cc     SkinChanger.obj
 0002:000024dc       ??_C@_0M@MHCCFDBK@Lapis?5Gator@ 100b44dc     SkinChanger.obj
 0002:000024e8       ??_C@_0L@FLLLFIAF@Praetorian@ 100b44e8     SkinChanger.obj
 0002:000024f4       ??_C@_06PHGJHHDF@Impire@   100b44f4     SkinChanger.obj
 0002:000024fc       ??_C@_08FMNNIBIB@Necropos@ 100b44fc     SkinChanger.obj
 0002:00002508       ??_C@_07DJDBDAPL@Jambiya@  100b4508     SkinChanger.obj
 0002:00002510       ??_C@_0N@HIPOLPDC@Lead?5Conduit@ 100b4510     SkinChanger.obj
 0002:00002520       ??_C@_0M@ONDJNBCL@Fleet?5Flock@ 100b4520     SkinChanger.obj
 0002:0000252c       ??_C@_0BE@OGMEGIC@Judgement?5of?5Anubis@ 100b452c     SkinChanger.obj
 0002:00002540       ??_C@_09OMNFHBLO@Red?5Astor@ 100b4540     SkinChanger.obj
 0002:0000254c       ??_C@_0M@GIOECMLD@Ventilators@ 100b454c     SkinChanger.obj
 0002:00002558       ??_C@_0N@OBBAIIDA@Orange?5Crash@ 100b4558     SkinChanger.obj
 0002:00002568       ??_C@_09KJADDCJF@Firefight@ 100b4568     SkinChanger.obj
 0002:00002574       ??_C@_07IABFIDPL@Spectre@  100b4574     SkinChanger.obj
 0002:0000257c       ??_C@_0BA@DOKALGDE@Chantico?8s?5Fire@ 100b457c     SkinChanger.obj
 0002:0000258c       ??_C@_07IJMPNPLJ@Bioleak@  100b458c     SkinChanger.obj
 0002:00002594       ??_C@_07POHKCOEA@Oceanic@  100b4594     SkinChanger.obj
 0002:0000259c       ??_C@_05GDDNFNHJ@Fubar@    100b459c     SkinChanger.obj
 0002:000025a4       ??_C@_05LKJMACAD@Atlas@    100b45a4     SkinChanger.obj
 0002:000025ac       ??_C@_0P@MECMGCHE@Ghost?5Crusader@ 100b45ac     SkinChanger.obj
 0002:000025bc       ??_C@_08EHHBGPJL@Re?9Entry@ 100b45bc     SkinChanger.obj
 0002:000025c8       ??_C@_0N@NBGDKGAG@Primal?5Saber@ 100b45c8     SkinChanger.obj
 0002:000025d8       ??_C@_09CCGDODNM@Black?5Tie@ 100b45d8     SkinChanger.obj
 0002:000025e4       ??_C@_04IIGEHJCD@Lore@     100b45e4     SkinChanger.obj
 0002:000025ec       ??_C@_0O@EIAAMEPH@Gamma?5Doppler@ 100b45ec     SkinChanger.obj
 0002:000025fc       ??_C@_0L@KANKBGLL@Autotronic@ 100b45fc     SkinChanger.obj
 0002:00002608       ??_C@_08LCLMBOPJ@Freehand@ 100b4608     SkinChanger.obj
 0002:00002614       ??_C@_0L@FPHKENMN@Aristocrat@ 100b4614     SkinChanger.obj
 0002:00002620       ??_C@_06GIDFDNDN@Phobos@   100b4620     SkinChanger.obj
 0002:00002628       ??_C@_0P@IPEMPPKF@Violent?5Daimyo@ 100b4628     SkinChanger.obj
 0002:00002638       ??_C@_0BB@FIHGAPNP@Mecha?5Industries@ 100b4638     SkinChanger.obj
 0002:0000264c       ??_C@_0P@BHGGODB@Desolate?5Space@ 100b464c     SkinChanger.obj
 0002:0000265c       ??_C@_09GCMPJAOM@Carnivore@ 100b465c     SkinChanger.obj
 0002:00002668       ??_C@_0BA@HFNGMPME@Imperial?5Dragon@ 100b4668     SkinChanger.obj
 0002:00002678       ??_C@_09FDEGLFLP@Iron?5Clad@ 100b4678     SkinChanger.obj
 0002:00002684       ??_C@_07LNMMAIHJ@Chopper@  100b4684     SkinChanger.obj
 0002:0000268c       ??_C@_09OKMOBHEE@Harvester@ 100b468c     SkinChanger.obj
 0002:00002698       ??_C@_06GIPLFGB@Reboot@    100b4698     SkinChanger.obj
 0002:000026a0       ??_C@_09LKCBKCLN@Limelight@ 100b46a0     SkinChanger.obj
 0002:000026ac       ??_C@_0L@CPGIOGGO@Bloodsport@ 100b46ac     SkinChanger.obj
 0002:000026b8       ??_C@_06JNLHEODP@Aerial@   100b46b8     SkinChanger.obj
 0002:000026c0       ??_C@_07GACCDBPH@Ice?5Cap@ 100b46c0     SkinChanger.obj
 0002:000026c8       ??_C@_0BA@CCHCFEJC@Neon?5Revolution@ 100b46c8     SkinChanger.obj
 0002:000026d8       ??_C@_08HNHMOFOE@Syd?5Mead@ 100b46d8     SkinChanger.obj
 0002:000026e4       ??_C@_07IBGKIIEK@Imprint@  100b46e4     SkinChanger.obj
 0002:000026ec       ??_C@_09MAPFPKHB@Directive@ 100b46ec     SkinChanger.obj
 0002:000026f8       ??_C@_09CHGLOJGC@Roll?5Cage@ 100b46f8     SkinChanger.obj
 0002:00002704       ??_C@_0L@PAJDGLFE@Ventilator@ 100b4704     SkinChanger.obj
 0002:00002710       ??_C@_06IGFEBFLO@Weasel@   100b4710     SkinChanger.obj
 0002:00002718       ??_C@_0L@EDBNKHHM@Petroglyph@ 100b4718     SkinChanger.obj
 0002:00002724       ??_C@_07NEDBPNBF@Airlock@  100b4724     SkinChanger.obj
 0002:0000272c       ??_C@_06PPNILICE@Dazzle@   100b472c     SkinChanger.obj
 0002:00002734       ??_C@_04IFGNABOJ@Grim@     100b4734     SkinChanger.obj
 0002:0000273c       ??_C@_09ONGCMBKB@Powercore@ 100b473c     SkinChanger.obj
 0002:00002748       ??_C@_07JNGMOAAG@Triarch@  100b4748     SkinChanger.obj
 0002:00002750       ??_C@_08HJFJOAMM@Briefing@ 100b4750     SkinChanger.obj
 0002:0000275c       ??_C@_0L@LJPADCKF@Slipstream@ 100b475c     SkinChanger.obj
 0002:00002768       ??_C@_07KDKIJPKC@Polymer@  100b4768     SkinChanger.obj
 0002:00002770       ??_C@_08DDHJEPBO@Ironwork@ 100b4770     SkinChanger.obj
 0002:0000277c       ??_C@_0L@MBMAAGAA@Dragonfire@ 100b477c     SkinChanger.obj
 0002:00002788       ??_C@_0P@HKCKGEHA@Royal?5Consorts@ 100b4788     SkinChanger.obj
 0002:00002798       ??_C@_06CMIHEKMB@Cirrus@   100b4798     SkinChanger.obj
 0002:000027a0       ??_C@_07KFEOGKDA@Stinger@  100b47a0     SkinChanger.obj
 0002:000027a8       ??_C@_0L@PFBHEIKB@Black?5Sand@ 100b47a8     SkinChanger.obj
 0002:000027b4       ??_C@_0L@MKOJBNJH@Sand?5Scale@ 100b47b4     SkinChanger.obj
 0002:000027c0       ??_C@_09LMBAAGCE@Flashback@ 100b47c0     SkinChanger.obj
 0002:000027cc       ??_C@_09KPKCAGLL@Buzz?5Kill@ 100b47cc     SkinChanger.obj
 0002:000027d8       ??_C@_05FAKAPOMK@Sonar@    100b47d8     SkinChanger.obj
 0002:000027e0       ??_C@_04KIALFMJA@Gila@     100b47e0     SkinChanger.obj
 0002:000027e8       ??_C@_04MMHNEBFI@Turf@     100b47e8     SkinChanger.obj
 0002:000027f0       ??_C@_0O@LDONNMFG@Shallow?5Grave@ 100b47f0     SkinChanger.obj
 0002:00002800       ??_C@_0BD@FPJMIHPN@Wasteland?5Princess@ 100b4800     SkinChanger.obj
 0002:00002814       ??_C@_0M@DEPJMHKG@Fever?5Dream@ 100b4814     SkinChanger.obj
 0002:00002820       ??_C@_0BC@OAEHEGHA@Jungle?5Slipstream@ 100b4820     SkinChanger.obj
 0002:00002834       ??_C@_09MGFHJCCN@Blueprint@ 100b4834     SkinChanger.obj
 0002:00002840       ??_C@_08EPELAECO@Xiangliu@ 100b4840     SkinChanger.obj
 0002:0000284c       ??_C@_09HHHNLIAN@Decimator@ 100b484c     SkinChanger.obj
 0002:00002858       ??_C@_0M@CFNDBJNP@Oxide?5Blaze@ 100b4858     SkinChanger.obj
 0002:00002864       ??_C@_09JJHIJNOB@Capillary@ 100b4864     SkinChanger.obj
 0002:00002870       ??_C@_0BA@KPAKKGD@Crimson?5Tsunami@ 100b4870     SkinChanger.obj
 0002:00002880       ??_C@_0BE@ELABFEEP@Emerald?5Poison?5Dart@ 100b4880     SkinChanger.obj
 0002:00002894       ??_C@_06NNPDDBCD@Akoben@   100b4894     SkinChanger.obj
 0002:0000289c       ??_C@_06DCIIGLHI@Ripple@   100b489c     SkinChanger.obj
 0002:000028a4       ??_C@_09ENBEEPDN@Last?5Dive@ 100b48a4     SkinChanger.obj
 0002:000028b0       ??_C@_08MKEKGDPD@Scaffold@ 100b48b0     SkinChanger.obj
 0002:000028bc       ??_C@_08IPOIFNFJ@Neo?9Noir@ 100b48bc     SkinChanger.obj
 0002:000028c8       ??_C@_07MADONKFL@Seasons@  100b48c8     SkinChanger.obj
 0002:000028d0       ??_C@_06OHMNPBEA@Zander@   100b48d0     SkinChanger.obj
 0002:000028d8       ??_C@_0L@CPLMBLPL@Orbit?5Mk01@ 100b48d8     SkinChanger.obj
 0002:000028e4       ??_C@_0N@PJNKDGHE@Cobra?5Strike@ 100b48e4     SkinChanger.obj
 0002:000028f4       ??_C@_07PBGGIPKG@Macabre@  100b48f4     SkinChanger.obj
 0002:000028fc       ??_C@_0L@NIPNMIDF@Sugar?5Rush@ 100b48fc     SkinChanger.obj
 0002:00002908       ??_C@_09GDGACBBD@Oni?5Taiji@ 100b4908     SkinChanger.obj
 0002:00002914       ??_C@_08MIDEBEJJ@Hellfire@ 100b4914     SkinChanger.obj
 0002:00002920       ??_C@_05IPJMDKPC@Aloha@    100b4920     SkinChanger.obj
 0002:00002928       ??_C@_0L@IBAOOGLP@Hard?5Water@ 100b4928     SkinChanger.obj
 0002:00002934       ??_C@_08CNMAFGEG@Woodsman@ 100b4934     SkinChanger.obj
 0002:00002940       ??_C@_08EIACPNFF@Red?5Rock@ 100b4940     SkinChanger.obj
 0002:0000294c       ??_C@_0L@FKAMIDGE@Death?5Grip@ 100b494c     SkinChanger.obj
 0002:00002958       ??_C@_0N@LBGNKJDM@Death?8s?5Head@ 100b4958     SkinChanger.obj
 0002:00002968       ??_C@_07IPDCEOF@Cut?5Out@  100b4968     SkinChanger.obj
 0002:00002970       ??_C@_0O@HKMMAAGA@Metal?5Flowers@ 100b4970     SkinChanger.obj
 0002:00002980       ??_C@_06LPNNIIJF@Morris@   100b4980     SkinChanger.obj
 0002:00002988       ??_C@_06JKJOGDHH@Triqua@   100b4988     SkinChanger.obj
 0002:00002990       ??_C@_0M@LJAOMGMG@The?5Empress@ 100b4990     SkinChanger.obj
 0002:0000299c       ??_C@_0M@IHOFILJJ@High?5Roller@ 100b499c     SkinChanger.obj
 0002:000029a8       ??_C@_06NPNCGLLF@Hunter@   100b49a8     SkinChanger.obj
 0002:000029b0       ??_C@_0N@PMGJBPHK@See?5Ya?5Later@ 100b49b0     SkinChanger.obj
 0002:000029c0       ??_C@_09OAHIPAJ@Off?5World@ 100b49c0     SkinChanger.obj
 0002:000029cc       ??_C@_0N@DMFDPIDD@Leaded?5Glass@ 100b49cc     SkinChanger.obj
 0002:000029dc       ??_C@_0N@OIMLBBO@Llama?5Cannon@ 100b49dc     SkinChanger.obj
 0002:000029ec       ??_C@_0N@JMJOJLCG@Cracked?5Opal@ 100b49ec     SkinChanger.obj
 0002:000029fc       ??_C@_07OFINGKDN@Phantom@  100b49fc     SkinChanger.obj
 0002:00002a04       ??_C@_08LPBDBCJF@Tacticat@ 100b4a04     SkinChanger.obj
 0002:00002a10       ??_C@_08EKOAKDPF@Exposure@ 100b4a10     SkinChanger.obj
 0002:00002a1c       ??_C@_05GCJOLAFB@Ziggy@    100b4a1c     SkinChanger.obj
 0002:00002a24       ??_C@_0M@FJGCNCKK@Stymphalian@ 100b4a24     SkinChanger.obj
 0002:00002a30       ??_C@_06JKLGNHEJ@Mortis@   100b4a30     SkinChanger.obj
 0002:00002a38       ??_C@_0L@BFBGOBOA@Night?5Riot@ 100b4a38     SkinChanger.obj
 0002:00002a44       ??_C@_0L@GDAFDLHJ@Flame?5Test@ 100b4a44     SkinChanger.obj
 0002:00002a50       ??_C@_08PLOBKNPN@Moonrise@ 100b4a50     SkinChanger.obj
 0002:00002a5c       ??_C@_08KDLPPDG@Lionfish@  100b4a5c     SkinChanger.obj
 0002:00002a68       ??_C@_08KHILJLLK@Wild?5Six@ 100b4a68     SkinChanger.obj
 0002:00002a74       ??_C@_04HKABGNPF@Grip@     100b4a74     SkinChanger.obj
 0002:00002a7c       ??_C@_06KCOHIPBO@SWAG?97@  100b4a7c     SkinChanger.obj
 0002:00002a84       ??_C@_0M@PHHHOGKC@Arctic?5Wolf@ 100b4a84     SkinChanger.obj
 0002:00002a90       ??_C@_06CAGHIMLL@Cortex@   100b4a90     SkinChanger.obj
 0002:00002a98       ??_C@_07ELJHEHDF@Charred@  100b4a98     SkinChanger.obj
 0002:00002aa0       ??_C@_09PJJABFON@Snakebite@ 100b4aa0     SkinChanger.obj
 0002:00002aac       ??_C@_07BODNLHDH@Bronzed@  100b4aac     SkinChanger.obj
 0002:00002ab4       ??_C@_0N@LJMPCKAM@Spruce?5DDPAT@ 100b4ab4     SkinChanger.obj
 0002:00002ac4       ??_C@_0M@BAPNOIBB@Lunar?5Weave@ 100b4ac4     SkinChanger.obj
 0002:00002ad0       ??_C@_06DLPCIKCE@Convoy@   100b4ad0     SkinChanger.obj
 0002:00002ad8       ??_C@_0O@PIMCDAJE@Crimson?5Weave@ 100b4ad8     SkinChanger.obj
 0002:00002ae8       ??_C@_0P@EJHPDJOB@Superconductor@ 100b4ae8     SkinChanger.obj
 0002:00002af8       ??_C@_04NLOPEPAA@Arid@     100b4af8     SkinChanger.obj
 0002:00002b00       ??_C@_07IPOIIJAN@Eclipse@  100b4b00     SkinChanger.obj
 0002:00002b08       ??_C@_09GDEDHNPO@Spearmint@ 100b4b08     SkinChanger.obj
 0002:00002b14       ??_C@_05LIBKLPGC@Boom?$CB@ 100b4b14     SkinChanger.obj
 0002:00002b1c       ??_C@_09EHAEIKEG@Cool?5Mint@ 100b4b1c     SkinChanger.obj
 0002:00002b28       ??_C@_0M@BDMPNFCB@Emerald?5Web@ 100b4b28     SkinChanger.obj
 0002:00002b34       ??_C@_0L@LLOEHGOK@Foundation@ 100b4b34     SkinChanger.obj
 0002:00002b40       ??_C@_08MBHLFACG@Badlands@ 100b4b40     SkinChanger.obj
 0002:00002b4c       ??_C@_0L@KIKLBIAJ@Hedge?5Maze@ 100b4b4c     SkinChanger.obj
 0002:00002b58       ??_C@_09KHMIPLPI@Guerrilla@ 100b4b58     SkinChanger.obj
 0002:00002b64       ??_C@_0M@OCAIKPKC@Diamondback@ 100b4b64     SkinChanger.obj
 0002:00002b70       ??_C@_0L@LOFLKNDK@King?5Snake@ 100b4b70     SkinChanger.obj
 0002:00002b7c       ??_C@_0P@LIJLIJDC@Imperial?5Plaid@ 100b4b7c     SkinChanger.obj
 0002:00002b8c       ??_C@_08DOEGBNFC@Overtake@ 100b4b8c     SkinChanger.obj
 0002:00002b98       ??_C@_0N@GHIJMPAD@Racing?5Green@ 100b4b98     SkinChanger.obj
 0002:00002ba8       ??_C@_0L@KOFHKKKH@Amphibious@ 100b4ba8     SkinChanger.obj
 0002:00002bb4       ??_C@_0N@ELFFBCAF@Bronze?5Morph@ 100b4bb4     SkinChanger.obj
 0002:00002bc4       ??_C@_05OMBHNFGL@Omega@    100b4bc4     SkinChanger.obj
 0002:00002bcc       ??_C@_04JKLLGAJL@Vice@     100b4bcc     SkinChanger.obj
 0002:00002bd4       ??_C@_04CHNFKCJE@POW?$CB@  100b4bd4     SkinChanger.obj
 0002:00002bdc       ??_C@_06NAOOFIJF@Turtle@   100b4bdc     SkinChanger.obj
 0002:00002be4       ??_C@_09LOBALFEM@Transport@ 100b4be4     SkinChanger.obj
 0002:00002bf0       ??_C@_07CHPFKHEN@Polygon@  100b4bf0     SkinChanger.obj
 0002:00002bf8       ??_C@_0O@IFNNMHKB@Cobalt?5Skulls@ 100b4bf8     SkinChanger.obj
 0002:00002c08       ??_C@_09NEIFECBJ@Overprint@ 100b4c08     SkinChanger.obj
 0002:00002c14       ??_C@_09HCINOOEA@Duct?5Tape@ 100b4c14     SkinChanger.obj
 0002:00002c20       ??_C@_08NEFGLLJJ@Arboreal@ 100b4c20     SkinChanger.obj
 0002:00002c2c       ??_C@_08EMLDHIIE@Mangrove@ 100b4c2c     SkinChanger.obj
 0002:00002c38       ??_C@_07BOBLMAKA@Rattler@  100b4c38     SkinChanger.obj
 0002:00002c40       ??_C@_08JNHHIDNJ@Buckshot@ 100b4c40     SkinChanger.obj
 0002:00002c4c       ??_C@_05NLBKOGNI@Mogul@    100b4c4c     SkinChanger.obj
 0002:00002c54       ??_C@_0P@IIPEELKE@Other?5textures@ 100b4c54     VisualsMisc.obj
 0002:00002c64       ??_C@_0CI@PNMOKBEK@particle?1vistasmokev1?1vistasmok@ 100b4c64     VisualsMisc.obj
 0002:00002c8c       ??_C@_0DA@OJKONOI@particle?1vistasmokev1?1vistasmok@ 100b4c8c     VisualsMisc.obj
 0002:00002cbc       ??_C@_0CJ@ECEDHNAB@particle?1vistasmokev1?1vistasmok@ 100b4cbc     VisualsMisc.obj
 0002:00002ce8       ??_C@_0DE@OEEJFIDN@particle?1vistasmokev1?1vistasmok@ 100b4ce8     VisualsMisc.obj
 0002:00002d1c       ??_C@_0BM@LCODMDEN@molotov_throw_detonate_time@ 100b4d1c     VisualsMisc.obj
 0002:00002d38       ??_C@_0CA@OALJAIHG@weapon_molotov_maxdetonateslope@ 100b4d38     VisualsMisc.obj
 0002:00002d58       __real@34000000            100b4d58     VisualsMisc.obj
 0002:00002d5c       __real@3de38e39            100b4d5c     VisualsMisc.obj
 0002:00002d60       __real@3e99999a            100b4d60     VisualsMisc.obj
 0002:00002d64       __real@3ecccccd            100b4d64     VisualsMisc.obj
 0002:00002d68       __real@3ee66666            100b4d68     VisualsMisc.obj
 0002:00002d6c       __real@3f333333            100b4d6c     VisualsMisc.obj
 0002:00002d70       __real@3f666666            100b4d70     VisualsMisc.obj
 0002:00002d74       __real@3fc00000            100b4d74     VisualsMisc.obj
 0002:00002d78       __real@3ff0000000000000    100b4d78     VisualsMisc.obj
 0002:00002d80       __real@401921fb60000000    100b4d80     VisualsMisc.obj
 0002:00002d88       __real@41400000            100b4d88     VisualsMisc.obj
 0002:00002d8c       __real@41b00000            100b4d8c     VisualsMisc.obj
 0002:00002d90       __real@46000000            100b4d90     VisualsMisc.obj
 0002:00002d94       __real@bdcccccd            100b4d94     VisualsMisc.obj
 0002:00002d98       ??_C@_0BC@HGLEFIAP@cs_baggage_skybox@ 100b4d98     World Textures.obj
 0002:00002dac       ??_C@_08BLKLIJEH@cs_tibet@ 100b4dac     World Textures.obj
 0002:00002db8       ??_C@_08KBJNAGNK@clearsky@ 100b4db8     World Textures.obj
 0002:00002dc4       ??_C@_0N@DOFMLNBI@clearsky_hdr@ 100b4dc4     World Textures.obj
 0002:00002dd4       ??_C@_07NIBJEIAE@embassy@  100b4dd4     World Textures.obj
 0002:00002ddc       ??_C@_05FBDOCGFM@italy@    100b4ddc     World Textures.obj
 0002:00002de4       ??_C@_06MPAOAEGI@jungle@   100b4de4     World Textures.obj
 0002:00002dec       ??_C@_09GDEEAKEC@nukeblank@ 100b4dec     World Textures.obj
 0002:00002df8       ??_C@_06MDIHCADF@office@   100b4df8     World Textures.obj
 0002:00002e00       ??_C@_0BI@EHOLFNKI@sky_cs15_daylight01_hdr@ 100b4e00     World Textures.obj
 0002:00002e18       ??_C@_0BI@MBHPCPAG@sky_cs15_daylight02_hdr@ 100b4e18     World Textures.obj
 0002:00002e30       ??_C@_0BI@KCDPMKD@sky_cs15_daylight03_hdr@ 100b4e30     World Textures.obj
 0002:00002e48       ??_C@_0BI@BHCGMMBL@sky_cs15_daylight04_hdr@ 100b4e48     World Textures.obj
 0002:00002e60       ??_C@_0BC@NJBKFELC@sky_csgo_cloudy01@ 100b4e60     World Textures.obj
 0002:00002e74       ??_C@_0BB@DNKKAGKJ@sky_csgo_night02@ 100b4e74     World Textures.obj
 0002:00002e88       ??_C@_0BC@PIPMLIGP@sky_csgo_night02b@ 100b4e88     World Textures.obj
 0002:00002e9c       ??_C@_0BE@PBHHAKHI@sky_csgo_night_flat@ 100b4e9c     World Textures.obj
 0002:00002eb0       ??_C@_0BB@JFCHDEMK@sky_day02_05_hdr@ 100b4eb0     World Textures.obj
 0002:00002ec4       ??_C@_0N@MNJEOBGO@sky_day02_05@ 100b4ec4     World Textures.obj
 0002:00002ed4       ??_C@_08PEMGGMKO@sky_dust@ 100b4ed4     World Textures.obj
 0002:00002ee0       ??_C@_0BE@IOKGLHFD@sky_l4d_rural02_ldr@ 100b4ee0     World Textures.obj
 0002:00002ef4       ??_C@_0M@FPDMGLII@vertigo_hdr@ 100b4ef4     World Textures.obj
 0002:00002f00       ??_C@_0BA@HGAAPMNH@vertigoblue_hdr@ 100b4f00     World Textures.obj
 0002:00002f10       ??_C@_07IKAHCDEC@vertigo@  100b4f10     World Textures.obj
 0002:00002f18       ??_C@_07PIBIFNJM@vietnam@  100b4f18     World Textures.obj
 0002:00002f20       ??_C@_09JEAMLPFC@sky150day@ 100b4f20     World Textures.obj
 0002:00002f2c       ??_C@_06EMJDMICC@sky149@   100b4f2c     World Textures.obj
 0002:00002f34       ??_C@_06OACGIHCO@sky145@   100b4f34     World Textures.obj
 0002:00002f3c       ??_C@_06KPGHBBOJ@sky142@   100b4f3c     World Textures.obj
 0002:00002f44       ??_C@_07DEBNLAHD@sky139a@  100b4f44     World Textures.obj
 0002:00002f4c       ??_C@_06EJNMNOKH@sky139@   100b4f4c     World Textures.obj
 0002:00002f54       ??_C@_04IIICLNHD@mars@     100b4f54     World Textures.obj
 0002:00002f5c       ??_C@_0L@DOOKJNDL@WhiteDwarf@ 100b4f5c     World Textures.obj
 0002:00002f68       ??_C@_08MMFHLCCK@space_13@ 100b4f68     World Textures.obj
 0002:00002f74       ??_C@_01GBGANLPD@0@        100b4f74     World Textures.obj
 0002:00002f78       ??_C@_0L@NPFKENCH@sv_skyname@ 100b4f78     World Textures.obj
 0002:00002f84       ??_C@_0BJ@FDCFOANE@r_drawspecificstaticprop@ 100b4f84     World Textures.obj
 0002:00002fa0       ??_C@_0P@HPCHOLAI@World?5textures@ 100b4fa0     World Textures.obj
 0002:00002fb0       ??_C@_0BE@GFCHNMFC@StaticProp?5textures@ 100b4fb0     World Textures.obj
 0002:00002fc4       ??_C@_06HDCPEBNJ@SkyBox@   100b4fc4     World Textures.obj
 0002:000034f0       ??_C@_1II@LNPMEDNO@?$AAc?$AA?3?$AA?2?$AAu?$AAs?$AAe?$AAr?$AAs?$AA?2?$AAa?$AAd?$AAm?$AAi?$AAn?$AAi@ 100b54f0     imgui.obj
 0002:00003578       ??_C@_1BC@IIGHOJGM@?$AAi?$AAd?$AAx?$AA?5?$AA?$DM?$AA?$DN?$AA?5?$AA1@ 100b5578     imgui.obj
 0002:00003590       ??_C@_1JK@EBFMDDBN@?$AAc?$AA?3?$AA?2?$AAu?$AAs?$AAe?$AAr?$AAs?$AA?2?$AAa?$AAd?$AAm?$AAi?$AAn?$AAi@ 100b5590     imgui.obj
 0002:0000362c       ??_C@_09BJIHMJFE@imgui?4ini@ 100b562c     imgui.obj
 0002:00003638       ??_C@_0O@HCOAADPE@imgui_log?4txt@ 100b5638     imgui.obj
 0002:00003648       ??_C@_1IM@IEPJCNLI@?$AAc?$AA?3?$AA?2?$AAu?$AAs?$AAe?$AAr?$AAs?$AA?2?$AAa?$AAd?$AAm?$AAi?$AAn?$AAi@ 100b5648     imgui.obj
 0002:000036d4       ??_C@_1CC@MDBCLFOC@?$AAf?$AAi?$AAl?$AAe?$AAn?$AAa?$AAm?$AAe?$AA?5?$AA?$CG?$AA?$CG?$AA?5?$AAm?$AAo?$AAd@ 100b56d4     imgui.obj
 0002:00003768       ??_C@_13COJANIEC@?$AA0@    100b5768     imgui.obj
 0002:00003770       ??_C@_1NE@MGLAEJCB@?$AAG?$AAI?$AAm?$AAG?$AAu?$AAi?$AA?5?$AA?$CB?$AA?$DN?$AA?5?$AA0?$AA?5?$AA?$CG?$AA?$CG?$AA?5@ 100b5770     imgui.obj
 0002:00003848       ??_C@_1EM@KGOACLAI@?$AAi?$AAd?$AAx?$AA?5?$AA?$DO?$AA?$DN?$AA?5?$AA0?$AA?5?$AA?$CG?$AA?$CG?$AA?5?$AAi?$AAd?$AAx@ 100b5848     imgui.obj
 0002:00003898       ??_C@_1JA@BICGEIG@?$AA0?$AA?5?$AA?$CG?$AA?$CG?$AA?5?$AA?$CC?$AAC?$AAa?$AAl?$AAl?$AAe?$AAd?$AA?5?$AAP?$AAu@ 100b5898     imgui.obj
 0002:00003928       ??_C@_06LKBCGDFD@Button@   100b5928     imgui.obj
 0002:00003930       ??_C@_09IBFEOKHN@Separator@ 100b5930     imgui.obj
 0002:0000393c       ??_C@_03IEAKBACE@Tab@      100b593c     imgui.obj
 0002:00003940       ??_C@_05EJCOBEBF@?$CDMOVE@ 100b5940     imgui.obj
 0002:00003948       ??_C@_1HA@DMBDPHAC@?$AAg?$AA?4?$AAA?$AAc?$AAt?$AAi?$AAv?$AAe?$AAI?$AAd?$AA?5?$AA?$DN?$AA?$DN?$AA?5?$AAi@ 100b5948     imgui.obj
 0002:000039b8       ??_C@_1JO@PPIAHLHG@?$AA?$CI?$AAf?$AAl?$AAa?$AAg?$AAs?$AA?5?$AA?$CG?$AA?5?$AA?$CI?$AAI?$AAm?$AAG?$AAu?$AAi@ 100b59b8     imgui.obj
 0002:00003a58       ??_C@_1KI@ECMHEDEI@?$AAd?$AAr?$AAa?$AAw?$AAl?$AAi?$AAs?$AAt?$AA_?$AAn?$AAo?$AA?5?$AA?$DM?$AA?5?$AA?$CI@ 100b5a58     imgui.obj
 0002:00003b00       ??_C@_0N@MFFOHPLI@?$CD?$CDBackground@ 100b5b00     imgui.obj
 0002:00003b10       ??_C@_0N@MFHPHIIJ@?$CD?$CDForeground@ 100b5b10     imgui.obj
 0002:00003b20       ??_C@_1FK@PIJFGHBG@?$AAg?$AA?4?$AAM?$AAo?$AAv?$AAi?$AAn?$AAg?$AAW?$AAi?$AAn?$AAd?$AAo?$AAw?$AA?5@ 100b5b20     imgui.obj
 0002:00003b7c       ??_C@_1CG@DCCAIGN@?$AAg?$AA?4?$AAF?$AAo?$AAn?$AAt?$AA?9?$AA?$DO?$AAI?$AAs?$AAL?$AAo?$AAa?$AAd?$AAe@ 100b5b7c     imgui.obj
 0002:00003ba8       ??_C@_1FG@GBBMCDKF@?$AAg?$AA?4?$AAW?$AAi?$AAn?$AAd?$AAo?$AAw?$AAs?$AAF?$AAo?$AAc?$AAu?$AAs?$AAO@ 100b5ba8     imgui.obj
 0002:00003c00       ??_C@_0P@IMLDNMEK@Debug?$CD?$CDDefault@ 100b5c00     imgui.obj
 0002:00003c10       ??_C@_1FE@JJEPGBAD@?$AAg?$AA?4?$AAC?$AAu?$AAr?$AAr?$AAe?$AAn?$AAt?$AAW?$AAi?$AAn?$AAd?$AAo?$AAw@ 100b5c10     imgui.obj
 0002:00003c64       ??_C@_0BC@JHPKFIGH@HoveredId?3?50x?$CF08X@ 100b5c64     imgui.obj
 0002:00003c78       ??_C@_0BM@IIPBLKLJ@Press?5ESC?5to?5abort?5picking?4@ 100b5c78     imgui.obj
 0002:00003c94       ??_C@_0BM@OPIPEIJO@Click?5to?5break?5in?5debugger?$CB@ 100b5c94     imgui.obj
 0002:00003cb0       ??_C@_1EI@IBBBPCIN@?$AA?$CB?$AAg?$AA?4?$AAI?$AAn?$AAi?$AAt?$AAi?$AAa?$AAl?$AAi?$AAz?$AAe?$AAd?$AA?5@ 100b5cb0     imgui.obj
 0002:00003cf8       ??_C@_06BKKJGDHO@Window@   100b5cf8     imgui.obj
 0002:00003d00       ??_C@_1OG@INBPPELJ@?$AAd?$AAr?$AAa?$AAw?$AA_?$AAl?$AAi?$AAs?$AAt?$AA?9?$AA?$DO?$AAV?$AAt?$AAx?$AAB@ 100b5d00     imgui.obj
 0002:00003de8       ??_C@_1OG@ICPLNDEC@?$AAd?$AAr?$AAa?$AAw?$AA_?$AAl?$AAi?$AAs?$AAt?$AA?9?$AA?$DO?$AAI?$AAd?$AAx?$AAB@ 100b5de8     imgui.obj
 0002:00003ed0       ??_C@_1HI@ENCAIJO@?$AA?$CI?$AAi?$AAn?$AAt?$AA?$CJ?$AAd?$AAr?$AAa?$AAw?$AA_?$AAl?$AAi?$AAs?$AAt?$AA?9@ 100b5ed0     imgui.obj
 0002:00003f48       ??_C@_1OI@BGNIEPFI@?$AAd?$AAr?$AAa?$AAw?$AA_?$AAl?$AAi?$AAs?$AAt?$AA?9?$AA?$DO?$AA_?$AAV?$AAt?$AAx@ 100b5f48     imgui.obj
 0002:00004030       ??_C@_1BM@ICEHPMG@?$AAg?$AA?4?$AAI?$AAn?$AAi?$AAt?$AAi?$AAa?$AAl?$AAi?$AAz?$AAe?$AAd@ 100b6030     imgui.obj
 0002:00004050       ??_C@_1HE@BFIFNNBB@?$AAg?$AA?4?$AAW?$AAi?$AAt?$AAh?$AAi?$AAn?$AAF?$AAr?$AAa?$AAm?$AAe?$AAS?$AAc@ 100b6050     imgui.obj
 0002:000040c4       ??_C@_03KHICJKCI@?4?4?4@   100b60c4     imgui.obj
 0002:000040c8       ??_C@_1FO@HCCAMJFH@?$AAg?$AA?4?$AAW?$AAi?$AAn?$AAd?$AAo?$AAw?$AAs?$AA?4?$AAS?$AAi?$AAz?$AAe?$AA?5@ 100b60c8     imgui.obj
 0002:00004128       ??_C@_1ME@GKDHJBBA@?$AAu?$AAs?$AAe?$AAr?$AA_?$AAk?$AAe?$AAy?$AA_?$AAi?$AAn?$AAd?$AAe?$AAx?$AA?5@ 100b6128     imgui.obj
 0002:000041f0       ??_C@_1LA@MNMNDIA@?$AAk?$AAe?$AAy?$AA_?$AAi?$AAn?$AAd?$AAe?$AAx?$AA?5?$AA?$DO?$AA?$DN?$AA?5?$AA0?$AA?5@ 100b61f0     imgui.obj
 0002:000042a0       ??_C@_1KI@IKDPMEHK@?$AAb?$AAu?$AAt?$AAt?$AAo?$AAn?$AA?5?$AA?$DO?$AA?$DN?$AA?5?$AA0?$AA?5?$AA?$CG?$AA?$CG?$AA?5@ 100b62a0     imgui.obj
 0002:00004348       ??_C@_1BI@DLHMADOF@?$AAG?$AAI?$AAm?$AAG?$AAu?$AAi?$AA?5?$AA?$CB?$AA?$DN?$AA?5?$AA0@ 100b6348     imgui.obj
 0002:00004360       ??_C@_0L@BDFLDJGI@?$CFs?1?$CFs_?$CF08X@ 100b6360     imgui.obj
 0002:0000436c       ??_C@_07KBCBAKFA@?$CFs?1?$CF08X@ 100b636c     imgui.obj
 0002:00004374       ??_C@_0M@LLMLKFDF@SpacingYEAH@ 100b6374     imgui.obj
 0002:00004380       ??_C@_1BA@DDOODPOM@?$AAi?$AAd?$AA?5?$AA?$CB?$AA?$DN?$AA?5?$AA0@ 100b6380     imgui.obj
 0002:00004390       ??_C@_1DE@LOOJAFFK@?$AAg?$AA?4?$AAW?$AAi?$AAt?$AAh?$AAi?$AAn?$AAE?$AAn?$AAd?$AAC?$AAh?$AAi?$AAl@ 100b6390     imgui.obj
 0002:000043c8       ??_C@_1FK@ONDIMCKL@?$AAw?$AAi?$AAn?$AAd?$AAo?$AAw?$AA?9?$AA?$DO?$AAF?$AAl?$AAa?$AAg?$AAs?$AA?5?$AA?$CG@ 100b63c8     imgui.obj
 0002:00004424       ??_C@_07HDHBJEOI@?$CDRESIZE@ 100b6424     imgui.obj
 0002:0000442c       ??_C@_1DA@CEGNFBKM@?$AAw?$AAi?$AAn?$AAd?$AAo?$AAw?$AA?9?$AA?$DO?$AAB?$AAe?$AAg?$AAi?$AAn?$AAC?$AAo@ 100b642c     imgui.obj
 0002:0000445c       ??_C@_09BJOGEADB@?$CDCOLLAPSE@ 100b645c     imgui.obj
 0002:00004468       ??_C@_06KIIKKNMI@?$CDCLOSE@ 100b6468     imgui.obj
 0002:00004470       ??_C@_01NBENCBCI@?$CK@     100b6470     imgui.obj
 0002:00004478       ??_C@_1FI@JBDNHGBD@?$AAw?$AAi?$AAn?$AAd?$AAo?$AAw?$AA?9?$AA?$DO?$AAR?$AAo?$AAo?$AAt?$AAW?$AAi?$AAn@ 100b6478     imgui.obj
 0002:000044d0       ??_C@_1DK@CDEKKEL@?$AAn?$AAa?$AAm?$AAe?$AA?5?$AA?$CB?$AA?$DN?$AA?5?$AA0?$AA?5?$AA?$CG?$AA?$CG?$AA?5?$AAn?$AAa@ 100b64d0     imgui.obj
 0002:0000450c       ??_C@_1CG@FEBKCKMN@?$AAg?$AA?4?$AAW?$AAi?$AAt?$AAh?$AAi?$AAn?$AAF?$AAr?$AAa?$AAm?$AAe?$AAS?$AAc@ 100b650c     imgui.obj
 0002:00004538       ??_C@_1EE@GGBMECGG@?$AAg?$AA?4?$AAF?$AAr?$AAa?$AAm?$AAe?$AAC?$AAo?$AAu?$AAn?$AAt?$AAE?$AAn?$AAd@ 100b6538     imgui.obj
 0002:00004580       ??_C@_1EK@IADLALGG@?$AAf?$AAl?$AAa?$AAg?$AAs?$AA?5?$AA?$CG?$AA?5?$AAI?$AAm?$AAG?$AAu?$AAi?$AAW?$AAi@ 100b6580     imgui.obj
 0002:000045d0       ??_C@_1HM@BDHFFAHO@?$AAp?$AAa?$AAr?$AAe?$AAn?$AAt?$AA_?$AAw?$AAi?$AAn?$AAd?$AAo?$AAw?$AA?5?$AA?$CB@ 100b65d0     imgui.obj
 0002:00004650       ??_C@_1EO@GBMDJNAA@?$AAp?$AAa?$AAr?$AAe?$AAn?$AAt?$AA_?$AAw?$AAi?$AAn?$AAd?$AAo?$AAw?$AA?5?$AA?$CG@ 100b6650     imgui.obj
 0002:000046a0       ??_C@_1KO@GJELMBN@?$AAw?$AAi?$AAn?$AAd?$AAo?$AAw?$AA?9?$AA?$DO?$AAD?$AAr?$AAa?$AAw?$AAL?$AAi?$AAs@ 100b66a0     imgui.obj
 0002:00004750       ??_C@_1FG@JPKHCDHL@?$AA?$CI?$AAf?$AAl?$AAa?$AAg?$AAs?$AA?5?$AA?$CG?$AA?5?$AAI?$AAm?$AAG?$AAu?$AAi?$AAW@ 100b6750     imgui.obj
 0002:000047a8       ??_C@_1IG@DKOLGHNA@?$AA?$CI?$AAg?$AA?4?$AAC?$AAu?$AAr?$AAr?$AAe?$AAn?$AAt?$AAW?$AAi?$AAn?$AAd?$AAo@ 100b67a8     imgui.obj
 0002:00004830       ??_C@_1DM@FOOGCAMP@?$AAg?$AA?4?$AAC?$AAu?$AAr?$AAr?$AAe?$AAn?$AAt?$AAW?$AAi?$AAn?$AAd?$AAo?$AAw@ 100b6830     imgui.obj
 0002:00004870       ??_C@_1HI@MIOLBHIM@?$AA?$CI?$AAg?$AA?4?$AAW?$AAi?$AAt?$AAh?$AAi?$AAn?$AAE?$AAn?$AAd?$AAC?$AAh?$AAi@ 100b6870     imgui.obj
 0002:000048e8       ??_C@_1EO@CDDKCBBF@?$AAw?$AAi?$AAn?$AAd?$AAo?$AAw?$AA?5?$AA?$DN?$AA?$DN?$AA?5?$AA0?$AA?5?$AA?$HM?$AA?$HM?$AA?5@ 100b68e8     imgui.obj
 0002:00004938       ??_C@_1DC@JABAIOEL@?$AAf?$AAo?$AAn?$AAt?$AA?5?$AA?$CG?$AA?$CG?$AA?5?$AAf?$AAo?$AAn?$AAt?$AA?9?$AA?$DO?$AAI@ 100b6938     imgui.obj
 0002:0000496c       ??_C@_1CG@FNLEAELN@?$AAf?$AAo?$AAn?$AAt?$AA?9?$AA?$DO?$AAS?$AAc?$AAa?$AAl?$AAe?$AA?5?$AA?$DO?$AA?5?$AA0@ 100b696c     imgui.obj
 0002:00004998       ??_C@_1EE@PBEDMJFL@?$AAc?$AAo?$AAn?$AAd?$AA?5?$AA?$DN?$AA?$DN?$AA?5?$AA0?$AA?5?$AA?$HM?$AA?$HM?$AA?5?$AAI?$AAm@ 100b6998     imgui.obj
 0002:000049dc       ??_C@_1DC@KOOPJPAL@?$AAw?$AAi?$AAn?$AAd?$AAo?$AAw?$AA?9?$AA?$DO?$AAI?$AAD?$AAS?$AAt?$AAa?$AAc?$AAk@ 100b69dc     imgui.obj
 0002:00004a10       ??_C@_1JK@GMCNDFJ@?$AA?$CI?$AAg?$AA?4?$AAI?$AAO?$AA?4?$AAD?$AAe?$AAl?$AAt?$AAa?$AAT?$AAi?$AAm?$AAe@ 100b6a10     imgui.obj
 0002:00004ab0       ??_C@_1BAM@KGEBLPLP@?$AA?$CI?$AAg?$AA?4?$AAF?$AAr?$AAa?$AAm?$AAe?$AAC?$AAo?$AAu?$AAn?$AAt?$AA?5?$AA?$DN@ 100b6ab0     imgui.obj
 0002:00004bc0       ??_C@_1LC@PGGPGCKP@?$AAg?$AA?4?$AAI?$AAO?$AA?4?$AAD?$AAi?$AAs?$AAp?$AAl?$AAa?$AAy?$AAS?$AAi?$AAz@ 100b6bc0     imgui.obj
 0002:00004c78       ??_C@_1PE@FGNJKIDP@?$AAg?$AA?4?$AAI?$AAO?$AA?4?$AAF?$AAo?$AAn?$AAt?$AAs?$AA?9?$AA?$DO?$AAF?$AAo?$AAn@ 100b6c78     imgui.obj
 0002:00004d70       ??_C@_1BAA@LPHFDOOJ@?$AAg?$AA?4?$AAI?$AAO?$AA?4?$AAF?$AAo?$AAn?$AAt?$AAs?$AA?9?$AA?$DO?$AAF?$AAo?$AAn@ 100b6d70     imgui.obj
 0002:00004e70       ??_C@_1IA@HHCKGFKM@?$AAg?$AA?4?$AAS?$AAt?$AAy?$AAl?$AAe?$AA?4?$AAC?$AAu?$AAr?$AAv?$AAe?$AAT?$AAe@ 100b6e70     imgui.obj
 0002:00004ef0       ??_C@_1IM@BBAKCECH@?$AAg?$AA?4?$AAS?$AAt?$AAy?$AAl?$AAe?$AA?4?$AAC?$AAi?$AAr?$AAc?$AAl?$AAe?$AAT@ 100b6ef0     imgui.obj
 0002:00004f80       ??_C@_1JG@HBCMMEC@?$AAg?$AA?4?$AAS?$AAt?$AAy?$AAl?$AAe?$AA?4?$AAA?$AAl?$AAp?$AAh?$AAa?$AA?5?$AA?$DO@ 100b6f80     imgui.obj
 0002:00005018       ??_C@_1LO@BODAGONP@?$AAg?$AA?4?$AAS?$AAt?$AAy?$AAl?$AAe?$AA?4?$AAW?$AAi?$AAn?$AAd?$AAo?$AAw?$AAM@ 100b7018     imgui.obj
 0002:000050d8       ??_C@_1BDK@FANHHEDI@?$AAg?$AA?4?$AAS?$AAt?$AAy?$AAl?$AAe?$AA?4?$AAW?$AAi?$AAn?$AAd?$AAo?$AAw?$AAM@ 100b70d8     imgui.obj
 0002:00005218       ??_C@_1BHO@ICEKAIPC@?$AAg?$AA?4?$AAI?$AAO?$AA?4?$AAK?$AAe?$AAy?$AAM?$AAa?$AAp?$AA?$FL?$AAn?$AA?$FN?$AA?5@ 100b7218     imgui.obj
 0002:00005398       ??_C@_1MO@ONPFNFPJ@?$AAg?$AA?4?$AAI?$AAO?$AA?4?$AAK?$AAe?$AAy?$AAM?$AAa?$AAp?$AA?$FL?$AAI?$AAm?$AAG@ 100b7398     imgui.obj
 0002:00005468       ??_C@_1BAE@HHDAPELE@?$AA?$CI?$AAk?$AAe?$AAy?$AA_?$AAm?$AAo?$AAd?$AA_?$AAf?$AAl?$AAa?$AAg?$AAs?$AA?5@ 100b7468     imgui.obj
 0002:00005570       ??_C@_1PM@PNPJAGAO@?$AA?$CI?$AAg?$AA?4?$AAC?$AAu?$AAr?$AAr?$AAe?$AAn?$AAt?$AAW?$AAi?$AAn?$AAd?$AAo@ 100b7570     imgui.obj
 0002:00005670       ??_C@_1PK@KPEOFHN@?$AA?$CI?$AAg?$AA?4?$AAC?$AAu?$AAr?$AAr?$AAe?$AAn?$AAt?$AAW?$AAi?$AAn?$AAd?$AAo@ 100b7670     imgui.obj
 0002:00005770       ??_C@_1GK@BADAAGFG@?$AA?$CI?$AAg?$AA?4?$AAG?$AAr?$AAo?$AAu?$AAp?$AAS?$AAt?$AAa?$AAc?$AAk?$AA?4?$AAS@ 100b7770     imgui.obj
 0002:000057e0       ??_C@_1KM@GPENMPEF@?$AAS?$AAi?$AAz?$AAe?$AAO?$AAf?$AAI?$AAD?$AAS?$AAt?$AAa?$AAc?$AAk?$AA?5?$AA?$DN@ 100b77e0     imgui.obj
 0002:00005890       ??_C@_1JC@FNBHEOLL@?$AAS?$AAi?$AAz?$AAe?$AAO?$AAf?$AAG?$AAr?$AAo?$AAu?$AAp?$AAS?$AAt?$AAa?$AAc@ 100b7890     imgui.obj
 0002:00005928       ??_C@_1NA@IJOEJOEN@?$AAS?$AAi?$AAz?$AAe?$AAO?$AAf?$AAB?$AAe?$AAg?$AAi?$AAn?$AAP?$AAo?$AAp?$AAu@ 100b7928     imgui.obj
 0002:000059f8       ??_C@_1KE@NCANFJNK@?$AAS?$AAi?$AAz?$AAe?$AAO?$AAf?$AAC?$AAo?$AAl?$AAo?$AAr?$AAS?$AAt?$AAa?$AAc@ 100b79f8     imgui.obj
 0002:00005aa0       ??_C@_1KI@DHADCEOH@?$AAS?$AAi?$AAz?$AAe?$AAO?$AAf?$AAS?$AAt?$AAy?$AAl?$AAe?$AAV?$AAa?$AAr?$AAS@ 100b7aa0     imgui.obj
 0002:00005b48       ??_C@_1II@EKMLEPAG@?$AAS?$AAi?$AAz?$AAe?$AAO?$AAf?$AAF?$AAo?$AAn?$AAt?$AAS?$AAt?$AAa?$AAc?$AAk@ 100b7b48     imgui.obj
 0002:00005bd0       ??_C@_1LI@DNMDNCBF@?$AAS?$AAi?$AAz?$AAe?$AAO?$AAf?$AAF?$AAo?$AAc?$AAu?$AAs?$AAS?$AAc?$AAo?$AAp@ 100b7bd0     imgui.obj
 0002:00005c88       ??_C@_1CM@HMCHNBOE@?$AAg?$AA?4?$AAG?$AAr?$AAo?$AAu?$AAp?$AAS?$AAt?$AAa?$AAc?$AAk?$AA?4?$AAS?$AAi@ 100b7c88     imgui.obj
 0002:00005cb8       ??_C@_1EE@BNODPOAB@?$AAg?$AAr?$AAo?$AAu?$AAp?$AA_?$AAd?$AAa?$AAt?$AAa?$AA?4?$AAW?$AAi?$AAn?$AAd@ 100b7cb8     imgui.obj
 0002:00005d00       ??_C@_1GC@BIJJIADH@?$AAc?$AAe?$AAn?$AAt?$AAe?$AAr?$AA_?$AAx?$AA_?$AAr?$AAa?$AAt?$AAi?$AAo?$AA?5@ 100b7d00     imgui.obj
 0002:00005d68       ??_C@_1GC@LDEACFFC@?$AAc?$AAe?$AAn?$AAt?$AAe?$AAr?$AA_?$AAy?$AA_?$AAr?$AAa?$AAt?$AAi?$AAo?$AA?5@ 100b7d68     imgui.obj
 0002:00005dcc       ??_C@_0P@DHLMFJKK@?$CD?$CDTooltip_?$CF02d@ 100b7dcc     imgui.obj
 0002:00005de0       ??_C@_1HC@IKPEGHCP@?$AAG?$AAe?$AAt?$AAC?$AAu?$AAr?$AAr?$AAe?$AAn?$AAt?$AAW?$AAi?$AAn?$AAd?$AAo@ 100b7de0     imgui.obj
 0002:00005e54       ??_C@_1BA@OHMFOIK@?$AAi?$AAd?$AA?5?$AA?$DN?$AA?$DN?$AA?5?$AA0@ 100b7e54     imgui.obj
 0002:00005e68       ??_C@_1GI@FJFNMD@?$AA?$CI?$AAp?$AAo?$AAp?$AAu?$AAp?$AA?4?$AAW?$AAi?$AAn?$AAd?$AAo?$AAw?$AA?9?$AA?$DO@ 100b7e68     imgui.obj
 0002:00005ed0       ??_C@_1GI@BPADGCJE@?$AAr?$AAe?$AAm?$AAa?$AAi?$AAn?$AAi?$AAn?$AAg?$AA?5?$AA?$DO?$AA?$DN?$AA?5?$AA0?$AA?5@ 100b7ed0     imgui.obj
 0002:00005f38       ??_C@_1DE@NAFIGFGG@?$AAg?$AA?4?$AAC?$AAu?$AAr?$AAr?$AAe?$AAn?$AAt?$AAW?$AAi?$AAn?$AAd?$AAo?$AAw@ 100b7f38     imgui.obj
 0002:00005f6c       ??_C@_1CC@BGDNHLPI@?$AAg?$AA?4?$AAN?$AAa?$AAv?$AAW?$AAi?$AAn?$AAd?$AAo?$AAw?$AA?5?$AA?$CB?$AA?$DN?$AA?5@ 100b7f6c     imgui.obj
 0002:00005f90       ??_C@_1IG@LOIIGJJB@?$AAn?$AAa?$AAv?$AA_?$AAl?$AAa?$AAy?$AAe?$AAr?$AA?5?$AA?$DN?$AA?$DN?$AA?5?$AAI?$AAm@ 100b7f90     imgui.obj
 0002:00006018       ??_C@_1IK@IGCCKHOG@?$AA?$CI?$AAw?$AAi?$AAn?$AAd?$AAo?$AAw?$AA?9?$AA?$DO?$AAF?$AAl?$AAa?$AAg?$AAs?$AA?5@ 100b8018     imgui.obj
 0002:000060a8       ??_C@_1GA@HNMFLEAL@?$AAg?$AA?4?$AAN?$AAa?$AAv?$AAM?$AAo?$AAv?$AAe?$AAR?$AAe?$AAq?$AAu?$AAe?$AAs@ 100b80a8     imgui.obj
 0002:00006108       ??_C@_1CM@NGAIJMCF@?$AAw?$AAi?$AAn?$AAd?$AAo?$AAw?$AA?5?$AA?$DN?$AA?$DN?$AA?5?$AAg?$AA?4?$AAN?$AAa?$AAv@ 100b8108     imgui.obj
 0002:00006134       ??_C@_1CC@PCNOPHOI@?$AAg?$AA?4?$AAN?$AAa?$AAv?$AAM?$AAo?$AAv?$AAe?$AAR?$AAe?$AAq?$AAu?$AAe?$AAs@ 100b8134     imgui.obj
 0002:00006158       ??_C@_1EG@OLANNBKO@?$AAg?$AA?4?$AAN?$AAa?$AAv?$AAL?$AAa?$AAy?$AAe?$AAr?$AA?5?$AA?$DN?$AA?$DN?$AA?5?$AA0@ 100b8158     imgui.obj
 0002:000061a0       ??_C@_1DG@HPGLIPGM@?$AAc?$AAh?$AAi?$AAl?$AAd?$AA_?$AAw?$AAi?$AAn?$AAd?$AAo?$AAw?$AA?9?$AA?$DO?$AAC@ 100b81a0     imgui.obj
 0002:000061d8       ??_C@_1EO@NJCLOIHM@?$AAg?$AA?4?$AAN?$AAa?$AAv?$AAA?$AAc?$AAt?$AAi?$AAv?$AAa?$AAt?$AAe?$AAD?$AAo@ 100b81d8     imgui.obj
 0002:00006228       ??_C@_1IG@KDKGHOJC@?$AAg?$AA?4?$AAN?$AAa?$AAv?$AAM?$AAo?$AAv?$AAe?$AAD?$AAi?$AAr?$AA?5?$AA?$CB?$AA?$DN@ 100b8228     imgui.obj
 0002:000062b0       ??_C@_1HC@ODAAGLGB@?$AAg?$AA?4?$AAN?$AAa?$AAv?$AAM?$AAo?$AAv?$AAe?$AAR?$AAe?$AAq?$AAu?$AAe?$AAs@ 100b82b0     imgui.obj
 0002:00006324       ??_C@_1DO@NFHNJCFP@?$AA?$CB?$AAg?$AA?4?$AAN?$AAa?$AAv?$AAS?$AAc?$AAo?$AAr?$AAi?$AAn?$AAg?$AAR?$AAe@ 100b8324     imgui.obj
 0002:00006364       ??_C@_1DM@EKPCIOHK@?$AAg?$AA?4?$AAN?$AAa?$AAv?$AAW?$AAi?$AAn?$AAd?$AAo?$AAw?$AA?5?$AA?$CG?$AA?$CG?$AA?5@ 100b8364     imgui.obj
 0002:000063a0       ??_C@_1CA@PADPOC@?$AAm?$AAo?$AAv?$AAe?$AA_?$AAf?$AAl?$AAa?$AAg?$AAs?$AA?5?$AA?$CB?$AA?$DN?$AA?5?$AA0@ 100b83a0     imgui.obj
 0002:000063c0       ??_C@_1CK@OIBCGJMF@?$AAg?$AA?4?$AAN?$AAa?$AAv?$AAW?$AAi?$AAn?$AAd?$AAo?$AAw?$AAi?$AAn?$AAg?$AAT@ 100b83c0     imgui.obj
 0002:000063ec       ??_C@_07NPLNEKJH@?$CIPopup?$CJ@ 100b83ec     imgui.obj
 0002:000063f4       ??_C@_0O@BKOLOJFE@?$CD?$CDMainMenuBar@ 100b83f4     imgui.obj
 0002:00006404       ??_C@_0BA@KDPNEDEH@?$CIMain?5menu?5bar?$CJ@ 100b8404     imgui.obj
 0002:00006414       ??_C@_0L@JOJOIPFK@?$CIUntitled?$CJ@ 100b8414     imgui.obj
 0002:00006420       ??_C@_1DE@DBGGCEBB@?$AAg?$AA?4?$AAN?$AAa?$AAv?$AAW?$AAi?$AAn?$AAd?$AAo?$AAw?$AAi?$AAn?$AAg?$AAT@ 100b8420     imgui.obj
 0002:00006454       ??_C@_0BE@EBHFKNCA@?$CD?$CD?$CDNavWindowingList@ 100b8454     imgui.obj
 0002:00006468       ??_C@_02PCIJFNDE@?$AN?6@   100b8468     imgui.obj
 0002:0000646c       ??_C@_07LFDEMEGD@?$CF?$CKs?$CF?4?$CKs@ 100b846c     imgui.obj
 0002:00006474       ??_C@_02BOGAIONP@ab@       100b8474     imgui.obj
 0002:00006478       ??_C@_1DE@BLONNHPO@?$AAg?$AA?4?$AAS?$AAe?$AAt?$AAt?$AAi?$AAn?$AAg?$AAs?$AAW?$AAi?$AAn?$AAd?$AAo@ 100b8478     imgui.obj
 0002:000064ac       ??_C@_03OIJOKPOL@?$CD?$CD?$CD@ 100b84ac     imgui.obj
 0002:000064b0       ??_C@_02JDPG@rb@           100b84b0     imgui.obj
 0002:000064b4       ??_C@_02BKFDOEMK@wt@       100b84b4     imgui.obj
 0002:000064b8       ??_C@_09GOMOMIIP@Pos?$DN?$CFi?0?$CFi@ 100b84b8     imgui.obj
 0002:000064c4       ??_C@_0L@MPPKDMFA@Size?$DN?$CFi?0?$CFi@ 100b84c4     imgui.obj
 0002:000064d0       ??_C@_0N@IAKNMBB@Collapsed?$DN?$CFd@ 100b84d0     imgui.obj
 0002:000064e0       ??_C@_1DG@BLKMIOLK@?$AAs?$AAe?$AAt?$AAt?$AAi?$AAn?$AAg?$AAs?$AA?9?$AA?$DO?$AAI?$AAD?$AA?5?$AA?$DN?$AA?$DN@ 100b84e0     imgui.obj
 0002:00006518       ??_C@_09HNFDDBIF@?$FL?$CFs?$FN?$FL?$CFs?$FN?6@ 100b8518     imgui.obj
 0002:00006524       ??_C@_0L@DDMADIHO@Pos?$DN?$CFd?0?$CFd?6@ 100b8524     imgui.obj
 0002:00006530       ??_C@_0M@CFANMDMP@Size?$DN?$CFd?0?$CFd?6@ 100b8530     imgui.obj
 0002:0000653c       ??_C@_0O@JAFHMCKE@Collapsed?$DN?$CFd?6@ 100b853c     imgui.obj
 0002:0000654c       ??_C@_01EEMJAFIK@?6@       100b854c     imgui.obj
 0002:00006550       ??_C@_1CM@MPBIDJHA@?$AAg?$AA?4?$AAV?$AAi?$AAe?$AAw?$AAp?$AAo?$AAr?$AAt?$AAs?$AA?4?$AAS?$AAi?$AAz@ 100b8550     imgui.obj
 0002:0000657c       ??_C@_08EEOHOBEO@Settings@ 100b857c     imgui.obj
 0002:00006588       ??_C@_02DKCKIIND@?$CFs@    100b8588     imgui.obj
 0002:0000658c       ??_C@_02DPKJAMEF@?$CFd@    100b858c     imgui.obj
 0002:00006590       ??_C@_01MNNFJEPP@?$DM@     100b8590     imgui.obj
 0002:00006594       ??_C@_01PPODPGHN@?$DO@     100b8594     imgui.obj
 0002:00006598       ??_C@_01NFFPALBN@Y@        100b8598     imgui.obj
 0002:0000659c       ??_C@_01MMEEDKFM@X@        100b859c     imgui.obj
 0002:000065a0       ??_C@_1DC@DHFOGPCD@?$AAp?$AA?5?$AA?$DO?$AA?$DN?$AA?5?$AAD?$AAa?$AAt?$AAa?$AA?5?$AA?$CG?$AA?$CG?$AA?5?$AAp?$AA?5@ 100b85a0     imgui.obj
 0002:000065d4       ??_C@_1DO@NPHOAPAC@?$AAi?$AAt?$AA?5?$AA?$DO?$AA?$DN?$AA?5?$AAD?$AAa?$AAt?$AAa?$AA?5?$AA?$CG?$AA?$CG?$AA?5?$AAi@ 100b85d4     imgui.obj
 0002:00006614       ??_C@_1CG@GPMNJCJ@?$AAi?$AA?5?$AA?$DO?$AA?$DN?$AA?5?$AA0?$AA?5?$AA?$CG?$AA?$CG?$AA?5?$AAi?$AA?5?$AA?$DM?$AA?5?$AAS@ 100b8614     imgui.obj
 0002:0000663c       ??_C@_1BC@KCECIPDP@?$AAS?$AAi?$AAz?$AAe?$AA?5?$AA?$DO?$AA?5?$AA0@ 100b863c     imgui.obj
 0002:00006650       ??_C@_1DE@BDDBABLK@?$AAp?$AA?5?$AA?$DO?$AA?$DN?$AA?5?$AAb?$AAe?$AAg?$AAi?$AAn?$AA?$CI?$AA?$CJ?$AA?5?$AA?$CG?$AA?$CG@ 100b8650     imgui.obj
 0002:00006684       ??_C@_1BE@OEELIPPM@?$AAp?$AA?5?$AA?$DM?$AA?5?$AAe?$AAn?$AAd?$AA?$CI?$AA?$CJ@ 100b8684     imgui.obj
 0002:00006698       ??_C@_1DG@EPOMENA@?$AAo?$AAf?$AAf?$AA?5?$AA?$DO?$AA?$DN?$AA?5?$AA4?$AA?5?$AA?$CG?$AA?$CG?$AA?5?$AAo?$AAf?$AAf@ 100b8698     imgui.obj
 0002:000066d0       ??_C@_1EA@INDCAEFK@?$AAi?$AAt?$AA?5?$AA?$DO?$AA?$DN?$AA?5?$AAD?$AAa?$AAt?$AAa?$AA?5?$AA?$CG?$AA?$CG?$AA?5?$AAi@ 100b86d0     imgui.obj
 0002:00006710       __real@3727c5ac            100b8710     imgui.obj
 0002:00006714       __real@38d1b717            100b8714     imgui.obj
 0002:00006718       __real@3b808081            100b8718     imgui.obj
 0002:0000671c       __real@3d23d70a            100b871c     imgui.obj
 0002:00006720       __real@3e4ccccd            100b8720     imgui.obj
 0002:00006724       __real@3e800000            100b8724     imgui.obj
 0002:00006728       __real@3f19999a            100b8728     imgui.obj
 0002:0000672c       __real@3f266666            100b872c     imgui.obj
 0002:00006730       __real@3f2b851f            100b8730     imgui.obj
 0002:00006734       __real@3f3851ec            100b8734     imgui.obj
 0002:00006738       __real@3f490fdb            100b8738     imgui.obj
 0002:0000673c       __real@3f4ccccd            100b873c     imgui.obj
 0002:00006740       __real@3f7fff58            100b8740     imgui.obj
 0002:00006744       __real@3f8ccccd            100b8744     imgui.obj
 0002:00006748       __real@3faccccd            100b8748     imgui.obj
 0002:0000674c       __real@42f00000            100b874c     imgui.obj
 0002:00006750       __real@44160000            100b8750     imgui.obj
 0002:00006754       __real@44480000            100b8754     imgui.obj
 0002:00006758       __real@be800000            100b8758     imgui.obj
 0002:0000675c       __real@c0000000            100b875c     imgui.obj
 0002:00006760       __real@c87a0000            100b8760     imgui.obj
 0002:00006764       __real@ff7fffff            100b8764     imgui.obj
 0002:00006770       __xmm@00000000000000020000000300000001 100b8770     imgui.obj
 0002:00006780       __xmm@00000002000000000000000100000003 100b8780     imgui.obj
 0002:00006790       __xmm@3f8000003de8e8ea3de8e8ea3de8e8ea 100b8790     imgui.obj
 0002:000067a0       __xmm@3f8000003e0080813df0f0f23de0e0e2 100b87a0     imgui.obj
 0002:000067b0       __xmm@3f8000003e0484853e0484853e048485 100b87b0     imgui.obj
 0002:000067c0       __xmm@3f8000003f22a2a33ee2e2e43eb2b2b3 100b87c0     imgui.obj
 0002:000067d0       __xmm@3f8000003f48c8ca3f48c8ca3f48c8ca 100b87d0     imgui.obj
 0002:000067e0       __xmm@7f7fffff7f7fffffff7fffffff7fffff 100b87e0     imgui.obj
 0002:000067f0       __xmm@7fffffff7fffffff7fffffff7fffffff 100b87f0     imgui.obj
 0002:00006800       __xmm@bf800000bf800000bf800000bf800000 100b8800     imgui.obj
 0002:00006810       __xmm@ffffffffffffffffffffffffffffffff 100b8810     imgui.obj
 0002:00006820       ??_C@_04GFJLOHHD@?$CF?43f@ 100b8820     imgui_demo.obj
 0002:00006828       ??_C@_0L@LLAOMMOH@Text?5Input@ 100b8828     imgui_demo.obj
 0002:00006834       ??_C@_01MIFGBAGJ@?$CL@     100b8834     imgui_demo.obj
 0002:00006838       ??_C@_02GMHACPFF@?$CFu@    100b8838     imgui_demo.obj
 0002:0000683c       ??_C@_05LLAMLEHD@?$CFI64d@ 100b883c     imgui_demo.obj
 0002:00006844       ??_C@_08HBKJHHBM@Checkbox@ 100b8844     imgui_demo.obj
 0002:00006850       ??_C@_01POHCFINO@Z@        100b8850     imgui_demo.obj
 0002:00006854       ??_C@_01FHEEJDEE@A@        100b8854     imgui_demo.obj
 0002:00006858       ??_C@_01HMGJMAIH@B@        100b8858     imgui_demo.obj
 0002:0000685c       ??_C@_02FODMEDOG@?$DM?$DM@ 100b885c     imgui_demo.obj
 0002:00006860       ??_C@_02GPIOPFAK@?$DO?$DO@ 100b8860     imgui_demo.obj
 0002:00006864       ??_C@_02BAABKJLB@?9?9@     100b8864     imgui_demo.obj
 0002:00006868       ??_C@_05LMJFOPOI@Music@    100b8868     imgui_demo.obj
 0002:00006870       ??_C@_05LFBINIGO@Table@    100b8870     imgui_demo.obj
 0002:00006878       ??_C@_01HIHLOKLC@1@        100b8878     imgui_demo.obj
 0002:0000687c       ??_C@_01FDFGLJHB@2@        100b887c     imgui_demo.obj
 0002:00006880       ??_C@_01EKENIIDA@3@        100b8880     imgui_demo.obj
 0002:00006884       ??_C@_01BMBHCPLG@5@        100b8884     imgui_demo.obj
 0002:00006888       ??_C@_07DOAOMMKG@Enabled@  100b8888     imgui_demo.obj
 0002:00006890       ??_C@_01CLKCMJKC@?5@       100b8890     imgui_demo.obj
 0002:00006898       __real@0000000000000000    100b8898     imgui_demo.obj
 0002:000068a0       __real@41e00000            100b88a0     imgui_demo.obj
 0002:000068b0       __xmm@3f800000000000000000000000000000 100b88b0     imgui_demo.obj
 0002:000068c0       __xmm@3f8000003f8000003f8000003f800000 100b88c0     imgui_demo.obj
 0002:0000a308       ??_C@_1BG@HMJJDGFN@?$AAi?$AAn?$AAd?$AAe?$AAx?$AA?5?$AA?$DO?$AA?$DN?$AA?5?$AA0@ 100bc308     imgui_draw.obj
 0002:0000a320       ??_C@_1DA@HCNHOFJN@?$AAn?$AA?5?$AA?$DM?$AA?5?$AA?$CI?$AAS?$AAt?$AAo?$AAr?$AAa?$AAg?$AAe?$AA?4?$AAS?$AAi@ 100bc320     imgui_draw.obj
 0002:0000a350       ??_C@_1JK@GHEOJPJE@?$AAc?$AA?3?$AA?2?$AAu?$AAs?$AAe?$AAr?$AAs?$AA?2?$AAa?$AAd?$AAm?$AAi?$AAn?$AAi@ 100bc350     imgui_draw.obj
 0002:0000a3f0       ??_C@_1EI@NNJKMECF@?$AAw?$AAi?$AAd?$AAt?$AAh?$AA?5?$AA?$DM?$AA?$DN?$AA?5?$AA0?$AAx?$AAf?$AAf?$AAf?$AAf@ 100bc3f0     imgui_draw.obj
 0002:0000a438       ??_C@_1BO@KBODBKOH@?$AAf?$AAi?$AAr?$AAs?$AAt?$AA?9?$AA?$DO?$AAx?$AA?5?$AA?$DM?$AA?$DN?$AA?5?$AAx?$AA0@ 100bc438     imgui_draw.obj
 0002:0000a458       ??_C@_1CG@BDIGDJGP@?$AAn?$AAo?$AAd?$AAe?$AA?9?$AA?$DO?$AAn?$AAe?$AAx?$AAt?$AA?9?$AA?$DO?$AAx?$AA?5?$AA?$DO@ 100bc458     imgui_draw.obj
 0002:0000a480       ??_C@_1BM@JHJLEEND@?$AAn?$AAo?$AAd?$AAe?$AA?9?$AA?$DO?$AAx?$AA?5?$AA?$DM?$AA?$DN?$AA?5?$AAx?$AA0@ 100bc480     imgui_draw.obj
 0002:0000a49c       ??_C@_1CM@LEHAODMI@?$AAw?$AAi?$AAd?$AAt?$AAh?$AA?5?$AA?$CF?$AA?5?$AAc?$AA?9?$AA?$DO?$AAa?$AAl?$AAi?$AAg@ 100bc49c     imgui_draw.obj
 0002:0000a4c8       ??_C@_1BE@MNLKNDNL@?$AAx?$AAp?$AAo?$AAs?$AA?5?$AA?$DO?$AA?$DN?$AA?5?$AA0@ 100bc4c8     imgui_draw.obj
 0002:0000a4e0       ??_C@_1FA@GPDJEJHP@?$AAn?$AAo?$AAd?$AAe?$AA?9?$AA?$DO?$AAn?$AAe?$AAx?$AAt?$AA?9?$AA?$DO?$AAx?$AA?5?$AA?$DO@ 100bc4e0     imgui_draw.obj
 0002:0000a530       ??_C@_1JK@LGAGLLPA@?$AAc?$AA?3?$AA?2?$AAu?$AAs?$AAe?$AAr?$AAs?$AA?2?$AAa?$AAd?$AAm?$AAi?$AAn?$AAi@ 100bc530     imgui_draw.obj
 0002:0000a5cc       ??_C@_1DA@CPAEOPEI@?$AA?$CB?$AA?$CI?$AAo?$AA?5?$AA?$DO?$AA?5?$AAb?$AA?9?$AA?$DO?$AAs?$AAi?$AAz?$AAe?$AA?5?$AA?$HM@ 100bc5cc     imgui_draw.obj
 0002:0000a5fc       ??_C@_1CC@OMFGMKMB@?$AAn?$AA?5?$AA?$DO?$AA?$DN?$AA?5?$AA1?$AA?5?$AA?$CG?$AA?$CG?$AA?5?$AAn?$AA?5?$AA?$DM?$AA?$DN?$AA?5@ 100bc5fc     imgui_draw.obj
 0002:0000a620       ??_C@_1CE@EPOLDKHI@?$AAs?$AAi?$AAz?$AAe?$AA?5?$AA?$DM?$AA?5?$AA0?$AAx?$AA4?$AA0?$AA0?$AA0?$AA0?$AA0@ 100bc620     imgui_draw.obj
 0002:0000a644       ??_C@_1DK@IJDIOPHB@?$AAo?$AAf?$AAf?$AAs?$AAi?$AAz?$AAe?$AA?5?$AA?$DO?$AA?$DN?$AA?5?$AA1?$AA?5?$AA?$CG?$AA?$CG@ 100bc644     imgui_draw.obj
 0002:0000a680       ??_C@_1BC@KDMJFGHG@?$AAb?$AA0?$AA?5?$AA?$DO?$AA?$DN?$AA?5?$AA2?$AA8@ 100bc680     imgui_draw.obj
 0002:0000a694       ??_C@_1CI@PFMEGAIA@?$AAi?$AA?5?$AA?$DO?$AA?$DN?$AA?5?$AA0?$AA?5?$AA?$CG?$AA?$CG?$AA?5?$AAi?$AA?5?$AA?$DM?$AA?5?$AAc@ 100bc694     imgui_draw.obj
 0002:0000a6bc       ??_C@_04EICJPCEA@cmap@     100bc6bc     imgui_draw.obj
 0002:0000a6c4       ??_C@_04DACNFKGE@loca@     100bc6c4     imgui_draw.obj
 0002:0000a6cc       ??_C@_04NEODDMOL@head@     100bc6cc     imgui_draw.obj
 0002:0000a6d4       ??_C@_04LLIHEPK@glyf@      100bc6d4     imgui_draw.obj
 0002:0000a6dc       ??_C@_04FMPHLIKP@hhea@     100bc6dc     imgui_draw.obj
 0002:0000a6e4       ??_C@_04ONMNCIMC@hmtx@     100bc6e4     imgui_draw.obj
 0002:0000a6ec       ??_C@_04HHMMLDJI@kern@     100bc6ec     imgui_draw.obj
 0002:0000a6f4       ??_C@_04PCFDEHHD@GPOS@     100bc6f4     imgui_draw.obj
 0002:0000a6fc       ??_C@_04HJGCPIEK@CFF?5@    100bc6fc     imgui_draw.obj
 0002:0000a704       ??_C@_04KODIGLGG@maxp@     100bc704     imgui_draw.obj
 0002:0000a710       ??_C@_1HA@EBGBJFDE@?$AAu?$AAn?$AAi?$AAc?$AAo?$AAd?$AAe?$AA_?$AAc?$AAo?$AAd?$AAe?$AAp?$AAo?$AAi@ 100bc710     imgui_draw.obj
 0002:0000a780       ??_C@_1CA@MDABGEPC@?$AA?$CB?$AAi?$AAn?$AAf?$AAo?$AA?9?$AA?$DO?$AAc?$AAf?$AAf?$AA?4?$AAs?$AAi?$AAz?$AAe@ 100bc780     imgui_draw.obj
 0002:0000a7a0       ??_C@_1GE@KABFAMEA@?$AAo?$AAu?$AAt?$AAp?$AAu?$AAt?$AA_?$AAc?$AAt?$AAx?$AA?4?$AAn?$AAu?$AAm?$AA_@ 100bc7a0     imgui_draw.obj
 0002:0000a804       ??_C@_1O@EHPNOHML@?$AAz?$AA?5?$AA?$CB?$AA?$DN?$AA?5?$AA0@ 100bc804     imgui_draw.obj
 0002:0000a814       ??_C@_1BA@ENLNFFAM@?$AAy?$AA0?$AA?5?$AA?$DM?$AA?5?$AAy?$AA1@ 100bc814     imgui_draw.obj
 0002:0000a824       ??_C@_1BO@JGPMADBG@?$AAe?$AA?9?$AA?$DO?$AAs?$AAy?$AA?5?$AA?$DM?$AA?$DN?$AA?5?$AAe?$AA?9?$AA?$DO?$AAe?$AAy@ 100bc824     imgui_draw.obj
 0002:0000a844       ??_C@_1BE@DHAKMBPL@?$AAx?$AA1?$AA?5?$AA?$DM?$AA?$DN?$AA?5?$AAx?$AA?$CL?$AA1@ 100bc844     imgui_draw.obj
 0002:0000a858       ??_C@_1BA@FAAMJPKE@?$AAx?$AA1?$AA?5?$AA?$DO?$AA?$DN?$AA?5?$AAx@ 100bc858     imgui_draw.obj
 0002:0000a868       ??_C@_1BA@FEPJEPJJ@?$AAx?$AA1?$AA?5?$AA?$DM?$AA?$DN?$AA?5?$AAx@ 100bc868     imgui_draw.obj
 0002:0000a878       ??_C@_1BE@NGGEAFFG@?$AAx?$AA1?$AA?5?$AA?$DO?$AA?$DN?$AA?5?$AAx?$AA?$CL?$AA1@ 100bc878     imgui_draw.obj
 0002:0000a88c       ??_C@_1CK@NILBPPPH@?$AAx?$AA1?$AA?5?$AA?$DO?$AA?$DN?$AA?5?$AAx?$AA?5?$AA?$CG?$AA?$CG?$AA?5?$AAx?$AA1?$AA?5?$AA?$DM@ 100bc88c     imgui_draw.obj
 0002:0000a8b8       ??_C@_1FK@JPMIPNJF@?$AAx?$AA0?$AA?5?$AA?$DO?$AA?$DN?$AA?5?$AAx?$AA?5?$AA?$CG?$AA?$CG?$AA?5?$AAx?$AA0?$AA?5?$AA?$DM@ 100bc8b8     imgui_draw.obj
 0002:0000a914       ??_C@_1BO@MDBOACOJ@?$AAe?$AA?9?$AA?$DO?$AAe?$AAy?$AA?5?$AA?$DO?$AA?$DN?$AA?5?$AAy?$AA_?$AAt?$AAo?$AAp@ 100bc914     imgui_draw.obj
 0002:0000a938       ??_C@_1EI@KOIFPDFH@?$AAe?$AA?9?$AA?$DO?$AAs?$AAy?$AA?5?$AA?$DM?$AA?$DN?$AA?5?$AAy?$AA_?$AAb?$AAo?$AAt?$AAt@ 100bc938     imgui_draw.obj
 0002:0000a980       ??_C@_1CE@GDDDMDCC@?$AAx?$AA?5?$AA?$DO?$AA?$DN?$AA?5?$AA0?$AA?5?$AA?$CG?$AA?$CG?$AA?5?$AAx?$AA?5?$AA?$DM?$AA?5?$AAl@ 100bc980     imgui_draw.obj
 0002:0000a9a4       ??_C@_1CK@PHOJNIKI@?$AAf?$AAa?$AAb?$AAs?$AAf?$AA?$CI?$AAa?$AAr?$AAe?$AAa?$AA?$CJ?$AA?5?$AA?$DM?$AA?$DN?$AA?5@ 100bc9a4     imgui_draw.obj
 0002:0000a9d0       ??_C@_1BK@LMAHJHLI@?$AAz?$AA?9?$AA?$DO?$AAd?$AAi?$AAr?$AAe?$AAc?$AAt?$AAi?$AAo?$AAn@ 100bc9d0     imgui_draw.obj
 0002:0000a9ec       ??_C@_1CI@PMJHELI@?$AAz?$AA?9?$AA?$DO?$AAe?$AAy?$AA?5?$AA?$DO?$AA?$DN?$AA?5?$AAs?$AAc?$AAa?$AAn?$AA_?$AAy@ 100bc9ec     imgui_draw.obj
 0002:0000aa14       ??_C@_1BO@BDJAMAMF@?$AAp?$AAi?$AAx?$AAe?$AAl?$AAs?$AA?$FL?$AAi?$AA?$FN?$AA?5?$AA?$DN?$AA?$DN?$AA?5?$AA0@ 100bca14     imgui_draw.obj
 0002:0000aa34       ??_C@_1DO@LAPBLJ@?$AAp?$AAi?$AAx?$AAe?$AAl?$AAs?$AA?$FL?$AAi?$AA?$CK?$AAs?$AAt?$AAr?$AAi?$AAd?$AAe@ 100bca34     imgui_draw.obj
 0002:0000aa78       ??_C@_1JG@HKELKMMH@?$AAc?$AA?3?$AA?2?$AAu?$AAs?$AAe?$AAr?$AAs?$AA?2?$AAa?$AAd?$AAm?$AAi?$AAn?$AAi@ 100bca78     imgui_draw.obj
 0002:0000ab10       ??_C@_1CC@JCMOPDC@?$AAm?$AAa?$AAx?$AA_?$AAe?$AAr?$AAr?$AAo?$AAr?$AA?5?$AA?$DO?$AA?5?$AA0?$AA?4?$AA0@ 100bcb10     imgui_draw.obj
 0002:0000ab38       ??_C@_1LC@MAEAJCLC@?$AAd?$AAr?$AAa?$AAw?$AA_?$AAc?$AAm?$AAd?$AA?4?$AAC?$AAl?$AAi?$AAp?$AAR?$AAe@ 100bcb38     imgui_draw.obj
 0002:0000abec       ??_C@_1DI@FGNNAPCK@?$AAc?$AAu?$AAr?$AAr?$AA_?$AAc?$AAm?$AAd?$AA?9?$AA?$DO?$AAU?$AAs?$AAe?$AAr?$AAC@ 100bcbec     imgui_draw.obj
 0002:0000ac24       ??_C@_1DK@OKKGHLND@?$AAa?$AA_?$AAm?$AAi?$AAn?$AA_?$AAs?$AAa?$AAm?$AAp?$AAl?$AAe?$AA?5?$AA?$DM?$AA?$DN@ 100bcc24     imgui_draw.obj
 0002:0000ac60       ??_C@_1BO@JBJNFJO@?$AAa?$AA_?$AAm?$AAi?$AAn?$AA?5?$AA?$DM?$AA?$DN?$AA?5?$AAa?$AA_?$AAm?$AAa?$AAx@ 100bcc60     imgui_draw.obj
 0002:0000ac80       ??_C@_1DG@IBKEFBBG@?$AAa?$AA_?$AAm?$AAi?$AAn?$AA_?$AAo?$AAf?$AA_?$AA1?$AA2?$AA?5?$AA?$DM?$AA?$DN?$AA?5@ 100bcc80     imgui_draw.obj
 0002:0000acb8       ??_C@_1JM@GAJOFMMN@?$AA?$CI?$AAf?$AAl?$AAa?$AAg?$AAs?$AA?5?$AA?$CG?$AA?5?$AA0?$AAx?$AA0?$AAF?$AA?$CJ?$AA?5@ 100bccb8     imgui_draw.obj
 0002:0000ad58       ??_C@_1GI@CIGOLMNM@?$AAf?$AAo?$AAn?$AAt?$AA?9?$AA?$DO?$AAC?$AAo?$AAn?$AAt?$AAa?$AAi?$AAn?$AAe?$AAr@ 100bcd58     imgui_draw.obj
 0002:0000adc0       ??_C@_1DC@ILGGLBID@?$AAi?$AAd?$AAx?$AA?5?$AA?$DO?$AA?$DN?$AA?5?$AA0?$AA?5?$AA?$CG?$AA?$CG?$AA?5?$AAi?$AAd?$AAx@ 100bcdc0     imgui_draw.obj
 0002:0000adf8       ??_C@_1LE@PGHOGCJ@?$AA?$CB?$AAL?$AAo?$AAc?$AAk?$AAe?$AAd?$AA?5?$AA?$CG?$AA?$CG?$AA?5?$AA?$CC?$AAC?$AAa?$AAn@ 100bcdf8     imgui_draw.obj
 0002:0000aeb0       ??_C@_1GM@FAHJAOLI@?$AAf?$AAo?$AAn?$AAt?$AA_?$AAc?$AAf?$AAg?$AA?9?$AA?$DO?$AAF?$AAo?$AAn?$AAt?$AAD@ 100bceb0     imgui_draw.obj
 0002:0000af1c       ??_C@_1DI@LEOIHPJH@?$AAf?$AAo?$AAn?$AAt?$AA_?$AAc?$AAf?$AAg?$AA?9?$AA?$DO?$AAS?$AAi?$AAz?$AAe?$AAP@ 100bcf1c     imgui_draw.obj
 0002:0000af58       ??_C@_1HI@KOOOLAEJ@?$AA?$CB?$AAF?$AAo?$AAn?$AAt?$AAs?$AA?4?$AAe?$AAm?$AAp?$AAt?$AAy?$AA?$CI?$AA?$CJ?$AA?5@ 100bcf58     imgui_draw.obj
 0002:0000afd0       ??_C@_0BG@CONABPA@ProggyClean?4ttf?0?5?$CFdpx@ 100bcfd0     imgui_draw.obj
 0002:0000afe8       ??_C@_1EG@KCPDJPKE@?$AA?$CI?$AA0?$AA?$CJ?$AA?5?$AA?$CG?$AA?$CG?$AA?5?$AA?$CC?$AAC?$AAo?$AAu?$AAl?$AAd?$AA?5?$AAn@ 100bcfe8     imgui_draw.obj
 0002:0000b030       ??_C@_0L@EPCGLJHG@?$CFs?0?5?$CF?40fpx@ 100bd030     imgui_draw.obj
 0002:0000b03c       ??_C@_1CO@ODFMNMML@?$AAf?$AAo?$AAn?$AAt?$AA_?$AAc?$AAf?$AAg?$AA?4?$AAF?$AAo?$AAn?$AAt?$AAD?$AAa@ 100bd03c     imgui_draw.obj
 0002:0000b06c       ??_C@_1DM@CMBJAGBP@?$AAT?$AAe?$AAx?$AAW?$AAi?$AAd?$AAt?$AAh?$AA?5?$AA?$DO?$AA?5?$AA0?$AA?5?$AA?$CG?$AA?$CG@ 100bd06c     imgui_draw.obj
 0002:0000b0a8       ??_C@_1CC@DEJIAPCP@?$AAr?$AAe?$AAc?$AAt?$AA?9?$AA?$DO?$AAI?$AAs?$AAP?$AAa?$AAc?$AAk?$AAe?$AAd?$AA?$CI@ 100bd0a8     imgui_draw.obj
 0002:0000b0cc       ??_C@_1DC@JHOLDEIK@?$AAP?$AAa?$AAc?$AAk?$AAI?$AAd?$AAM?$AAo?$AAu?$AAs?$AAe?$AAC?$AAu?$AAr?$AAs@ 100bd0cc     imgui_draw.obj
 0002:0000b100       ??_C@_1DG@BBHAKCJP@?$AAa?$AAt?$AAl?$AAa?$AAs?$AA?9?$AA?$DO?$AAC?$AAo?$AAn?$AAf?$AAi?$AAg?$AAD?$AAa@ 100bd100     imgui_draw.obj
 0002:0000b138       ??_C@_1KE@NPGLPIC@?$AAc?$AAf?$AAg?$AA?4?$AAD?$AAs?$AAt?$AAF?$AAo?$AAn?$AAt?$AA?5?$AA?$CG?$AA?$CG?$AA?5@ 100bd138     imgui_draw.obj
 0002:0000b1dc       ??_C@_1CO@NKKOCLPN@?$AAs?$AAr?$AAc?$AA_?$AAt?$AAm?$AAp?$AA?4?$AAD?$AAs?$AAt?$AAI?$AAn?$AAd?$AAe@ 100bd1dc     imgui_draw.obj
 0002:0000b210       ??_C@_1JA@MENENCJI@?$AAf?$AAo?$AAn?$AAt?$AA_?$AAo?$AAf?$AAf?$AAs?$AAe?$AAt?$AA?5?$AA?$DO?$AA?$DN?$AA?5@ 100bd210     imgui_draw.obj
 0002:0000b2a0       ??_C@_1FO@GJGKHCEN@?$AAs?$AAr?$AAc?$AA_?$AAt?$AAm?$AAp?$AA?4?$AAG?$AAl?$AAy?$AAp?$AAh?$AAs?$AAL@ 100bd2a0     imgui_draw.obj
 0002:0000b300       ??_C@_1DC@ENBGOGEF@?$AAg?$AAl?$AAy?$AAp?$AAh?$AA_?$AAi?$AAn?$AAd?$AAe?$AAx?$AA_?$AAi?$AAn?$AA_@ 100bd300     imgui_draw.obj
 0002:0000b334       ??_C@_1CE@FMMHMDCM@?$AAp?$AAa?$AAc?$AAk?$AA_?$AAc?$AAo?$AAn?$AAt?$AAe?$AAx?$AAt?$AA?5?$AA?$CB?$AA?$DN@ 100bd334     imgui_draw.obj
 0002:0000b358       ??_C@_1CK@POMOOFJC@?$AAu?$AAs?$AAe?$AAr?$AA_?$AAr?$AAe?$AAc?$AAt?$AAs?$AA?4?$AAS?$AAi?$AAz?$AAe@ 100bd358     imgui_draw.obj
 0002:0000b388       ??_C@_1KE@CBAIECN@?$AAp?$AAa?$AAc?$AAk?$AA_?$AAr?$AAe?$AAc?$AAt?$AAs?$AA?$FL?$AAi?$AA?$FN?$AA?4?$AAw@ 100bd388     imgui_draw.obj
 0002:0000b430       ??_C@_1EG@KOLNNAOF@?$AAx?$AA?5?$AA?$DO?$AA?$DN?$AA?5?$AA0?$AA?5?$AA?$CG?$AA?$CG?$AA?5?$AAx?$AA?5?$AA?$CL?$AA?5?$AAw@ 100bd430     imgui_draw.obj
 0002:0000b478       ??_C@_1EI@CHFOHLGN@?$AAy?$AA?5?$AA?$DO?$AA?$DN?$AA?5?$AA0?$AA?5?$AA?$CG?$AA?$CG?$AA?5?$AAy?$AA?5?$AA?$CL?$AA?5?$AAh@ 100bd478     imgui_draw.obj
 0002:0000b4c0       ??_C@_1BM@DDBMCGAE@?$AAr?$AA?9?$AA?$DO?$AAI?$AAs?$AAP?$AAa?$AAc?$AAk?$AAe?$AAd?$AA?$CI?$AA?$CJ@ 100bd4c0     imgui_draw.obj
 0002:0000b4e0       ??_C@_1MA@PDHEAINP@?$AAr?$AA?9?$AA?$DO?$AAW?$AAi?$AAd?$AAt?$AAh?$AA?5?$AA?$DN?$AA?$DN?$AA?5?$AAF?$AAO?$AAN@ 100bd4e0     imgui_draw.obj
 0002:0000b5a0       ??_C@_1EA@DBHHBIED@?$AAr?$AA?9?$AA?$DO?$AAW?$AAi?$AAd?$AAt?$AAh?$AA?5?$AA?$DN?$AA?$DN?$AA?5?$AA2?$AA?5?$AA?$CG@ 100bd5a0     imgui_draw.obj
 0002:0000b5e0       ??_C@_1HO@DLMJCKJA@?$AAp?$AAa?$AAd?$AA_?$AAl?$AAe?$AAf?$AAt?$AA?5?$AA?$CL?$AA?5?$AAl?$AAi?$AAn?$AAe@ 100bd5e0     imgui_draw.obj
 0002:0000b660       ??_C@_1HG@JLCPLJIF@?$AAa?$AAt?$AAl?$AAa?$AAs?$AA?9?$AA?$DO?$AAT?$AAe?$AAx?$AAP?$AAi?$AAx?$AAe?$AAl@ 100bd660     imgui_draw.obj
 0002:0000b6d8       ??_C@_1EC@BJJINGAO@?$AAr?$AA?9?$AA?$DO?$AAF?$AAo?$AAn?$AAt?$AA?9?$AA?$DO?$AAC?$AAo?$AAn?$AAt?$AAa?$AAi@ 100bd6d8     imgui_draw.obj
 0002:0000ce98       ??_C@_1CK@FHBHHKB@?$AAG?$AAl?$AAy?$AAp?$AAh?$AAs?$AA?4?$AAS?$AAi?$AAz?$AAe?$AA?5?$AA?$DM?$AA?5?$AA0@ 100bee98     imgui_draw.obj
 0002:0000cec8       ??_C@_1EO@HLFAHELG@?$AAI?$AAn?$AAd?$AAe?$AAx?$AAA?$AAd?$AAv?$AAa?$AAn?$AAc?$AAe?$AAX?$AA?4?$AAS@ 100beec8     imgui_draw.obj
 0002:0000cf18       ??_C@_1JM@LKKCKIOL@?$AAm?$AAo?$AAu?$AAs?$AAe?$AA_?$AAc?$AAu?$AAr?$AAs?$AAo?$AAr?$AA?5?$AA?$DO?$AA?5@ 100bef18     imgui_draw.obj
 0002:0000cfb8       ??_C@_1FC@IADGHEAH@?$AAs?$AAt?$AAb?$AA_?$AA_?$AAd?$AAo?$AAu?$AAt?$AA?5?$AA?$CL?$AA?5?$AAl?$AAe?$AAn@ 100befb8     imgui_draw.obj
 0002:0000d00c       ??_C@_1DG@GCANDLHA@?$AAs?$AAt?$AAb?$AA_?$AA_?$AAd?$AAo?$AAu?$AAt?$AA?5?$AA?$DN?$AA?$DN?$AA?5?$AAo?$AAu@ 100bf00c     imgui_draw.obj
 0002:0000d044       ??_C@_1DG@EGIPGKEG@?$AAs?$AAt?$AAb?$AA_?$AA_?$AAd?$AAo?$AAu?$AAt?$AA?5?$AA?$DM?$AA?$DN?$AA?5?$AAo?$AAu@ 100bf044     imgui_draw.obj
 0002:0000d07c       __real@37800000            100bf07c     imgui_draw.obj
 0002:0000d080       __real@38800000            100bf080     imgui_draw.obj
 0002:0000d084       __real@3eb33333            100bf084     imgui_draw.obj
 0002:0000d088       __real@3efae148            100bf088     imgui_draw.obj
 0002:0000d08c       __real@3f5db22d            100bf08c     imgui_draw.obj
 0002:0000d090       __real@3f7fffef            100bf090     imgui_draw.obj
 0002:0000d094       __real@3f8147ae            100bf094     imgui_draw.obj
 0002:0000d098       __real@3fb0c15240000000    100bf098     imgui_draw.obj
 0002:0000d0a0       __real@40490fdb            100bf0a0     imgui_draw.obj
 0002:0000d0a4       __real@40c90fdb            100bf0a4     imgui_draw.obj
 0002:0000d0a8       __real@41500000            100bf0a8     imgui_draw.obj
 0002:0000d0ac       __real@42400000            100bf0ac     imgui_draw.obj
 0002:0000d0b0       __real@42da0000            100bf0b0     imgui_draw.obj
 0002:0000d0b4       __real@44333333            100bf0b4     imgui_draw.obj
 0002:0000d0b8       __real@44b33333            100bf0b8     imgui_draw.obj
 0002:0000d0bc       __real@45333333            100bf0bc     imgui_draw.obj
 0002:0000d0c0       __real@bf400000            100bf0c0     imgui_draw.obj
 0002:0000d0c4       __real@bf5db22d            100bf0c4     imgui_draw.obj
 0002:0000d0d0       __xmm@000000003f8000000000000000000000 100bf0d0     imgui_draw.obj
 0002:0000d0e0       __xmm@00000003000000020000000100000000 100bf0e0     imgui_draw.obj
 0002:0000d0f0       __xmm@00000008000000080000000800000008 100bf0f0     imgui_draw.obj
 0002:0000d100       __xmm@3d75c28f3f8000003f8000003f800000 100bf100     imgui_draw.obj
 0002:0000d110       __xmm@3e4ccccd3f4ccccd3f4ccccd3f4ccccd 100bf110     imgui_draw.obj
 0002:0000d120       __xmm@3e4ccccd3f7ae1483f170a3d3e851eb8 100bf120     imgui_draw.obj
 0002:0000d130       __xmm@3e9eb8523f7ae1483f170a3d3e851eb8 100bf130     imgui_draw.obj
 0002:0000d140       __xmm@3eb333333f4ccccd3f4ccccd3f4ccccd 100bf140     imgui_draw.obj
 0002:0000d150       __xmm@3eb333333f7ae1483f170a3d3e851eb8 100bf150     imgui_draw.obj
 0002:0000d160       __xmm@3ecccccd3f7ae1483f170a3d3e851eb8 100bf160     imgui_draw.obj
 0002:0000d170       __xmm@3f0000003f0000003edc28f63edc28f6 100bf170     imgui_draw.obj
 0002:0000d180       __xmm@3f028f5c000000000000000000000000 100bf180     imgui_draw.obj
 0002:0000d190       __xmm@3f07ae143ca3d70a3ca3d70a3ca3d70a 100bf190     imgui_draw.obj
 0002:0000d1a0       __xmm@3f0a3d713ef5c28f3e947ae13e23d70a 100bf1a0     imgui_draw.obj
 0002:0000d1b0       __xmm@3f2b851f3f7ae1483f170a3d3e851eb8 100bf1b0     imgui_draw.obj
 0002:0000d1c0       __xmm@3f3333333f8000003f8000003f800000 100bf1c0     imgui_draw.obj
 0002:0000d1d0       __xmm@3f47ae143f4000003ecccccd3dcccccd 100bf1d0     imgui_draw.obj
 0002:0000d1e0       __xmm@3f4ccccd3f7ae1483f170a3d3e851eb8 100bf1e0     imgui_draw.obj
 0002:0000d1f0       __xmm@3f666666000000003f8000003f800000 100bf1f0     imgui_draw.obj
 0002:0000d200       __xmm@3f70a3d73d75c28f3d75c28f3d75c28f 100bf200     imgui_draw.obj
 0002:0000d210       __xmm@3f70a3d73da3d70a3da3d70a3da3d70a 100bf210     imgui_draw.obj
 0002:0000d220       __xmm@3f7333333f7ae1483f170a3d3e851eb8 100bf220     imgui_draw.obj
 0002:0000d230       __xmm@3f800000000000003f19999a3f800000 100bf230     imgui_draw.obj
 0002:0000d240       __xmm@3f800000000000003f3333333f666666 100bf240     imgui_draw.obj
 0002:0000d250       __xmm@3f8000003d23d70a3d23d70a3d23d70a 100bf250     imgui_draw.obj
 0002:0000d260       __xmm@3f8000003e0f5c293e0f5c293e0f5c29 100bf260     imgui_draw.obj
 0002:0000d270       __xmm@3f8000003e4ccccd3e428f5c3e428f5c 100bf270     imgui_draw.obj
 0002:0000d280       __xmm@3f8000003e8000003e6b851f3e6b851f 100bf280     imgui_draw.obj
 0002:0000d290       __xmm@3f8000003e9eb8523e9eb8523e9eb852 100bf290     imgui_draw.obj
 0002:0000d2a0       __xmm@3f8000003eb333333e9eb8523e9eb852 100bf2a0     imgui_draw.obj
 0002:0000d2b0       __xmm@3f8000003eb333333edc28f63f800000 100bf2b0     imgui_draw.obj
 0002:0000d2c0       __xmm@3f8000003ed1eb853ed1eb853ed1eb85 100bf2c0     imgui_draw.obj
 0002:0000d2d0       __xmm@3f8000003ef5c28f3e947ae13e23d70a 100bf2d0     imgui_draw.obj
 0002:0000d2e0       __xmm@3f8000003f0000003f0000003f000000 100bf2e0     imgui_draw.obj
 0002:0000d2f0       __xmm@3f8000003f028f5c3f028f5c3f028f5c 100bf2f0     imgui_draw.obj
 0002:0000d300       __xmm@3f8000003f1c28f63f1c28f63f1c28f6 100bf300     imgui_draw.obj
 0002:0000d310       __xmm@3f8000003f4000003ecccccd3dcccccd 100bf310     imgui_draw.obj
 0002:0000d320       __xmm@3f8000003f6147ae3f051eb83e75c28f 100bf320     imgui_draw.obj
 0002:0000d330       __xmm@3f8000003f7ae1483f07ae143d75c28f 100bf330     imgui_draw.obj
 0002:0000d340       __xmm@3f8000003f7ae1483f170a3d3e851eb8 100bf340     imgui_draw.obj
 0002:0000d350       ??_C@_0P@PJLJBPPP@imgui_impl_dx9@ 100bf350     imgui_impl_dx9.obj
 0002:0000d360       __xmm@0000000000000000000000003f800000 100bf360     imgui_impl_dx9.obj
 0002:0000d370       __xmm@00000000000000003f80000000000000 100bf370     imgui_impl_dx9.obj
 0002:0000d380       ??_C@_0BB@FLGJPPJK@imgui_impl_win32@ 100bf380     imgui_impl_win32.obj
 0002:0000d394       ??_C@_0O@LNFLKCMF@xinput1_4?4dll@ 100bf394     imgui_impl_win32.obj
 0002:0000d3a4       ??_C@_0O@KAFOJCHN@xinput1_3?4dll@ 100bf3a4     imgui_impl_win32.obj
 0002:0000d3b4       ??_C@_0BA@GHGALGFD@xinput9_1_0?4dll@ 100bf3b4     imgui_impl_win32.obj
 0002:0000d3c4       ??_C@_0O@GLACEBNI@xinput1_2?4dll@ 100bf3c4     imgui_impl_win32.obj
 0002:0000d3d4       ??_C@_0O@ONJGDDHG@xinput1_1?4dll@ 100bf3d4     imgui_impl_win32.obj
 0002:0000d3e4       ??_C@_0BG@ELBNFOBA@XInputGetCapabilities@ 100bf3e4     imgui_impl_win32.obj
 0002:0000d3fc       ??_C@_0P@FCCEJHCC@XInputGetState@ 100bf3fc     imgui_impl_win32.obj
 0002:0000d410       ??_C@_1KC@IBLPKDKB@?$AAc?$AA?3?$AA?2?$AAu?$AAs?$AAe?$AAr?$AAs?$AA?2?$AAa?$AAd?$AAm?$AAi?$AAn?$AAi@ 100bf410     imgui_impl_win32.obj
 0002:0000d4b4       ??_C@_1BI@BAIDAECB@?$AAg?$AA_?$AAh?$AAW?$AAn?$AAd?$AA?5?$AA?$CB?$AA?$DN?$AA?5?$AA0@ 100bf4b4     imgui_impl_win32.obj
 0002:0000d4d0       ??_C@_1BGA@FDDGCGIF@?$AAi?$AAo?$AA?4?$AAF?$AAo?$AAn?$AAt?$AAs?$AA?9?$AA?$DO?$AAI?$AAs?$AAB?$AAu?$AAi@ 100bf4d0     imgui_impl_win32.obj
 0002:0000d630       __real@46c2ac00            100bf630     imgui_impl_win32.obj
 0002:0000d634       __real@c6c2ac00            100bf634     imgui_impl_win32.obj
 0002:0000d638       __real@c6c2ae00            100bf638     imgui_impl_win32.obj
 0002:0000d640       ??_C@_1JK@BPCKBEDG@?$AAc?$AA?3?$AA?2?$AAu?$AAs?$AAe?$AAr?$AAs?$AA?2?$AAa?$AAd?$AAm?$AAi?$AAn?$AAi@ 100bf640     imgui_tables.obj
 0002:0000d6dc       ??_C@_01DNKMNLPK@?$HM@     100bf6dc     imgui_tables.obj
 0002:0000d6e0       ??_C@_09BDLBIGPI@0x?$CF08X?0?$CFd@ 100bf6e0     imgui_tables.obj
 0002:0000d6ec       ??_C@_0M@LAOOHBLO@RefScale?$DN?$CFf@ 100bf6ec     imgui_tables.obj
 0002:0000d6f8       ??_C@_0M@JOECNJOM@Column?5?$CFd?$CFn@ 100bf6f8     imgui_tables.obj
 0002:0000d704       ??_C@_0BA@KAIOJKEL@UserID?$DN0x?$CF08X?$CFn@ 100bf704     imgui_tables.obj
 0002:0000d714       ??_C@_0L@LJLKPCDP@Width?$DN?$CFd?$CFn@ 100bf714     imgui_tables.obj
 0002:0000d720       ??_C@_0M@IJODOCHC@Weight?$DN?$CFf?$CFn@ 100bf720     imgui_tables.obj
 0002:0000d72c       ??_C@_0N@EKALHFOF@Visible?$DN?$CFd?$CFn@ 100bf72c     imgui_tables.obj
 0002:0000d73c       ??_C@_0L@BHOFPJL@Order?$DN?$CFd?$CFn@ 100bf73c     imgui_tables.obj
 0002:0000d748       ??_C@_0M@KGHCDDIO@Sort?$DN?$CFd?$CFc?$CFn@ 100bf748     imgui_tables.obj
 0002:0000d754       ??_C@_0BB@PGHPBJD@?$FL?$CFs?$FN?$FL0x?$CF08X?0?$CFd?$FN?6@ 100bf754     imgui_tables.obj
 0002:0000d768       ??_C@_0N@NHEEPCEH@RefScale?$DN?$CFg?6@ 100bf768     imgui_tables.obj
 0002:0000d778       ??_C@_0M@JLNIJDCE@Column?5?$CF?92d@ 100bf778     imgui_tables.obj
 0002:0000d784       ??_C@_0N@PGBEGIHP@?5UserID?$DN?$CF08X@ 100bf784     imgui_tables.obj
 0002:0000d794       ??_C@_0N@MFKBBKPH@?5Weight?$DN?$CF?44f@ 100bf794     imgui_tables.obj
 0002:0000d7a4       ??_C@_09PBOBBCAP@?5Width?$DN?$CFd@ 100bf7a4     imgui_tables.obj
 0002:0000d7b0       ??_C@_0M@CIPDPODB@?5Visible?$DN?$CFd@ 100bf7b0     imgui_tables.obj
 0002:0000d7bc       ??_C@_09CFPCIBAG@?5Order?$DN?$CFd@ 100bf7bc     imgui_tables.obj
 0002:0000d7c8       ??_C@_0L@EAJILIBD@?5Sort?$DN?$CFd?$CFc@ 100bf7c8     imgui_tables.obj
 0002:0000d7d8       ??_C@_1EA@HDPGNILG@?$AAt?$AAa?$AAb?$AAl?$AAe?$AA?9?$AA?$DO?$AAM?$AAe?$AAm?$AAo?$AAr?$AAy?$AAC?$AAo@ 100bf7d8     imgui_tables.obj
 0002:0000d818       ??_C@_1CC@HNMGCLDB@?$AAc?$AAo?$AAl?$AAu?$AAm?$AAn?$AA_?$AAi?$AAn?$AAd?$AAe?$AAx?$AA?5?$AA?$DO?$AA?5@ 100bf818     imgui_tables.obj
 0002:0000d840       ??_C@_1GE@CFLLPKGA@?$AAg?$AA?4?$AAA?$AAc?$AAt?$AAi?$AAv?$AAe?$AAI?$AAd?$AA?5?$AA?$DN?$AA?$DN?$AA?5?$AAc@ 100bf840     imgui_tables.obj
 0002:0000d8a8       ??_C@_1EK@FCGFMMCK@?$AAc?$AAo?$AAl?$AAu?$AAm?$AAn?$AA_?$AAi?$AAn?$AAd?$AAe?$AAx?$AA?5?$AA?$DM?$AA?5@ 100bf8a8     imgui_tables.obj
 0002:0000d8f4       ??_C@_1BK@FLGDBJKG@?$AAc?$AAo?$AAl?$AAu?$AAm?$AAn?$AAs?$AA?5?$AA?$CB?$AA?$DN?$AA?5?$AA0@ 100bf8f4     imgui_tables.obj
 0002:0000d910       ??_C@_1FC@BIEMKEOL@?$AAp?$AA?5?$AA?$DO?$AA?$DN?$AA?5?$AAB?$AAu?$AAf?$AA?4?$AAD?$AAa?$AAt?$AAa?$AA?5?$AA?$CG@ 100bf910     imgui_tables.obj
 0002:0000da08       ??_C@_02HJNLAKPP@S8@       100bfa08     imgui_widgets.obj
 0002:0000da0c       ??_C@_02HNFGHGEN@U8@       100bfa0c     imgui_widgets.obj
 0002:0000da10       ??_C@_03KLLGJOHN@S16@      100bfa10     imgui_widgets.obj
 0002:0000da14       ??_C@_03IONNMBKB@U16@      100bfa14     imgui_widgets.obj
 0002:0000da18       ??_C@_03MMFOIPBH@S32@      100bfa18     imgui_widgets.obj
 0002:0000da1c       ??_C@_03OJDFNAML@U32@      100bfa1c     imgui_widgets.obj
 0002:0000da20       ??_C@_03JMMPOKHK@S64@      100bfa20     imgui_widgets.obj
 0002:0000da24       ??_C@_03LJKELFKG@U64@      100bfa24     imgui_widgets.obj
 0002:0000da28       ??_C@_05OINFJHGD@?$CFI64u@ 100bfa28     imgui_widgets.obj
 0002:0000da30       ??_C@_05KNFBNCOH@float@    100bfa30     imgui_widgets.obj
 0002:0000da38       ??_C@_06BNJCAIGJ@double@   100bfa38     imgui_widgets.obj
 0002:0000da40       ??_C@_03DLDNIBIK@?$CFlf@   100bfa40     imgui_widgets.obj
 0002:0000da48       ??_C@_1JM@DODJNANH@?$AAc?$AA?3?$AA?2?$AAu?$AAs?$AAe?$AAr?$AAs?$AA?2?$AAa?$AAd?$AAm?$AAi?$AAn?$AAi@ 100bfa48     imgui_widgets.obj
 0002:0000dae4       ??_C@_1BE@HMGDGFIB@?$AAt?$AAe?$AAx?$AAt?$AA?5?$AA?$CB?$AA?$DN?$AA?5?$AA0@ 100bfae4     imgui_widgets.obj
 0002:0000daf8       ??_C@_1HG@LHACLJHI@?$AAm?$AAo?$AAu?$AAs?$AAe?$AA_?$AAb?$AAu?$AAt?$AAt?$AAo?$AAn?$AA?5?$AA?$DO?$AA?$DN@ 100bfaf8     imgui_widgets.obj
 0002:0000db70       ??_C@_1FC@KJEAANOI@?$AAs?$AAi?$AAz?$AAe?$AA_?$AAa?$AAr?$AAg?$AA?4?$AAx?$AA?5?$AA?$CB?$AA?$DN?$AA?5?$AA0@ 100bfb70     imgui_widgets.obj
 0002:0000dbc4       ??_C@_08ENAFOMOP@?$CDSCROLLX@ 100bfbc4     imgui_widgets.obj
 0002:0000dbd0       ??_C@_08FEBONNKO@?$CDSCROLLY@ 100bfbd0     imgui_widgets.obj
 0002:0000dbdc       ??_C@_1CM@GFPJIOBE@?$AAs?$AAc?$AAr?$AAo?$AAl?$AAl?$AAb?$AAa?$AAr?$AA_?$AAs?$AAi?$AAz?$AAe?$AA?5@ 100bfbdc     imgui_widgets.obj
 0002:0000dc08       ??_C@_1FI@OFJDJLOI@?$AAI?$AAm?$AAM?$AAa?$AAx?$AA?$CI?$AAs?$AAi?$AAz?$AAe?$AA_?$AAc?$AAo?$AAn?$AAt@ 100bfc08     imgui_widgets.obj
 0002:0000dc60       ??_C@_03JDMNMOAD@?$FL?$HO?$FN@ 100bfc60     imgui_widgets.obj
 0002:0000dc64       ??_C@_03JHEALCLB@?$FLx?$FN@ 100bfc64     imgui_widgets.obj
 0002:0000dc68       ??_C@_03PFOPMNLJ@?$FL?5?$FN@ 100bfc68     imgui_widgets.obj
 0002:0000dc6c       ??_C@_01CELHOKLL@?$HN@     100bfc6c     imgui_widgets.obj
 0002:0000dc70       ??_C@_01HCONENDN@?$HL@     100bfc70     imgui_widgets.obj
 0002:0000dc74       ??_C@_09JKJEEIJP@?$CF?4?$CKs?$CF?$CFd?$CFs@ 100bfc74     imgui_widgets.obj
 0002:0000dc80       ??_C@_1GE@PMGCKKHF@?$AAd?$AAa?$AAt?$AAa?$AA_?$AAt?$AAy?$AAp?$AAe?$AA?5?$AA?$DO?$AA?$DN?$AA?5?$AA0?$AA?5@ 100bfc80     imgui_widgets.obj
 0002:0000dce8       ??_C@_1FG@FPDFFFKE@?$AA?$CI?$AAs?$AAi?$AAz?$AAe?$AA_?$AAt?$AA?$CJ?$AA?$CI?$AAf?$AAm?$AAt?$AA_?$AAe?$AAn@ 100bfce8     imgui_widgets.obj
 0002:0000dd40       ??_C@_1BLO@DBPGJKEK@?$AA?$CI?$AAf?$AAl?$AAa?$AAg?$AAs?$AA?5?$AA?$DN?$AA?$DN?$AA?5?$AA1?$AA?5?$AA?$HM?$AA?$HM?$AA?5@ 100bfd40     imgui_widgets.obj
 0002:0000df00       ??_C@_1KC@MGDFLCCP@?$AA?$CK?$AA?$CI?$AAc?$AAo?$AAn?$AAs?$AAt?$AA?5?$AAI?$AAm?$AAS?$AA3?$AA2?$AA?$CK?$AA?$CJ@ 100bff00     imgui_widgets.obj
 0002:0000dfa8       ??_C@_1EO@DMFGPFFK@?$AA?$CK?$AA?$CI?$AAc?$AAo?$AAn?$AAs?$AAt?$AA?5?$AAI?$AAm?$AAU?$AA3?$AA2?$AA?$CK?$AA?$CJ@ 100bffa8     imgui_widgets.obj
 0002:0000dff8       ??_C@_1KC@IBFLFJE@?$AA?$CK?$AA?$CI?$AAc?$AAo?$AAn?$AAs?$AAt?$AA?5?$AAI?$AAm?$AAS?$AA6?$AA4?$AA?$CK?$AA?$CJ@ 100bfff8     imgui_widgets.obj
 0002:0000e0a0       ??_C@_1EO@JNOADGHA@?$AA?$CK?$AA?$CI?$AAc?$AAo?$AAn?$AAs?$AAt?$AA?5?$AAI?$AAm?$AAU?$AA6?$AA4?$AA?$CK?$AA?$CJ@ 100c00a0     imgui_widgets.obj
 0002:0000e0f0       ??_C@_1MI@EKJKCIKJ@?$AA?$CK?$AA?$CI?$AAc?$AAo?$AAn?$AAs?$AAt?$AA?5?$AAf?$AAl?$AAo?$AAa?$AAt?$AA?$CK?$AA?$CJ@ 100c00f0     imgui_widgets.obj
 0002:0000e1b8       ??_C@_1OI@EDKIIBCG@?$AA?$CK?$AA?$CI?$AAc?$AAo?$AAn?$AAs?$AAt?$AA?5?$AAd?$AAo?$AAu?$AAb?$AAl?$AAe?$AA?$CK@ 100c01b8     imgui_widgets.obj
 0002:0000e2a0       ??_C@_1CC@LLIJAMKA@?$AAg?$AA?4?$AAA?$AAc?$AAt?$AAi?$AAv?$AAe?$AAI?$AAd?$AA?5?$AA?$DN?$AA?$DN?$AA?5?$AAi@ 100c02a0     imgui_widgets.obj
 0002:0000e2c4       ??_C@_01JOAMLHOP@?9@       100c02c4     imgui_widgets.obj
 0002:0000e2c8       ??_C@_1CA@MNHDBBDP@?$AAp?$AAo?$AAs?$AA?5?$AA?$DM?$AA?$DN?$AA?5?$AAt?$AAe?$AAx?$AAt?$AA_?$AAl?$AAe?$AAn@ 100c02c8     imgui_widgets.obj
 0002:0000e2e8       ??_C@_1DG@IEAPMEMO@?$AAt?$AAe?$AAx?$AAt?$AA_?$AAl?$AAe?$AAn?$AA?5?$AA?$DM?$AA?5?$AAo?$AAb?$AAj?$AA?9@ 100c02e8     imgui_widgets.obj
 0002:0000e320       ??_C@_1JK@OMAHMDN@?$AAc?$AA?3?$AA?2?$AAu?$AAs?$AAe?$AAr?$AAs?$AA?2?$AAa?$AAd?$AAm?$AAi?$AAn?$AAi@ 100c0320     imgui_widgets.obj
 0002:0000e3c0       ??_C@_1HI@OHEJKGLD@?$AA?$CI?$AA?$CI?$AAc?$AAh?$AAa?$AAr?$AA?$CK?$AA?$CJ?$AA?$CI?$AAs?$AAt?$AAa?$AAt?$AAe?$AA?9@ 100c03c0     imgui_widgets.obj
 0002:0000e438       ??_C@_1JE@JEJNCKKO@?$AA?$CI?$AA?$CI?$AAc?$AAh?$AAa?$AAr?$AA?$CK?$AA?$CJ?$AA?$CI?$AAs?$AAt?$AAa?$AAt?$AAe?$AA?9@ 100c0438     imgui_widgets.obj
 0002:0000e4d0       ??_C@_1LA@GNNDJIHJ@?$AAi?$AAn?$AAp?$AAu?$AAt?$AA_?$AAs?$AAo?$AAu?$AAr?$AAc?$AAe?$AA?5?$AA?$DN?$AA?$DN@ 100c04d0     imgui_widgets.obj
 0002:0000e580       ??_C@_1DE@KCJLPEOI@?$AAb?$AAu?$AAf?$AA?5?$AA?$CB?$AA?$DN?$AA?5?$AA0?$AA?5?$AA?$CG?$AA?$CG?$AA?5?$AAb?$AAu?$AAf@ 100c0580     imgui_widgets.obj
 0002:0000e5b8       ??_C@_1LI@BDNHGOFF@?$AA?$CB?$AA?$CI?$AA?$CI?$AAf?$AAl?$AAa?$AAg?$AAs?$AA?5?$AA?$CG?$AA?5?$AAI?$AAm?$AAG?$AAu@ 100c05b8     imgui_widgets.obj
 0002:0000e670       ??_C@_1MG@MGOPIKJM@?$AA?$CB?$AA?$CI?$AA?$CI?$AAf?$AAl?$AAa?$AAg?$AAs?$AA?5?$AA?$CG?$AA?5?$AAI?$AAm?$AAG?$AAu@ 100c0670     imgui_widgets.obj
 0002:0000e738       ??_C@_1BM@CBGPMFEC@?$AAc?$AAa?$AAl?$AAl?$AAb?$AAa?$AAc?$AAk?$AA?5?$AA?$CB?$AA?$DN?$AA?5?$AA0@ 100c0738     imgui_widgets.obj
 0002:0000e754       ??_C@_1DC@CMKEKNGP@?$AAs?$AAt?$AAa?$AAt?$AAe?$AA?5?$AA?$CG?$AA?$CG?$AA?5?$AAs?$AAt?$AAa?$AAt?$AAe?$AA?9@ 100c0754     imgui_widgets.obj
 0002:0000e788       ??_C@_1NI@EFFIGGBI@?$AAp?$AAa?$AAs?$AAs?$AAw?$AAo?$AAr?$AAd?$AA_?$AAf?$AAo?$AAn?$AAt?$AA?9?$AA?$DO@ 100c0788     imgui_widgets.obj
 0002:0000e860       ??_C@_1BG@FOPGMADN@?$AAs?$AAt?$AAa?$AAt?$AAe?$AA?5?$AA?$CB?$AA?$DN?$AA?5?$AA0@ 100c0860     imgui_widgets.obj
 0002:0000e878       ??_C@_1OC@MAFKNLH@?$AAi?$AAo?$AA?4?$AAK?$AAe?$AAy?$AAM?$AAo?$AAd?$AAs?$AA?5?$AA?$DN?$AA?$DN?$AA?5?$AAG@ 100c0878     imgui_widgets.obj
 0002:0000e960       ??_C@_1EO@GEAEFBFI@?$AAc?$AAa?$AAl?$AAl?$AAb?$AAa?$AAc?$AAk?$AA_?$AAd?$AAa?$AAt?$AAa?$AA?4?$AAB@ 100c0960     imgui_widgets.obj
 0002:0000e9b0       ??_C@_1FK@GDPCIOA@?$AAc?$AAa?$AAl?$AAl?$AAb?$AAa?$AAc?$AAk?$AA_?$AAd?$AAa?$AAt?$AAa?$AA?4?$AAB@ 100c09b0     imgui_widgets.obj
 0002:0000ea0c       ??_C@_1DK@HOPDKFNI@?$AAc?$AAa?$AAl?$AAl?$AAb?$AAa?$AAc?$AAk?$AA_?$AAd?$AAa?$AAt?$AAa?$AA?4?$AAF@ 100c0a0c     imgui_widgets.obj
 0002:0000ea48       ??_C@_1HG@EHLBBEIB@?$AAc?$AAa?$AAl?$AAl?$AAb?$AAa?$AAc?$AAk?$AA_?$AAd?$AAa?$AAt?$AAa?$AA?4?$AAB@ 100c0a48     imgui_widgets.obj
 0002:0000eac0       ??_C@_1DG@CHDFECEK@?$AAa?$AAp?$AAp?$AAl?$AAy?$AA_?$AAn?$AAe?$AAw?$AA_?$AAt?$AAe?$AAx?$AAt?$AA_@ 100c0ac0     imgui_widgets.obj
 0002:0000eaf8       ??_C@_1EE@MOOHJKEO@?$AAa?$AAp?$AAp?$AAl?$AAy?$AA_?$AAn?$AAe?$AAw?$AA_?$AAt?$AAe?$AAx?$AAt?$AA_@ 100c0af8     imgui_widgets.obj
 0002:0000eb3c       ??_C@_04LOAJBDKD@true@     100c0b3c     imgui_widgets.obj
 0002:0000eb44       ??_C@_05LAPONLG@false@     100c0b44     imgui_widgets.obj
 0002:0000eb50       ??_C@_1FO@NFEGNMHD@?$AAc?$AAo?$AAu?$AAn?$AAt?$AA?5?$AA?$DN?$AA?$DN?$AA?5?$AA?$CI?$AA?$CI?$AAi?$AAn?$AAt?$AA?$CJ@ 100c0b50     imgui_widgets.obj
 0002:0000ebb0       __real@3f350481            100c0bb0     imgui_widgets.obj
 0002:0000ebb8       __real@3fb99999a0000000    100c0bb8     imgui_widgets.obj
 0002:0000ebc0       __real@3ff3333340000000    100c0bc0     imgui_widgets.obj
 0002:0000ebc8       __real@4059000000000000    100c0bc8     imgui_widgets.obj
 0002:0000ebd0       __real@434d0000            100c0bd0     imgui_widgets.obj
 0002:0000ebd8       __real@43e0000000000000    100c0bd8     imgui_widgets.obj
 0002:0000ebe0       __real@7effffff            100c0be0     imgui_widgets.obj
 0002:0000ebe8       __real@7fdfffffffffffff    100c0be8     imgui_widgets.obj
 0002:0000ebf0       __real@bfe0000000000000    100c0bf0     imgui_widgets.obj
 0002:0000ebf8       __real@c059000000000000    100c0bf8     imgui_widgets.obj
 0002:0000ec00       __real@c2c80000            100c0c00     imgui_widgets.obj
 0002:0000ec04       __real@feffffff            100c0c04     imgui_widgets.obj
 0002:0000ec08       __real@ffdfffffffffffff    100c0c08     imgui_widgets.obj
 0002:0000ec10       __xmm@3e5cdcde3f3ebebf3f1292933ee0e0e2 100c0c10     imgui_widgets.obj
 0002:0000ec20       __xmm@3ec8c8ca3f3ebebf3f1292933ee0e0e2 100c0c20     imgui_widgets.obj
 0002:0000ec30       __xmm@3f2aaaab3f2aaaab3f2aaaab3f2aaaab 100c0c30     imgui_widgets.obj
 0002:0000ec40       __xmm@3f3333333f31b1b23f31b1b23f31b1b2 100c0c40     imgui_widgets.obj
 0002:0000ec50       __xmm@3f4dcdcf3f2aaaab3f2aaaab3f2aaaab 100c0c50     imgui_widgets.obj
 0002:0000ec60       __xmm@3f5cdcde3f7afafc3f7afafc3f7afafc 100c0c60     imgui_widgets.obj
 0002:0000ec70       __xmm@3f8000003e70f0f23e70f0f23e70f0f2 100c0c70     imgui_widgets.obj
 0002:0000ec80       __xmm@3f8000003f34b4b53f0888893eccccce 100c0c80     imgui_widgets.obj
 0002:0000ec90       __xmm@3f8000003f3ebebf3f1292933ee0e0e2 100c0c90     imgui_widgets.obj
 0002:0000eca0       __xmm@80000000000000008000000000000000 100c0ca0     imgui_widgets.obj
 0002:0000ecb0       ??_C@_0P@DHHNACEP@BASS_SetConfig@ 100c0cb0     sounds.obj
 0002:0000ecc0       ??_C@_0BA@EBCJDLMI@BASS_GetVersion@ 100c0cc0     sounds.obj
 0002:0000ecd0       ??_C@_09PJNABMCI@BASS_Init@ 100c0cd0     sounds.obj
 0002:0000ecdc       ??_C@_0L@DHDLDOJH@BASS_Start@ 100c0cdc     sounds.obj
 0002:0000ece8       ??_C@_0BF@LMOPKIBC@BASS_StreamCreateURL@ 100c0ce8     sounds.obj
 0002:0000ed00       ??_C@_0BA@OJEHGEGL@BASS_StreamFree@ 100c0d00     sounds.obj
 0002:0000ed10       ??_C@_0BL@KKAHNALC@BASS_StreamGetFilePosition@ 100c0d10     sounds.obj
 0002:0000ed2c       ??_C@_0BE@CALJPCCB@BASS_ChannelGetTags@ 100c0d2c     sounds.obj
 0002:0000ed40       ??_C@_0BB@EPLEMDGE@BASS_ChannelPlay@ 100c0d40     sounds.obj
 0002:0000ed54       ??_C@_0BJ@FDHCPAHI@BASS_ChannelSetAttribute@ 100c0d54     sounds.obj
 0002:0000ed70       ??_C@_0BE@LKNGEHEO@BASS_ChannelSetSync@ 100c0d70     sounds.obj
 0002:0000ed84       ??_C@_0O@IMCFLAMG@StreamTitle?$DN?8@ 100c0d84     sounds.obj
 0002:0000ed94       ??_C@_02BAOJJLA@?8?$DL@    100c0d94     sounds.obj
 0002:0000ed98       ??_C@_07LJGAJMBK@artist?$DN@ 100c0d98     sounds.obj
 0002:0000eda0       ??_C@_06MBJMFOK@title?$DN@ 100c0da0     sounds.obj
 0002:0000eda8       ??_C@_07FCJAGJJB@?$CFs?5?9?5?$CFs@ 100c0da8     sounds.obj
 0002:0000edb0       ??_C@_09HNEJBPAO@icy?9name?3@ 100c0db0     sounds.obj
 0002:0000edbc       ??_C@_0M@OJNBDFGB@icy?5?9?5name?3@ 100c0dbc     sounds.obj
 0002:0000edc8       ??_C@_08OBPABDHD@icy?9url?3@ 100c0dc8     sounds.obj
 0002:0000edd4       ??_C@_0M@GPHHNPJJ@playing?4?4?4?6@ 100c0dd4     sounds.obj
 0002:0000ede0       ??_C@_0M@NGOIHCMO@C?3?2bass?4dll@ 100c0de0     sounds.obj
 0002:0000edf0       __xmm@080940000b0a040f42080943000b0a04 100c0df0     sounds.obj
 0002:0000ee00       __xmm@0c4e51460d4f440c475143404d4c4a41 100c0e00     sounds.obj
 0002:0000ee10       __xmm@0e0c0c40555f5c401d0c1f050e1e1918 100c0e10     sounds.obj
 0002:0000ee20       __xmm@0e1255171c540a0f15081d57180e5417 100c0e20     sounds.obj
 0002:0000ee30       __xmm@0f431e000c081f191e4242571d191905 100c0e30     sounds.obj
 0002:0000ee40       __xmm@120116051c1f1a5c16175d1c1a171201 100c0e40     sounds.obj
 0002:0000ee50       __xmm@16051c1f1a5d0404045c5c490307071b 100c0e50     sounds.obj
 0002:0000ee60       __xmm@1b1f080e0954490a175555400a0e0e12 100c0e60     sounds.obj
 0002:0000ee70       __xmm@272864262d653b3e24392c66293f6526 100c0e70     sounds.obj
 0002:0000ee80       __xmm@2a2e393f3865783b266464713b3f3f23 100c0e80     sounds.obj
 0002:0000ee90       __xmm@46425553540914574a08081d5753534f 100c0e90     sounds.obj
 0002:0000eea0       __xmm@47560c4c4756514b4e0d0d185256564a 100c0ea0     sounds.obj
 0002:0000eeb0       __xmm@484a1d165e041912485f5f4a00040418 100c0eb0     sounds.obj
 0002:0000eec0       __xmm@5353084a410957524855400a4553094a 100c0ec0     sounds.obj
 0002:0000eed0       __xmm@59535b574a164f4f4f171702484c4c50 100c0ed0     sounds.obj
 0002:0000eee0       __xmm@5c594a5a5d4f175d5c165d56565d4c56 100c0ee0     sounds.obj
 0002:0000eef0       __xmm@5d4c5459174b545d565659505b175751 100c0ef0     sounds.obj
 0002:0000ef00       ??_C@_0P@PMINAGJ@BASS_SetVolume@ 100c0f00     main.obj
 0002:0000ef10       ??_C@_02CHHAKFFB@w?$CL@    100c0f10     main.obj
 0002:0000ef14       ??_C@_07GPDNMNG@CONOUT$@   100c0f14     main.obj
 0002:0000ef1c       ??_C@_0O@LOBDMAOA@?$FL?$HO?$FN?5chadhook?6@ 100c0f1c     main.obj
 0002:0000ef2c       ??_C@_0BC@LLHFCENE@serverbrowser?4dll@ 100c0f2c     main.obj
 0002:0000ef40       ??_C@_0BK@KAGCHPAH@?$FL?$HO?$FN?5welcome?5to?5chadhook?$CB?6@ 100c0f40     main.obj
 0002:0000ef60       ??_C@_0FI@OPKLMKIA@https?3?1?1cdn?4discordapp?4com?1atta@ 100c0f60     main.obj
 0002:0000efb8       ??_C@_0N@FJKJPDKL@C?3?2sound?4mp3@ 100c0fb8     main.obj
 0002:0000efc8       ??_C@_0N@BKFLDOHJ@C?3?2museo?4ttf@ 100c0fc8     main.obj
 0002:0000efd8       ??_C@_05EGLAEID@?$CD?$CDGUI@ 100c0fd8     main.obj
 0002:0000efe0       ??_C@_04KNIGEGGI@Rage@     100c0fe0     main.obj
 0002:0000efe8       ??_C@_07GNHLELCG@Visuals@  100c0fe8     main.obj
 0002:0000eff0       ??_C@_04MHPHMCPO@Misc@     100c0ff0     main.obj
 0002:0000eff8       ??_C@_06LLCHJONG@Config@   100c0ff8     main.obj
 0002:0000f000       ??_C@_06FHEBLMEF@Aimbot@   100c1000     main.obj
 0002:0000f008       ??_C@_0O@JFHAEOHP@Master?5Switch@ 100c1008     main.obj
 0002:0000f018       ??_C@_0BJ@OKGPLAIM@Ignore?5limbs?5when?5moving@ 100c1018     main.obj
 0002:0000f034       ??_C@_0M@LGKINCLF@Auto?5Crouch@ 100c1034     main.obj
 0002:0000f040       ??_C@_08ODLBHCGJ@Autostop@ 100c1040     main.obj
 0002:0000f04c       ??_C@_0CC@EBHEGBGF@Damage?5to?5trigger?$CD?$CDtrigger?5dama@ 100c104c     main.obj
 0002:0000f070       ??_C@_05BBOGGNLJ@Other@    100c1070     main.obj
 0002:0000f078       ??_C@_01NOFIACDB@w@        100c1078     main.obj
 0002:0000f07c       ??_C@_0BD@PJONJODE@ight?5imma?5head?5out@ 100c107c     main.obj
 0002:0000f090       ??_C@_0M@HDNAJOMD@C?3?2Bameware@ 100c1090     main.obj
 0002:0000f09c       ??_C@_0BB@LGDBHGJI@C?3?2Bameware?2Logs@ 100c109c     main.obj
 0002:0000f0b0       ??_C@_0BE@ICDACDDL@C?3?2Bameware?2Configs@ 100c10b0     main.obj
 0002:0000f0c4       ??_C@_0BG@HHLCLDGI@C?3?2Bameware?2Resources@ 100c10c4     main.obj
 0002:0000f0dc       ??_C@_0BM@PPAAOHJA@C?3?2Bameware?2Resources?2Fonts@ 100c10dc     main.obj
 0002:0000f0f8       ??_C@_09OOFOPABP@DETACHING@ 100c10f8     main.obj
 0002:0000f104       __real@43e60000            100c1104     main.obj
 0002:0000f108       __real@441b0000            100c1108     main.obj
 0002:0000f110       __xmm@3f8000003dc8c8ca3dc8c8ca3dc8c8ca 100c1110     main.obj
 0002:0000f120       ??_C@_04HDOCAJNK@?$CFs?$CFs@ 100c1120     Menu.obj
 0002:0000f128       ??_C@_0BB@LJBMMFFO@cl_mouseenable?51@ 100c1128     Menu.obj
 0002:0000f13c       ??_C@_08MODHACIL@chadhook@ 100c113c     Menu.obj
 0002:0000f148       ??_C@_0BI@BLDCCCKN@Enabled?$CD?$CDaimbot?5enabled@ 100c1148     Menu.obj
 0002:0000f160       ??_C@_0P@LEJBADAA@Prefer?5bodyaim@ 100c1160     Menu.obj
 0002:0000f170       ??_C@_06KMEJCCGM@Ignore@   100c1170     Menu.obj
 0002:0000f178       ??_C@_06PAMAEABB@?$CD?$CDhead@ 100c1178     Menu.obj
 0002:0000f180       ??_C@_0EB@GJNOHGHN@The?5damage?5needed?5to?5be?5able?5to@ 100c1180     Menu.obj
 0002:0000f1c4       ??_C@_03EMOFKE@dmg@        100c11c4     Menu.obj
 0002:0000f1c8       ??_C@_0BE@BOODMOIC@Bodyaim?5if?5x?5damage@ 100c11c8     Menu.obj
 0002:0000f1dc       ??_C@_0L@MCPKNIPF@Min?5damage@ 100c11dc     Menu.obj
 0002:0000f1e8       ??_C@_0BE@CMLCGGEA@Min?5autowall?5damage@ 100c11e8     Menu.obj
 0002:0000f1fc       ??_C@_01FGNFDNOH@?$CF@     100c11fc     Menu.obj
 0002:0000f200       ??_C@_0M@MNKHPMOK@Point?9scale@ 100c1200     Menu.obj
 0002:0000f20c       ??_C@_0BB@GGHICIDO@Body?5point?9scale@ 100c120c     Menu.obj
 0002:0000f220       ??_C@_0BG@MIJBAFNH@Duel?5body?5point?9scale@ 100c1220     Menu.obj
 0002:0000f238       ??_C@_0BA@GIBLNMEH@Delay?5shot?5type@ 100c1238     Menu.obj
 0002:0000f248       ??_C@_01LKDEMHDF@s@        100c1248     Menu.obj
 0002:0000f24c       ??_C@_0L@FFFFNMAN@Delay?5shot@ 100c124c     Menu.obj
 0002:0000f258       ??_C@_0N@JMKPPJDO@Fake?5latency@ 100c1258     Menu.obj
 0002:0000f268       ??_C@_02EEKDFEKL@ms@       100c1268     Menu.obj
 0002:0000f26c       ??_C@_0BB@ODENIDEL@?$CD?$CDlatency?5amount@ 100c126c     Menu.obj
 0002:0000f280       ??_C@_0O@FOPAMPBJ@Accuracy?5type@ 100c1280     Menu.obj
 0002:0000f290       ??_C@_0BI@GGEINMGN@?$CD?$CDaccuracy?5value?5aimbot@ 100c1290     Menu.obj
 0002:0000f2a8       ??_C@_0P@KDBDPFHM@Hitscan?5groups@ 100c12a8     Menu.obj
 0002:0000f2b8       ??_C@_0BK@DCLKCNFC@Hitbox?5groups?5to?5hitscan?4@ 100c12b8     Menu.obj
 0002:0000f2d4       ??_C@_0BK@JBALNDHA@Hitscan?5multipoint?5groups@ 100c12d4     Menu.obj
 0002:0000f2f0       ??_C@_0DA@HMCPMIMB@Hitbox?5groups?5to?5hitscan?0?5will?5@ 100c12f0     Menu.obj
 0002:0000f320       ??_C@_08PDMHKKA@Anti?9aim@ 100c1320     Menu.obj
 0002:0000f32c       ??_C@_0BO@OIHGOMHK@At?5target?$CD?$CDstanding?5at?5target@ 100c132c     Menu.obj
 0002:0000f34c       ??_C@_0BG@DBAOCCKP@Pitch?$CD?$CDstanding?5pitch@ 100c134c     Menu.obj
 0002:0000f364       ??_C@_04PHKLBGME@Real@     100c1364     Menu.obj
 0002:0000f36c       ??_C@_0BH@DLLNGEDH@Yaw?$CD?$CDstanding?5real?5yaw@ 100c136c     Menu.obj
 0002:0000f384       ??_C@_01FKODEDLI@?$LA@     100c1384     Menu.obj
 0002:0000f388       ??_C@_0BN@LDOCPJDC@Offset?$CD?$CDstanding?5real?5offset@ 100c1388     Menu.obj
 0002:0000f3a8       ??_C@_0BO@GMJBNPDF@LBY?5delta?$CD?$CDstanding?5lby?5delta@ 100c13a8     Menu.obj
 0002:0000f3c8       ??_C@_0CJ@KNEMHBJK@Jitter?5range?$CD?$CDstanding?5real?5jit@ 100c13c8     Menu.obj
 0002:0000f3f4       ??_C@_0CF@ECFCFGCI@Spin?5speed?$CD?$CDstanding?5real?5spin?5@ 100c13f4     Menu.obj
 0002:0000f41c       ??_C@_04DBPMIOEO@Fake@     100c141c     Menu.obj
 0002:0000f424       ??_C@_0BH@MNKEHHDG@Yaw?$CD?$CDstanding?5fake?5yaw@ 100c1424     Menu.obj
 0002:0000f43c       ??_C@_0BN@LHKEHKKB@Offset?$CD?$CDstanding?5fake?5offset@ 100c143c     Menu.obj
 0002:0000f45c       ??_C@_0CJ@HJIOHAAI@Jitter?5range?$CD?$CDstanding?5fake?5jit@ 100c145c     Menu.obj
 0002:0000f488       ??_C@_0BM@LCDMKBME@At?5target?$CD?$CDmoving?5at?5target@ 100c1488     Menu.obj
 0002:0000f4a4       ??_C@_0BE@CFCNLDPD@Pitch?$CD?$CDmoving?5pitch@ 100c14a4     Menu.obj
 0002:0000f4b8       ??_C@_0BF@KJCPBPNL@Yaw?$CD?$CDmoving?5real?5yaw@ 100c14b8     Menu.obj
 0002:0000f4d0       ??_C@_0BL@MJLGGLI@Offset?$CD?$CDmoving?5real?5offset@ 100c14d0     Menu.obj
 0002:0000f4ec       ??_C@_0CH@LBOBBGGG@Jitter?5range?$CD?$CDmoving?5real?5jitte@ 100c14ec     Menu.obj
 0002:0000f514       ??_C@_0CD@PPKOFHKA@Spin?5speed?$CD?$CDmoving?5real?5spin?5sp@ 100c1514     Menu.obj
 0002:0000f538       ??_C@_0BF@FPDGAMNK@Yaw?$CD?$CDmoving?5fake?5yaw@ 100c1538     Menu.obj
 0002:0000f550       ??_C@_0BL@INNOFCL@Offset?$CD?$CDmoving?5fake?5offset@ 100c1550     Menu.obj
 0002:0000f56c       ??_C@_0CH@GFCDBHPE@Jitter?5range?$CD?$CDmoving?5fake?5jitte@ 100c156c     Menu.obj
 0002:0000f594       ??_C@_0BN@LMCOBCEJ@At?5target?$CD?$CDjumping?5at?5target@ 100c1594     Menu.obj
 0002:0000f5b4       ??_C@_0BF@PJNBLJPM@Pitch?$CD?$CDjumping?5pitch@ 100c15b4     Menu.obj
 0002:0000f5cc       ??_C@_0BG@FOEJCIFL@Yaw?$CD?$CDjumping?5real?5yaw@ 100c15cc     Menu.obj
 0002:0000f5e4       ??_C@_0BM@MCPONIDG@Offset?$CD?$CDjumping?5real?5offset@ 100c15e4     Menu.obj
 0002:0000f600       ??_C@_0CI@JCAIAMFO@Jitter?5range?$CD?$CDjumping?5real?5jitt@ 100c1600     Menu.obj
 0002:0000f628       ??_C@_0CE@EFLMAHOC@Spin?5speed?$CD?$CDjumping?5real?5spin?5s@ 100c1628     Menu.obj
 0002:0000f64c       ??_C@_0BG@KIFADLFK@Yaw?$CD?$CDjumping?5fake?5yaw@ 100c164c     Menu.obj
 0002:0000f664       ??_C@_0BM@MGLIFLKF@Offset?$CD?$CDjumping?5fake?5offset@ 100c1664     Menu.obj
 0002:0000f680       ??_C@_0CI@EGMKANMM@Jitter?5range?$CD?$CDjumping?5fake?5jitt@ 100c1680     Menu.obj
 0002:0000f6a8       ??_C@_0M@NFNOKPED@Edging?5type@ 100c16a8     Menu.obj
 0002:0000f6b4       ??_C@_09HBBKONPH@LBY?5delta@ 100c16b4     Menu.obj
 0002:0000f6c0       ??_C@_0N@CIJEEHCA@Jitter?5range@ 100c16c0     Menu.obj
 0002:0000f6d0       ??_C@_08CHGFFCLN@Standing@ 100c16d0     Menu.obj
 0002:0000f6dc       ??_C@_06OGKEDPBL@Moving@   100c16dc     Menu.obj
 0002:0000f6e4       ??_C@_06GBDKOOAJ@In?9air@  100c16e4     Menu.obj
 0002:0000f6ec       ??_C@_04OFFCAMCD@Test@     100c16ec     Menu.obj
 0002:0000f6f4       ??_C@_0BF@IHPGKCCK@Other?$CD?$CDvisuals?5other@ 100c16f4     Menu.obj
 0002:0000f70c       ??_C@_0M@HKHNBN@Thirdperson@ 100c170c     Menu.obj
 0002:0000f718       ??_C@_0BN@IIMHJLOJ@Enabled?$CD?$CDthirdperson?5enabled@ 100c1718     Menu.obj
 0002:0000f738       ??_C@_0BG@DMFOIMEA@?$CD?$CDthirdperson?5keybind@ 100c1738     Menu.obj
 0002:0000f750       ??_C@_0BP@OKLNIBML@Distance?$CD?$CDthirdperson?5distance@ 100c1750     Menu.obj
 0002:0000f770       ??_C@_0BJ@BAAPKIMG@Angle?$CD?$CDthirdperson?5angle@ 100c1770     Menu.obj
 0002:0000f78c       ??_C@_0BK@JKEAHMN@The?5yaw?5that?5is?5displayed@ 100c178c     Menu.obj
 0002:0000f7a8       ??_C@_0BJ@CMDHFDHE@Misc?$CD?$CDvisuals?5other?5misc@ 100c17a8     Menu.obj
 0002:0000f7c4       ??_C@_0BA@KKMFPBCC@Fov?$CD?$CDvisual?5fov@ 100c17c4     Menu.obj
 0002:0000f7d4       ??_C@_0BE@KNADKKAO@Scoped?5transparency@ 100c17d4     Menu.obj
 0002:0000f7e8       ??_C@_0CI@KCNGOMHO@How?5transparent?5you?5are?5while?5s@ 100c17e8     Menu.obj
 0002:0000f810       ??_C@_0BD@EMDFMOID@Autowall?5crosshair@ 100c1810     Menu.obj
 0002:0000f824       ??_C@_0DC@EIIECNJL@Changes?5crosshair?5color?5based?5o@ 100c1824     Menu.obj
 0002:0000f858       ??_C@_0L@OJPGICEN@Hitmarkers@ 100c1858     Menu.obj
 0002:0000f864       ??_C@_0O@IGJHKCFF@Spread?5circle@ 100c1864     Menu.obj
 0002:0000f874       ??_C@_0BG@GHHHCGF@?$CD?$CDspread?5circle?5color@ 100c1874     Menu.obj
 0002:0000f88c       ??_C@_0P@NABECKPL@Bullet?5tracers@ 100c188c     Menu.obj
 0002:0000f89c       ??_C@_0BH@LCJAJOJA@?$CD?$CDbullet?5tracers?5color@ 100c189c     Menu.obj
 0002:0000f8b4       ??_C@_09FADNPJCJ@Snaplines@ 100c18b4     Menu.obj
 0002:0000f8c0       ??_C@_0BC@CINBOAHB@?$CD?$CDsnaplines?5color@ 100c18c0     Menu.obj
 0002:0000f8d4       ??_C@_0BA@GFPPHAMI@Grenade?5tracers@ 100c18d4     Menu.obj
 0002:0000f8e4       ??_C@_0BI@LAACIDPO@?$CD?$CDgrenade?5tracers?5color@ 100c18e4     Menu.obj
 0002:0000f8fc       ??_C@_0BB@LKLANKED@No?5scope?5overlay@ 100c18fc     Menu.obj
 0002:0000f910       ??_C@_0BJ@FAHONIMO@?$CD?$CDno?5scope?5overlay?5color@ 100c1910     Menu.obj
 0002:0000f92c       ??_C@_0CM@HDKCOJGL@World?5Modifications?$CD?$CDvisuals?5wo@ 100c192c     Menu.obj
 0002:0000f958       ??_C@_0BI@PKJJDOLC@Skybox?$CD?$CDskybox?5combobox@ 100c1958     Menu.obj
 0002:0000f970       ??_C@_0BK@DACHCLJG@?$CD?$CDskybox?5color?5modulation@ 100c1970     Menu.obj
 0002:0000f98c       ??_C@_0BO@MIKPDAGF@World?$CD?$CDworld?5color?5modulation@ 100c198c     Menu.obj
 0002:0000f9ac       ??_C@_0CE@CEDBPMGK@Props?$CD?$CDstatic?5prop?5color?5modula@ 100c19ac     Menu.obj
 0002:0000f9d0       ??_C@_0N@JFENBDEL@World?5Update@ 100c19d0     Menu.obj
 0002:0000f9e0       ??_C@_0BI@ECIALKGO@Backtrack?5visualization@ 100c19e0     Menu.obj
 0002:0000f9f8       ??_C@_0CF@GJPMJEAF@Skeleton?$CD?$CDbacktrack?5skeleton?5en@ 100c19f8     Menu.obj
 0002:0000fa20       ??_C@_0BL@LOEMLPEP@?$CD?$CDbacktrack?5skeleton?5color@ 100c1a20     Menu.obj
 0002:0000fa3c       ??_C@_0BP@JCFLNDO@Chams?$CD?$CDbacktrack?5chams?5enabled@ 100c1a3c     Menu.obj
 0002:0000fa5c       ??_C@_0BI@OICLIEPG@?$CD?$CDbacktrack?5chams?5color@ 100c1a5c     Menu.obj
 0002:0000fa74       ??_C@_0BL@EFHANEEO@Dot?$CD?$CDbacktrack?5dot?5enabled@ 100c1a74     Menu.obj
 0002:0000fa90       ??_C@_0BG@EGFKBJPK@?$CD?$CDbacktrack?5dot?5color@ 100c1a90     Menu.obj
 0002:0000faa8       ??_C@_0BB@GBLFCPBP@ESP?$CD?$CDvisuals?5esp@ 100c1aa8     Menu.obj
 0002:0000fabc       ??_C@_0BB@NACJDMKO@Enemy?$CD?$CDesp?5enemy@ 100c1abc     Menu.obj
 0002:0000fad0       ??_C@_0BL@DDGAGKHA@Box?$CD?$CDenemy?5box?5esp?5enabled@ 100c1ad0     Menu.obj
 0002:0000faec       ??_C@_0BG@NOLNECFN@?$CD?$CDenemy?5box?5esp?5color@ 100c1aec     Menu.obj
 0002:0000fb04       ??_C@_0CF@MPPFGCEB@Skeleton?$CD?$CDenemy?5skeleton?5esp?5en@ 100c1b04     Menu.obj
 0002:0000fb2c       ??_C@_0BL@MPKACLPC@?$CD?$CDenemy?5skeleton?5esp?5color@ 100c1b2c     Menu.obj
 0002:0000fb48       ??_C@_0BF@LEPAOGLJ@Name?$CD?$CDenemy?5esp?5name@ 100c1b48     Menu.obj
 0002:0000fb60       ??_C@_0BH@CFEFGDLB@?$CD?$CDenemy?5name?5esp?5color@ 100c1b60     Menu.obj
 0002:0000fb78       ??_C@_0BJ@JFNLALAI@Weapon?$CD?$CDenemy?5esp?5weapon@ 100c1b78     Menu.obj
 0002:0000fb94       ??_C@_0BJ@DPNJFHID@Health?$CD?$CDenemy?5esp?5health@ 100c1b94     Menu.obj
 0002:0000fbb0       ??_C@_0CH@CNGPHPNL@Resolver?5info?$CD?$CDenemy?5esp?5resolv@ 100c1bb0     Menu.obj
 0002:0000fbd8       ??_C@_0DI@MDKIKLMM@Displays?5what?5the?5player?5is?5cur@ 100c1bd8     Menu.obj
 0002:0000fc10       ??_C@_0P@LMDINBHD@Team?$CD?$CDesp?5team@ 100c1c10     Menu.obj
 0002:0000fc20       ??_C@_0BK@FMHEIFCD@Box?$CD?$CDteam?5box?5esp?5enabled@ 100c1c20     Menu.obj
 0002:0000fc3c       ??_C@_0BF@POPFAOEA@?$CD?$CDteam?5box?5esp?5color@ 100c1c3c     Menu.obj
 0002:0000fc54       ??_C@_0CE@BNFJMJOP@Skeleton?$CD?$CDteam?5skeleton?5esp?5ena@ 100c1c54     Menu.obj
 0002:0000fc78       ??_C@_0BK@GNBPGHJO@?$CD?$CDteam?5skeleton?5esp?5color@ 100c1c78     Menu.obj
 0002:0000fc94       ??_C@_0BE@PBCHAGPD@Name?$CD?$CDteam?5esp?5name@ 100c1c94     Menu.obj
 0002:0000fca8       ??_C@_0BG@EGGDEHCE@?$CD?$CDteam?5name?5esp?5color@ 100c1ca8     Menu.obj
 0002:0000fcc0       ??_C@_0BI@LKKCJMHO@Weapon?$CD?$CDteam?5esp?5weapon@ 100c1cc0     Menu.obj
 0002:0000fcd8       ??_C@_0BI@NICLCDPC@Health?$CD?$CDteam?5esp?5health@ 100c1cd8     Menu.obj
 0002:0000fcf0       ??_C@_0BA@GJPNLCML@Player?5textures@ 100c1cf0     Menu.obj
 0002:0000fd00       ??_C@_0DD@CHLNICCN@Localplayer?$CD?$CDlocalplayer?5player@ 100c1d00     Menu.obj
 0002:0000fd34       ??_C@_0BO@HEJABAJA@Draw?5player?$CD?$CDdraw?5localplayer@ 100c1d34     Menu.obj
 0002:0000fd54       ??_C@_0CD@ILPICKBC@Draw?5chams?$CD?$CDdraw?5chams?5localpla@ 100c1d54     Menu.obj
 0002:0000fd78       ??_C@_0CP@PDAMIOFL@Wireframe?$CD?$CDchams?5localplayer?5wi@ 100c1d78     Menu.obj
 0002:0000fda8       ??_C@_0BK@MLAGNPO@?$CD?$CDlocalplayer?5chams?5color@ 100c1da8     Menu.obj
 0002:0000fdc4       ??_C@_0CB@BIKFDBAI@Draw?5glow?$CD?$CDdraw?5glow?5localplaye@ 100c1dc4     Menu.obj
 0002:0000fde8       ??_C@_0BJ@OBIMNBHK@?$CD?$CDlocalplayer?5glow?5style@ 100c1de8     Menu.obj
 0002:0000fe04       ??_C@_0CG@LNGKFEKD@Fullbloom?$CD?$CDlocalplayer?5glow?5ful@ 100c1e04     Menu.obj
 0002:0000fe2c       ??_C@_0CH@BIIEDBOA@Enemy?$CD?$CDenemy?5player?5textures?5se@ 100c1e2c     Menu.obj
 0002:0000fe54       ??_C@_0BK@FINEMLF@Draw?5player?$CD?$CDdraw?5enemies@ 100c1e54     Menu.obj
 0002:0000fe70       ??_C@_0BN@LMLPDCNO@Draw?5chams?$CD?$CDdraw?5chams?5enemy@ 100c1e70     Menu.obj
 0002:0000fe90       ??_C@_0CJ@LBKFOFGA@Wireframe?$CD?$CDchams?5enemy?5wirefram@ 100c1e90     Menu.obj
 0002:0000febc       ??_C@_0BN@OGCBKOHD@?$CD?$CDenemy?5occluded?5chams?5color@ 100c1ebc     Menu.obj
 0002:0000fedc       ??_C@_0CG@KHNENPKI@Chams?5color?5while?5behind?5walls?$CD@ 100c1edc     Menu.obj
 0002:0000ff04       ??_C@_0BP@NFNOGEDP@?$CD?$CDenemy?5unoccluded?5chams?5color@ 100c1f04     Menu.obj
 0002:0000ff24       ??_C@_0BL@CJOFMEDJ@Draw?5glow?$CD?$CDdraw?5glow?5enemy@ 100c1f24     Menu.obj
 0002:0000ff40       ??_C@_0BD@HAPBDJKK@?$CD?$CDenemy?5glow?5style@ 100c1f40     Menu.obj
 0002:0000ff54       ??_C@_0CA@MCJFDDAO@Fullbloom?$CD?$CDenemy?5glow?5fullbloom@ 100c1f54     Menu.obj
 0002:0000ff74       ??_C@_0CF@MHNPGFAD@Team?$CD?$CDteam?5player?5textures?5sepe@ 100c1f74     Menu.obj
 0002:0000ff9c       ??_C@_0BH@HOEMHCGO@Draw?5player?$CD?$CDdraw?5team@ 100c1f9c     Menu.obj
 0002:0000ffb4       ??_C@_0BM@HNOAJMMG@Draw?5chams?$CD?$CDdraw?5chams?5team@ 100c1fb4     Menu.obj
 0002:0000ffd0       ??_C@_0CI@PBPLOFAM@Wireframe?$CD?$CDchams?5team?5wireframe@ 100c1fd0     Menu.obj
 0002:0000fff8       ??_C@_0BM@FAADCFNM@?$CD?$CDteam?5occluded?5chams?5color@ 100c1ff8     Menu.obj
 0002:00010014       ??_C@_0CF@BHKIJBJD@Chams?5color?5while?5behind?5walls?$CD@ 100c2014     Menu.obj
 0002:0001003c       ??_C@_0BO@IGCLCIJD@?$CD?$CDteam?5unoccluded?5chams?5color@ 100c203c     Menu.obj
 0002:0001005c       ??_C@_0CA@LIILFAGJ@Chams?5color?5while?5visible?$CD?$CDteam@ 100c205c     Menu.obj
 0002:0001007c       ??_C@_0BK@JIFMPJAO@Draw?5glow?$CD?$CDdraw?5glow?5team@ 100c207c     Menu.obj
 0002:00010098       ??_C@_0BC@POJNMEBK@?$CD?$CDteam?5glow?5style@ 100c2098     Menu.obj
 0002:000100ac       ??_C@_0BP@HICOOPGF@Fullbloom?$CD?$CDteam?5glow?5fullbloom@ 100c20ac     Menu.obj
 0002:000100cc       ??_C@_07GLBJHKEK@Configs@  100c20cc     Menu.obj
 0002:000100d4       ??_C@_07HNMLFLME@Ragebot@  100c20d4     Menu.obj
 0002:000100dc       ??_C@_05LPPMJLKK@?4rcfg@   100c20dc     Menu.obj
 0002:000100e4       ??_C@_0BK@PBPJKHNM@?$CD?$CDragebot?5new?5config?5name@ 100c20e4     Menu.obj
 0002:00010100       ??_C@_0N@NBHOGHLP@New?$CD?$CDragebot@ 100c2100     Menu.obj
 0002:00010110       ??_C@_0O@CGOJEOM@?$CD?$CDrage?5config@ 100c2110     Menu.obj
 0002:00010120       ??_C@_0BB@GDMDGNIP@?$CD?$CDragebot?5config@ 100c2120     Menu.obj
 0002:00010134       ??_C@_0BA@CKPPBNLG@Delete?$CD?$CDragebot@ 100c2134     Menu.obj
 0002:00010144       ??_C@_0O@ENMJGKHK@Save?$CD?$CDragebot@ 100c2144     Menu.obj
 0002:00010154       ??_C@_0O@DOAHDFOD@Load?$CD?$CDragebot@ 100c2154     Menu.obj
 0002:00010164       ??_C@_0P@LHLJOMAA@Visuals?5?1?5Misc@ 100c2164     Menu.obj
 0002:00010174       ??_C@_06OLNCNHP@?4vmcfg@   100c2174     Menu.obj
 0002:0001017c       ??_C@_0BP@EGGAMKIM@?$CD?$CDvisuals?1misc?5new?5config?5name@ 100c217c     Menu.obj
 0002:0001019c       ??_C@_09NEKDNHN@New?$CD?$CDmain@ 100c219c     Menu.obj
 0002:000101a8       ??_C@_0O@OAHOEIAP@?$CD?$CDmain?5config@ 100c21a8     Menu.obj
 0002:000101b8       ??_C@_0N@EECHGPBA@Delete?$CD?$CDmain@ 100c21b8     Menu.obj
 0002:000101c8       ??_C@_0L@HBJOEPHN@Save?$CD?$CDmain@ 100c21c8     Menu.obj
 0002:000101d4       ??_C@_0L@FGFCGAOF@Load?$CD?$CDmain@ 100c21d4     Menu.obj
 0002:000101e0       ??_C@_0L@HDJKNMII@Misc?$CD?$CDmisc@ 100c21e0     Menu.obj
 0002:000101ec       ??_C@_0N@KGPHIAJN@Unload?5cheat@ 100c21ec     Menu.obj
 0002:000101fc       ??_C@_0BJ@JJPLKEHP@?$CD?$CDunload?5cheat?5seperator@ 100c21fc     Menu.obj
 0002:00010218       ??_C@_0P@HLFNIDD@Anti?9untrusted@ 100c2218     Menu.obj
 0002:00010228       ??_C@_08DDLGGJIE@No?5flash@ 100c2228     Menu.obj
 0002:00010234       ??_C@_08BKIJCIKK@No?5smoke@ 100c2234     Menu.obj
 0002:00010240       ??_C@_05ELHBHDGK@Radar@    100c2240     Menu.obj
 0002:00010248       ??_C@_04IJMICJMM@Bhop@     100c2248     Menu.obj
 0002:00010250       ??_C@_0N@KEMIDGND@Auto?9strafer@ 100c2250     Menu.obj
 0002:00010260       ??_C@_0O@HKCNGFJM@Auto?9revolver@ 100c2260     Menu.obj
 0002:00010270       ??_C@_0P@COKMIJDG@Circle?5strafer@ 100c2270     Menu.obj
 0002:00010280       ??_C@_08HPOOIHCA@Override@ 100c2280     Menu.obj
 0002:0001028c       ??_C@_08CAKHAMKE@Clan?5tag@ 100c228c     Menu.obj
 0002:00010298       ??_C@_0CC@DPBDEDMJ@Enabled?$CD?$CDclan?5tag?5changer?5enabl@ 100c2298     Menu.obj
 0002:000102bc       ??_C@_0BF@ODMPOCIH@Fake?9lag?5?1?5Fake?9walk@ 100c22bc     Menu.obj
 0002:000102d4       ??_C@_09CEFIJAFP@Fake?9walk@ 100c22d4     Menu.obj
 0002:000102e0       ??_C@_0BD@DNEPMHPO@Key?$CD?$CDfake?9walk?5key@ 100c22e0     Menu.obj
 0002:000102f4       ??_C@_0BH@FHEJEPLC@Speed?$CD?$CDfake?9walk?5speed@ 100c22f4     Menu.obj
 0002:0001030c       ??_C@_0BK@NPJIGBHF@On?5peek?$CD?$CDfakewalk?5on?5peek@ 100c230c     Menu.obj
 0002:00010328       ??_C@_08FCLPEIHG@Fake?9lag@ 100c2328     Menu.obj
 0002:00010334       ??_C@_0CD@KKIFLKEH@Adaptive?$CD?$CDadaptive?5fakelag?5enab@ 100c2334     Menu.obj
 0002:00010358       ??_C@_0CC@LALPPKOF@Ideal?5fakelag?5amount?5when?5jumpi@ 100c2358     Menu.obj
 0002:0001037c       ??_C@_0BJ@FJIMNEKC@On?5peek?$CD?$CDfakelag?5on?5peek@ 100c237c     Menu.obj
 0002:00010398       ??_C@_0BJ@BIJNHKMN@Max?5fakelag?5when?5peeking@ 100c2398     Menu.obj
 0002:000103b4       ??_C@_0BH@PIBCKLAM@Moving?$CD?$CDfakelag?5moving@ 100c23b4     Menu.obj
 0002:000103cc       ??_C@_0BH@GMDNMPHC@In?9air?$CD?$CDfakelag?5in?5air@ 100c23cc     Menu.obj
 0002:000103e4       ??_C@_06CIALMIGC@Sounds@   100c23e4     Menu.obj
 0002:000103ec       ??_C@_0BL@KPAGGHLD@Radio?5volume?$CD?$CDvolume?9music@ 100c23ec     Menu.obj
 0002:00010408       ??_C@_0O@MGKOLFBO@Radio?5channel@ 100c2408     Menu.obj
 0002:00010420       __xmm@412000004180000040c0000041000000 100c2420     Menu.obj
 0002:00010430       __xmm@4160000043160000437a000041200000 100c2430     Menu.obj
 0002:00010440       __xmm@41f00000410000004160000043480000 100c2440     Menu.obj
 0002:00010450       ??_C@_0CI@OMNCKDIP@Failed?5to?5match?5a?5Begin?$CI?$CJ?5with?5@ 100c2450     PPGUI.obj
 0002:00010478       ??_C@_0BL@MLKKEJCG@Not?5inside?5a?5command?5frame@ 100c2478     PPGUI.obj
 0002:00010494       ??_C@_0BP@BDBFDJIJ@BeginWindow?$CI?$CJ?5improperly?5ended@ 100c2494     PPGUI.obj
 0002:000104b4       ??_C@_0CB@MFIGKLPB@BeginGroupbox?$CI?$CJ?5improperly?5ende@ 100c24b4     PPGUI.obj
 0002:000104d8       ??_C@_0BM@NEIMNNNI@Unhandled?5command?5data?5type@ 100c24d8     PPGUI.obj
 0002:000104f4       ??_C@_0BB@MOGOBHAF@list?$DMT?$DO?5too?5long@ 100c24f4     PPGUI.obj
 0002:00010508       ??_C@_01GFHCPBMG@C@        100c2508     PPGUI_Commands.obj
 0002:0001050c       ??_C@_08KHPBBDKI@Groupbox@ 100c250c     PPGUI_Commands.obj
 0002:00010518       ??_C@_06HMOLHLFN@Slider@   100c2518     PPGUI_Commands.obj
 0002:00010520       ??_C@_08IEKDLDLD@Key?5Bind@ 100c2520     PPGUI_Commands.obj
 0002:0001052c       ??_C@_08HGFPEFAH@Combobox@ 100c252c     PPGUI_Commands.obj
 0002:00010538       ??_C@_0BF@FOHFNBPC@Multiselect?5Combobox@ 100c2538     PPGUI_Commands.obj
 0002:00010550       ??_C@_0N@JKIFLNGD@Color?5Picker@ 100c2550     PPGUI_Commands.obj
 0002:00010560       ??_C@_08NANMIELJ@Tool?5Tip@ 100c2560     PPGUI_Commands.obj
 0002:0001056c       ??_C@_07HAPIOJCK@Mouse?53@ 100c256c     PPGUI_Commands.obj
 0002:00010574       ??_C@_07DPLJHPON@Mouse?54@ 100c2574     PPGUI_Commands.obj
 0002:0001057c       ??_C@_07CGKCEOKM@Mouse?55@ 100c257c     PPGUI_Commands.obj
 0002:00010584       ??_C@_07DFGIDBBA@Control@  100c2584     PPGUI_Commands.obj
 0002:0001058c       ??_C@_05CMECKLGA@Shift@    100c258c     PPGUI_Commands.obj
 0002:00010594       ??_C@_0L@BCOPDFIK@Left?5Arrow@ 100c2594     PPGUI_Commands.obj
 0002:000105a0       ??_C@_0M@OJABKOKA@Right?5Arrow@ 100c25a0     PPGUI_Commands.obj
 0002:000105ac       ??_C@_08OHALCGDJ@Up?5Arrow@ 100c25ac     PPGUI_Commands.obj
 0002:000105b8       ??_C@_0L@OJMODPNH@Down?5Arrow@ 100c25b8     PPGUI_Commands.obj
 0002:000105c4       ??_C@_09GGECHFNF@Caps?5Lock@ 100c25c4     PPGUI_Commands.obj
 0002:000105d0       ??_C@_08PNEIMCGO@Numpad?50@ 100c25d0     PPGUI_Commands.obj
 0002:000105dc       ??_C@_08OEFDPDCP@Numpad?51@ 100c25dc     PPGUI_Commands.obj
 0002:000105e8       ??_C@_08MPHOKAOM@Numpad?52@ 100c25e8     PPGUI_Commands.obj
 0002:000105f4       ??_C@_08NGGFJBKN@Numpad?53@ 100c25f4     PPGUI_Commands.obj
 0002:00010600       ??_C@_08JJCEAHGK@Numpad?54@ 100c2600     PPGUI_Commands.obj
 0002:0001060c       ??_C@_08IADPDGCL@Numpad?55@ 100c260c     PPGUI_Commands.obj
 0002:00010618       ??_C@_08KLBCGFOI@Numpad?56@ 100c2618     PPGUI_Commands.obj
 0002:00010624       ??_C@_08LCAJFEKJ@Numpad?57@ 100c2624     PPGUI_Commands.obj
 0002:00010630       ??_C@_08DFJBEIGG@Numpad?58@ 100c2630     PPGUI_Commands.obj
 0002:0001063c       ??_C@_08CMIKHJCH@Numpad?59@ 100c263c     PPGUI_Commands.obj
 0002:00010648       ??_C@_02LCPENACN@F1@       100c2648     PPGUI_Commands.obj
 0002:0001064c       ??_C@_02JJNJIDOO@F2@       100c264c     PPGUI_Commands.obj
 0002:00010650       ??_C@_02IAMCLCKP@F3@       100c2650     PPGUI_Commands.obj
 0002:00010654       ??_C@_02MPIDCEGI@F4@       100c2654     PPGUI_Commands.obj
 0002:00010658       ??_C@_02NGJIBFCJ@F5@       100c2658     PPGUI_Commands.obj
 0002:0001065c       ??_C@_02PNLFEGOK@F6@       100c265c     PPGUI_Commands.obj
 0002:00010660       ??_C@_02OEKOHHKL@F7@       100c2660     PPGUI_Commands.obj
 0002:00010664       ??_C@_02GDDGGLGE@F8@       100c2664     PPGUI_Commands.obj
 0002:00010668       ??_C@_02HKCNFKCF@F9@       100c2668     PPGUI_Commands.obj
 0002:0001066c       ??_C@_03JKCLJOFG@F10@      100c266c     PPGUI_Commands.obj
 0002:00010670       ??_C@_03IDDAKPBH@F11@      100c2670     PPGUI_Commands.obj
 0002:00010674       ??_C@_03KIBNPMNE@F12@      100c2674     PPGUI_Commands.obj
 0002:00010678       ??_C@_03LBAGMNJF@F13@      100c2678     PPGUI_Commands.obj
 0002:0001067c       ??_C@_03POEHFLFC@F14@      100c267c     PPGUI_Commands.obj
 0002:00010680       ??_C@_03OHFMGKBD@F15@      100c2680     PPGUI_Commands.obj
 0002:00010684       ??_C@_03MMHBDJNA@F16@      100c2684     PPGUI_Commands.obj
 0002:00010688       ??_C@_03NFGKAIJB@F17@      100c2688     PPGUI_Commands.obj
 0002:0001068c       ??_C@_03FCPCBEFO@F18@      100c268c     PPGUI_Commands.obj
 0002:00010690       ??_C@_03ELOJCFBP@F19@      100c2690     PPGUI_Commands.obj
 0002:00010694       ??_C@_03JIGNCAAP@F20@      100c2694     PPGUI_Commands.obj
 0002:00010698       ??_C@_03IBHGBBEO@F21@      100c2698     PPGUI_Commands.obj
 0002:0001069c       ??_C@_03KKFLECIN@F22@      100c269c     PPGUI_Commands.obj
 0002:000106a0       ??_C@_03LDEAHDMM@F23@      100c26a0     PPGUI_Commands.obj
 0002:000106a4       ??_C@_03PMABOFAL@F24@      100c26a4     PPGUI_Commands.obj
 0002:000106a8       ??_C@_01CKDDGHAB@D@        100c26a8     PPGUI_Commands.obj
 0002:000106ac       ??_C@_01DDCIFGEA@E@        100c26ac     PPGUI_Commands.obj
 0002:000106b0       ??_C@_01BIAFAFID@F@        100c26b0     PPGUI_Commands.obj
 0002:000106b4       ??_C@_01BBODEMC@G@         100c26b4     PPGUI_Commands.obj
 0002:000106b8       ??_C@_01IGIGCIAN@H@        100c26b8     PPGUI_Commands.obj
 0002:000106bc       ??_C@_01JPJNBJEM@I@        100c26bc     PPGUI_Commands.obj
 0002:000106c0       ??_C@_01LELAEKIP@J@        100c26c0     PPGUI_Commands.obj
 0002:000106c4       ??_C@_01KNKLHLMO@K@        100c26c4     PPGUI_Commands.obj
 0002:000106c8       ??_C@_01OCOKONAJ@L@        100c26c8     PPGUI_Commands.obj
 0002:000106cc       ??_C@_01PLPBNMEI@M@        100c26cc     PPGUI_Commands.obj
 0002:000106d0       ??_C@_01NANMIPIL@N@        100c26d0     PPGUI_Commands.obj
 0002:000106d4       ??_C@_01MJMHLOMK@O@        100c26d4     PPGUI_Commands.obj
 0002:000106d8       ??_C@_01EJNLAFE@P@         100c26d8     PPGUI_Commands.obj
 0002:000106dc       ??_C@_01BNIGIBBF@Q@        100c26dc     PPGUI_Commands.obj
 0002:000106e0       ??_C@_01DGKLNCNG@R@        100c26e0     PPGUI_Commands.obj
 0002:000106e4       ??_C@_01CPLAODJH@S@        100c26e4     PPGUI_Commands.obj
 0002:000106e8       ??_C@_01GAPBHFFA@T@        100c26e8     PPGUI_Commands.obj
 0002:000106ec       ??_C@_01HJOKEEBB@U@        100c26ec     PPGUI_Commands.obj
 0002:000106f0       ??_C@_01FCMHBHNC@V@        100c26f0     PPGUI_Commands.obj
 0002:000106f4       ??_C@_01ELNMCGJD@W@        100c26f4     PPGUI_Commands.obj
 0002:000106f8       ??_C@_01FAMBOPH@4@         100c26f8     PPGUI_Commands.obj
 0002:000106fc       ??_C@_01DHDKHMHF@6@        100c26fc     PPGUI_Commands.obj
 0002:00010700       ??_C@_01COCBENDE@7@        100c2700     PPGUI_Commands.obj
 0002:00010704       ??_C@_01KJLJFBPL@8@        100c2704     PPGUI_Commands.obj
 0002:00010708       ??_C@_01LAKCGALK@9@        100c2708     PPGUI_Commands.obj
 0002:00010710       ??_7PPGUI_Command@PPGUI@@6B@ 100c2710     PPGUI_Commands.obj
 0002:00010724       ??_7PPGUI_Window_Command@PPGUI@@6B@ 100c2724     PPGUI_Commands.obj
 0002:00010738       ??_7PPGUI_Checkbox_Command@PPGUI@@6B@ 100c2738     PPGUI_Commands.obj
 0002:0001074c       ??_7PPGUI_Button_Command@PPGUI@@6B@ 100c274c     PPGUI_Commands.obj
 0002:00010760       ??_7PPGUI_Groupbox_Command@PPGUI@@6B@ 100c2760     PPGUI_Commands.obj
 0002:00010774       ??_7PPGUI_Slider_Command@PPGUI@@6B@ 100c2774     PPGUI_Commands.obj
 0002:00010788       ??_7PPGUI_Separator_Command@PPGUI@@6B@ 100c2788     PPGUI_Commands.obj
 0002:0001079c       ??_7PPGUI_Keybind_Command@PPGUI@@6B@ 100c279c     PPGUI_Commands.obj
 0002:000107b0       ??_7PPGUI_Text_Input_Command@PPGUI@@6B@ 100c27b0     PPGUI_Commands.obj
 0002:000107c4       ??_7PPGUI_Combobox_Command@PPGUI@@6B@ 100c27c4     PPGUI_Commands.obj
 0002:000107d8       ??_7PPGUI_Multiselect_Combobox_Command@PPGUI@@6B@ 100c27d8     PPGUI_Commands.obj
 0002:000107ec       ??_7PPGUI_Color_Picker_Command@PPGUI@@6B@ 100c27ec     PPGUI_Commands.obj
 0002:00010800       ??_7PPGUI_Tab_Command@PPGUI@@6B@ 100c2800     PPGUI_Commands.obj
 0002:00010814       ??_7PPGUI_Tool_Tip_Command@PPGUI@@6B@ 100c2814     PPGUI_Commands.obj
 0002:00010828       ??_7?$basic_stringbuf@DU?$char_traits@D@std@@V?$allocator@D@2@@std@@6B@ 100c2828     PPGUI_Commands.obj
 0002:00010868       ??_7?$basic_stringstream@DU?$char_traits@D@std@@V?$allocator@D@2@@std@@6B@ 100c2868     PPGUI_Commands.obj
 0002:0001086c       ??_8?$basic_stringstream@DU?$char_traits@D@std@@V?$allocator@D@2@@std@@7B?$basic_istream@DU?$char_traits@D@std@@@1@@ 100c286c     PPGUI_Commands.obj
 0002:00010874       ??_8?$basic_stringstream@DU?$char_traits@D@std@@V?$allocator@D@2@@std@@7B?$basic_ostream@DU?$char_traits@D@std@@@1@@ 100c2874     PPGUI_Commands.obj
 0002:0001087c       ??_C@_03CCMDOIHN@?$CFs_@   100c287c     PPGUI_Commands.obj
 0002:00010880       ??_C@_03IKGEINEE@?$CFs?5@  100c2880     PPGUI_Commands.obj
 0002:00010884       ??_C@_04DJCABLIL@?$CFs?$CFc@ 100c2884     PPGUI_Commands.obj
 0002:0001088c       ??_C@_0BC@FOEPGIBJ@?$CFi?5items?5selected@ 100c288c     PPGUI_Commands.obj
 0002:000108a4       ??_7?$num_put@DV?$ostreambuf_iterator@DU?$char_traits@D@std@@@std@@@std@@6B@ 100c28a4     PPGUI_Commands.obj
 0002:000108d0       ??_C@_02BBAHNLBA@?$CFp@    100c28d0     PPGUI_Commands.obj
 0002:000108d4       ??_C@_02CLHGNPPK@Lu@       100c28d4     PPGUI_Commands.obj
 0002:000108d8       ??_C@_02HIKPPMOK@Ld@       100c28d8     PPGUI_Commands.obj
 0002:000108dc       ??_C@_02BDDLJJBK@lu@       100c28dc     PPGUI_Commands.obj
 0002:000108e0       ??_C@_02EAOCLKAK@ld@       100c28e0     PPGUI_Commands.obj
 0002:000108e8       ??_7?$numpunct@D@std@@6B@  100c28e8     PPGUI_Commands.obj
 0002:00010908       ??_C@_02MDKMJEGG@eE@       100c2908     PPGUI_Commands.obj
 0002:0001090c       ??_C@_02OOPEBDOJ@pP@       100c290c     PPGUI_Commands.obj
 0002:00010910       __real@3ff8000000000000    100c2910     PPGUI_Commands.obj
 0002:00010918       __real@4014000000000000    100c2918     PPGUI_Commands.obj
 0002:00010920       __real@4202a05f20000000    100c2920     PPGUI_Commands.obj
 0002:00010928       ??_C@_0BA@EAHDCAHA@xxxxxxxx?$DP?$DP?$DP?$DPxxx@ 100c2928     hooks.obj
 0002:00010938       ??_C@_0BA@PMEIOKGL@U?$IL?l?$ID?l?$AI?$IL?$BF?$AA?$AA?$AA?$AA?$APW?$MA@ 100c2938     hooks.obj
 0002:00010948       ??_C@_0BC@OOIPLIMD@MatSystemTopPanel@ 100c2948     hooks.obj
 0002:0001095c       ??_C@_07MPKOOCMG@HudZoom@  100c295c     hooks.obj
 0002:00010964       ??_C@_0DC@CKBOMCGI@Successfully?5hooked?5virtual?5fun@ 100c2964     hooks.obj
 0002:00010998       ??_C@_0DI@NHNEAKHH@Successfully?5hooked?5virtual?5fun@ 100c2998     hooks.obj
 0002:000109d0       ??_C@_0DF@HKHILHBI@Successfully?5hooked?5virtual?5fun@ 100c29d0     hooks.obj
 0002:00010a08       ??_C@_0DI@MIPPDNJI@Successfully?5hooked?5virtual?5fun@ 100c2a08     hooks.obj
 0002:00010a40       ??_C@_0DA@CINFFHEH@Successfully?5hooked?5virtual?5fun@ 100c2a40     hooks.obj
 0002:00010a70       ??_C@_0DA@INIKHIPB@Successfully?5hooked?5virtual?5fun@ 100c2a70     hooks.obj
 0002:00010aa0       ??_C@_0DE@PHBFJFOI@Successfully?5hooked?5virtual?5fun@ 100c2aa0     hooks.obj
 0002:00010ad4       ??_C@_0BC@ELHPMMNM@m_angEyeAngles?$FL0?$FN@ 100c2ad4     hooks.obj
 0002:00010ae8       ??_C@_0M@LGBCIIFJ@DT_CSPlayer@ 100c2ae8     hooks.obj
 0002:00010af4       ??_C@_0BC@EKLNKGOL@m_angEyeAngles?$FL1?$FN@ 100c2af4     hooks.obj
 0002:00010b08       ??_C@_0BC@HHBEMJFI@m_bDidSmokeEffect@ 100c2b08     hooks.obj
 0002:00010b1c       ??_C@_0BK@NNEDEOFF@DT_SmokeGrenadeProjectile@ 100c2b1c     hooks.obj
 0002:00010b38       ??_C@_07JCIBDCMH@VClient@  100c2b38     interfaces.obj
 0002:00010b40       ??_C@_0L@FHOOPKFG@VGUI_Panel@ 100c2b40     interfaces.obj
 0002:00010b4c       ??_C@_09CODMFJIB@vgui2?4dll@ 100c2b4c     interfaces.obj
 0002:00010b58       ??_C@_0N@DPFCIDHG@VGUI_Surface@ 100c2b58     interfaces.obj
 0002:00010b68       ??_C@_0P@OCAGFFCM@vguimatsurface@ 100c2b68     interfaces.obj
 0002:00010b78       ??_C@_0O@FDOOCLEF@VEngineClient@ 100c2b78     interfaces.obj
 0002:00010b88       ??_C@_0BC@IFHLHIPB@VClientEntityList@ 100c2b88     interfaces.obj
 0002:00010b9c       ??_C@_0O@HOKEFIHL@VDebugOverlay@ 100c2b9c     interfaces.obj
 0002:00010bac       ??_C@_0BC@JBNKAEJG@EngineTraceClient@ 100c2bac     interfaces.obj
 0002:00010bc0       ??_C@_0BB@JOMIIOGI@VModelInfoClient@ 100c2bc0     interfaces.obj
 0002:00010bd4       ??_C@_0M@EOFANOAE@VEngineCvar@ 100c2bd4     interfaces.obj
 0002:00010be0       ??_C@_0BD@KILDBMPM@InputSystemVersion@ 100c2be0     interfaces.obj
 0002:00010bf4       ??_C@_0BA@JBLHMOPO@inputsystem?4dll@ 100c2bf4     interfaces.obj
 0002:00010c04       ??_C@_0N@LHCGGBCI@VEngineModel@ 100c2c04     interfaces.obj
 0002:00010c14       ??_C@_0BC@JKKKFBEL@VEngineRenderView@ 100c2c14     interfaces.obj
 0002:00010c28       ??_C@_0BF@GFDELCOB@VPhysicsSurfaceProps@ 100c2c28     interfaces.obj
 0002:00010c40       ??_C@_0N@FNMJMILG@vphysics?4dll@ 100c2c40     interfaces.obj
 0002:00010c50       ??_C@_0BF@KOIHLKCK@GAMEEVENTSMANAGER002@ 100c2c50     interfaces.obj
 0002:00010c68       ??_C@_0BA@NIIHIFED@VMaterialSystem@ 100c2c68     interfaces.obj
 0002:00010c78       ??_C@_0BD@PEHNKAML@materialsystem?4dll@ 100c2c78     interfaces.obj
 0002:00010c8c       ??_C@_0BH@OPAFKODJ@A1?5?$DP?5?$DP?5?$DP?5?$DP?5A8?501?575?54B@ 100c2c8c     interfaces.obj
 0002:00010ca4       ??_C@_0N@LKNLNJEI@GameMovement@ 100c2ca4     interfaces.obj
 0002:00010cb4       ??_C@_0BC@NHPCLNIG@VClientPrediction@ 100c2cb4     interfaces.obj
 0002:00010cc8       ??_C@_0L@OODIEBAN@?$IL?$AN?$AA?$AA?$AA?$AA?$ILF?$AIh@ 100c2cc8     interfaces.obj
 0002:00010cd4       ??_C@_04MBOLING@?$FL?$HO?$FN?5@ 100c2cd4     interfaces.obj
 0002:00010cdc       ??_C@_0BA@OBHPCBFP@CreateInterface@ 100c2cdc     interfaces.obj
 0002:00010cec       ??_C@_05NNLMPMIC@?$CFs0?$CFi@ 100c2cec     interfaces.obj
 0002:00010cf4       ??_C@_06KJBDFNBH@?$CFs00?$CFi@ 100c2cf4     interfaces.obj
 0002:00010cfc       ??_C@_0BM@FLFKPNGA@Failed?5to?5find?5interface?5?9?5@ 100c2cfc     interfaces.obj
 0002:00010d18       ??_C@_0CA@PCHHEJAG@Successfully?5found?5interface?5?9?5@ 100c2d18     interfaces.obj
 0002:00010d38       ??_C@_0M@NCCCKNOE@?5not?5found?$CB@ 100c2d38     interfaces.obj
 0002:00010d44       ??_C@_0CB@IEBPMDJL@C?3?2Bameware?2Logs?2?$CFd?9?$CFm?9?$CFY?9?$CFH?4lo@ 100c2d44     logging.obj
 0002:00010d68       __real@400921fb54442d18    100c2d68     math.obj
 0002:00010d70       __real@43870000            100c2d70     math.obj
 0002:00010d74       ??_C@_0CE@LMJBGNDC@Successfully?5hooked?5netvar?5prox@ 100c2d74     NetvarManager.obj
 0002:00010d98       ??_C@_0BI@NDCAPNHN@Failed?5to?5get?5offset?5?9?5@ 100c2d98     NetvarManager.obj
 0002:00010db0       ??_C@_0BL@KNMNLGCB@Successfully?5found?5offset?5@ 100c2db0     NetvarManager.obj
 0002:00010dcc       ??_C@_0BD@JKKKGNKL@m_AttributeManager@ 100c2dcc     offsets.obj
 0002:00010de0       ??_C@_0O@OJENFICL@DT_EconEntity@ 100c2de0     offsets.obj
 0002:00010df0       ??_C@_06FKNLKGFE@m_Item@   100c2df0     offsets.obj
 0002:00010df8       ??_C@_0BG@NOKIDHNB@DT_AttributeContainer@ 100c2df8     offsets.obj
 0002:00010e10       ??_C@_0N@PCMAIJEE@m_nForceBone@ 100c2e10     offsets.obj
 0002:00010e20       ??_C@_0BB@POPPCPOC@DT_BaseAnimating@ 100c2e20     offsets.obj
 0002:00010e34       ??_C@_0BC@HCJNFOGH@m_flPoseParameter@ 100c2e34     offsets.obj
 0002:00010e48       ??_C@_0BG@IBOJPCLN@m_flNextPrimaryAttack@ 100c2e48     offsets.obj
 0002:00010e60       ??_C@_0BJ@NCBOFNBK@DT_LocalActiveWeaponData@ 100c2e60     offsets.obj
 0002:00010e7c       ??_C@_0BI@BCKKEFEG@m_flNextSecondaryAttack@ 100c2e7c     offsets.obj
 0002:00010e94       ??_C@_0P@IFMDLDIK@m_flNextAttack@ 100c2e94     offsets.obj
 0002:00010ea4       ??_C@_0BL@JFGKMECE@DT_BCCLocalPlayerExclusive@ 100c2ea4     offsets.obj
 0002:00010ec0       ??_C@_09FOIALPOM@m_iHealth@ 100c2ec0     offsets.obj
 0002:00010ecc       ??_C@_0O@KNDKHNCF@DT_BasePlayer@ 100c2ecc     offsets.obj
 0002:00010edc       ??_C@_08JPGJABNM@m_fFlags@ 100c2edc     offsets.obj
 0002:00010ee8       ??_C@_0BH@GJAPHBOD@m_flLowerBodyYawTarget@ 100c2ee8     offsets.obj
 0002:00010f00       ??_C@_0M@BAFECOKC@m_vecOrigin@ 100c2f00     offsets.obj
 0002:00010f0c       ??_C@_0O@NDBNDAKG@DT_BaseEntity@ 100c2f0c     offsets.obj
 0002:00010f1c       ??_C@_0L@OEKNBODE@m_iTeamNum@ 100c2f1c     offsets.obj
 0002:00010f28       ??_C@_0M@ILMGKKBH@m_Collision@ 100c2f28     offsets.obj
 0002:00010f34       ??_C@_0P@PAJMEMKA@m_angEyeAngles@ 100c2f34     offsets.obj
 0002:00010f44       ??_C@_0BD@IDNCLOOB@m_flSimulationTime@ 100c2f44     offsets.obj
 0002:00010f58       ??_C@_0BD@IHDNKCCD@m_bGunGameImmunity@ 100c2f58     offsets.obj
 0002:00010f6c       ??_C@_0BA@MIGFFMNM@m_hActiveWeapon@ 100c2f6c     offsets.obj
 0002:00010f7c       ??_C@_0BH@EFEKCINC@DT_BaseCombatCharacter@ 100c2f7c     offsets.obj
 0002:00010f94       ??_C@_0N@IIBEIILJ@m_ArmorValue@ 100c2f94     offsets.obj
 0002:00010fa4       ??_C@_0N@KELFAIEF@m_bHasHelmet@ 100c2fa4     offsets.obj
 0002:00010fb4       ??_C@_0M@PPOAODEA@m_bIsScoped@ 100c2fb4     offsets.obj
 0002:00010fc0       ??_C@_0BE@HFEMCGPD@m_nFallbackPaintKit@ 100c2fc0     offsets.obj
 0002:00010fd4       ??_C@_0BI@KDIKOMBE@DT_BaseAttributableItem@ 100c2fd4     offsets.obj
 0002:00010fec       ??_C@_0BB@IMPAFKGK@m_flFallbackWear@ 100c2fec     offsets.obj
 0002:00011000       ??_C@_0N@LDOBMGCE@m_hMyWeapons@ 100c3000     offsets.obj
 0002:00011010       ??_C@_0BO@DMPAACBH@DT_BCCNonLocalPlayerExclusive@ 100c3010     offsets.obj
 0002:00011030       ??_C@_0BA@LONLNMG@m_nFallbackSeed@ 100c3030     offsets.obj
 0002:00011040       ??_C@_0BE@GGJDINOK@m_nFallbackStatTrak@ 100c3040     offsets.obj
 0002:00011054       ??_C@_0BH@BLPCDECE@m_iItemDefinitionIndex@ 100c3054     offsets.obj
 0002:0001106c       ??_C@_0BF@KMPPDKNO@DT_ScriptCreatedItem@ 100c306c     offsets.obj
 0002:00011084       ??_C@_0O@KJEFBEF@m_iItemIDHigh@ 100c3084     offsets.obj
 0002:00011094       ??_C@_0P@GFHGANFM@m_szCustomName@ 100c3094     offsets.obj
 0002:000110a4       ??_C@_0BB@OIFBPKHJ@m_iEntityQuality@ 100c30a4     offsets.obj
 0002:000110b8       ??_C@_0N@JJMAHKON@m_iAccountID@ 100c30b8     offsets.obj
 0002:000110c8       ??_C@_0BK@KKEKOEGH@m_flPostponeFireReadyTime@ 100c30c8     offsets.obj
 0002:000110e4       ??_C@_0BA@GJLMCNFJ@DT_WeaponCSBase@ 100c30e4     offsets.obj
 0002:000110f4       ??_C@_0BA@GKDDFKAC@m_iObserverMode@ 100c30f4     offsets.obj
 0002:00011104       ??_C@_0BC@HLCHJLHC@m_flFlashDuration@ 100c3104     offsets.obj
 0002:00011118       ??_C@_0BC@CGLBMEHH@m_flThrowStrength@ 100c3118     offsets.obj
 0002:0001112c       ??_C@_0BB@BDMKEGJH@DT_BaseCSGrenade@ 100c312c     offsets.obj
 0002:00011140       ??_C@_0N@GJDDOKLN@m_bPinPulled@ 100c3140     offsets.obj
 0002:00011150       ??_C@_0L@FMFDKOOG@m_bSpotted@ 100c3150     offsets.obj
 0002:0001115c       ??_C@_0N@EOAKBOFO@m_fThrowTime@ 100c315c     offsets.obj
 0002:0001116c       ??_C@_08CHHOFABL@m_iClip1@ 100c316c     offsets.obj
 0002:00011178       ??_C@_0BE@OBECLDDP@DT_BaseCombatWeapon@ 100c3178     offsets.obj
 0002:0001118c       ??_C@_0BL@GKAMNBOO@m_iPrimaryReserveAmmoCount@ 100c318c     offsets.obj
 0002:000111a8       ??_C@_0O@BLDHPAC@m_nModelIndex@ 100c31a8     offsets.obj
 0002:000111b8       ??_C@_09FPFKFAGF@m_hWeapon@ 100c31b8     offsets.obj
 0002:000111c4       ??_C@_0BB@LBHIIDFM@DT_BaseViewModel@ 100c31c4     offsets.obj
 0002:000111d8       ??_C@_08LNJFHIKD@m_hOwner@ 100c31d8     offsets.obj
 0002:000111e4       ??_C@_0BE@JINCONAD@m_hWeaponWorldModel@ 100c31e4     offsets.obj
 0002:000111f8       ??_C@_0BC@NCIEGBIJ@m_iViewModelIndex@ 100c31f8     offsets.obj
 0002:0001120c       ??_C@_0BD@GFBBMJBP@m_iWorldModelIndex@ 100c320c     offsets.obj
 0002:00011220       ??_C@_0O@MFJONOMM@m_angRotation@ 100c3220     offsets.obj
 0002:00011230       __real@401921fb54442d18    100c3230     render.obj
 0002:00011238       ??_C@_04BFCCBDOP@Head@     100c3238     utils.obj
 0002:00011240       ??_C@_05HPKPHHNI@Chest@    100c3240     utils.obj
 0002:00011248       ??_C@_06EIPNOIEJ@Pelvis@   100c3248     utils.obj
 0002:00011250       ??_C@_08KEMBDKBN@Left?5Arm@ 100c3250     utils.obj
 0002:0001125c       ??_C@_09MGNPKLHM@Right?5Arm@ 100c325c     utils.obj
 0002:00011268       ??_C@_08LFCNLPLP@Left?5Leg@ 100c3268     utils.obj
 0002:00011274       ??_C@_09NHDDCONO@Right?5Leg@ 100c3274     utils.obj
 0002:00011280       ??_C@_0CB@PJCPBMCH@Counter?9Strike?3?5Global?5Offensiv@ 100c3280     variables.obj
 0002:000112a4       ??_C@_0CI@BGFANOEJ@C?3?2Bameware?2Resources?2Fonts?2aga@ 100c32a4     variables.obj
 0002:000112d0       ??_C@_0FM@FKHMNGPL@https?3?1?1drive?4google?4com?1uc?$DPaut@ 100c32d0     variables.obj
 0002:0001132c       ??_C@_0CL@POAMBCEB@C?3?2Bameware?2Resources?2Fonts?2ast@ 100c332c     variables.obj
 0002:00011358       ??_C@_0FF@CCKCJKPN@https?3?1?1drive?4google?4com?1u?10?1uc@ 100c3358     variables.obj
 0002:000113b0       ??_C@_07EHHHOIHI@Verdana@  100c33b0     variables.obj
 0002:000113b8       ??_C@_0P@JBPCNICL@Counter?9Strike@ 100c33b8     variables.obj
 0002:000113c8       ??_C@_07OKGCDDME@Againts@  100c33c8     variables.obj
 0002:000113d0       ?s_rbModRm@CDetourDis@@1QBEB 100c33d0     detours:disasm.obj
 0002:000114d0       ?s_rceCopyTable@CDetourDis@@1QBUCOPYENTRY@1@B 100c34d0     detours:disasm.obj
 0002:00011cd8       ?s_rceCopyTable0F@CDetourDis@@1QBUCOPYENTRY@1@B 100c3cd8     detours:disasm.obj
 0002:000124e4       ??_7bad_alloc@std@@6B@     100c44e4     libcpmt:xthrow.obj
 0002:000124ec       ??_C@_0P@GHFPNOJB@bad?5allocation@ 100c44ec     libcpmt:xthrow.obj
 0002:00012500       ??_7length_error@std@@6B@  100c4500     libcpmt:xthrow.obj
 0002:0001250c       ??_7out_of_range@std@@6B@  100c450c     libcpmt:xthrow.obj
 0002:00012518       ??_7_Locimp@locale@std@@6B@ 100c4518     libcpmt:locale0.obj
 0002:00012524       ??_C@_0O@BFJCFAAK@unknown?5error@ 100c4524     libcpmt:xonce.obj
 0002:00012a10       ??_C@_0BN@LKKBCCDB@address?5family?5not?5supported@ 100c4a10     libcpmt:syserror.obj
 0002:00012a30       ??_C@_0P@LDMLAFHI@address?5in?5use@ 100c4a30     libcpmt:syserror.obj
 0002:00012a40       ??_C@_0BG@DHPCNBJB@address?5not?5available@ 100c4a40     libcpmt:syserror.obj
 0002:00012a58       ??_C@_0BC@DFIBIBIL@already?5connected@ 100c4a58     libcpmt:syserror.obj
 0002:00012a6c       ??_C@_0BH@CAKOHOMI@argument?5list?5too?5long@ 100c4a6c     libcpmt:syserror.obj
 0002:00012a84       ??_C@_0BH@CGIMPKIM@argument?5out?5of?5domain@ 100c4a84     libcpmt:syserror.obj
 0002:00012a9c       ??_C@_0M@KGHGGJGL@bad?5address@ 100c4a9c     libcpmt:syserror.obj
 0002:00012aa8       ??_C@_0BE@MPJPGCEO@bad?5file?5descriptor@ 100c4aa8     libcpmt:syserror.obj
 0002:00012abc       ??_C@_0M@PMMIEFCP@bad?5message@ 100c4abc     libcpmt:syserror.obj
 0002:00012ac8       ??_C@_0M@KPHOFDBE@broken?5pipe@ 100c4ac8     libcpmt:syserror.obj
 0002:00012ad4       ??_C@_0BD@MGNDDEGM@connection?5aborted@ 100c4ad4     libcpmt:syserror.obj
 0002:00012ae8       ??_C@_0BP@KAIHPOGN@connection?5already?5in?5progress@ 100c4ae8     libcpmt:syserror.obj
 0002:00012b08       ??_C@_0BD@PJLIIJEL@connection?5refused@ 100c4b08     libcpmt:syserror.obj
 0002:00012b1c       ??_C@_0BB@IECNJNOI@connection?5reset@ 100c4b1c     libcpmt:syserror.obj
 0002:00012b30       ??_C@_0BC@PPHBOELF@cross?5device?5link@ 100c4b30     libcpmt:syserror.obj
 0002:00012b44       ??_C@_0BN@KDMIFEIP@destination?5address?5required@ 100c4b44     libcpmt:syserror.obj
 0002:00012b64       ??_C@_0BI@NGCEHDD@device?5or?5resource?5busy@ 100c4b64     libcpmt:syserror.obj
 0002:00012b7c       ??_C@_0BE@JIDOCPHM@directory?5not?5empty@ 100c4b7c     libcpmt:syserror.obj
 0002:00012b90       ??_C@_0BI@BNCLIGPB@executable?5format?5error@ 100c4b90     libcpmt:syserror.obj
 0002:00012ba8       ??_C@_0M@MIDIAGJP@file?5exists@ 100c4ba8     libcpmt:syserror.obj
 0002:00012bb4       ??_C@_0P@DNAJLBJK@file?5too?5large@ 100c4bb4     libcpmt:syserror.obj
 0002:00012bc4       ??_C@_0BC@EJHOMAAK@filename?5too?5long@ 100c4bc4     libcpmt:syserror.obj
 0002:00012bd8       ??_C@_0BH@KEFGLDAF@function?5not?5supported@ 100c4bd8     libcpmt:syserror.obj
 0002:00012bf0       ??_C@_0BB@DHFDFGDM@host?5unreachable@ 100c4bf0     libcpmt:syserror.obj
 0002:00012c04       ??_C@_0BD@JPHBMONG@identifier?5removed@ 100c4c04     libcpmt:syserror.obj
 0002:00012c18       ??_C@_0BG@CDNPAGJK@illegal?5byte?5sequence@ 100c4c18     libcpmt:syserror.obj
 0002:00012c30       ??_C@_0CD@BNPLBMNA@inappropriate?5io?5control?5operat@ 100c4c30     libcpmt:syserror.obj
 0002:00012c54       ??_C@_0M@EGEKIIMP@interrupted@ 100c4c54     libcpmt:syserror.obj
 0002:00012c60       ??_C@_0BB@FCMFBGOM@invalid?5argument@ 100c4c60     libcpmt:syserror.obj
 0002:00012c74       ??_C@_0N@OHAFKDEK@invalid?5seek@ 100c4c74     libcpmt:syserror.obj
 0002:00012c84       ??_C@_08GLNPIFBN@io?5error@ 100c4c84     libcpmt:syserror.obj
 0002:00012c90       ??_C@_0P@FLLDBIDK@is?5a?5directory@ 100c4c90     libcpmt:syserror.obj
 0002:00012ca0       ??_C@_0N@IFLPBIOP@message?5size@ 100c4ca0     libcpmt:syserror.obj
 0002:00012cb0       ??_C@_0N@KIIEAAIO@network?5down@ 100c4cb0     libcpmt:syserror.obj
 0002:00012cc0       ??_C@_0O@FNPDBHEE@network?5reset@ 100c4cc0     libcpmt:syserror.obj
 0002:00012cd0       ??_C@_0BE@IFNCKGE@network?5unreachable@ 100c4cd0     libcpmt:syserror.obj
 0002:00012ce4       ??_C@_0BA@PFFCAOFK@no?5buffer?5space@ 100c4ce4     libcpmt:syserror.obj
 0002:00012cf4       ??_C@_0BB@IEPBLJHK@no?5child?5process@ 100c4cf4     libcpmt:syserror.obj
 0002:00012d08       ??_C@_07PLECNNKG@no?5link@ 100c4d08     libcpmt:syserror.obj
 0002:00012d10       ??_C@_0BC@NJECKMKE@no?5lock?5available@ 100c4d10     libcpmt:syserror.obj
 0002:00012d24       ??_C@_0BF@PBGGPKKE@no?5message?5available@ 100c4d24     libcpmt:syserror.obj
 0002:00012d3c       ??_C@_0L@EDOLMPAK@no?5message@ 100c4d3c     libcpmt:syserror.obj
 0002:00012d48       ??_C@_0BD@EAMBFIDF@no?5protocol?5option@ 100c4d48     libcpmt:syserror.obj
 0002:00012d5c       ??_C@_0BD@IJDJKDEA@no?5space?5on?5device@ 100c4d5c     libcpmt:syserror.obj
 0002:00012d70       ??_C@_0BE@MKFDAFMP@no?5stream?5resources@ 100c4d70     libcpmt:syserror.obj
 0002:00012d84       ??_C@_0BK@IMCPHCBI@no?5such?5device?5or?5address@ 100c4d84     libcpmt:syserror.obj
 0002:00012da0       ??_C@_0P@FDINDDOK@no?5such?5device@ 100c4da0     libcpmt:syserror.obj
 0002:00012db0       ??_C@_0BK@NDOCBPGE@no?5such?5file?5or?5directory@ 100c4db0     libcpmt:syserror.obj
 0002:00012dcc       ??_C@_0BA@ENLPPKBN@no?5such?5process@ 100c4dcc     libcpmt:syserror.obj
 0002:00012ddc       ??_C@_0BA@DOCPFFJG@not?5a?5directory@ 100c4ddc     libcpmt:syserror.obj
 0002:00012dec       ??_C@_0N@POEIPGGF@not?5a?5socket@ 100c4dec     libcpmt:syserror.obj
 0002:00012dfc       ??_C@_0N@LGAPMMPI@not?5a?5stream@ 100c4dfc     libcpmt:syserror.obj
 0002:00012e0c       ??_C@_0O@GLMIBBEG@not?5connected@ 100c4e0c     libcpmt:syserror.obj
 0002:00012e1c       ??_C@_0BC@ENOOLCNF@not?5enough?5memory@ 100c4e1c     libcpmt:syserror.obj
 0002:00012e30       ??_C@_0O@NHEDABJP@not?5supported@ 100c4e30     libcpmt:syserror.obj
 0002:00012e40       ??_C@_0BD@MOLBPMEA@operation?5canceled@ 100c4e40     libcpmt:syserror.obj
 0002:00012e54       ??_C@_0BG@KDKHOPCO@operation?5in?5progress@ 100c4e54     libcpmt:syserror.obj
 0002:00012e6c       ??_C@_0BI@OHIEJAAB@operation?5not?5permitted@ 100c4e6c     libcpmt:syserror.obj
 0002:00012e84       ??_C@_0BI@LNEGIFLN@operation?5not?5supported@ 100c4e84     libcpmt:syserror.obj
 0002:00012e9c       ??_C@_0BG@OEMDKMEE@operation?5would?5block@ 100c4e9c     libcpmt:syserror.obj
 0002:00012eb4       ??_C@_0L@BLPOFLNJ@owner?5dead@ 100c4eb4     libcpmt:syserror.obj
 0002:00012ec0       ??_C@_0BC@CIJDGCDI@permission?5denied@ 100c4ec0     libcpmt:syserror.obj
 0002:00012ed4       ??_C@_0P@FNPOCJBE@protocol?5error@ 100c4ed4     libcpmt:syserror.obj
 0002:00012ee4       ??_C@_0BH@JPPPLHJB@protocol?5not?5supported@ 100c4ee4     libcpmt:syserror.obj
 0002:00012efc       ??_C@_0BG@EICBIHDP@read?5only?5file?5system@ 100c4efc     libcpmt:syserror.obj
 0002:00012f14       ??_C@_0BO@BJBOMOEJ@resource?5deadlock?5would?5occur@ 100c4f14     libcpmt:syserror.obj
 0002:00012f34       ??_C@_0BP@LKNGHENJ@resource?5unavailable?5try?5again@ 100c4f34     libcpmt:syserror.obj
 0002:00012f54       ??_C@_0BE@GOIPJJHG@result?5out?5of?5range@ 100c4f54     libcpmt:syserror.obj
 0002:00012f68       ??_C@_0BG@MPLKFPAE@state?5not?5recoverable@ 100c4f68     libcpmt:syserror.obj
 0002:00012f80       ??_C@_0P@DIIFGFCG@stream?5timeout@ 100c4f80     libcpmt:syserror.obj
 0002:00012f90       ??_C@_0P@IPFDMIFL@text?5file?5busy@ 100c4f90     libcpmt:syserror.obj
 0002:00012fa0       ??_C@_09KJPPMAOI@timed?5out@ 100c4fa0     libcpmt:syserror.obj
 0002:00012fac       ??_C@_0BO@HACHBEKI@too?5many?5files?5open?5in?5system@ 100c4fac     libcpmt:syserror.obj
 0002:00012fcc       ??_C@_0BE@GHAFMPAH@too?5many?5files?5open@ 100c4fcc     libcpmt:syserror.obj
 0002:00012fe0       ??_C@_0P@HCOMKFCC@too?5many?5links@ 100c4fe0     libcpmt:syserror.obj
 0002:00012ff0       ??_C@_0BO@EFGOJEF@too?5many?5symbolic?5link?5levels@ 100c4ff0     libcpmt:syserror.obj
 0002:00013010       ??_C@_0BA@KGKGOOJA@value?5too?5large@ 100c5010     libcpmt:syserror.obj
 0002:00013020       ??_C@_0BE@MIEJDDNH@wrong?5protocol?5type@ 100c5020     libcpmt:syserror.obj
 0002:00013038       ?_BADOFF@std@@3_JB         100c5038     libcpmt:ios.obj
 0002:0001307c       ??_C@_01KDCPPGHE@r@        100c507c     libcpmt:fiopen.obj
 0002:00013080       ??_C@_01MCMALHOG@a@        100c5080     libcpmt:fiopen.obj
 0002:00013084       ??_C@_02GMLFBBN@wb@        100c5084     libcpmt:fiopen.obj
 0002:00013088       ??_C@_02CBLLGHLK@r?$CL@    100c5088     libcpmt:fiopen.obj
 0002:0001308c       ??_C@_02DPNLHKJD@a?$CL@    100c508c     libcpmt:fiopen.obj
 0002:00013090       ??_C@_03HMFOOINA@r?$CLb@   100c5090     libcpmt:fiopen.obj
 0002:00013094       ??_C@_03ELIABIOC@w?$CLb@   100c5094     libcpmt:fiopen.obj
 0002:00013098       ??_C@_03DOPCBAKB@a?$CLb@   100c5098     libcpmt:fiopen.obj
 0002:0001309c       ?valid@?1???$_Xfiopen@D@std@@YAPAU_iobuf@@PBDHH@Z@4QBHB 100c509c     libcpmt:fiopen.obj
 0002:000130d8       ??_C@_0BM@EEBBMCOD@invalid?5random_device?5value@ 100c50d8     libcpmt:xrngdev.obj
 0002:000130f4       ??_C@_1BK@MGMFAEKH@?$AAk?$AAe?$AAr?$AAn?$AAe?$AAl?$AA3?$AA2?$AA?4?$AAd?$AAl?$AAl@ 100c50f4     libcpmt:winapisupp.obj
 0002:00013110       ??_C@_08KNHFBNJ@FlsAlloc@  100c5110     libcpmt:winapisupp.obj
 0002:0001311c       ??_C@_07PEJMOBNF@FlsFree@  100c511c     libcpmt:winapisupp.obj
 0002:00013124       ??_C@_0M@GDNOONDI@FlsGetValue@ 100c5124     libcpmt:winapisupp.obj
 0002:00013130       ??_C@_0M@JCPCPOEF@FlsSetValue@ 100c5130     libcpmt:winapisupp.obj
 0002:0001313c       ??_C@_0BM@HCFOFFN@InitializeCriticalSectionEx@ 100c513c     libcpmt:winapisupp.obj
 0002:00013158       ??_C@_0BE@GPLMMCMH@InitOnceExecuteOnce@ 100c5158     libcpmt:winapisupp.obj
 0002:0001316c       ??_C@_0P@DLHPPCNH@CreateEventExW@ 100c516c     libcpmt:winapisupp.obj
 0002:0001317c       ??_C@_0BB@MEFPJLHN@CreateSemaphoreW@ 100c517c     libcpmt:winapisupp.obj
 0002:00013190       ??_C@_0BD@KIEEOEEH@CreateSemaphoreExW@ 100c5190     libcpmt:winapisupp.obj
 0002:000131a4       ??_C@_0BG@OGFAJCKC@CreateThreadpoolTimer@ 100c51a4     libcpmt:winapisupp.obj
 0002:000131bc       ??_C@_0BD@LPLEMMDI@SetThreadpoolTimer@ 100c51bc     libcpmt:winapisupp.obj
 0002:000131d0       ??_C@_0CA@FMNJENH@WaitForThreadpoolTimerCallbacks@ 100c51d0     libcpmt:winapisupp.obj
 0002:000131f0       ??_C@_0BF@DCFCCNOC@CloseThreadpoolTimer@ 100c51f0     libcpmt:winapisupp.obj
 0002:00013208       ??_C@_0BF@FLABGKKM@CreateThreadpoolWait@ 100c5208     libcpmt:winapisupp.obj
 0002:00013220       ??_C@_0BC@MGCOHNA@SetThreadpoolWait@ 100c5220     libcpmt:winapisupp.obj
 0002:00013234       ??_C@_0BE@OCIOMIMP@CloseThreadpoolWait@ 100c5234     libcpmt:winapisupp.obj
 0002:00013248       ??_C@_0BJ@LKGHFHBO@FlushProcessWriteBuffers@ 100c5248     libcpmt:winapisupp.obj
 0002:00013264       ??_C@_0BP@KALKKPMO@FreeLibraryWhenCallbackReturns@ 100c5264     libcpmt:winapisupp.obj
 0002:00013284       ??_C@_0BK@DFNBACLA@GetCurrentProcessorNumber@ 100c5284     libcpmt:winapisupp.obj
 0002:000132a0       ??_C@_0BE@FKKLLFLM@CreateSymbolicLinkW@ 100c52a0     libcpmt:winapisupp.obj
 0002:000132b4       ??_C@_0BE@JOGNEJCI@GetCurrentPackageId@ 100c52b4     libcpmt:winapisupp.obj
 0002:000132c8       ??_C@_0P@CDHHOHKP@GetTickCount64@ 100c52c8     libcpmt:winapisupp.obj
 0002:000132d8       ??_C@_0BN@NEEHBBPO@GetFileInformationByHandleEx@ 100c52d8     libcpmt:winapisupp.obj
 0002:000132f8       ??_C@_0BL@KBBHGKCM@SetFileInformationByHandle@ 100c52f8     libcpmt:winapisupp.obj
 0002:00013314       ??_C@_0BP@FPNJPEJC@GetSystemTimePreciseAsFileTime@ 100c5314     libcpmt:winapisupp.obj
 0002:00013334       ??_C@_0BM@HLJJNPAH@InitializeConditionVariable@ 100c5334     libcpmt:winapisupp.obj
 0002:00013350       ??_C@_0BG@BFNILBLN@WakeConditionVariable@ 100c5350     libcpmt:winapisupp.obj
 0002:00013368       ??_C@_0BJ@PGPPEPCC@WakeAllConditionVariable@ 100c5368     libcpmt:winapisupp.obj
 0002:00013384       ??_C@_0BJ@JEBJOJFJ@SleepConditionVariableCS@ 100c5384     libcpmt:winapisupp.obj
 0002:000133a0       ??_C@_0BC@MMLHEBPB@InitializeSRWLock@ 100c53a0     libcpmt:winapisupp.obj
 0002:000133b4       ??_C@_0BI@OMNLIJDB@AcquireSRWLockExclusive@ 100c53b4     libcpmt:winapisupp.obj
 0002:000133cc       ??_C@_0BL@OGHFEMNA@TryAcquireSRWLockExclusive@ 100c53cc     libcpmt:winapisupp.obj
 0002:000133e8       ??_C@_0BI@HMIEPCNJ@ReleaseSRWLockExclusive@ 100c53e8     libcpmt:winapisupp.obj
 0002:00013400       ??_C@_0BK@LGACAGIC@SleepConditionVariableSRW@ 100c5400     libcpmt:winapisupp.obj
 0002:0001341c       ??_C@_0BF@GGPHFPJA@CreateThreadpoolWork@ 100c541c     libcpmt:winapisupp.obj
 0002:00013434       ??_C@_0BF@NHDAIMMO@SubmitThreadpoolWork@ 100c5434     libcpmt:winapisupp.obj
 0002:0001344c       ??_C@_0BE@NPHIPNPD@CloseThreadpoolWork@ 100c544c     libcpmt:winapisupp.obj
 0002:00013460       ??_C@_0BA@IHGNDAEB@CompareStringEx@ 100c5460     libcpmt:winapisupp.obj
 0002:00013470       ??_C@_0BA@ONOKGCMP@GetLocaleInfoEx@ 100c5470     libcpmt:winapisupp.obj
 0002:00013480       ??_C@_0O@KKBNKAPF@LCMapStringEx@ 100c5480     libcpmt:winapisupp.obj
 0002:000142d0       ??_C@_15EMKDOKLE@?$AAa?$AAr@ 100c62d0     libcpmt:winapinls.obj
 0002:000142d8       ??_C@_15KNPADPLH@?$AAb?$AAg@ 100c62d8     libcpmt:winapinls.obj
 0002:000142e0       ??_C@_15EDMHLDMO@?$AAc?$AAa@ 100c62e0     libcpmt:winapinls.obj
 0002:000142e8       ??_C@_1O@BPEAJADD@?$AAz?$AAh?$AA?9?$AAC?$AAH?$AAS@ 100c62e8     libcpmt:winapinls.obj
 0002:000142f8       ??_C@_15LJNHCMNK@?$AAc?$AAs@ 100c62f8     libcpmt:winapinls.obj
 0002:00014300       ??_C@_15FOMCIDHG@?$AAd?$AAa@ 100c6300     libcpmt:winapinls.obj
 0002:00014308       ??_C@_15NBKABECB@?$AAd?$AAe@ 100c6308     libcpmt:winapinls.obj
 0002:00014310       ??_C@_15GHPEIIAO@?$AAe?$AAl@ 100c6310     libcpmt:winapinls.obj
 0002:00014318       ??_C@_15MNPNEAIF@?$AAe?$AAn@ 100c6318     libcpmt:winapinls.obj
 0002:00014320       ??_C@_15GPIOMPMH@?$AAe?$AAs@ 100c6320     libcpmt:winapinls.obj
 0002:00014328       ??_C@_15NGLOAKJC@?$AAf?$AAi@ 100c6328     libcpmt:winapinls.obj
 0002:00014330       ??_C@_15FBKGNKAM@?$AAf?$AAr@ 100c6330     libcpmt:winapinls.obj
 0002:00014338       ??_C@_15KGGCNEFK@?$AAh?$AAe@ 100c6338     libcpmt:winapinls.obj
 0002:00014340       ??_C@_15PGHLIDMF@?$AAh?$AAu@ 100c6340     libcpmt:winapinls.obj
 0002:00014348       ??_C@_15BIEMAPLM@?$AAi?$AAs@ 100c6348     libcpmt:winapinls.obj
 0002:00014350       ??_C@_15IFJLDHAF@?$AAi?$AAt@ 100c6350     libcpmt:winapinls.obj
 0002:00014358       ??_C@_15GEMIOCAG@?$AAj?$AAa@ 100c6358     libcpmt:winapinls.obj
 0002:00014360       ??_C@_15EPELEGJA@?$AAk?$AAo@ 100c6360     libcpmt:winapinls.obj
 0002:00014368       ??_C@_15NDDHIMN@?$AAn?$AAl@ 100c6368     libcpmt:winapinls.obj
 0002:00014370       ??_C@_15BPIGNHCD@?$AAn?$AAo@ 100c6370     libcpmt:winapinls.obj
 0002:00014378       ??_C@_15DEOPBLCG@?$AAp?$AAl@ 100c6378     libcpmt:winapinls.obj
 0002:00014380       ??_C@_15KBECGEFG@?$AAp?$AAt@ 100c6380     libcpmt:winapinls.obj
 0002:00014388       ??_C@_15GLJCBFMD@?$AAr?$AAo@ 100c6388     libcpmt:winapinls.obj
 0002:00014390       ??_C@_15FEDGKCDI@?$AAr?$AAu@ 100c6390     libcpmt:winapinls.obj
 0002:00014398       ??_C@_15GLKMLLHM@?$AAh?$AAr@ 100c6398     libcpmt:winapinls.obj
 0002:000143a0       ??_C@_15CPKMFBDB@?$AAs?$AAk@ 100c63a0     libcpmt:winapinls.obj
 0002:000143a8       ??_C@_15BAAIOGMK@?$AAs?$AAq@ 100c63a8     libcpmt:winapinls.obj
 0002:000143b0       ??_C@_15INNPNOHD@?$AAs?$AAv@ 100c63b0     libcpmt:winapinls.obj
 0002:000143b8       ??_C@_15CABMMOGH@?$AAt?$AAh@ 100c63b8     libcpmt:winapinls.obj
 0002:000143c0       ??_C@_15BPLIHJJM@?$AAt?$AAr@ 100c63c0     libcpmt:winapinls.obj
 0002:000143c8       ??_C@_15NEOEKKDJ@?$AAu?$AAr@ 100c63c8     libcpmt:winapinls.obj
 0002:000143d0       ??_C@_15NFICGAJK@?$AAi?$AAd@ 100c63d0     libcpmt:winapinls.obj
 0002:000143d8       ??_C@_15PJPFLCCM@?$AAu?$AAk@ 100c63d8     libcpmt:winapinls.obj
 0002:000143e0       ??_C@_15HPJPHDM@?$AAb?$AAe@ 100c63e0     libcpmt:winapinls.obj
 0002:000143e8       ??_C@_15LCHLGJII@?$AAs?$AAl@ 100c63e8     libcpmt:winapinls.obj
 0002:000143f0       ??_C@_15PCFJPHHO@?$AAe?$AAt@ 100c63f0     libcpmt:winapinls.obj
 0002:000143f8       ??_C@_15HPFPGODN@?$AAl?$AAv@ 100c63f8     libcpmt:winapinls.obj
 0002:00014400       ??_C@_15NFFGKGLG@?$AAl?$AAt@ 100c6400     libcpmt:winapinls.obj
 0002:00014408       ??_C@_15BDAKCCHN@?$AAf?$AAa@ 100c6408     libcpmt:winapinls.obj
 0002:00014410       ??_C@_15NFGIAIAJ@?$AAv?$AAi@ 100c6410     libcpmt:winapinls.obj
 0002:00014418       ??_C@_15LMKNDMHN@?$AAh?$AAy@ 100c6418     libcpmt:winapinls.obj
 0002:00014420       ??_C@_15IJBHMCFL@?$AAa?$AAz@ 100c6420     libcpmt:winapinls.obj
 0002:00014428       ??_C@_15EKOFJABL@?$AAe?$AAu@ 100c6428     libcpmt:winapinls.obj
 0002:00014430       ??_C@_15BGHADCNK@?$AAm?$AAk@ 100c6430     libcpmt:winapinls.obj
 0002:00014438       ??_C@_15JDNICKHM@?$AAa?$AAf@ 100c6438     libcpmt:winapinls.obj
 0002:00014440       ??_C@_15KPJEDBKD@?$AAk?$AAa@ 100c6440     libcpmt:winapinls.obj
 0002:00014448       ??_C@_15PDNFFFEO@?$AAf?$AAo@ 100c6448     libcpmt:winapinls.obj
 0002:00014450       ??_C@_15OMLEGLOC@?$AAh?$AAi@ 100c6450     libcpmt:winapinls.obj
 0002:00014458       ??_C@_15IDNNENKK@?$AAm?$AAs@ 100c6458     libcpmt:winapinls.obj
 0002:00014460       ??_C@_15MACJNBMH@?$AAk?$AAk@ 100c6460     libcpmt:winapinls.obj
 0002:00014468       ??_C@_15DKDJEOND@?$AAk?$AAy@ 100c6468     libcpmt:winapinls.obj
 0002:00014470       ??_C@_15DFGDLJBG@?$AAs?$AAw@ 100c6470     libcpmt:winapinls.obj
 0002:00014478       ??_C@_15BBFAICNG@?$AAu?$AAz@ 100c6478     libcpmt:winapinls.obj
 0002:00014480       ??_C@_15DKNDCGEA@?$AAt?$AAt@ 100c6480     libcpmt:winapinls.obj
 0002:00014488       ??_C@_15MGIFMDPL@?$AAp?$AAa@ 100c6488     libcpmt:winapinls.obj
 0002:00014490       ??_C@_15HCNDBBA@?$AAg?$AAu@ 100c6490     libcpmt:winapinls.obj
 0002:00014498       ??_C@_15FNBEIBON@?$AAt?$AAa@ 100c6498     libcpmt:winapinls.obj
 0002:000144a0       ??_C@_15NCHGBGLK@?$AAt?$AAe@ 100c64a0     libcpmt:winapinls.obj
 0002:000144a8       ??_C@_15PHPHCBPF@?$AAk?$AAn@ 100c64a8     libcpmt:winapinls.obj
 0002:000144b0       ??_C@_15DLGBCKMP@?$AAm?$AAr@ 100c64b0     libcpmt:winapinls.obj
 0002:000144b8       ??_C@_15EABBLBFF@?$AAs?$AAa@ 100c64b8     libcpmt:winapinls.obj
 0002:000144c0       ??_C@_15CBKOMCOI@?$AAm?$AAn@ 100c64c0     libcpmt:winapinls.obj
 0002:000144c8       ??_C@_15CKDMCJAF@?$AAg?$AAl@ 100c64c8     libcpmt:winapinls.obj
 0002:000144d0       ??_C@_17CNJFBPG@?$AAk?$AAo?$AAk@ 100c64d0     libcpmt:winapinls.obj
 0002:000144d8       ??_C@_17FFBJICPL@?$AAs?$AAy?$AAr@ 100c64d8     libcpmt:winapinls.obj
 0002:000144e0       ??_C@_17KPNDCPAF@?$AAd?$AAi?$AAv@ 100c64e0     libcpmt:winapinls.obj
 0002:000144e8       ??_C@_11LOCGONAA@@         100c64e8     libcpmt:winapinls.obj
 0002:000144ec       ??_C@_1M@OKAHONE@?$AAa?$AAr?$AA?9?$AAS?$AAA@ 100c64ec     libcpmt:winapinls.obj
 0002:000144f8       ??_C@_1M@FFFIGIGK@?$AAb?$AAg?$AA?9?$AAB?$AAG@ 100c64f8     libcpmt:winapinls.obj
 0002:00014504       ??_C@_1M@BJNKEDC@?$AAc?$AAa?$AA?9?$AAE?$AAS@ 100c6504     libcpmt:winapinls.obj
 0002:00014510       ??_C@_1M@CLNBBOPM@?$AAz?$AAh?$AA?9?$AAT?$AAW@ 100c6510     libcpmt:winapinls.obj
 0002:0001451c       ??_C@_1M@IJJHFJHA@?$AAc?$AAs?$AA?9?$AAC?$AAZ@ 100c651c     libcpmt:winapinls.obj
 0002:00014528       ??_C@_1M@CLPEOBGI@?$AAd?$AAa?$AA?9?$AAD?$AAK@ 100c6528     libcpmt:winapinls.obj
 0002:00014534       ??_C@_1M@MCMADGCB@?$AAd?$AAe?$AA?9?$AAD?$AAE@ 100c6534     libcpmt:winapinls.obj
 0002:00014540       ??_C@_1M@OOCKEMAM@?$AAe?$AAl?$AA?9?$AAG?$AAR@ 100c6540     libcpmt:winapinls.obj
 0002:0001454c       ??_C@_1M@BMHNFIME@?$AAe?$AAn?$AA?9?$AAU?$AAS@ 100c654c     libcpmt:winapinls.obj
 0002:00014558       ??_C@_1M@DDNJFGID@?$AAf?$AAi?$AA?9?$AAF?$AAI@ 100c6558     libcpmt:winapinls.obj
 0002:00014564       ??_C@_1M@GLIPPMAC@?$AAf?$AAr?$AA?9?$AAF?$AAR@ 100c6564     libcpmt:winapinls.obj
 0002:00014570       ??_C@_1M@GFMCHPE@?$AAh?$AAe?$AA?9?$AAI?$AAL@ 100c6570     libcpmt:winapinls.obj
 0002:0001457c       ??_C@_1M@MHLPGNKM@?$AAh?$AAu?$AA?9?$AAH?$AAU@ 100c657c     libcpmt:winapinls.obj
 0002:00014588       ??_C@_1M@LPDDNNPN@?$AAi?$AAs?$AA?9?$AAI?$AAS@ 100c6588     libcpmt:winapinls.obj
 0002:00014594       ??_C@_1M@MADIPODN@?$AAi?$AAt?$AA?9?$AAI?$AAT@ 100c6594     libcpmt:winapinls.obj
 0002:000145a0       ??_C@_1M@HPNHIDJI@?$AAj?$AAa?$AA?9?$AAJ?$AAP@ 100c65a0     libcpmt:winapinls.obj
 0002:000145ac       ??_C@_1M@JLOOOEGK@?$AAk?$AAo?$AA?9?$AAK?$AAR@ 100c65ac     libcpmt:winapinls.obj
 0002:000145b8       ??_C@_1M@IHBJJGG@?$AAn?$AAl?$AA?9?$AAN?$AAL@ 100c65b8     libcpmt:winapinls.obj
 0002:000145c4       ??_C@_1M@EANAGDL@?$AAn?$AAb?$AA?9?$AAN?$AAO@ 100c65c4     libcpmt:winapinls.obj
 0002:000145d0       ??_C@_1M@NEIEMEGP@?$AAp?$AAl?$AA?9?$AAP?$AAL@ 100c65d0     libcpmt:winapinls.obj
 0002:000145dc       ??_C@_1M@BOCFIGEP@?$AAp?$AAt?$AA?9?$AAB?$AAR@ 100c65dc     libcpmt:winapinls.obj
 0002:000145e8       ??_C@_1M@IMPFOPBG@?$AAr?$AAo?$AA?9?$AAR?$AAO@ 100c65e8     libcpmt:winapinls.obj
 0002:000145f4       ??_C@_1M@IDNNEJMM@?$AAr?$AAu?$AA?9?$AAR?$AAU@ 100c65f4     libcpmt:winapinls.obj
 0002:00014600       ??_C@_1M@LILEEOGM@?$AAh?$AAr?$AA?9?$AAH?$AAR@ 100c6600     libcpmt:winapinls.obj
 0002:0001460c       ??_C@_1M@FKIFEHPB@?$AAs?$AAk?$AA?9?$AAS?$AAK@ 100c660c     libcpmt:winapinls.obj
 0002:00014618       ??_C@_1M@LJMAMNPJ@?$AAs?$AAq?$AA?9?$AAA?$AAL@ 100c6618     libcpmt:winapinls.obj
 0002:00014624       ??_C@_1M@GIAKDKJK@?$AAs?$AAv?$AA?9?$AAS?$AAE@ 100c6624     libcpmt:winapinls.obj
 0002:00014630       ??_C@_1M@MKJKIKCL@?$AAt?$AAh?$AA?9?$AAT?$AAH@ 100c6630     libcpmt:winapinls.obj
 0002:0001463c       ??_C@_1M@MFLCCMPB@?$AAt?$AAr?$AA?9?$AAT?$AAR@ 100c663c     libcpmt:winapinls.obj
 0002:00014648       ??_C@_1M@OIJHDKJN@?$AAu?$AAr?$AA?9?$AAP?$AAK@ 100c6648     libcpmt:winapinls.obj
 0002:00014654       ??_C@_1M@LHIPCIEK@?$AAi?$AAd?$AA?9?$AAI?$AAD@ 100c6654     libcpmt:winapinls.obj
 0002:00014660       ??_C@_1M@MFMOBGI@?$AAu?$AAk?$AA?9?$AAU?$AAA@ 100c6660     libcpmt:winapinls.obj
 0002:0001466c       ??_C@_1M@OBGLJIPL@?$AAb?$AAe?$AA?9?$AAB?$AAY@ 100c666c     libcpmt:winapinls.obj
 0002:00014678       ??_C@_1M@BCFAJEAD@?$AAs?$AAl?$AA?9?$AAS?$AAI@ 100c6678     libcpmt:winapinls.obj
 0002:00014684       ??_C@_1M@FKFFEDDN@?$AAe?$AAt?$AA?9?$AAE?$AAE@ 100c6684     libcpmt:winapinls.obj
 0002:00014690       ??_C@_1M@KGKKAACI@?$AAl?$AAv?$AA?9?$AAL?$AAV@ 100c6690     libcpmt:winapinls.obj
 0002:0001469c       ??_C@_1M@IFGBIJO@?$AAl?$AAt?$AA?9?$AAL?$AAT@ 100c669c     libcpmt:winapinls.obj
 0002:000146a8       ??_C@_1M@FGEAHEDM@?$AAf?$AAa?$AA?9?$AAI?$AAR@ 100c66a8     libcpmt:winapinls.obj
 0002:000146b4       ??_C@_1M@KBMAIBFN@?$AAv?$AAi?$AA?9?$AAV?$AAN@ 100c66b4     libcpmt:winapinls.obj
 0002:000146c0       ??_C@_1M@GPCBKDJK@?$AAh?$AAy?$AA?9?$AAA?$AAM@ 100c66c0     libcpmt:winapinls.obj
 0002:000146cc       ??_C@_1BG@BECMDDJB@?$AAa?$AAz?$AA?9?$AAA?$AAZ?$AA?9?$AAL?$AAa?$AAt?$AAn@ 100c66cc     libcpmt:winapinls.obj
 0002:000146e4       ??_C@_1M@MAOFCAEA@?$AAe?$AAu?$AA?9?$AAE?$AAS@ 100c66e4     libcpmt:winapinls.obj
 0002:000146f0       ??_C@_1M@IGHABKPI@?$AAm?$AAk?$AA?9?$AAM?$AAK@ 100c66f0     libcpmt:winapinls.obj
 0002:000146fc       ??_C@_1M@IAIGNEJG@?$AAt?$AAn?$AA?9?$AAZ?$AAA@ 100c66fc     libcpmt:winapinls.obj
 0002:00014708       ??_C@_1M@IIJCOJFA@?$AAx?$AAh?$AA?9?$AAZ?$AAA@ 100c6708     libcpmt:winapinls.obj
 0002:00014714       ??_C@_1M@LGPJHNJH@?$AAz?$AAu?$AA?9?$AAZ?$AAA@ 100c6714     libcpmt:winapinls.obj
 0002:00014720       ??_C@_1M@HOKAOIO@?$AAa?$AAf?$AA?9?$AAZ?$AAA@ 100c6720     libcpmt:winapinls.obj
 0002:0001472c       ??_C@_1M@DPCLHLIE@?$AAk?$AAa?$AA?9?$AAG?$AAE@ 100c672c     libcpmt:winapinls.obj
 0002:00014738       ??_C@_1M@BLKMHJBI@?$AAf?$AAo?$AA?9?$AAF?$AAO@ 100c6738     libcpmt:winapinls.obj
 0002:00014744       ??_C@_1M@LGGJAPPB@?$AAh?$AAi?$AA?9?$AAI?$AAN@ 100c6744     libcpmt:winapinls.obj
 0002:00014750       ??_C@_1M@FIKPIHFE@?$AAm?$AAt?$AA?9?$AAM?$AAT@ 100c6750     libcpmt:winapinls.obj
 0002:0001475c       ??_C@_1M@HEGGPBFA@?$AAs?$AAe?$AA?9?$AAN?$AAO@ 100c675c     libcpmt:winapinls.obj
 0002:00014768       ??_C@_1M@EIBJEEPA@?$AAm?$AAs?$AA?9?$AAM?$AAY@ 100c6768     libcpmt:winapinls.obj
 0002:00014774       ??_C@_1M@FHLBGMPP@?$AAk?$AAk?$AA?9?$AAK?$AAZ@ 100c6774     libcpmt:winapinls.obj
 0002:00014780       ??_C@_1M@NGJJLCGI@?$AAk?$AAy?$AA?9?$AAK?$AAG@ 100c6780     libcpmt:winapinls.obj
 0002:0001478c       ??_C@_1M@GIENNBFC@?$AAs?$AAw?$AA?9?$AAK?$AAE@ 100c678c     libcpmt:winapinls.obj
 0002:00014798       ??_C@_1BG@NDGMJIMJ@?$AAu?$AAz?$AA?9?$AAU?$AAZ?$AA?9?$AAL?$AAa?$AAt?$AAn@ 100c6798     libcpmt:winapinls.obj
 0002:000147b0       ??_C@_1M@IDCCIHBC@?$AAt?$AAt?$AA?9?$AAR?$AAU@ 100c67b0     libcpmt:winapinls.obj
 0002:000147bc       ??_C@_1M@LOICPMOJ@?$AAb?$AAn?$AA?9?$AAI?$AAN@ 100c67bc     libcpmt:winapinls.obj
 0002:000147c8       ??_C@_1M@KPKKNEAH@?$AAp?$AAa?$AA?9?$AAI?$AAN@ 100c67c8     libcpmt:winapinls.obj
 0002:000147d4       ??_C@_1M@PJGPPBOG@?$AAg?$AAu?$AA?9?$AAI?$AAN@ 100c67d4     libcpmt:winapinls.obj
 0002:000147e0       ??_C@_1M@KMKMOPHI@?$AAt?$AAa?$AA?9?$AAI?$AAN@ 100c67e0     libcpmt:winapinls.obj
 0002:000147ec       ??_C@_1M@KFEHEPAC@?$AAt?$AAe?$AA?9?$AAI?$AAN@ 100c67ec     libcpmt:winapinls.obj
 0002:000147f8       ??_C@_1M@CDCLMGHI@?$AAk?$AAn?$AA?9?$AAI?$AAN@ 100c67f8     libcpmt:winapinls.obj
 0002:00014804       ??_C@_1M@MIODLDKF@?$AAm?$AAl?$AA?9?$AAI?$AAN@ 100c6804     libcpmt:winapinls.obj
 0002:00014810       ??_C@_1M@PBIEACPO@?$AAm?$AAr?$AA?9?$AAI?$AAN@ 100c6810     libcpmt:winapinls.obj
 0002:0001481c       ??_C@_1M@NIDEAGPH@?$AAs?$AAa?$AA?9?$AAI?$AAN@ 100c681c     libcpmt:winapinls.obj
 0002:00014828       ??_C@_1M@FHIHCBIO@?$AAm?$AAn?$AA?9?$AAM?$AAN@ 100c6828     libcpmt:winapinls.obj
 0002:00014834       ??_C@_1M@JAIJPENP@?$AAc?$AAy?$AA?9?$AAG?$AAB@ 100c6834     libcpmt:winapinls.obj
 0002:00014840       ??_C@_1M@PHGFBEPN@?$AAg?$AAl?$AA?9?$AAE?$AAS@ 100c6840     libcpmt:winapinls.obj
 0002:0001484c       ??_C@_1O@KPIPDNCP@?$AAk?$AAo?$AAk?$AA?9?$AAI?$AAN@ 100c684c     libcpmt:winapinls.obj
 0002:0001485c       ??_C@_1O@KNHJLDJA@?$AAs?$AAy?$AAr?$AA?9?$AAS?$AAY@ 100c685c     libcpmt:winapinls.obj
 0002:0001486c       ??_C@_1O@MKEKBLAH@?$AAd?$AAi?$AAv?$AA?9?$AAM?$AAV@ 100c686c     libcpmt:winapinls.obj
 0002:0001487c       ??_C@_1O@OHDCKDDF@?$AAq?$AAu?$AAz?$AA?9?$AAB?$AAO@ 100c687c     libcpmt:winapinls.obj
 0002:0001488c       ??_C@_1M@LEPJNLFD@?$AAn?$AAs?$AA?9?$AAZ?$AAA@ 100c688c     libcpmt:winapinls.obj
 0002:00014898       ??_C@_1M@OMLEIIJB@?$AAm?$AAi?$AA?9?$AAN?$AAZ@ 100c6898     libcpmt:winapinls.obj
 0002:000148a4       ??_C@_1M@PMPEAILG@?$AAa?$AAr?$AA?9?$AAI?$AAQ@ 100c68a4     libcpmt:winapinls.obj
 0002:000148b0       ??_C@_1M@BIBDDEMK@?$AAz?$AAh?$AA?9?$AAC?$AAN@ 100c68b0     libcpmt:winapinls.obj
 0002:000148bc       ??_C@_1M@CNKPNOEE@?$AAd?$AAe?$AA?9?$AAC?$AAH@ 100c68bc     libcpmt:winapinls.obj
 0002:000148c8       ??_C@_1M@LKMGMLKO@?$AAe?$AAn?$AA?9?$AAG?$AAB@ 100c68c8     libcpmt:winapinls.obj
 0002:000148d4       ??_C@_1M@PGKJFFGL@?$AAe?$AAs?$AA?9?$AAM?$AAX@ 100c68d4     libcpmt:winapinls.obj
 0002:000148e0       ??_C@_1M@DNNANBDC@?$AAf?$AAr?$AA?9?$AAB?$AAE@ 100c68e0     libcpmt:winapinls.obj
 0002:000148ec       ??_C@_1M@HLGMDFHM@?$AAi?$AAt?$AA?9?$AAC?$AAH@ 100c68ec     libcpmt:winapinls.obj
 0002:000148f8       ??_C@_1M@CLLBGJH@?$AAn?$AAl?$AA?9?$AAB?$AAE@ 100c68f8     libcpmt:winapinls.obj
 0002:00014904       ??_C@_1M@BODBOGLF@?$AAn?$AAn?$AA?9?$AAN?$AAO@ 100c6904     libcpmt:winapinls.obj
 0002:00014910       ??_C@_1M@HFFAHKAD@?$AAp?$AAt?$AA?9?$AAP?$AAT@ 100c6910     libcpmt:winapinls.obj
 0002:0001491c       ??_C@_1BG@LNOAKHIE@?$AAs?$AAr?$AA?9?$AAS?$AAP?$AA?9?$AAL?$AAa?$AAt?$AAn@ 100c691c     libcpmt:winapinls.obj
 0002:00014934       ??_C@_1M@HBMHBGAK@?$AAs?$AAv?$AA?9?$AAF?$AAI@ 100c6934     libcpmt:winapinls.obj
 0002:00014940       ??_C@_1BG@DGCJGJBE@?$AAa?$AAz?$AA?9?$AAA?$AAZ?$AA?9?$AAC?$AAy?$AAr?$AAl@ 100c6940     libcpmt:winapinls.obj
 0002:00014958       ??_C@_1M@KEJDAAHB@?$AAs?$AAe?$AA?9?$AAS?$AAE@ 100c6958     libcpmt:winapinls.obj
 0002:00014964       ??_C@_1M@HEIBJJAD@?$AAm?$AAs?$AA?9?$AAB?$AAN@ 100c6964     libcpmt:winapinls.obj
 0002:00014970       ??_C@_1BG@PBGJMCEM@?$AAu?$AAz?$AA?9?$AAU?$AAZ?$AA?9?$AAC?$AAy?$AAr?$AAl@ 100c6970     libcpmt:winapinls.obj
 0002:00014988       ??_C@_1O@LAOBCMDF@?$AAq?$AAu?$AAz?$AA?9?$AAE?$AAC@ 100c6988     libcpmt:winapinls.obj
 0002:00014998       ??_C@_1M@POEEMAIO@?$AAa?$AAr?$AA?9?$AAE?$AAG@ 100c6998     libcpmt:winapinls.obj
 0002:000149a4       ??_C@_1M@EFAKDEDL@?$AAz?$AAh?$AA?9?$AAH?$AAK@ 100c69a4     libcpmt:winapinls.obj
 0002:000149b0       ??_C@_1M@HKKIJHGI@?$AAd?$AAe?$AA?9?$AAA?$AAT@ 100c69b0     libcpmt:winapinls.obj
 0002:000149bc       ??_C@_1M@KBFBEHJF@?$AAe?$AAn?$AA?9?$AAA?$AAU@ 100c69bc     libcpmt:winapinls.obj
 0002:000149c8       ??_C@_1M@MNPLFAAH@?$AAe?$AAs?$AA?9?$AAE?$AAS@ 100c69c8     libcpmt:winapinls.obj
 0002:000149d4       ??_C@_1M@HJOOJFMA@?$AAf?$AAr?$AA?9?$AAC?$AAA@ 100c69d4     libcpmt:winapinls.obj
 0002:000149e0       ??_C@_1BG@JPOFPNAB@?$AAs?$AAr?$AA?9?$AAS?$AAP?$AA?9?$AAC?$AAy?$AAr?$AAl@ 100c69e0     libcpmt:winapinls.obj
 0002:000149f8       ??_C@_1M@LNFOCMOB@?$AAs?$AAe?$AA?9?$AAF?$AAI@ 100c69f8     libcpmt:winapinls.obj
 0002:00014a04       ??_C@_1O@MGJBOAMB@?$AAq?$AAu?$AAz?$AA?9?$AAP?$AAE@ 100c6a04     libcpmt:winapinls.obj
 0002:00014a14       ??_C@_1M@GJINLBOK@?$AAa?$AAr?$AA?9?$AAL?$AAY@ 100c6a14     libcpmt:winapinls.obj
 0002:00014a20       ??_C@_1M@GGMNHJNL@?$AAz?$AAh?$AA?9?$AAS?$AAG@ 100c6a20     libcpmt:winapinls.obj
 0002:00014a2c       ??_C@_1M@HOIKODND@?$AAd?$AAe?$AA?9?$AAL?$AAU@ 100c6a2c     libcpmt:winapinls.obj
 0002:00014a38       ??_C@_1M@DDOCCGFG@?$AAe?$AAn?$AA?9?$AAC?$AAA@ 100c6a38     libcpmt:winapinls.obj
 0002:00014a44       ??_C@_1M@BNOEMJLF@?$AAe?$AAs?$AA?9?$AAG?$AAT@ 100c6a44     libcpmt:winapinls.obj
 0002:00014a50       ??_C@_1M@EOGNKEK@?$AAf?$AAr?$AA?9?$AAC?$AAH@ 100c6a50     libcpmt:winapinls.obj
 0002:00014a5c       ??_C@_1M@FLIDJFHL@?$AAh?$AAr?$AA?9?$AAB?$AAA@ 100c6a5c     libcpmt:winapinls.obj
 0002:00014a68       ??_C@_1O@FMCELNAJ@?$AAs?$AAm?$AAj?$AA?9?$AAN?$AAO@ 100c6a68     libcpmt:winapinls.obj
 0002:00014a78       ??_C@_1M@JHGLJMGJ@?$AAa?$AAr?$AA?9?$AAD?$AAZ@ 100c6a78     libcpmt:winapinls.obj
 0002:00014a84       ??_C@_1M@JKKFDCNP@?$AAz?$AAh?$AA?9?$AAM?$AAO@ 100c6a84     libcpmt:winapinls.obj
 0002:00014a90       ??_C@_1M@GEEFALPE@?$AAd?$AAe?$AA?9?$AAL?$AAI@ 100c6a90     libcpmt:winapinls.obj
 0002:00014a9c       ??_C@_1M@IGEOFBG@?$AAe?$AAn?$AA?9?$AAN?$AAZ@ 100c6a9c     libcpmt:winapinls.obj
 0002:00014aa8       ??_C@_1M@KDBONEHP@?$AAe?$AAs?$AA?9?$AAC?$AAR@ 100c6aa8     libcpmt:winapinls.obj
 0002:00014ab4       ??_C@_1M@FHMDOHNN@?$AAf?$AAr?$AA?9?$AAL?$AAU@ 100c6ab4     libcpmt:winapinls.obj
 0002:00014ac0       ??_C@_1BG@NFKKMAFG@?$AAb?$AAs?$AA?9?$AAB?$AAA?$AA?9?$AAL?$AAa?$AAt?$AAn@ 100c6ac0     libcpmt:winapinls.obj
 0002:00014ad8       ??_C@_1O@IMNBEMCI@?$AAs?$AAm?$AAj?$AA?9?$AAS?$AAE@ 100c6ad8     libcpmt:winapinls.obj
 0002:00014ae8       ??_C@_1M@DHHMBNDP@?$AAa?$AAr?$AA?9?$AAM?$AAA@ 100c6ae8     libcpmt:winapinls.obj
 0002:00014af4       ??_C@_1M@BNBLJCGH@?$AAe?$AAn?$AA?9?$AAI?$AAE@ 100c6af4     libcpmt:winapinls.obj
 0002:00014b00       ??_C@_1M@GEPAFMDL@?$AAe?$AAs?$AA?9?$AAP?$AAA@ 100c6b00     libcpmt:winapinls.obj
 0002:00014b0c       ??_C@_1M@OJONDMDL@?$AAf?$AAr?$AA?9?$AAM?$AAC@ 100c6b0c     libcpmt:winapinls.obj
 0002:00014b18       ??_C@_1BG@OBCNFJB@?$AAs?$AAr?$AA?9?$AAB?$AAA?$AA?9?$AAL?$AAa?$AAt?$AAn@ 100c6b18     libcpmt:winapinls.obj
 0002:00014b30       ??_C@_1O@KEMEEGPO@?$AAs?$AAm?$AAa?$AA?9?$AAN?$AAO@ 100c6b30     libcpmt:winapinls.obj
 0002:00014b40       ??_C@_1M@ELMGFODK@?$AAa?$AAr?$AA?9?$AAT?$AAN@ 100c6b40     libcpmt:winapinls.obj
 0002:00014b4c       ??_C@_1M@BHDLHFAF@?$AAe?$AAn?$AA?9?$AAZ?$AAA@ 100c6b4c     libcpmt:winapinls.obj
 0002:00014b58       ??_C@_1M@BMGIGLIF@?$AAe?$AAs?$AA?9?$AAD?$AAO@ 100c6b58     libcpmt:winapinls.obj
 0002:00014b64       ??_C@_1BG@CMBHIPBE@?$AAs?$AAr?$AA?9?$AAB?$AAA?$AA?9?$AAC?$AAy?$AAr?$AAl@ 100c6b64     libcpmt:winapinls.obj
 0002:00014b7c       ??_C@_1O@HEDBLHNP@?$AAs?$AAm?$AAa?$AA?9?$AAS?$AAE@ 100c6b7c     libcpmt:winapinls.obj
 0002:00014b8c       ??_C@_1M@DAGCADIM@?$AAa?$AAr?$AA?9?$AAO?$AAM@ 100c6b8c     libcpmt:winapinls.obj
 0002:00014b98       ??_C@_1M@FODLMICG@?$AAe?$AAn?$AA?9?$AAJ?$AAM@ 100c6b98     libcpmt:winapinls.obj
 0002:00014ba4       ??_C@_1M@DNMLCIHB@?$AAe?$AAs?$AA?9?$AAV?$AAE@ 100c6ba4     libcpmt:winapinls.obj
 0002:00014bb0       ??_C@_1O@EOKHMKJK@?$AAs?$AAm?$AAs?$AA?9?$AAF?$AAI@ 100c6bb0     libcpmt:winapinls.obj
 0002:00014bc0       ??_C@_1M@CAFJMKOF@?$AAa?$AAr?$AA?9?$AAY?$AAE@ 100c6bc0     libcpmt:winapinls.obj
 0002:00014bcc       ??_C@_1M@CBFHIJLI@?$AAe?$AAn?$AA?9?$AAC?$AAB@ 100c6bcc     libcpmt:winapinls.obj
 0002:00014bd8       ??_C@_1M@BGNFLDN@?$AAe?$AAs?$AA?9?$AAC?$AAO@ 100c6bd8     libcpmt:winapinls.obj
 0002:00014be4       ??_C@_1O@JMPHMAMC@?$AAs?$AAm?$AAn?$AA?9?$AAF?$AAI@ 100c6be4     libcpmt:winapinls.obj
 0002:00014bf4       ??_C@_1M@JLANABKE@?$AAa?$AAr?$AA?9?$AAS?$AAY@ 100c6bf4     libcpmt:winapinls.obj
 0002:00014c00       ??_C@_1M@HPKGCFGN@?$AAe?$AAn?$AA?9?$AAB?$AAZ@ 100c6c00     libcpmt:winapinls.obj
 0002:00014c0c       ??_C@_1M@OLJCMLGM@?$AAe?$AAs?$AA?9?$AAP?$AAE@ 100c6c0c     libcpmt:winapinls.obj
 0002:00014c18       ??_C@_1M@MKKGFKLE@?$AAa?$AAr?$AA?9?$AAJ?$AAO@ 100c6c18     libcpmt:winapinls.obj
 0002:00014c24       ??_C@_1M@EKPGLDNI@?$AAe?$AAn?$AA?9?$AAT?$AAT@ 100c6c24     libcpmt:winapinls.obj
 0002:00014c30       ??_C@_1M@OONGHFHE@?$AAe?$AAs?$AA?9?$AAA?$AAR@ 100c6c30     libcpmt:winapinls.obj
 0002:00014c3c       ??_C@_1M@OOJFGBHE@?$AAa?$AAr?$AA?9?$AAL?$AAB@ 100c6c3c     libcpmt:winapinls.obj
 0002:00014c48       ??_C@_1M@GCEJHNEG@?$AAe?$AAn?$AA?9?$AAZ?$AAW@ 100c6c48     libcpmt:winapinls.obj
 0002:00014c54       ??_C@_1M@JNOCAHJI@?$AAe?$AAs?$AA?9?$AAE?$AAC@ 100c6c54     libcpmt:winapinls.obj
 0002:00014c60       ??_C@_1M@JEFHPGGB@?$AAa?$AAr?$AA?9?$AAK?$AAW@ 100c6c60     libcpmt:winapinls.obj
 0002:00014c6c       ??_C@_1M@MLKIBJOJ@?$AAe?$AAn?$AA?9?$AAP?$AAH@ 100c6c6c     libcpmt:winapinls.obj
 0002:00014c78       ??_C@_1M@BDNIPEND@?$AAe?$AAs?$AA?9?$AAC?$AAL@ 100c6c78     libcpmt:winapinls.obj
 0002:00014c84       ??_C@_1M@MPNMEKBD@?$AAa?$AAr?$AA?9?$AAA?$AAE@ 100c6c84     libcpmt:winapinls.obj
 0002:00014c90       ??_C@_1M@KBJALCPI@?$AAe?$AAs?$AA?9?$AAU?$AAY@ 100c6c90     libcpmt:winapinls.obj
 0002:00014c9c       ??_C@_1M@LLCCOAGA@?$AAa?$AAr?$AA?9?$AAB?$AAH@ 100c6c9c     libcpmt:winapinls.obj
 0002:00014ca8       ??_C@_1M@PBFNCDEL@?$AAe?$AAs?$AA?9?$AAP?$AAY@ 100c6ca8     libcpmt:winapinls.obj
 0002:00014cb4       ??_C@_1M@EDGINPNP@?$AAa?$AAr?$AA?9?$AAQ?$AAA@ 100c6cb4     libcpmt:winapinls.obj
 0002:00014cc0       ??_C@_1M@MKDBIIJI@?$AAe?$AAs?$AA?9?$AAB?$AAO@ 100c6cc0     libcpmt:winapinls.obj
 0002:00014ccc       ??_C@_1M@CPKKEBLD@?$AAe?$AAs?$AA?9?$AAS?$AAV@ 100c6ccc     libcpmt:winapinls.obj
 0002:00014cd8       ??_C@_1M@NDBGMMJL@?$AAe?$AAs?$AA?9?$AAH?$AAN@ 100c6cd8     libcpmt:winapinls.obj
 0002:00014ce4       ??_C@_1M@JIJIBHDP@?$AAe?$AAs?$AA?9?$AAN?$AAI@ 100c6ce4     libcpmt:winapinls.obj
 0002:00014cf0       ??_C@_1M@CGFMKEEK@?$AAe?$AAs?$AA?9?$AAP?$AAR@ 100c6cf0     libcpmt:winapinls.obj
 0002:00014cfc       ??_C@_1O@ICJHKIIK@?$AAz?$AAh?$AA?9?$AAC?$AAH?$AAT@ 100c6cfc     libcpmt:winapinls.obj
 0002:00014d0c       ??_C@_15CLNEJCE@?$AAs?$AAr@ 100c6d0c     libcpmt:winapinls.obj
 0002:00014d14       ??_C@_1M@KAHEKEIG@?$AAa?$AAf?$AA?9?$AAz?$AAa@ 100c6d14     libcpmt:winapinls.obj
 0002:00014d20       ??_C@_1M@GIECOABL@?$AAa?$AAr?$AA?9?$AAa?$AAe@ 100c6d20     libcpmt:winapinls.obj
 0002:00014d2c       ??_C@_1M@BMLMEKGI@?$AAa?$AAr?$AA?9?$AAb?$AAh@ 100c6d2c     libcpmt:winapinls.obj
 0002:00014d38       ??_C@_1M@DAPFDGGB@?$AAa?$AAr?$AA?9?$AAd?$AAz@ 100c6d38     libcpmt:winapinls.obj
 0002:00014d44       ??_C@_1M@FJNKGKIG@?$AAa?$AAr?$AA?9?$AAe?$AAg@ 100c6d44     libcpmt:winapinls.obj
 0002:00014d50       ??_C@_1M@FLGKKCLO@?$AAa?$AAr?$AA?9?$AAi?$AAq@ 100c6d50     libcpmt:winapinls.obj
 0002:00014d5c       ??_C@_1M@GNDIPALM@?$AAa?$AAr?$AA?9?$AAj?$AAo@ 100c6d5c     libcpmt:winapinls.obj
 0002:00014d68       ??_C@_1M@DDMJFMGJ@?$AAa?$AAr?$AA?9?$AAk?$AAw@ 100c6d68     libcpmt:winapinls.obj
 0002:00014d74       ??_C@_1M@EJALMLHM@?$AAa?$AAr?$AA?9?$AAl?$AAb@ 100c6d74     libcpmt:winapinls.obj
 0002:00014d80       ??_C@_1M@MOBDBLOC@?$AAa?$AAr?$AA?9?$AAl?$AAy@ 100c6d80     libcpmt:winapinls.obj
 0002:00014d8c       ??_C@_1M@JAOCLHDH@?$AAa?$AAr?$AA?9?$AAm?$AAa@ 100c6d8c     libcpmt:winapinls.obj
 0002:00014d98       ??_C@_1M@JHPMKJIE@?$AAa?$AAr?$AA?9?$AAo?$AAm@ 100c6d98     libcpmt:winapinls.obj
 0002:00014da4       ??_C@_1M@OEPGHFNH@?$AAa?$AAr?$AA?9?$AAq?$AAa@ 100c6da4     libcpmt:winapinls.obj
 0002:00014db0       ??_C@_1M@KJDONENM@?$AAa?$AAr?$AA?9?$AAs?$AAa@ 100c6db0     libcpmt:winapinls.obj
 0002:00014dbc       ??_C@_1M@DMJDKLKM@?$AAa?$AAr?$AA?9?$AAs?$AAy@ 100c6dbc     libcpmt:winapinls.obj
 0002:00014dc8       ??_C@_1M@OMFIPEDC@?$AAa?$AAr?$AA?9?$AAt?$AAn@ 100c6dc8     libcpmt:winapinls.obj
 0002:00014dd4       ??_C@_1M@IHMHGAON@?$AAa?$AAr?$AA?9?$AAy?$AAe@ 100c6dd4     libcpmt:winapinls.obj
 0002:00014de0       ??_C@_1BG@KDCPGJGB@?$AAa?$AAz?$AA?9?$AAa?$AAz?$AA?9?$AAc?$AAy?$AAr?$AAl@ 100c6de0     libcpmt:winapinls.obj
 0002:00014df8       ??_C@_1BG@IBCKDDOE@?$AAa?$AAz?$AA?9?$AAa?$AAz?$AA?9?$AAl?$AAa?$AAt?$AAn@ 100c6df8     libcpmt:winapinls.obj
 0002:00014e10       ??_C@_1M@EGPFDCPD@?$AAb?$AAe?$AA?9?$AAb?$AAy@ 100c6e10     libcpmt:winapinls.obj
 0002:00014e1c       ??_C@_1M@PCMGMCGC@?$AAb?$AAg?$AA?9?$AAb?$AAg@ 100c6e1c     libcpmt:winapinls.obj
 0002:00014e28       ??_C@_1M@BJBMFGOB@?$AAb?$AAn?$AA?9?$AAi?$AAn@ 100c6e28     libcpmt:winapinls.obj
 0002:00014e34       ??_C@_1BG@EAKMMACD@?$AAb?$AAs?$AA?9?$AAb?$AAa?$AA?9?$AAl?$AAa?$AAt?$AAn@ 100c6e34     libcpmt:winapinls.obj
 0002:00014e4c       ??_C@_1M@KGADAODK@?$AAc?$AAa?$AA?9?$AAe?$AAs@ 100c6e4c     libcpmt:winapinls.obj
 0002:00014e58       ??_C@_1M@COAJPDHI@?$AAc?$AAs?$AA?9?$AAc?$AAz@ 100c6e58     libcpmt:winapinls.obj
 0002:00014e64       ??_C@_1M@DHBHFONH@?$AAc?$AAy?$AA?9?$AAg?$AAb@ 100c6e64     libcpmt:winapinls.obj
 0002:00014e70       ??_C@_1M@IMGKELGA@?$AAd?$AAa?$AA?9?$AAd?$AAk@ 100c6e70     libcpmt:winapinls.obj
 0002:00014e7c       ??_C@_1M@NNDGDNGA@?$AAd?$AAe?$AA?9?$AAa?$AAt@ 100c6e7c     libcpmt:winapinls.obj
 0002:00014e88       ??_C@_1M@IKDBHEEM@?$AAd?$AAe?$AA?9?$AAc?$AAh@ 100c6e88     libcpmt:winapinls.obj
 0002:00014e94       ??_C@_1M@GFFOJMCJ@?$AAd?$AAe?$AA?9?$AAd?$AAe@ 100c6e94     libcpmt:winapinls.obj
 0002:00014ea0       ??_C@_1M@MDNLKBPM@?$AAd?$AAe?$AA?9?$AAl?$AAi@ 100c6ea0     libcpmt:winapinls.obj
 0002:00014eac       ??_C@_1M@NJBEEJNL@?$AAd?$AAe?$AA?9?$AAl?$AAu@ 100c6eac     libcpmt:winapinls.obj
 0002:00014eb8       ??_C@_1O@GNNELBAP@?$AAd?$AAi?$AAv?$AA?9?$AAm?$AAv@ 100c6eb8     libcpmt:winapinls.obj
 0002:00014ec8       ??_C@_1M@EJLEOGAE@?$AAe?$AAl?$AA?9?$AAg?$AAr@ 100c6ec8     libcpmt:winapinls.obj
 0002:00014ed4       ??_C@_1M@GMPONJN@?$AAe?$AAn?$AA?9?$AAa?$AAu@ 100c6ed4     libcpmt:winapinls.obj
 0002:00014ee0       ??_C@_1M@NIDIIPGF@?$AAe?$AAn?$AA?9?$AAb?$AAz@ 100c6ee0     libcpmt:winapinls.obj
 0002:00014eec       ??_C@_1M@JEHMIMFO@?$AAe?$AAn?$AA?9?$AAc?$AAa@ 100c6eec     libcpmt:winapinls.obj
 0002:00014ef8       ??_C@_1M@IGMJCDLA@?$AAe?$AAn?$AA?9?$AAc?$AAb@ 100c6ef8     libcpmt:winapinls.obj
 0002:00014f04       ??_C@_1M@BNFIGBKG@?$AAe?$AAn?$AA?9?$AAg?$AAb@ 100c6f04     libcpmt:winapinls.obj
 0002:00014f10       ??_C@_1M@LKIFDIGP@?$AAe?$AAn?$AA?9?$AAi?$AAe@ 100c6f10     libcpmt:winapinls.obj
 0002:00014f1c       ??_C@_1M@PJKFGCCO@?$AAe?$AAn?$AA?9?$AAj?$AAm@ 100c6f1c     libcpmt:winapinls.obj
 0002:00014f28       ??_C@_1M@KPPKEPBO@?$AAe?$AAn?$AA?9?$AAn?$AAz@ 100c6f28     libcpmt:winapinls.obj
 0002:00014f34       ??_C@_1M@GMDGLDOB@?$AAe?$AAn?$AA?9?$AAp?$AAh@ 100c6f34     libcpmt:winapinls.obj
 0002:00014f40       ??_C@_1M@ONGIBJNA@?$AAe?$AAn?$AA?9?$AAt?$AAt@ 100c6f40     libcpmt:winapinls.obj
 0002:00014f4c       ??_C@_1M@LLODPCMM@?$AAe?$AAn?$AA?9?$AAu?$AAs@ 100c6f4c     libcpmt:winapinls.obj
 0002:00014f58       ??_C@_1M@LAKFNPAN@?$AAe?$AAn?$AA?9?$AAz?$AAa@ 100c6f58     libcpmt:winapinls.obj
 0002:00014f64       ??_C@_1M@MFNHNHEO@?$AAe?$AAn?$AA?9?$AAz?$AAw@ 100c6f64     libcpmt:winapinls.obj
 0002:00014f70       ??_C@_1M@EJEINPHM@?$AAe?$AAs?$AA?9?$AAa?$AAr@ 100c6f70     libcpmt:winapinls.obj
 0002:00014f7c       ??_C@_1M@GNKPCCJA@?$AAe?$AAs?$AA?9?$AAb?$AAo@ 100c6f7c     libcpmt:winapinls.obj
 0002:00014f88       ??_C@_1M@LEEGFONL@?$AAe?$AAs?$AA?9?$AAc?$AAl@ 100c6f88     libcpmt:winapinls.obj
 0002:00014f94       ??_C@_1M@KGPDPBDF@?$AAe?$AAs?$AA?9?$AAc?$AAo@ 100c6f94     libcpmt:winapinls.obj
 0002:00014fa0       ??_C@_1M@EIAHOHH@?$AAe?$AAs?$AA?9?$AAc?$AAr@ 100c6fa0     libcpmt:winapinls.obj
 0002:00014fac       ??_C@_1M@LLPGMBIN@?$AAe?$AAs?$AA?9?$AAd?$AAo@ 100c6fac     libcpmt:winapinls.obj
 0002:00014fb8       ??_C@_1M@DKHMKNJA@?$AAe?$AAs?$AA?9?$AAe?$AAc@ 100c6fb8     libcpmt:winapinls.obj
 0002:00014fc4       ??_C@_1M@GKGFPKAP@?$AAe?$AAs?$AA?9?$AAe?$AAs@ 100c6fc4     libcpmt:winapinls.obj
 0002:00014fd0       ??_C@_1M@LKHKGDLN@?$AAe?$AAs?$AA?9?$AAg?$AAt@ 100c6fd0     libcpmt:winapinls.obj
 0002:00014fdc       ??_C@_1M@HEIIGGJD@?$AAe?$AAs?$AA?9?$AAh?$AAn@ 100c6fdc     libcpmt:winapinls.obj
 0002:00014fe8       ??_C@_1M@FBDHPPGD@?$AAe?$AAs?$AA?9?$AAm?$AAx@ 100c6fe8     libcpmt:winapinls.obj
 0002:00014ff4       ??_C@_1M@DPAGLNDH@?$AAe?$AAs?$AA?9?$AAn?$AAi@ 100c6ff4     libcpmt:winapinls.obj
 0002:00015000       ??_C@_1M@MDGOPGDD@?$AAe?$AAs?$AA?9?$AAp?$AAa@ 100c7000     libcpmt:winapinls.obj
 0002:0001500c       ??_C@_1M@EMAMGBGE@?$AAe?$AAs?$AA?9?$AAp?$AAe@ 100c700c     libcpmt:winapinls.obj
 0002:00015018       ??_C@_1M@IBMCAOEC@?$AAe?$AAs?$AA?9?$AAp?$AAr@ 100c7018     libcpmt:winapinls.obj
 0002:00015024       ??_C@_1M@FGMDIJED@?$AAe?$AAs?$AA?9?$AAp?$AAy@ 100c7024     libcpmt:winapinls.obj
 0002:00015030       ??_C@_1M@IIDEOLLL@?$AAe?$AAs?$AA?9?$AAs?$AAv@ 100c7030     libcpmt:winapinls.obj
 0002:0001503c       ??_C@_1M@GAOBIPA@?$AAe?$AAs?$AA?9?$AAu?$AAy@ 100c703c     libcpmt:winapinls.obj
 0002:00015048       ??_C@_1M@JKFFICHJ@?$AAe?$AAs?$AA?9?$AAv?$AAe@ 100c7048     libcpmt:winapinls.obj
 0002:00015054       ??_C@_1M@PNMLOJDF@?$AAe?$AAt?$AA?9?$AAe?$AAe@ 100c7054     libcpmt:winapinls.obj
 0002:00015060       ??_C@_1M@GHHLIKEI@?$AAe?$AAu?$AA?9?$AAe?$AAs@ 100c7060     libcpmt:winapinls.obj
 0002:0001506c       ??_C@_1M@PBNONODE@?$AAf?$AAa?$AA?9?$AAi?$AAr@ 100c706c     libcpmt:winapinls.obj
 0002:00015078       ??_C@_1M@JEEHPMIL@?$AAf?$AAi?$AA?9?$AAf?$AAi@ 100c7078     libcpmt:winapinls.obj
 0002:00015084       ??_C@_1M@LMDCNDBA@?$AAf?$AAo?$AA?9?$AAf?$AAo@ 100c7084     libcpmt:winapinls.obj
 0002:00015090       ??_C@_1M@JKEOHLDK@?$AAf?$AAr?$AA?9?$AAb?$AAe@ 100c7090     libcpmt:winapinls.obj
 0002:0001509c       ??_C@_1M@NOHADPMI@?$AAf?$AAr?$AA?9?$AAc?$AAa@ 100c709c     libcpmt:winapinls.obj
 0002:000150a8       ??_C@_1M@KDHIHAEC@?$AAf?$AAr?$AA?9?$AAc?$AAh@ 100c70a8     libcpmt:winapinls.obj
 0002:000150b4       ??_C@_1M@MMBBFGAK@?$AAf?$AAr?$AA?9?$AAf?$AAr@ 100c70b4     libcpmt:winapinls.obj
 0002:000150c0       ??_C@_1M@PAFNENNF@?$AAf?$AAr?$AA?9?$AAl?$AAu@ 100c70c0     libcpmt:winapinls.obj
 0002:000150cc       ??_C@_1M@EOHDJGDD@?$AAf?$AAr?$AA?9?$AAm?$AAc@ 100c70cc     libcpmt:winapinls.obj
 0002:000150d8       ??_C@_1M@FAPLLOPF@?$AAg?$AAl?$AA?9?$AAe?$AAs@ 100c70d8     libcpmt:winapinls.obj
 0002:000150e4       ??_C@_1M@FOPBFLOO@?$AAg?$AAu?$AA?9?$AAi?$AAn@ 100c70e4     libcpmt:winapinls.obj
 0002:000150f0       ??_C@_1M@KBMCINPM@?$AAh?$AAe?$AA?9?$AAi?$AAl@ 100c70f0     libcpmt:winapinls.obj
 0002:000150fc       ??_C@_1M@BBPHKFPJ@?$AAh?$AAi?$AA?9?$AAi?$AAn@ 100c70fc     libcpmt:winapinls.obj
 0002:00015108       ??_C@_1M@PMBNDPHD@?$AAh?$AAr?$AA?9?$AAb?$AAa@ 100c7108     libcpmt:winapinls.obj
 0002:00015114       ??_C@_1M@BPCKOEGE@?$AAh?$AAr?$AA?9?$AAh?$AAr@ 100c7114     libcpmt:winapinls.obj
 0002:00015120       ??_C@_1M@GACBMHKE@?$AAh?$AAu?$AA?9?$AAh?$AAu@ 100c7120     libcpmt:winapinls.obj
 0002:0001512c       ??_C@_1M@MILPAJJC@?$AAh?$AAy?$AA?9?$AAa?$AAm@ 100c712c     libcpmt:winapinls.obj
 0002:00015138       ??_C@_1M@BABBICEC@?$AAi?$AAd?$AA?9?$AAi?$AAd@ 100c7138     libcpmt:winapinls.obj
 0002:00015144       ??_C@_1M@BIKNHHPF@?$AAi?$AAs?$AA?9?$AAi?$AAs@ 100c7144     libcpmt:winapinls.obj
 0002:00015150       ??_C@_1M@NMPCJPHE@?$AAi?$AAt?$AA?9?$AAc?$AAh@ 100c7150     libcpmt:winapinls.obj
 0002:0001515c       ??_C@_1M@GHKGFEDF@?$AAi?$AAt?$AA?9?$AAi?$AAt@ 100c715c     libcpmt:winapinls.obj
 0002:00015168       ??_C@_1M@NIEJCJJA@?$AAj?$AAa?$AA?9?$AAj?$AAp@ 100c7168     libcpmt:winapinls.obj
 0002:00015174       ??_C@_1M@JILFNBIM@?$AAk?$AAa?$AA?9?$AAg?$AAe@ 100c7174     libcpmt:winapinls.obj
 0002:00015180       ??_C@_1M@PACPMGPH@?$AAk?$AAk?$AA?9?$AAk?$AAz@ 100c7180     libcpmt:winapinls.obj
 0002:0001518c       ??_C@_1M@IELFGMHA@?$AAk?$AAn?$AA?9?$AAi?$AAn@ 100c718c     libcpmt:winapinls.obj
 0002:00015198       ??_C@_1M@DMHAEOGC@?$AAk?$AAo?$AA?9?$AAk?$AAr@ 100c7198     libcpmt:winapinls.obj
 0002:000151a4       ??_C@_1O@IBBJHCH@?$AAk?$AAo?$AAk?$AA?9?$AAi?$AAn@ 100c71a4     libcpmt:winapinls.obj
 0002:000151b4       ??_C@_1M@HBAHBIGA@?$AAk?$AAy?$AA?9?$AAk?$AAg@ 100c71b4     libcpmt:winapinls.obj
 0002:000151c0       ??_C@_1M@KPMILCJG@?$AAl?$AAt?$AA?9?$AAl?$AAt@ 100c71c0     libcpmt:winapinls.obj
 0002:000151cc       ??_C@_1M@BDEKKCA@?$AAl?$AAv?$AA?9?$AAl?$AAv@ 100c71cc     libcpmt:winapinls.obj
 0002:000151d8       ??_C@_1M@ELCKCCJJ@?$AAm?$AAi?$AA?9?$AAn?$AAz@ 100c71d8     libcpmt:winapinls.obj
 0002:000151e4       ??_C@_1M@CBOOLAPA@?$AAm?$AAk?$AA?9?$AAm?$AAk@ 100c71e4     libcpmt:winapinls.obj
 0002:000151f0       ??_C@_1M@GPHNBJKN@?$AAm?$AAl?$AA?9?$AAi?$AAn@ 100c71f0     libcpmt:winapinls.obj
 0002:000151fc       ??_C@_1M@PABJILIG@?$AAm?$AAn?$AA?9?$AAm?$AAn@ 100c71fc     libcpmt:winapinls.obj
 0002:00015208       ??_C@_1M@FGBKKIPG@?$AAm?$AAr?$AA?9?$AAi?$AAn@ 100c7208     libcpmt:winapinls.obj
 0002:00015214       ??_C@_1M@NDBPDDAL@?$AAm?$AAs?$AA?9?$AAb?$AAn@ 100c7214     libcpmt:winapinls.obj
 0002:00015220       ??_C@_1M@OPIHOOPI@?$AAm?$AAs?$AA?9?$AAm?$AAy@ 100c7220     libcpmt:winapinls.obj
 0002:0001522c       ??_C@_1M@PPDBCNFM@?$AAm?$AAt?$AA?9?$AAm?$AAt@ 100c722c     libcpmt:winapinls.obj
 0002:00015238       ??_C@_1M@KDJDKMDD@?$AAn?$AAb?$AA?9?$AAn?$AAo@ 100c7238     libcpmt:winapinls.obj
 0002:00015244       ??_C@_1M@KFCFLMJP@?$AAn?$AAl?$AA?9?$AAb?$AAe@ 100c7244     libcpmt:winapinls.obj
 0002:00015250       ??_C@_1M@KPOPDDGO@?$AAn?$AAl?$AA?9?$AAn?$AAl@ 100c7250     libcpmt:winapinls.obj
 0002:0001525c       ??_C@_1M@LJKPEMLN@?$AAn?$AAn?$AA?9?$AAn?$AAo@ 100c725c     libcpmt:winapinls.obj
 0002:00015268       ??_C@_1M@BDGHHBFL@?$AAn?$AAs?$AA?9?$AAz?$AAa@ 100c7268     libcpmt:winapinls.obj
 0002:00015274       ??_C@_1M@IDEHOAP@?$AAp?$AAa?$AA?9?$AAi?$AAn@ 100c7274     libcpmt:winapinls.obj
 0002:00015280       ??_C@_1M@HDBKGOGH@?$AAp?$AAl?$AA?9?$AAp?$AAl@ 100c7280     libcpmt:winapinls.obj
 0002:0001528c       ??_C@_1M@LJLLCMEH@?$AAp?$AAt?$AA?9?$AAb?$AAr@ 100c728c     libcpmt:winapinls.obj
 0002:00015298       ??_C@_1M@NCMONAAL@?$AAp?$AAt?$AA?9?$AAp?$AAt@ 100c7298     libcpmt:winapinls.obj
 0002:000152a4       ??_C@_1O@EAKMAJDN@?$AAq?$AAu?$AAz?$AA?9?$AAb?$AAo@ 100c72a4     libcpmt:winapinls.obj
 0002:000152b4       ??_C@_1O@BHHPIGDN@?$AAq?$AAu?$AAz?$AA?9?$AAe?$AAc@ 100c72b4     libcpmt:winapinls.obj
 0002:000152c4       ??_C@_1O@GBAPEKMJ@?$AAq?$AAu?$AAz?$AA?9?$AAp?$AAe@ 100c72c4     libcpmt:winapinls.obj
 0002:000152d4       ??_C@_1M@CLGLEFBO@?$AAr?$AAo?$AA?9?$AAr?$AAo@ 100c72d4     libcpmt:winapinls.obj
 0002:000152e0       ??_C@_1M@CEEDODME@?$AAr?$AAu?$AA?9?$AAr?$AAu@ 100c72e0     libcpmt:winapinls.obj
 0002:000152ec       ??_C@_1M@HPKKKMPP@?$AAs?$AAa?$AA?9?$AAi?$AAn@ 100c72ec     libcpmt:winapinls.obj
 0002:000152f8       ??_C@_1M@BKMAIGOJ@?$AAs?$AAe?$AA?9?$AAf?$AAi@ 100c72f8     libcpmt:winapinls.obj
 0002:00015304       ??_C@_1M@NDPIFLFI@?$AAs?$AAe?$AA?9?$AAn?$AAo@ 100c7304     libcpmt:winapinls.obj
 0002:00015310       ??_C@_1M@DANKKHJ@?$AAs?$AAe?$AA?9?$AAs?$AAe@ 100c7310     libcpmt:winapinls.obj
 0002:0001531c       ??_C@_1M@PNBLONPJ@?$AAs?$AAk?$AA?9?$AAs?$AAk@ 100c731c     libcpmt:winapinls.obj
 0002:00015328       ??_C@_1M@LFMODOAL@?$AAs?$AAl?$AA?9?$AAs?$AAi@ 100c7328     libcpmt:winapinls.obj
 0002:00015334       ??_C@_1O@DFKOMPG@?$AAs?$AAm?$AAa?$AA?9?$AAn?$AAo@ 100c7334     libcpmt:winapinls.obj
 0002:00015344       ??_C@_1O@NDKPBNNH@?$AAs?$AAm?$AAa?$AA?9?$AAs?$AAe@ 100c7344     libcpmt:winapinls.obj
 0002:00015354       ??_C@_1O@PLLKBHAB@?$AAs?$AAm?$AAj?$AA?9?$AAn?$AAo@ 100c7354     libcpmt:winapinls.obj
 0002:00015364       ??_C@_1O@CLEPOGCA@?$AAs?$AAm?$AAj?$AA?9?$AAs?$AAe@ 100c7364     libcpmt:winapinls.obj
 0002:00015374       ??_C@_1O@DLGJGKMK@?$AAs?$AAm?$AAn?$AA?9?$AAf?$AAi@ 100c7374     libcpmt:winapinls.obj
 0002:00015384       ??_C@_1O@OJDJGAJC@?$AAs?$AAm?$AAs?$AA?9?$AAf?$AAi@ 100c7384     libcpmt:winapinls.obj
 0002:00015394       ??_C@_1M@BOFOGHPB@?$AAs?$AAq?$AA?9?$AAa?$AAl@ 100c7394     libcpmt:winapinls.obj
 0002:000153a0       ??_C@_1BG@LJBBIPGB@?$AAs?$AAr?$AA?9?$AAb?$AAa?$AA?9?$AAc?$AAy?$AAr?$AAl@ 100c73a0     libcpmt:winapinls.obj
 0002:000153b8       ??_C@_1BG@JLBENFOE@?$AAs?$AAr?$AA?9?$AAb?$AAa?$AA?9?$AAl?$AAa?$AAt?$AAn@ 100c73b8     libcpmt:winapinls.obj
 0002:000153d0       ??_C@_1BG@KODPNHE@?$AAs?$AAr?$AA?9?$AAs?$AAp?$AA?9?$AAc?$AAy?$AAr?$AAl@ 100c73d0     libcpmt:winapinls.obj
 0002:000153e8       ??_C@_1BG@CIOGKHPB@?$AAs?$AAr?$AA?9?$AAs?$AAp?$AA?9?$AAl?$AAa?$AAt?$AAn@ 100c73e8     libcpmt:winapinls.obj
 0002:00015400       ??_C@_1M@NGFJLMAC@?$AAs?$AAv?$AA?9?$AAf?$AAi@ 100c7400     libcpmt:winapinls.obj
 0002:0001540c       ??_C@_1M@MPJEJAJC@?$AAs?$AAv?$AA?9?$AAs?$AAe@ 100c740c     libcpmt:winapinls.obj
 0002:00015418       ??_C@_1M@MPNDHLFK@?$AAs?$AAw?$AA?9?$AAk?$AAe@ 100c7418     libcpmt:winapinls.obj
 0002:00015424       ??_C@_1O@KOHBJJI@?$AAs?$AAy?$AAr?$AA?9?$AAs?$AAy@ 100c7424     libcpmt:winapinls.obj
 0002:00015434       ??_C@_1M@LDCEFHA@?$AAt?$AAa?$AA?9?$AAi?$AAn@ 100c7434     libcpmt:winapinls.obj
 0002:00015440       ??_C@_1M@CNJOFAK@?$AAt?$AAe?$AA?9?$AAi?$AAn@ 100c7440     libcpmt:winapinls.obj
 0002:0001544c       ??_C@_1M@GNAECACD@?$AAt?$AAh?$AA?9?$AAt?$AAh@ 100c744c     libcpmt:winapinls.obj
 0002:00015458       ??_C@_1M@CHBIHOJO@?$AAt?$AAn?$AA?9?$AAz?$AAa@ 100c7458     libcpmt:winapinls.obj
 0002:00015464       ??_C@_1M@GCCMIGPJ@?$AAt?$AAr?$AA?9?$AAt?$AAr@ 100c7464     libcpmt:winapinls.obj
 0002:00015470       ??_C@_1M@CELMCNBK@?$AAt?$AAt?$AA?9?$AAr?$AAu@ 100c7470     libcpmt:winapinls.obj
 0002:0001547c       ??_C@_1M@KLMCELGA@?$AAu?$AAk?$AA?9?$AAu?$AAa@ 100c747c     libcpmt:winapinls.obj
 0002:00015488       ??_C@_1M@EPAJJAJF@?$AAu?$AAr?$AA?9?$AAp?$AAk@ 100c7488     libcpmt:winapinls.obj
 0002:00015494       ??_C@_1BG@GEGPMCDJ@?$AAu?$AAz?$AA?9?$AAu?$AAz?$AA?9?$AAc?$AAy?$AAr?$AAl@ 100c7494     libcpmt:winapinls.obj
 0002:000154ac       ??_C@_1BG@EGGKJILM@?$AAu?$AAz?$AA?9?$AAu?$AAz?$AA?9?$AAl?$AAa?$AAt?$AAn@ 100c74ac     libcpmt:winapinls.obj
 0002:000154c4       ??_C@_1M@GFOCLFF@?$AAv?$AAi?$AA?9?$AAv?$AAn@ 100c74c4     libcpmt:winapinls.obj
 0002:000154d0       ??_C@_1M@CPAMEDFI@?$AAx?$AAh?$AA?9?$AAz?$AAa@ 100c74d0     libcpmt:winapinls.obj
 0002:000154dc       ??_C@_1O@EBKIFIGN@?$AAz?$AAh?$AA?9?$AAc?$AAh?$AAs@ 100c74dc     libcpmt:winapinls.obj
 0002:000154ec       ??_C@_1O@NMHPGANE@?$AAz?$AAh?$AA?9?$AAc?$AAh?$AAt@ 100c74ec     libcpmt:winapinls.obj
 0002:000154fc       ??_C@_1M@LPINJOMC@?$AAz?$AAh?$AA?9?$AAc?$AAn@ 100c74fc     libcpmt:winapinls.obj
 0002:00015508       ??_C@_1M@OCJEJODD@?$AAz?$AAh?$AA?9?$AAh?$AAk@ 100c7508     libcpmt:winapinls.obj
 0002:00015514       ??_C@_1M@DNDLJINH@?$AAz?$AAh?$AA?9?$AAm?$AAo@ 100c7514     libcpmt:winapinls.obj
 0002:00015520       ??_C@_1M@MBFDNDND@?$AAz?$AAh?$AA?9?$AAs?$AAg@ 100c7520     libcpmt:winapinls.obj
 0002:0001552c       ??_C@_1M@IMEPLEPE@?$AAz?$AAh?$AA?9?$AAt?$AAw@ 100c752c     libcpmt:winapinls.obj
 0002:00015538       ??_C@_1M@BBGHNHJP@?$AAz?$AAu?$AA?9?$AAz?$AAa@ 100c7538     libcpmt:winapinls.obj
 0002:00015544       ??_C@_13IMODFHAA@?$AA?9@   100c7544     libcpmt:wlocale.obj
 0002:000155ec       ??_7type_info@@6B@         100c75ec     LIBCMT:std_type_info_static.obj
 0002:000155f0       ??_C@_1EC@JIJBPKFM@?$AAa?$AAp?$AAi?$AA?9?$AAm?$AAs?$AA?9?$AAw?$AAi?$AAn?$AA?9?$AAc?$AAo?$AAr?$AAe@ 100c75f0     LIBCMT:thread_safe_statics.obj
 0002:000156c4       __pRawDllMain              100c76c4     LIBCMT:dll_dllmain.obj
 0002:000156c4       __pDefaultRawDllMain       100c76c4     LIBCMT:dll_dllmain.obj
 0002:000156cc       ??_7bad_array_new_length@std@@6B@ 100c76cc     LIBCMT:throw_bad_alloc.obj
 0002:000156d4       ??_C@_0BF@KINCDENJ@bad?5array?5new?5length@ 100c76d4     LIBCMT:throw_bad_alloc.obj
 0002:000156ec       ??_7_com_error@@6B@        100c76ec     comsuppw:comraise.obj
 0002:000156f0       ?s_maxExternalAllocators@SchedulerBase@details@Concurrency@@0HB 100c76f0     libconcrt:SchedulerBase.obj
 0002:000156f4       ?s_allocatorFreePoolLimit@SchedulerBase@details@Concurrency@@0HB 100c76f4     libconcrt:SchedulerBase.obj
 0002:000156f8       ??_C@_0O@JJAHDPNG@SchedulerKind@ 100c76f8     libconcrt:SchedulerPolicyBase.obj
 0002:00015708       ??_C@_0P@CGAHIHHE@MaxConcurrency@ 100c7708     libconcrt:SchedulerPolicyBase.obj
 0002:00015718       ??_C@_0P@BLMOAEF@MinConcurrency@ 100c7718     libconcrt:SchedulerPolicyBase.obj
 0002:00015728       ??_C@_0BN@GKPFKNNF@TargetOversubscriptionFactor@ 100c7728     libconcrt:SchedulerPolicyBase.obj
 0002:00015748       ??_C@_0BG@PCMPEOIE@LocalContextCacheSize@ 100c7748     libconcrt:SchedulerPolicyBase.obj
 0002:00015760       ??_C@_0BB@OPLJNNNB@ContextStackSize@ 100c7760     libconcrt:SchedulerPolicyBase.obj
 0002:00015774       ??_C@_0BA@CHGPFLBM@ContextPriority@ 100c7774     libconcrt:SchedulerPolicyBase.obj
 0002:00015784       ??_C@_0BD@HMLGOEAM@SchedulingProtocol@ 100c7784     libconcrt:SchedulerPolicyBase.obj
 0002:00015798       ??_C@_0BI@PEDMDBKL@DynamicProgressFeedback@ 100c7798     libconcrt:SchedulerPolicyBase.obj
 0002:000157b0       ??_C@_0BE@EBKJEJDK@WinRTInitialization@ 100c77b0     libconcrt:SchedulerPolicyBase.obj
 0002:000157c4       ??_C@_0BE@OJPKBKLL@MaxPolicyElementKey@ 100c77c4     libconcrt:SchedulerPolicyBase.obj
 0002:000157d8       ?ConcRT_ProviderGuid@Concurrency@@3U_GUID@@B 100c77d8     libconcrt:Trace.obj
 0002:000157e8       ?ConcRTEventGuid@Concurrency@@3U_GUID@@B 100c77e8     libconcrt:Trace.obj
 0002:000157f8       ?SchedulerEventGuid@Concurrency@@3U_GUID@@B 100c77f8     libconcrt:Trace.obj
 0002:00015808       ?ScheduleGroupEventGuid@Concurrency@@3U_GUID@@B 100c7808     libconcrt:Trace.obj
 0002:00015818       ?ContextEventGuid@Concurrency@@3U_GUID@@B 100c7818     libconcrt:Trace.obj
 0002:00015828       ?ChoreEventGuid@Concurrency@@3U_GUID@@B 100c7828     libconcrt:Trace.obj
 0002:00015838       ?VirtualProcessorEventGuid@Concurrency@@3U_GUID@@B 100c7838     libconcrt:Trace.obj
 0002:00015848       ?LockEventGuid@Concurrency@@3U_GUID@@B 100c7848     libconcrt:Trace.obj
 0002:00015858       ?ResourceManagerEventGuid@Concurrency@@3U_GUID@@B 100c7858     libconcrt:Trace.obj
 0002:00015868       ?PPLParallelInvokeEventGuid@Concurrency@@3U_GUID@@B 100c7868     libconcrt:Trace.obj
 0002:00015878       ?PPLParallelForEventGuid@Concurrency@@3U_GUID@@B 100c7878     libconcrt:Trace.obj
 0002:00015888       ?PPLParallelForeachEventGuid@Concurrency@@3U_GUID@@B 100c7888     libconcrt:Trace.obj
 0002:00015898       ?AgentEventGuid@Concurrency@@3U_GUID@@B 100c7898     libconcrt:Trace.obj
 0002:000158a8       ?s_bucketSizes@SubAllocator@details@Concurrency@@0QBHB 100c78a8     libconcrt:SubAllocator.obj
 0002:00015a28       ?GranularityShift@SubAllocator@details@Concurrency@@0HB 100c7a28     libconcrt:SubAllocator.obj
 0002:00015a2c       ?MaxAllocationSize@SubAllocator@details@Concurrency@@0HB 100c7a2c     libconcrt:SubAllocator.obj
 0002:00015a30       __pDestructExceptionObject 100c7a30     libvcruntime:ehhelpers.obj
 0002:00015a58       ??_7bad_exception@std@@6B@ 100c7a58     libvcruntime:frame.obj
 0002:00015a60       ??_C@_0O@DPKOEFFH@bad?5exception@ 100c7a60     libvcruntime:frame.obj
 0002:00015a7c       ??_C@_1DM@KHCHBNEB@?$AAa?$AAp?$AAi?$AA?9?$AAm?$AAs?$AA?9?$AAw?$AAi?$AAn?$AA?9?$AAc?$AAo?$AAr?$AAe@ 100c7a7c     libvcruntime:winapi_downlevel.obj
 0002:00015ab8       ??_C@_1DK@LPPGFMPP@?$AAa?$AAp?$AAi?$AA?9?$AAm?$AAs?$AA?9?$AAw?$AAi?$AAn?$AA?9?$AAc?$AAo?$AAr?$AAe@ 100c7ab8     libvcruntime:winapi_downlevel.obj
 0002:00015af4       ??_C@_1BC@GDMECMAK@?$AAk?$AAe?$AAr?$AAn?$AAe?$AAl?$AA3?$AA2@ 100c7af4     libvcruntime:winapi_downlevel.obj
 0002:00015b08       ??_C@_1BA@PFFKHIOG@?$AAa?$AAp?$AAi?$AA?9?$AAm?$AAs?$AA?9@ 100c7b08     libvcruntime:winapi_downlevel.obj
 0002:00015b18       ??_C@_1BA@IAIFMGEF@?$AAe?$AAx?$AAt?$AA?9?$AAm?$AAs?$AA?9@ 100c7b18     libvcruntime:winapi_downlevel.obj
 0002:00015cec       ??_C@_08EHJDFFNH@__based?$CI@ 100c7cec     libvcruntime:undname.obj
 0002:00015cf8       ??_C@_07KOLFKCDI@__cdecl@  100c7cf8     libvcruntime:undname.obj
 0002:00015d00       ??_C@_08GHMPAG@__pascal@   100c7d00     libvcruntime:undname.obj
 0002:00015d0c       ??_C@_09IFJBGAPI@__stdcall@ 100c7d0c     libvcruntime:undname.obj
 0002:00015d18       ??_C@_0L@NPHFGOKO@__thiscall@ 100c7d18     libvcruntime:undname.obj
 0002:00015d24       ??_C@_0L@JMKHOMEK@__fastcall@ 100c7d24     libvcruntime:undname.obj
 0002:00015d30       ??_C@_0N@BCKKPABJ@__vectorcall@ 100c7d30     libvcruntime:undname.obj
 0002:00015d40       ??_C@_09HIJEGCPM@__clrcall@ 100c7d40     libvcruntime:undname.obj
 0002:00015d4c       ??_C@_06GHPCKEAG@__eabi@   100c7d4c     libvcruntime:undname.obj
 0002:00015d54       ??_C@_09IOPIDJLG@__swift_1@ 100c7d54     libvcruntime:undname.obj
 0002:00015d60       ??_C@_09KFNFGKHF@__swift_2@ 100c7d60     libvcruntime:undname.obj
 0002:00015d6c       ??_C@_07JOMMBBKO@__ptr64@  100c7d6c     libvcruntime:undname.obj
 0002:00015d74       ??_C@_0L@PILCLIHE@__restrict@ 100c7d74     libvcruntime:undname.obj
 0002:00015d80       ??_C@_0M@GFIIJFMG@__unaligned@ 100c7d80     libvcruntime:undname.obj
 0002:00015d8c       ??_C@_09DHDLOLLB@restrict?$CI@ 100c7d8c     libvcruntime:undname.obj
 0002:00015d98       ??_C@_04NIHEBCM@?5new@     100c7d98     libvcruntime:undname.obj
 0002:00015da0       ??_C@_07FPCDHGMM@?5delete@ 100c7da0     libvcruntime:undname.obj
 0002:00015da8       ??_C@_01NEMOKFLO@?$DN@     100c7da8     libvcruntime:undname.obj
 0002:00015dac       ??_C@_01DCLJPIOD@?$CB@     100c7dac     libvcruntime:undname.obj
 0002:00015db0       ??_C@_02EGOFBIJA@?$DN?$DN@ 100c7db0     libvcruntime:undname.obj
 0002:00015db4       ??_C@_02FDNJECIE@?$CB?$DN@ 100c7db4     libvcruntime:undname.obj
 0002:00015db8       ??_C@_02GPECMEKF@?$FL?$FN@ 100c7db8     libvcruntime:undname.obj
 0002:00015dbc       ??_C@_08LHJFAFGD@operator@ 100c7dbc     libvcruntime:undname.obj
 0002:00015dc8       ??_C@_02HBOOOICD@?9?$DO@   100c7dc8     libvcruntime:undname.obj
 0002:00015dcc       ??_C@_02ECNGHCIF@?$CL?$CL@ 100c7dcc     libvcruntime:undname.obj
 0002:00015dd0       ??_C@_01HNPIGOCE@?$CG@     100c7dd0     libvcruntime:undname.obj
 0002:00015dd4       ??_C@_03MNHNFDLC@?9?$DO?$CK@ 100c7dd4     libvcruntime:undname.obj
 0002:00015dd8       ??_C@_01KMDKNFGN@?1@       100c7dd8     libvcruntime:undname.obj
 0002:00015ddc       ??_C@_02EHCHHCKH@?$DM?$DN@ 100c7ddc     libvcruntime:undname.obj
 0002:00015de0       ??_C@_02EEKDKGMJ@?$DO?$DN@ 100c7de0     libvcruntime:undname.obj
 0002:00015de4       ??_C@_01IHBHIGKO@?0@       100c7de4     libvcruntime:undname.obj
 0002:00015de8       ??_C@_02HCKGKOFO@?$CI?$CJ@ 100c7de8     libvcruntime:undname.obj
 0002:00015dec       ??_C@_01PJKLJHI@?$HO@      100c7dec     libvcruntime:undname.obj
 0002:00015df0       ??_C@_01JKBOJNNK@?$FO@     100c7df0     libvcruntime:undname.obj
 0002:00015df4       ??_C@_02PPKAJPJL@?$CG?$CG@ 100c7df4     libvcruntime:undname.obj
 0002:00015df8       ??_C@_02NONPIBCD@?$HM?$HM@ 100c7df8     libvcruntime:undname.obj
 0002:00015dfc       ??_C@_02FPIMKNGF@?$CK?$DN@ 100c7dfc     libvcruntime:undname.obj
 0002:00015e00       ??_C@_02FOEOMHFC@?$CL?$DN@ 100c7e00     libvcruntime:undname.obj
 0002:00015e04       ??_C@_02FKMDLLOA@?9?$DN@   100c7e04     libvcruntime:undname.obj
 0002:00015e08       ??_C@_02FJEHGPIO@?1?$DN@   100c7e08     libvcruntime:undname.obj
 0002:00015e0c       ??_C@_02FENAOKFI@?$CF?$DN@ 100c7e0c     libvcruntime:undname.obj
 0002:00015e10       ??_C@_03IKFCCPFF@?$DO?$DO?$DN@ 100c7e10     libvcruntime:undname.obj
 0002:00015e14       ??_C@_03CDNPDDLA@?$DM?$DM?$DN@ 100c7e14     libvcruntime:undname.obj
 0002:00015e18       ??_C@_02FGJGFEAB@?$CG?$DN@ 100c7e18     libvcruntime:undname.obj
 0002:00015e1c       ??_C@_02DHLNPPGH@?$HM?$DN@ 100c7e1c     libvcruntime:undname.obj
 0002:00015e20       ??_C@_02MHEGNOJ@?$FO?$DN@  100c7e20     libvcruntime:undname.obj
 0002:00015e24       ??_C@_09IFPLHPGF@?$GAvftable?8@ 100c7e24     libvcruntime:undname.obj
 0002:00015e30       ??_C@_09BLBHBJP@?$GAvbtable?8@ 100c7e30     libvcruntime:undname.obj
 0002:00015e3c       ??_C@_07FEEIOKP@?$GAvcall?8@ 100c7e3c     libvcruntime:undname.obj
 0002:00015e44       ??_C@_08LLFFHHDJ@?$GAtypeof?8@ 100c7e44     libvcruntime:undname.obj
 0002:00015e50       ??_C@_0BF@KDPPACIK@?$GAlocal?5static?5guard?8@ 100c7e50     libvcruntime:undname.obj
 0002:00015e68       ??_C@_08OBABFOLI@?$GAstring?8@ 100c7e68     libvcruntime:undname.obj
 0002:00015e74       ??_C@_0BD@JDLKDPAB@?$GAvbase?5destructor?8@ 100c7e74     libvcruntime:undname.obj
 0002:00015e88       ??_C@_0BN@DEGPLNFK@?$GAvector?5deleting?5destructor?8@ 100c7e88     libvcruntime:undname.obj
 0002:00015ea8       ??_C@_0BO@OBMKPJIG@?$GAdefault?5constructor?5closure?8@ 100c7ea8     libvcruntime:undname.obj
 0002:00015ec8       ??_C@_0BN@IMDCHIKM@?$GAscalar?5deleting?5destructor?8@ 100c7ec8     libvcruntime:undname.obj
 0002:00015ee8       ??_C@_0BO@PFGOCPJJ@?$GAvector?5constructor?5iterator?8@ 100c7ee8     libvcruntime:undname.obj
 0002:00015f08       ??_C@_0BN@LFPFMEDL@?$GAvector?5destructor?5iterator?8@ 100c7f08     libvcruntime:undname.obj
 0002:00015f28       ??_C@_0CE@IKBNEHA@?$GAvector?5vbase?5constructor?5itera@ 100c7f28     libvcruntime:undname.obj
 0002:00015f4c       ??_C@_0BL@NILFHHPC@?$GAvirtual?5displacement?5map?8@ 100c7f4c     libvcruntime:undname.obj
 0002:00015f68       ??_C@_0CB@JONCMFFK@?$GAeh?5vector?5constructor?5iterator@ 100c7f68     libvcruntime:undname.obj
 0002:00015f8c       ??_C@_0CA@GCEOPDGL@?$GAeh?5vector?5destructor?5iterator?8@ 100c7f8c     libvcruntime:undname.obj
 0002:00015fac       ??_C@_0CH@OOJPLCPH@?$GAeh?5vector?5vbase?5constructor?5it@ 100c7fac     libvcruntime:undname.obj
 0002:00015fd4       ??_C@_0BL@LLKPOHJI@?$GAcopy?5constructor?5closure?8@ 100c7fd4     libvcruntime:undname.obj
 0002:00015ff0       ??_C@_0BA@KBCDOMBN@?$GAudt?5returning?8@ 100c7ff0     libvcruntime:undname.obj
 0002:00016000       ??_C@_03KLGMFNMG@?$GAEH@   100c8000     libvcruntime:undname.obj
 0002:00016004       ??_C@_05KHLCHHI@?$GARTTI@  100c8004     libvcruntime:undname.obj
 0002:0001600c       ??_C@_0BA@KKLDJDLB@?$GAlocal?5vftable?8@ 100c800c     libvcruntime:undname.obj
 0002:0001601c       ??_C@_0CE@IIHCMGGL@?$GAlocal?5vftable?5constructor?5clos@ 100c801c     libvcruntime:undname.obj
 0002:00016040       ??_C@_06FHBGPFGH@?5new?$FL?$FN@ 100c8040     libvcruntime:undname.obj
 0002:00016048       ??_C@_09LBNFPBCA@?5delete?$FL?$FN@ 100c8048     libvcruntime:undname.obj
 0002:00016054       ??_C@_0P@HJKNJFNN@?$GAomni?5callsig?8@ 100c8054     libvcruntime:undname.obj
 0002:00016064       ??_C@_0BL@CNOONJFP@?$GAplacement?5delete?5closure?8@ 100c8064     libvcruntime:undname.obj
 0002:00016080       ??_C@_0BN@CKNJLHMB@?$GAplacement?5delete?$FL?$FN?5closure?8@ 100c8080     libvcruntime:undname.obj
 0002:000160a0       ??_C@_0CG@CFDHKGGD@?$GAmanaged?5vector?5constructor?5ite@ 100c80a0     libvcruntime:undname.obj
 0002:000160c8       ??_C@_0CF@IMGKMJNO@?$GAmanaged?5vector?5destructor?5iter@ 100c80c8     libvcruntime:undname.obj
 0002:000160f0       ??_C@_0CG@HLDDJMAG@?$GAeh?5vector?5copy?5constructor?5ite@ 100c80f0     libvcruntime:undname.obj
 0002:00016118       ??_C@_0CM@FCBBDIGB@?$GAeh?5vector?5vbase?5copy?5construct@ 100c8118     libvcruntime:undname.obj
 0002:00016144       ??_C@_0BL@CLIPGLGB@?$GAdynamic?5initializer?5for?5?8@ 100c8144     libvcruntime:undname.obj
 0002:00016160       ??_C@_0CB@PDBIFEP@?$GAdynamic?5atexit?5destructor?5for?5@ 100c8160     libvcruntime:undname.obj
 0002:00016184       ??_C@_0CD@CGAJBKEJ@?$GAvector?5copy?5constructor?5iterat@ 100c8184     libvcruntime:undname.obj
 0002:000161a8       ??_C@_0CJ@GJELGAMM@?$GAvector?5vbase?5copy?5constructor?5@ 100c81a8     libvcruntime:undname.obj
 0002:000161d4       ??_C@_0CL@FGIJHLCE@?$GAmanaged?5vector?5copy?5constructo@ 100c81d4     libvcruntime:undname.obj
 0002:00016200       ??_C@_0BM@PMGGMLDN@?$GAlocal?5static?5thread?5guard?8@ 100c8200     libvcruntime:undname.obj
 0002:0001621c       ??_C@_0N@BDNMDMOL@operator?5?$CC?$CC?5@ 100c821c     libvcruntime:undname.obj
 0002:0001622c       ??_C@_0BC@GGEBGALA@operator?5co_await@ 100c822c     libvcruntime:undname.obj
 0002:00016240       ??_C@_0BC@DAFEJGAK@?5Type?5Descriptor?8@ 100c8240     libvcruntime:undname.obj
 0002:00016254       ??_C@_0BM@LDKODKLH@?5Base?5Class?5Descriptor?5at?5?$CI@ 100c8254     libvcruntime:undname.obj
 0002:00016270       ??_C@_0BD@LGICGFMM@?5Base?5Class?5Array?8@ 100c8270     libvcruntime:undname.obj
 0002:00016284       ??_C@_0BN@MECKDCOJ@?5Class?5Hierarchy?5Descriptor?8@ 100c8284     libvcruntime:undname.obj
 0002:000162a4       ??_C@_0BK@CFCOFLF@?5Complete?5Object?5Locator?8@ 100c82a4     libvcruntime:undname.obj
 0002:00016460       __real@3e54ae0c00000000    100c8460     libucrt:log2f.obj
 0002:00016468       __real@3e5526e500000000    100c8468     libucrt:log2f.obj
 0002:00016470       __real@3e7427de80000000    100c8470     libucrt:log2f.obj
 0002:00016478       __real@3e7f7d1d00000000    100c8478     libucrt:log2f.obj
 0002:00016480       __real@3f3504f3            100c8480     libucrt:log2f.obj
 0002:00016488       __real@3fd32042a0000000    100c8488     libucrt:log2f.obj
 0002:00016490       __real@3fd3441300000000    100c8490     libucrt:log2f.obj
 0002:00016498       __real@3fd995c220000000    100c8498     libucrt:log2f.obj
 0002:000164a0       __real@3fdbcb7b00000000    100c84a0     libucrt:log2f.obj
 0002:000164a8       __real@3fdbcb7b20000000    100c84a8     libucrt:log2f.obj
 0002:000164b0       __real@3fe5555800000000    100c84b0     libucrt:log2f.obj
 0002:000164b8       __real@3fe62e42c0000000    100c84b8     libucrt:log2f.obj
 0002:000164c0       __real@3ff7154760000000    100c84c0     libucrt:log2f.obj
 0002:00016828       _standard_lookup_table     100c8828     libucrt:output.obj
 0002:00016888       _format_validation_lookup_table 100c8888     libucrt:output.obj
 0002:000168e4       ??_C@_1O@CEDCILHN@?$AA?$CI?$AAn?$AAu?$AAl?$AAl?$AA?$CJ@ 100c88e4     libucrt:output.obj
 0002:000168f4       ??_C@_06OJHGLDPL@?$CInull?$CJ@ 100c88f4     libucrt:output.obj
 0002:00016900       __OP_FMODjmptab            100c8900     libucrt:87fmod_impl.obj
 0002:00016950       ??_C@_1FE@LHBLIKM@?$AAA?$AAs?$AAs?$AAe?$AAr?$AAt?$AAi?$AAo?$AAn?$AA?5?$AAf?$AAa?$AAi?$AAl?$AAe@ 100c8950     libucrt:assert.obj
 0002:000169a8       ??_C@_1EK@MBDPDCGA@?$AAM?$AAi?$AAc?$AAr?$AAo?$AAs?$AAo?$AAf?$AAt?$AA?5?$AAV?$AAi?$AAs?$AAu?$AAa@ 100c89a8     libucrt:assert.obj
 0002:000169f4       ??_C@_1CE@OJBNHDMO@?$AAA?$AAs?$AAs?$AAe?$AAr?$AAt?$AAi?$AAo?$AAn?$AA?5?$AAf?$AAa?$AAi?$AAl?$AAe@ 100c89f4     libucrt:assert.obj
 0002:00016a18       ??_C@_1BE@PHKBBGE@?$AAP?$AAr?$AAo?$AAg?$AAr?$AAa?$AAm?$AA?3?$AA?5@ 100c8a18     libucrt:assert.obj
 0002:00016a2c       ??_C@_1O@HEMHKNDC@?$AAF?$AAi?$AAl?$AAe?$AA?3?$AA?5@ 100c8a2c     libucrt:assert.obj
 0002:00016a3c       ??_C@_1O@KCAFKHJE@?$AAL?$AAi?$AAn?$AAe?$AA?3?$AA?5@ 100c8a3c     libucrt:assert.obj
 0002:00016a4c       ??_C@_1BK@PEDCIPMA@?$AAE?$AAx?$AAp?$AAr?$AAe?$AAs?$AAs?$AAi?$AAo?$AAn?$AA?3?$AA?5@ 100c8a4c     libucrt:assert.obj
 0002:00016a68       ??_C@_1OA@EGMLFBHJ@?$AAF?$AAo?$AAr?$AA?5?$AAi?$AAn?$AAf?$AAo?$AAr?$AAm?$AAa?$AAt?$AAi?$AAo?$AAn@ 100c8a68     libucrt:assert.obj
 0002:00016b48       ??_C@_1HK@POCJMFGK@?$AA?$CI?$AAP?$AAr?$AAe?$AAs?$AAs?$AA?5?$AAR?$AAe?$AAt?$AAr?$AAy?$AA?5?$AAt?$AAo@ 100c8b48     libucrt:assert.obj
 0002:00016bc4       ??_C@_17LGKOMLJ@?$AA?4?$AA?4?$AA?4@ 100c8bc4     libucrt:assert.obj
 0002:00016bcc       ??_C@_13LBAGMAIH@?$AA?6@   100c8bcc     libucrt:assert.obj
 0002:00016bd0       ??_C@_15IABLJNFO@?$AA?6?$AA?6@ 100c8bd0     libucrt:assert.obj
 0002:00016bd8       ??_C@_1CO@EAEJAADC@?$AA?$DM?$AAp?$AAr?$AAo?$AAg?$AAr?$AAa?$AAm?$AA?5?$AAn?$AAa?$AAm?$AAe?$AA?5?$AAu@ 100c8bd8     libucrt:assert.obj
 0002:00016c08       ?large_power_data@?1??multiply_by_power_of_ten@__crt_strtox@@YA_NAAUbig_integer@2@I@Z@4QBIB 100c8c08     libucrt:input.obj
 0002:000175a8       ?small_powers_of_ten@?1??multiply_by_power_of_ten@__crt_strtox@@YA_NAAUbig_integer@2@I@Z@4QBIB 100c95a8     libucrt:input.obj
 0002:000175d0       ??_C@_1GE@DPGDJKLM@?$AAm?$AAi?$AAn?$AAk?$AAe?$AAr?$AAn?$AAe?$AAl?$AA?2?$AAc?$AAr?$AAt?$AAs?$AA?2@ 100c95d0     libucrt:input.obj
 0002:00017638       ??_C@_1FM@FELNCOBF@?$AA_?$AA_?$AAc?$AAr?$AAt?$AA_?$AAs?$AAt?$AAr?$AAt?$AAo?$AAx?$AA?3?$AA?3?$AAf@ 100c9638     libucrt:input.obj
 0002:00017694       ??_C@_1BG@GEMHBGAF@?$AA_?$AAi?$AAs?$AA_?$AAd?$AAo?$AAu?$AAb?$AAl?$AAe@ 100c9694     libucrt:input.obj
 0002:000176b0       ??_C@_1FK@JOJELFFO@?$AA_?$AA_?$AAc?$AAr?$AAt?$AA_?$AAs?$AAt?$AAr?$AAt?$AAo?$AAx?$AA?3?$AA?3?$AAf@ 100c96b0     libucrt:input.obj
 0002:0001770c       ??_C@_1BI@BANMPGJI@?$AA?$CB?$AA_?$AAi?$AAs?$AA_?$AAd?$AAo?$AAu?$AAb?$AAl?$AAe@ 100c970c     libucrt:input.obj
 0002:00017728       ?constraints@?1??is_length_valid@__crt_stdio_input@@YA_NW4conversion_mode@2@W4length_modifier@2@@Z@4QAY0M@$$CBEA 100c9728     libucrt:input.obj
 0002:000177a0       ?inf_uppercase@?1???$parse_floating_point_possible_infinity@DV?$input_adapter_character_source@V?$string_input_adapter@D@__crt_stdio_input@@@__crt_strtox@@_K@__crt_strtox@@YA?AW4floating_point_parse_result@1@AADAAV?$input_adapter_character_source@V?$string_input_adapter@D@__crt_stdio_input@@@1@_K@Z@4QBDB 100c97a0     libucrt:input.obj
 0002:000177a4       ?inf_lowercase@?1???$parse_floating_point_possible_infinity@DV?$input_adapter_character_source@V?$string_input_adapter@D@__crt_stdio_input@@@__crt_strtox@@_K@__crt_strtox@@YA?AW4floating_point_parse_result@1@AADAAV?$input_adapter_character_source@V?$string_input_adapter@D@__crt_stdio_input@@@1@_K@Z@4QBDB 100c97a4     libucrt:input.obj
 0002:000177a8       ?inity_uppercase@?1???$parse_floating_point_possible_infinity@DV?$input_adapter_character_source@V?$string_input_adapter@D@__crt_stdio_input@@@__crt_strtox@@_K@__crt_strtox@@YA?AW4floating_point_parse_result@1@AADAAV?$input_adapter_character_source@V?$string_input_adapter@D@__crt_stdio_input@@@1@_K@Z@4QBDB 100c97a8     libucrt:input.obj
 0002:000177b0       ?inity_lowercase@?1???$parse_floating_point_possible_infinity@DV?$input_adapter_character_source@V?$string_input_adapter@D@__crt_stdio_input@@@__crt_strtox@@_K@__crt_strtox@@YA?AW4floating_point_parse_result@1@AADAAV?$input_adapter_character_source@V?$string_input_adapter@D@__crt_stdio_input@@@1@_K@Z@4QBDB 100c97b0     libucrt:input.obj
 0002:000177b8       ?uppercase@?1???$parse_floating_point_possible_nan@DV?$input_adapter_character_source@V?$string_input_adapter@D@__crt_stdio_input@@@__crt_strtox@@_K@__crt_strtox@@YA?AW4floating_point_parse_result@1@AADAAV?$input_adapter_character_source@V?$string_input_adapter@D@__crt_stdio_input@@@1@_K@Z@4QBDB 100c97b8     libucrt:input.obj
 0002:000177bc       ?lowercase@?1???$parse_floating_point_possible_nan@DV?$input_adapter_character_source@V?$string_input_adapter@D@__crt_stdio_input@@@__crt_strtox@@_K@__crt_strtox@@YA?AW4floating_point_parse_result@1@AADAAV?$input_adapter_character_source@V?$string_input_adapter@D@__crt_stdio_input@@@1@_K@Z@4QBDB 100c97bc     libucrt:input.obj
 0002:000177c0       ?uppercase@?1???$parse_floating_point_possible_nan_is_snan@DV?$input_adapter_character_source@V?$string_input_adapter@D@__crt_stdio_input@@@__crt_strtox@@@__crt_strtox@@YA_NAADAAV?$input_adapter_character_source@V?$string_input_adapter@D@__crt_stdio_input@@@1@@Z@4QBDB 100c97c0     libucrt:input.obj
 0002:000177c8       ?lowercase@?1???$parse_floating_point_possible_nan_is_snan@DV?$input_adapter_character_source@V?$string_input_adapter@D@__crt_stdio_input@@@__crt_strtox@@@__crt_strtox@@YA_NAADAAV?$input_adapter_character_source@V?$string_input_adapter@D@__crt_stdio_input@@@1@@Z@4QBDB 100c97c8     libucrt:input.obj
 0002:000177d0       ?uppercase@?1???$parse_floating_point_possible_nan_is_ind@DV?$input_adapter_character_source@V?$string_input_adapter@D@__crt_stdio_input@@@__crt_strtox@@@__crt_strtox@@YA_NAADAAV?$input_adapter_character_source@V?$string_input_adapter@D@__crt_stdio_input@@@1@@Z@4QBDB 100c97d0     libucrt:input.obj
 0002:000177d4       ?lowercase@?1???$parse_floating_point_possible_nan_is_ind@DV?$input_adapter_character_source@V?$string_input_adapter@D@__crt_stdio_input@@@__crt_strtox@@@__crt_strtox@@YA_NAADAAV?$input_adapter_character_source@V?$string_input_adapter@D@__crt_stdio_input@@@1@@Z@4QBDB 100c97d4     libucrt:input.obj
 0002:00017900       ?inf_uppercase@?1???$parse_floating_point_possible_infinity@DV?$c_string_character_source@D@__crt_strtox@@PBD@__crt_strtox@@YA?AW4floating_point_parse_result@1@AADAAV?$c_string_character_source@D@1@PBD@Z@4QBDB 100c9900     libucrt:atof.obj
 0002:00017904       ?inf_lowercase@?1???$parse_floating_point_possible_infinity@DV?$c_string_character_source@D@__crt_strtox@@PBD@__crt_strtox@@YA?AW4floating_point_parse_result@1@AADAAV?$c_string_character_source@D@1@PBD@Z@4QBDB 100c9904     libucrt:atof.obj
 0002:00017908       ?inity_uppercase@?1???$parse_floating_point_possible_infinity@DV?$c_string_character_source@D@__crt_strtox@@PBD@__crt_strtox@@YA?AW4floating_point_parse_result@1@AADAAV?$c_string_character_source@D@1@PBD@Z@4QBDB 100c9908     libucrt:atof.obj
 0002:00017910       ?inity_lowercase@?1???$parse_floating_point_possible_infinity@DV?$c_string_character_source@D@__crt_strtox@@PBD@__crt_strtox@@YA?AW4floating_point_parse_result@1@AADAAV?$c_string_character_source@D@1@PBD@Z@4QBDB 100c9910     libucrt:atof.obj
 0002:00017918       ?uppercase@?1???$parse_floating_point_possible_nan@DV?$c_string_character_source@D@__crt_strtox@@PBD@__crt_strtox@@YA?AW4floating_point_parse_result@1@AADAAV?$c_string_character_source@D@1@PBD@Z@4QBDB 100c9918     libucrt:atof.obj
 0002:0001791c       ?lowercase@?1???$parse_floating_point_possible_nan@DV?$c_string_character_source@D@__crt_strtox@@PBD@__crt_strtox@@YA?AW4floating_point_parse_result@1@AADAAV?$c_string_character_source@D@1@PBD@Z@4QBDB 100c991c     libucrt:atof.obj
 0002:00017920       ?uppercase@?1???$parse_floating_point_possible_nan_is_snan@DV?$c_string_character_source@D@__crt_strtox@@@__crt_strtox@@YA_NAADAAV?$c_string_character_source@D@1@@Z@4QBDB 100c9920     libucrt:atof.obj
 0002:00017928       ?lowercase@?1???$parse_floating_point_possible_nan_is_snan@DV?$c_string_character_source@D@__crt_strtox@@@__crt_strtox@@YA_NAADAAV?$c_string_character_source@D@1@@Z@4QBDB 100c9928     libucrt:atof.obj
 0002:00017930       ?uppercase@?1???$parse_floating_point_possible_nan_is_ind@DV?$c_string_character_source@D@__crt_strtox@@@__crt_strtox@@YA_NAADAAV?$c_string_character_source@D@1@@Z@4QBDB 100c9930     libucrt:atof.obj
 0002:00017934       ?lowercase@?1???$parse_floating_point_possible_nan_is_ind@DV?$c_string_character_source@D@__crt_strtox@@@__crt_strtox@@YA_NAADAAV?$c_string_character_source@D@1@@Z@4QBDB 100c9934     libucrt:atof.obj
 0002:00017a20       __real@8000000000000000    100c9a20     libucrt:frexp.obj
 0002:00017a50       ___newctype                100c9a50     libucrt:ctype.obj
 0002:00017d50       ___newclmap                100c9d50     libucrt:ctype.obj
 0002:00017ed0       ___newcumap                100c9ed0     libucrt:ctype.obj
 0002:00018050       __wctype                   100ca050     libucrt:ctype.obj
 0002:00018264       __half                     100ca264     libucrt:pow_impl.obj
 0002:0001826c       ??_C@_1M@PBPMMENC@?$AAa?$AAm?$AA?1?$AAp?$AAm@ 100ca26c     libucrt:wcsftime.obj
 0002:00018278       ??_C@_17BLFJJHMM@?$AAa?$AA?1?$AAp@ 100ca278     libucrt:wcsftime.obj
 0002:00018280       ??_C@_13HOIJIPNN@?$AA?5@   100ca280     libucrt:wcsftime.obj
 0002:00018284       ??_C@_13CGOKJPIL@?$AA?1@   100ca284     libucrt:wcsftime.obj
 0002:00018288       ??_C@_13EBCNDICG@?$AA?3@   100ca288     libucrt:wcsftime.obj
 0002:0001828c       ??_C@_13KDLDGPGJ@?$AA?7@   100ca28c     libucrt:wcsftime.obj
 0002:00018290       ??_C@_13KJIIAINM@?$AA?$CL@ 100ca290     libucrt:wcsftime.obj
 0002:00018294       ??_C@_13EJFHHPOP@?$AA?$CF@ 100ca294     libucrt:wcsftime.obj
 0002:00018298       ___acrt_exception_action_table 100ca298     libucrt:exception_filter.obj
 0002:00018328       ___acrt_signal_action_table_count 100ca328     libucrt:exception_filter.obj
 0002:0001832c       ___acrt_signal_action_first_fpe_index 100ca32c     libucrt:exception_filter.obj
 0002:00018330       ___acrt_signal_action_fpe_count 100ca330     libucrt:exception_filter.obj
 0002:00018334       ??_C@_1BI@BGOHAHKC@?$AAm?$AAs?$AAc?$AAo?$AAr?$AAe?$AAe?$AA?4?$AAd?$AAl?$AAl@ 100ca334     libucrt:exit.obj
 0002:0001834c       ??_C@_0P@MIGLKIOC@CorExitProcess@ 100ca34c     libucrt:exit.obj
 0002:000184c8       ??_C@_03KHJOGHMM@exp@      100ca4c8     libucrt:fpexcept.obj
 0002:000184cc       ??_C@_03JGHBODFD@pow@      100ca4cc     libucrt:fpexcept.obj
 0002:000184d0       ??_C@_03MGHMBJCF@log@      100ca4d0     libucrt:fpexcept.obj
 0002:000184d4       ??_C@_05HGHHAHAP@log10@    100ca4d4     libucrt:fpexcept.obj
 0002:000184dc       ??_C@_04COOMCNPB@sinh@     100ca4dc     libucrt:fpexcept.obj
 0002:000184e4       ??_C@_04HPJJNFIM@cosh@     100ca4e4     libucrt:fpexcept.obj
 0002:000184ec       ??_C@_04FJHINJAO@tanh@     100ca4ec     libucrt:fpexcept.obj
 0002:000184f4       ??_C@_04FIHNOPOL@asin@     100ca4f4     libucrt:fpexcept.obj
 0002:000184fc       ??_C@_04PDIFKINK@acos@     100ca4fc     libucrt:fpexcept.obj
 0002:00018504       ??_C@_04MLLJIGOK@atan@     100ca504     libucrt:fpexcept.obj
 0002:0001850c       ??_C@_05KNGEOGJB@atan2@    100ca50c     libucrt:fpexcept.obj
 0002:00018514       ??_C@_04EIAKFFMI@sqrt@     100ca514     libucrt:fpexcept.obj
 0002:0001851c       ??_C@_03BLEJJJBH@sin@      100ca51c     libucrt:fpexcept.obj
 0002:00018520       ??_C@_03LALBNOCG@cos@      100ca520     libucrt:fpexcept.obj
 0002:00018524       ??_C@_03IIINPABG@tan@      100ca524     libucrt:fpexcept.obj
 0002:00018528       ??_C@_04GFPJNGEK@ceil@     100ca528     libucrt:fpexcept.obj
 0002:00018530       ??_C@_05PBJFFIGL@floor@    100ca530     libucrt:fpexcept.obj
 0002:00018538       ??_C@_04ODHECPBC@fabs@     100ca538     libucrt:fpexcept.obj
 0002:00018540       ??_C@_04EHEDPDJG@modf@     100ca540     libucrt:fpexcept.obj
 0002:00018548       ??_C@_05CEJMAHNP@ldexp@    100ca548     libucrt:fpexcept.obj
 0002:00018550       ??_C@_05KBKMEMPO@_cabs@    100ca550     libucrt:fpexcept.obj
 0002:00018558       ??_C@_06MEIMCGCF@_hypot@   100ca558     libucrt:fpexcept.obj
 0002:00018560       ??_C@_04KEPJIHGP@fmod@     100ca560     libucrt:fpexcept.obj
 0002:00018568       ??_C@_05GKKHEGJL@frexp@    100ca568     libucrt:fpexcept.obj
 0002:00018570       ??_C@_03MJLDFKDL@_y0@      100ca570     libucrt:fpexcept.obj
 0002:00018574       ??_C@_03NAKIGLHK@_y1@      100ca574     libucrt:fpexcept.obj
 0002:00018578       ??_C@_03ONILCKOB@_yn@      100ca578     libucrt:fpexcept.obj
 0002:0001857c       ??_C@_05JGDBENOH@_logb@    100ca57c     libucrt:fpexcept.obj
 0002:00018584       ??_C@_0L@KDOEJCKC@_nextafter@ 100ca584     libucrt:fpexcept.obj
 0002:00018618       ___lc_category             100ca618     libucrt:wsetlocale.obj
 0002:00018660       ??_C@_1O@GIFLHMA@?$AAL?$AAC?$AA_?$AAA?$AAL?$AAL@ 100ca660     libucrt:wsetlocale.obj
 0002:00018670       ??_C@_1BG@PPOMIBNJ@?$AAL?$AAC?$AA_?$AAC?$AAO?$AAL?$AAL?$AAA?$AAT?$AAE@ 100ca670     libucrt:wsetlocale.obj
 0002:00018688       ??_C@_1BC@FFJGAPJM@?$AAL?$AAC?$AA_?$AAC?$AAT?$AAY?$AAP?$AAE@ 100ca688     libucrt:wsetlocale.obj
 0002:0001869c       ??_C@_1BI@PCKFNJFB@?$AAL?$AAC?$AA_?$AAM?$AAO?$AAN?$AAE?$AAT?$AAA?$AAR?$AAY@ 100ca69c     libucrt:wsetlocale.obj
 0002:000186b4       ??_C@_1BG@ENIEDKID@?$AAL?$AAC?$AA_?$AAN?$AAU?$AAM?$AAE?$AAR?$AAI?$AAC@ 100ca6b4     libucrt:wsetlocale.obj
 0002:000186cc       ??_C@_1BA@HAAOMIIG@?$AAL?$AAC?$AA_?$AAT?$AAI?$AAM?$AAE@ 100ca6cc     libucrt:wsetlocale.obj
 0002:000186dc       ??_C@_15NBPDDFIP@?$AA?$DN?$AA?$DL@ 100ca6dc     libucrt:wsetlocale.obj
 0002:000186e4       ??_C@_13PJJBFPED@?$AA?$DL@ 100ca6e4     libucrt:wsetlocale.obj
 0002:000186e8       ??_C@_13NMPKAAJP@?$AA?$DN@ 100ca6e8     libucrt:wsetlocale.obj
 0002:000186ec       ??_C@_17EFJLDFDO@?$AA?9?$AA_?$AA?4@ 100ca6ec     libucrt:wsetlocale.obj
 0002:000186f4       ??_C@_13FHBKNHDA@?$AAC@    100ca6f4     libucrt:wsetlocale.obj
 0002:000186f8       ??_C@_17MBJJLFDM@?$AA_?$AA?4?$AA?0@ 100ca6f8     libucrt:wsetlocale.obj
 0002:00018700       ??_C@_13ENNFDPBH@?$AA_@    100ca700     libucrt:wsetlocale.obj
 0002:00018704       ??_C@_13JOFGPIOO@?$AA?4@   100ca704     libucrt:wsetlocale.obj
 0002:00018708       ___lc_time_c               100ca708     libucrt:nlsdata.obj
 0002:0001886c       ??_C@_03KOEHGMDN@Sun@      100ca86c     libucrt:nlsdata.obj
 0002:00018870       ??_C@_03PDAGKDH@Mon@       100ca870     libucrt:nlsdata.obj
 0002:00018874       ??_C@_03NAGEINEP@Tue@      100ca874     libucrt:nlsdata.obj
 0002:00018878       ??_C@_03MHOMLAJA@Wed@      100ca878     libucrt:nlsdata.obj
 0002:0001887c       ??_C@_03IOFIKPDN@Thu@      100ca87c     libucrt:nlsdata.obj
 0002:00018880       ??_C@_03IDIOELNC@Fri@      100ca880     libucrt:nlsdata.obj
 0002:00018884       ??_C@_03FEFJNEK@Sat@       100ca884     libucrt:nlsdata.obj
 0002:00018888       ??_C@_06OOPIFAJ@Sunday@    100ca888     libucrt:nlsdata.obj
 0002:00018890       ??_C@_06JLEDEDGH@Monday@   100ca890     libucrt:nlsdata.obj
 0002:00018898       ??_C@_07BAAGCFCM@Tuesday@  100ca898     libucrt:nlsdata.obj
 0002:000188a0       ??_C@_09DLIGFAKA@Wednesday@ 100ca8a0     libucrt:nlsdata.obj
 0002:000188ac       ??_C@_08HACCIKIA@Thursday@ 100ca8ac     libucrt:nlsdata.obj
 0002:000188b8       ??_C@_06JECMNKMI@Friday@   100ca8b8     libucrt:nlsdata.obj
 0002:000188c0       ??_C@_08INBOOONO@Saturday@ 100ca8c0     libucrt:nlsdata.obj
 0002:000188cc       ??_C@_03JIHJHPIE@Jan@      100ca8cc     libucrt:nlsdata.obj
 0002:000188d0       ??_C@_03HJBDCHOM@Feb@      100ca8d0     libucrt:nlsdata.obj
 0002:000188d4       ??_C@_03ODNJBKGA@Mar@      100ca8d4     libucrt:nlsdata.obj
 0002:000188d8       ??_C@_03LEOLGMJP@Apr@      100ca8d8     libucrt:nlsdata.obj
 0002:000188dc       ??_C@_03CNMDKL@May@        100ca8dc     libucrt:nlsdata.obj
 0002:000188e0       ??_C@_03IDFGHECI@Jun@      100ca8e0     libucrt:nlsdata.obj
 0002:000188e4       ??_C@_03LBGABGKK@Jul@      100ca8e4     libucrt:nlsdata.obj
 0002:000188e8       ??_C@_03IFJFEIGA@Aug@      100ca8e8     libucrt:nlsdata.obj
 0002:000188ec       ??_C@_03GGCAPAJC@Sep@      100ca8ec     libucrt:nlsdata.obj
 0002:000188f0       ??_C@_03BMAOKBAD@Oct@      100ca8f0     libucrt:nlsdata.obj
 0002:000188f4       ??_C@_03JPJOFNIA@Nov@      100ca8f4     libucrt:nlsdata.obj
 0002:000188f8       ??_C@_03MKABNOCG@Dec@      100ca8f8     libucrt:nlsdata.obj
 0002:000188fc       ??_C@_07CGJPFGJA@January@  100ca8fc     libucrt:nlsdata.obj
 0002:00018904       ??_C@_08GNJGEPFN@February@ 100ca904     libucrt:nlsdata.obj
 0002:00018910       ??_C@_05HPCKOFNC@March@    100ca910     libucrt:nlsdata.obj
 0002:00018918       ??_C@_05DMJDNLEJ@April@    100ca918     libucrt:nlsdata.obj
 0002:00018920       ??_C@_04CNLMGBGM@June@     100ca920     libucrt:nlsdata.obj
 0002:00018928       ??_C@_04MIEPOIFP@July@     100ca928     libucrt:nlsdata.obj
 0002:00018930       ??_C@_06LBBHFDDG@August@   100ca930     libucrt:nlsdata.obj
 0002:00018938       ??_C@_09BHHEALKD@September@ 100ca938     libucrt:nlsdata.obj
 0002:00018944       ??_C@_07JJNFCEND@October@  100ca944     libucrt:nlsdata.obj
 0002:0001894c       ??_C@_08HCHEGEOA@November@ 100ca94c     libucrt:nlsdata.obj
 0002:00018958       ??_C@_08EDHMEBNP@December@ 100ca958     libucrt:nlsdata.obj
 0002:00018964       ??_C@_02DEDBPAFC@AM@       100ca964     libucrt:nlsdata.obj
 0002:00018968       ??_C@_02CJNFDJBF@PM@       100ca968     libucrt:nlsdata.obj
 0002:0001896c       ??_C@_08BPBNCDIB@MM?1dd?1yy@ 100ca96c     libucrt:nlsdata.obj
 0002:00018978       ??_C@_0BE@CKGJFCPC@dddd?0?5MMMM?5dd?0?5yyyy@ 100ca978     libucrt:nlsdata.obj
 0002:0001898c       ??_C@_08JCCMCCIL@HH?3mm?3ss@ 100ca98c     libucrt:nlsdata.obj
 0002:00018998       ??_C@_17MBGCMIPB@?$AAS?$AAu?$AAn@ 100ca998     libucrt:nlsdata.obj
 0002:000189a0       ??_C@_17KBOMKBF@?$AAM?$AAo?$AAn@ 100ca9a0     libucrt:nlsdata.obj
 0002:000189a8       ??_C@_17BMKGEGOJ@?$AAT?$AAu?$AAe@ 100ca9a8     libucrt:nlsdata.obj
 0002:000189b0       ??_C@_17CJEDCEPE@?$AAW?$AAe?$AAd@ 100ca9b0     libucrt:nlsdata.obj
 0002:000189b8       ??_C@_17PDPHAADD@?$AAT?$AAh?$AAu@ 100ca9b8     libucrt:nlsdata.obj
 0002:000189c0       ??_C@_17HFOLPPLP@?$AAF?$AAr?$AAi@ 100ca9c0     libucrt:nlsdata.obj
 0002:000189c8       ??_C@_17GGIBDPIH@?$AAS?$AAa?$AAt@ 100ca9c8     libucrt:nlsdata.obj
 0002:000189d0       ??_C@_1O@IHNHDHPB@?$AAS?$AAu?$AAn?$AAd?$AAa?$AAy@ 100ca9d0     libucrt:nlsdata.obj
 0002:000189e0       ??_C@_1O@MMNBFLIA@?$AAM?$AAo?$AAn?$AAd?$AAa?$AAy@ 100ca9e0     libucrt:nlsdata.obj
 0002:000189f0       ??_C@_1BA@ENFBFFEK@?$AAT?$AAu?$AAe?$AAs?$AAd?$AAa?$AAy@ 100ca9f0     libucrt:nlsdata.obj
 0002:00018a00       ??_C@_1BE@EBOGMDOH@?$AAW?$AAe?$AAd?$AAn?$AAe?$AAs?$AAd?$AAa?$AAy@ 100caa00     libucrt:nlsdata.obj
 0002:00018a14       ??_C@_1BC@HHMNLIHE@?$AAT?$AAh?$AAu?$AAr?$AAs?$AAd?$AAa?$AAy@ 100caa14     libucrt:nlsdata.obj
 0002:00018a28       ??_C@_1O@PDICJHAG@?$AAF?$AAr?$AAi?$AAd?$AAa?$AAy@ 100caa28     libucrt:nlsdata.obj
 0002:00018a38       ??_C@_1BC@ENMNNPAJ@?$AAS?$AAa?$AAt?$AAu?$AAr?$AAd?$AAa?$AAy@ 100caa38     libucrt:nlsdata.obj
 0002:00018a4c       ??_C@_17DKNBKCHM@?$AAJ?$AAa?$AAn@ 100caa4c     libucrt:nlsdata.obj
 0002:00018a54       ??_C@_17LMDJEKJN@?$AAF?$AAe?$AAb@ 100caa54     libucrt:nlsdata.obj
 0002:00018a5c       ??_C@_17CKNLEDEC@?$AAM?$AAa?$AAr@ 100caa5c     libucrt:nlsdata.obj
 0002:00018a64       ??_C@_17LFPOIHDD@?$AAA?$AAp?$AAr@ 100caa64     libucrt:nlsdata.obj
 0002:00018a6c       ??_C@_17PNNKMEED@?$AAM?$AAa?$AAy@ 100caa6c     libucrt:nlsdata.obj
 0002:00018a74       ??_C@_17KCJGOCPB@?$AAJ?$AAu?$AAn@ 100caa74     libucrt:nlsdata.obj
 0002:00018a7c       ??_C@_17IJPCKHK@?$AAJ?$AAu?$AAl@ 100caa7c     libucrt:nlsdata.obj
 0002:00018a84       ??_C@_17ICPELBCN@?$AAA?$AAu?$AAg@ 100caa84     libucrt:nlsdata.obj
 0002:00018a8c       ??_C@_17HCHCOKMG@?$AAS?$AAe?$AAp@ 100caa8c     libucrt:nlsdata.obj
 0002:00018a94       ??_C@_17FNLKOI@?$AAO?$AAc?$AAt@ 100caa94     libucrt:nlsdata.obj
 0002:00018a9c       ??_C@_17BBDMLCIG@?$AAN?$AAo?$AAv@ 100caa9c     libucrt:nlsdata.obj
 0002:00018aa4       ??_C@_17EGKACKIF@?$AAD?$AAe?$AAc@ 100caaa4     libucrt:nlsdata.obj
 0002:00018aac       ??_C@_1BA@EFMEIEBA@?$AAJ?$AAa?$AAn?$AAu?$AAa?$AAr?$AAy@ 100caaac     libucrt:nlsdata.obj
 0002:00018abc       ??_C@_1BC@JGDDFFAM@?$AAF?$AAe?$AAb?$AAr?$AAu?$AAa?$AAr?$AAy@ 100caabc     libucrt:nlsdata.obj
 0002:00018ad0       ??_C@_1M@IKEENEDF@?$AAM?$AAa?$AAr?$AAc?$AAh@ 100caad0     libucrt:nlsdata.obj
 0002:00018adc       ??_C@_1M@GJNLMHFD@?$AAA?$AAp?$AAr?$AAi?$AAl@ 100caadc     libucrt:nlsdata.obj
 0002:00018ae8       ??_C@_19EPFLPGAP@?$AAJ?$AAu?$AAn?$AAe@ 100caae8     libucrt:nlsdata.obj
 0002:00018af4       ??_C@_19BIFMLPCD@?$AAJ?$AAu?$AAl?$AAy@ 100caaf4     libucrt:nlsdata.obj
 0002:00018b00       ??_C@_1O@PAHLKOAC@?$AAA?$AAu?$AAg?$AAu?$AAs?$AAt@ 100cab00     libucrt:nlsdata.obj
 0002:00018b10       ??_C@_1BE@DKAAMBJL@?$AAS?$AAe?$AAp?$AAt?$AAe?$AAm?$AAb?$AAe?$AAr@ 100cab10     libucrt:nlsdata.obj
 0002:00018b24       ??_C@_1BA@EPANDLNG@?$AAO?$AAc?$AAt?$AAo?$AAb?$AAe?$AAr@ 100cab24     libucrt:nlsdata.obj
 0002:00018b34       ??_C@_1BC@BGLIFPF@?$AAN?$AAo?$AAv?$AAe?$AAm?$AAb?$AAe?$AAr@ 100cab34     libucrt:nlsdata.obj
 0002:00018b48       ??_C@_1BC@FEMKIFH@?$AAD?$AAe?$AAc?$AAe?$AAm?$AAb?$AAe?$AAr@ 100cab48     libucrt:nlsdata.obj
 0002:00018b5c       ??_C@_15ODEHAHHF@?$AAA?$AAM@ 100cab5c     libucrt:nlsdata.obj
 0002:00018b64       ??_C@_15CLMNNGEL@?$AAP?$AAM@ 100cab64     libucrt:nlsdata.obj
 0002:00018b6c       ??_C@_1BC@IEBCMHCM@?$AAM?$AAM?$AA?1?$AAd?$AAd?$AA?1?$AAy?$AAy@ 100cab6c     libucrt:nlsdata.obj
 0002:00018b80       ??_C@_1CI@KNAKOEBC@?$AAd?$AAd?$AAd?$AAd?$AA?0?$AA?5?$AAM?$AAM?$AAM?$AAM?$AA?5?$AAd?$AAd?$AA?0?$AA?5@ 100cab80     libucrt:nlsdata.obj
 0002:00018ba8       ??_C@_1BC@GDGBMEMK@?$AAH?$AAH?$AA?3?$AAm?$AAm?$AA?3?$AAs?$AAs@ 100caba8     libucrt:nlsdata.obj
 0002:00018c10       ??_C@_1EA@JGEFHKEI@?$AAa?$AAp?$AAi?$AA?9?$AAm?$AAs?$AA?9?$AAw?$AAi?$AAn?$AA?9?$AAc?$AAo?$AAr?$AAe@ 100cac10     libucrt:winapi_thunks.obj
 0002:00018c50       ??_C@_1DI@IJCEHOCB@?$AAa?$AAp?$AAi?$AA?9?$AAm?$AAs?$AA?9?$AAw?$AAi?$AAn?$AA?9?$AAc?$AAo?$AAr?$AAe@ 100cac50     libucrt:winapi_thunks.obj
 0002:00018c88       ??_C@_1EI@MPIAOHOC@?$AAa?$AAp?$AAi?$AA?9?$AAm?$AAs?$AA?9?$AAw?$AAi?$AAn?$AA?9?$AAc?$AAo?$AAr?$AAe@ 100cac88     libucrt:winapi_thunks.obj
 0002:00018cd0       ??_C@_1FK@FPHCKFIE@?$AAa?$AAp?$AAi?$AA?9?$AAm?$AAs?$AA?9?$AAw?$AAi?$AAn?$AA?9?$AAc?$AAo?$AAr?$AAe@ 100cacd0     libucrt:winapi_thunks.obj
 0002:00018d30       ??_C@_1EM@DILCGIIO@?$AAa?$AAp?$AAi?$AA?9?$AAm?$AAs?$AA?9?$AAw?$AAi?$AAn?$AA?9?$AAc?$AAo?$AAr?$AAe@ 100cad30     libucrt:winapi_thunks.obj
 0002:00018d7c       ??_C@_1DM@LNCGDDPN@?$AAa?$AAp?$AAi?$AA?9?$AAm?$AAs?$AA?9?$AAw?$AAi?$AAn?$AA?9?$AAc?$AAo?$AAr?$AAe@ 100cad7c     libucrt:winapi_thunks.obj
 0002:00018db8       ??_C@_1DO@FPAPJEMD@?$AAa?$AAp?$AAi?$AA?9?$AAm?$AAs?$AA?9?$AAw?$AAi?$AAn?$AA?9?$AAc?$AAo?$AAr?$AAe@ 100cadb8     libucrt:winapi_thunks.obj
 0002:00018df8       ??_C@_1DK@NDHNAHIO@?$AAa?$AAp?$AAi?$AA?9?$AAm?$AAs?$AA?9?$AAw?$AAi?$AAn?$AA?9?$AAc?$AAo?$AAr?$AAe@ 100cadf8     libucrt:winapi_thunks.obj
 0002:00018e34       ??_C@_1DM@KGHDGBCM@?$AAa?$AAp?$AAi?$AA?9?$AAm?$AAs?$AA?9?$AAw?$AAi?$AAn?$AA?9?$AAc?$AAo?$AAr?$AAe@ 100cae34     libucrt:winapi_thunks.obj
 0002:00018e70       ??_C@_1EO@IJIOEFOH@?$AAa?$AAp?$AAi?$AA?9?$AAm?$AAs?$AA?9?$AAw?$AAi?$AAn?$AA?9?$AAr?$AAt?$AAc?$AAo@ 100cae70     libucrt:winapi_thunks.obj
 0002:00018ec0       ??_C@_1FG@HHGEKANL@?$AAa?$AAp?$AAi?$AA?9?$AAm?$AAs?$AA?9?$AAw?$AAi?$AAn?$AA?9?$AAs?$AAe?$AAc?$AAu@ 100caec0     libucrt:winapi_thunks.obj
 0002:00018f18       ??_C@_1EG@DBIOJECG@?$AAe?$AAx?$AAt?$AA?9?$AAm?$AAs?$AA?9?$AAw?$AAi?$AAn?$AA?9?$AAn?$AAt?$AAu?$AAs@ 100caf18     libucrt:winapi_thunks.obj
 0002:00018f60       ??_C@_1EO@FIHMJCLF@?$AAe?$AAx?$AAt?$AA?9?$AAm?$AAs?$AA?9?$AAw?$AAi?$AAn?$AA?9?$AAn?$AAt?$AAu?$AAs@ 100caf60     libucrt:winapi_thunks.obj
 0002:00018fb0       ??_C@_1BC@DNHGCMLG@?$AAa?$AAd?$AAv?$AAa?$AAp?$AAi?$AA3?$AA2@ 100cafb0     libucrt:winapi_thunks.obj
 0002:00018fc4       ??_C@_1M@OAIMIKLP@?$AAn?$AAt?$AAd?$AAl?$AAl@ 100cafc4     libucrt:winapi_thunks.obj
 0002:00018fd0       ??_C@_1EG@DPGNFKGC@?$AAa?$AAp?$AAi?$AA?9?$AAm?$AAs?$AA?9?$AAw?$AAi?$AAn?$AA?9?$AAa?$AAp?$AAp?$AAm@ 100cafd0     libucrt:winapi_thunks.obj
 0002:00019018       ??_C@_1O@BCCLBEOE@?$AAu?$AAs?$AAe?$AAr?$AA3?$AA2@ 100cb018     libucrt:winapi_thunks.obj
 0002:0001902c       ??_C@_0BA@FHFNEAED@AreFileApisANSI@ 100cb02c     libucrt:winapi_thunks.obj
 0002:0001904c       ??_C@_0BE@LJANKFHF@EnumSystemLocalesEx@ 100cb04c     libucrt:winapi_thunks.obj
 0002:00019088       ??_C@_0BA@HNOPNCHB@GetActiveWindow@ 100cb088     libucrt:winapi_thunks.obj
 0002:000190a0       ??_C@_0BA@EPCJIIPD@GetDateFormatEx@ 100cb0a0     libucrt:winapi_thunks.obj
 0002:000190b8       ??_C@_0BD@HHGDFDBJ@GetLastActivePopup@ 100cb0b8     libucrt:winapi_thunks.obj
 0002:000190dc       ??_C@_0BI@DFKBFLJE@GetProcessWindowStation@ 100cb0dc     libucrt:winapi_thunks.obj
 0002:000190fc       ??_C@_0BA@CIJJKCJJ@GetTimeFormatEx@ 100cb0fc     libucrt:winapi_thunks.obj
 0002:00019114       ??_C@_0BJ@PBCCBIPI@GetUserDefaultLocaleName@ 100cb114     libucrt:winapi_thunks.obj
 0002:00019138       ??_C@_0BK@DEKFELLI@GetUserObjectInformationW@ 100cb138     libucrt:winapi_thunks.obj
 0002:00019164       ??_C@_0BC@CELBKLLA@IsValidLocaleName@ 100cb164     libucrt:winapi_thunks.obj
 0002:00019188       ??_C@_0BB@CDHDDLLP@LCIDToLocaleName@ 100cb188     libucrt:winapi_thunks.obj
 0002:000191a4       ??_C@_0BB@HBDEELFH@LocaleNameToLCID@ 100cb1a4     libucrt:winapi_thunks.obj
 0002:000191c0       ??_C@_0M@CHKKJDAI@MessageBoxA@ 100cb1c0     libucrt:winapi_thunks.obj
 0002:000191d4       ??_C@_0M@DLDCCGNP@MessageBoxW@ 100cb1d4     libucrt:winapi_thunks.obj
 0002:000191e4       ??_C@_0CF@OJOFEIGO@AppPolicyGetProcessTerminationM@ 100cb1e4     libucrt:winapi_thunks.obj
 0002:00019210       ??_C@_0CE@OICFMIKE@AppPolicyGetShowDeveloperDiagno@ 100cb210     libucrt:winapi_thunks.obj
 0002:00019238       ??_C@_0BL@ODDJNEDA@AppPolicyGetWindowingModel@ 100cb238     libucrt:winapi_thunks.obj
 0002:0001925c       ??_C@_0BC@JEAENNKH@SystemFunction036@ 100cb25c     libucrt:winapi_thunks.obj
 0002:00019280       ___acrt_cos_sin_ctable     100cb280     libucrt:cos_sin_ctable.obj
 0002:00019a88       __FInf_C                   100cba88     libucrt:_values.obj
 0002:00019a90       __FNan_C                   100cba90     libucrt:_values.obj
 0002:00019aa0       __OP_ATAN2jmptab           100cbaa0     libucrt:87triga.obj
 0002:00019b30       ___acrt_acos_asin_tbl_addr 100cbb30     libucrt:acos_asin_tbl_addr.obj
 0002:0001aa30       ___acrt_acos_asin_t_table  100cca30     libucrt:acos_asin_t_table.obj
 0002:0001b230       ___acrt_pow_rcp_t1         100cd230     libucrt:pow_tables.obj
 0002:0001b640       ___acrt_pow_log2_t1        100cd640     libucrt:pow_tables.obj
 0002:0001be50       ___acrt_pow_rcp_t2         100cde50     libucrt:pow_tables.obj
 0002:0001c260       ___acrt_pow_log2_t2        100ce260     libucrt:pow_tables.obj
 0002:0001ca70       ___acrt_pow_rcp_t3         100cea70     libucrt:pow_tables.obj
 0002:0001d280       ___acrt_pow_log2_t3        100cf280     libucrt:pow_tables.obj
 0002:0001e290       ___acrt_pow_clv            100d0290     libucrt:pow_tables.obj
 0002:0001e2b0       ___acrt_pow_exp2_tbl       100d02b0     libucrt:pow_tables.obj
 0002:0001eaf0       ??_C@_03OEIAHPBN@INF@      100d0af0     libucrt:cvt.obj
 0002:0001eaf4       ??_C@_03OJHLLCGB@inf@      100d0af4     libucrt:cvt.obj
 0002:0001eaf8       ??_C@_03LKNCIKJB@NAN@      100d0af8     libucrt:cvt.obj
 0002:0001eafc       ??_C@_03LHCJEHON@nan@      100d0afc     libucrt:cvt.obj
 0002:0001eb00       ??_C@_09OFJJIMPC@NAN?$CISNAN?$CJ@ 100d0b00     libucrt:cvt.obj
 0002:0001eb0c       ??_C@_09IPFBKMDL@nan?$CIsnan?$CJ@ 100d0b0c     libucrt:cvt.obj
 0002:0001eb18       ??_C@_08IKHNHAJ@NAN?$CIIND?$CJ@ 100d0b18     libucrt:cvt.obj
 0002:0001eb24       ??_C@_08OFCDMILK@nan?$CIind?$CJ@ 100d0b24     libucrt:cvt.obj
 0002:0001eb30       ??_C@_05KLBDPFGC@e?$CL000@ 100d0b30     libucrt:cvt.obj
 0002:0001eb40       __indefinite               100d0b40     libucrt:87disp.obj
 0002:0001eb4a       __piby2                    100d0b4a     libucrt:87disp.obj
 0002:0001eb54       __piby4                    100d0b54     libucrt:87disp.obj
 0002:0001eb80       ?ccs@?1???$__acrt_stdio_parse_mode@D@@YA?AU__acrt_stdio_stream_mode@@QBD@Z@4QBDB 100d0b80     libucrt:openfile.obj
 0002:0001eb84       ?utf8_encoding@?1???$__acrt_stdio_parse_mode@D@@YA?AU__acrt_stdio_stream_mode@@QBD@Z@4QBDB 100d0b84     libucrt:openfile.obj
 0002:0001eb8c       ?utf16_encoding@?1???$__acrt_stdio_parse_mode@D@@YA?AU__acrt_stdio_stream_mode@@QBD@Z@4QBDB 100d0b8c     libucrt:openfile.obj
 0002:0001eb94       ?unicode_encoding@?1???$__acrt_stdio_parse_mode@D@@YA?AU__acrt_stdio_stream_mode@@QBD@Z@4QBDB 100d0b94     libucrt:openfile.obj
 0002:0001eb9c       ?ccs@?1???$__acrt_stdio_parse_mode@_W@@YA?AU__acrt_stdio_stream_mode@@QB_W@Z@4QB_WB 100d0b9c     libucrt:openfile.obj
 0002:0001eba4       ?utf8_encoding@?1???$__acrt_stdio_parse_mode@_W@@YA?AU__acrt_stdio_stream_mode@@QB_W@Z@4QB_WB 100d0ba4     libucrt:openfile.obj
 0002:0001ebb0       ?utf16_encoding@?1???$__acrt_stdio_parse_mode@_W@@YA?AU__acrt_stdio_stream_mode@@QB_W@Z@4QB_WB 100d0bb0     libucrt:openfile.obj
 0002:0001ebc0       ?unicode_encoding@?1???$__acrt_stdio_parse_mode@_W@@YA?AU__acrt_stdio_stream_mode@@QB_W@Z@4QB_WB 100d0bc0     libucrt:openfile.obj
 0002:0001ebf0       ___acrt_log_table_b        100d0bf0     libucrt:log_tables.obj
 0002:0001f000       ___acrt_log_table_t        100d1000     libucrt:log_tables.obj
 0002:0001f410       __d_inf                    100d1410     libucrt:util.obj
 0002:0001f418       __d_max                    100d1418     libucrt:util.obj
 0002:0001f420       __d_mzero                  100d1420     libucrt:util.obj
 0002:0001f440       ??_C@_02CLFPBFFP@TZ@       100d1440     libucrt:tzset.obj
 0002:0001f510       __infinity                 100d1510     libucrt:87tran.obj
 0002:0001f51a       __minfinity                100d151a     libucrt:87tran.obj
 0002:0001f524       __logemax                  100d1524     libucrt:87tran.obj
 0002:0001f54a       __OP_EXPjmptab             100d154a     libucrt:87tran.obj
 0002:0001f578       __DEFAULT_CW_in_mem        100d1578     libucrt:common.obj
 0002:0001f57a       __pi_by_2_to_61            100d157a     libucrt:common.obj
 0002:0001f6d0       ___acrt_rg_language        100d16d0     libucrt:get_qualified_locale.obj
 0002:0001f9dc       ___acrt_rg_language_count  100d19dc     libucrt:get_qualified_locale.obj
 0002:0001f9e0       ___acrt_rg_country         100d19e0     libucrt:get_qualified_locale.obj
 0002:0001faf4       ___acrt_rg_country_count   100d1af4     libucrt:get_qualified_locale.obj
 0002:0001faf8       ??_C@_1BC@LLOKLNP@?$AAa?$AAm?$AAe?$AAr?$AAi?$AAc?$AAa?$AAn@ 100d1af8     libucrt:get_qualified_locale.obj
 0002:0001fb0c       ??_C@_1CC@HEIGCDGG@?$AAa?$AAm?$AAe?$AAr?$AAi?$AAc?$AAa?$AAn?$AA?5?$AAe?$AAn?$AAg?$AAl?$AAi?$AAs@ 100d1b0c     libucrt:get_qualified_locale.obj
 0002:0001fb30       ??_C@_1CC@IHCNOMIN@?$AAa?$AAm?$AAe?$AAr?$AAi?$AAc?$AAa?$AAn?$AA?9?$AAe?$AAn?$AAg?$AAl?$AAi?$AAs@ 100d1b30     libucrt:get_qualified_locale.obj
 0002:0001fb54       ??_C@_1BG@GKAGPCGG@?$AAa?$AAu?$AAs?$AAt?$AAr?$AAa?$AAl?$AAi?$AAa?$AAn@ 100d1b54     libucrt:get_qualified_locale.obj
 0002:0001fb6c       ??_C@_1BA@GMENCENF@?$AAb?$AAe?$AAl?$AAg?$AAi?$AAa?$AAn@ 100d1b6c     libucrt:get_qualified_locale.obj
 0002:0001fb7c       ??_C@_1BC@PJMIIAAN@?$AAc?$AAa?$AAn?$AAa?$AAd?$AAi?$AAa?$AAn@ 100d1b7c     libucrt:get_qualified_locale.obj
 0002:0001fb90       ??_C@_17NOIMNFBF@?$AAc?$AAh?$AAh@ 100d1b90     libucrt:get_qualified_locale.obj
 0002:0001fb98       ??_C@_17GGDALCHA@?$AAc?$AAh?$AAi@ 100d1b98     libucrt:get_qualified_locale.obj
 0002:0001fba0       ??_C@_1BA@NPNJKIBL@?$AAc?$AAh?$AAi?$AAn?$AAe?$AAs?$AAe@ 100d1ba0     libucrt:get_qualified_locale.obj
 0002:0001fbb0       ??_C@_1CC@DINBAMMJ@?$AAc?$AAh?$AAi?$AAn?$AAe?$AAs?$AAe?$AA?9?$AAh?$AAo?$AAn?$AAg?$AAk?$AAo?$AAn@ 100d1bb0     libucrt:get_qualified_locale.obj
 0002:0001fbd4       ??_C@_1CG@IOBJPACO@?$AAc?$AAh?$AAi?$AAn?$AAe?$AAs?$AAe?$AA?9?$AAs?$AAi?$AAm?$AAp?$AAl?$AAi?$AAf@ 100d1bd4     libucrt:get_qualified_locale.obj
 0002:0001fbfc       ??_C@_1CE@GAJNDCKG@?$AAc?$AAh?$AAi?$AAn?$AAe?$AAs?$AAe?$AA?9?$AAs?$AAi?$AAn?$AAg?$AAa?$AAp?$AAo@ 100d1bfc     libucrt:get_qualified_locale.obj
 0002:0001fc20       ??_C@_1CI@PAJPIOOD@?$AAc?$AAh?$AAi?$AAn?$AAe?$AAs?$AAe?$AA?9?$AAt?$AAr?$AAa?$AAd?$AAi?$AAt?$AAi@ 100d1c20     libucrt:get_qualified_locale.obj
 0002:0001fc48       ??_C@_1BM@NILJBMMD@?$AAd?$AAu?$AAt?$AAc?$AAh?$AA?9?$AAb?$AAe?$AAl?$AAg?$AAi?$AAa?$AAn@ 100d1c48     libucrt:get_qualified_locale.obj
 0002:0001fc64       ??_C@_1CC@OOJPJNEJ@?$AAe?$AAn?$AAg?$AAl?$AAi?$AAs?$AAh?$AA?9?$AAa?$AAm?$AAe?$AAr?$AAi?$AAc?$AAa@ 100d1c64     libucrt:get_qualified_locale.obj
 0002:0001fc88       ??_C@_1BI@IOLFEEM@?$AAe?$AAn?$AAg?$AAl?$AAi?$AAs?$AAh?$AA?9?$AAa?$AAu?$AAs@ 100d1c88     libucrt:get_qualified_locale.obj
 0002:0001fca0       ??_C@_1BO@HFFNLENJ@?$AAe?$AAn?$AAg?$AAl?$AAi?$AAs?$AAh?$AA?9?$AAb?$AAe?$AAl?$AAi?$AAz?$AAe@ 100d1ca0     libucrt:get_qualified_locale.obj
 0002:0001fcc0       ??_C@_1BI@HAPKJMPO@?$AAe?$AAn?$AAg?$AAl?$AAi?$AAs?$AAh?$AA?9?$AAc?$AAa?$AAn@ 100d1cc0     libucrt:get_qualified_locale.obj
 0002:0001fcd8       ??_C@_1CE@HLNDMIOJ@?$AAe?$AAn?$AAg?$AAl?$AAi?$AAs?$AAh?$AA?9?$AAc?$AAa?$AAr?$AAi?$AAb?$AAb?$AAe@ 100d1cd8     libucrt:get_qualified_locale.obj
 0002:0001fcfc       ??_C@_1BI@LDHJHHAC@?$AAe?$AAn?$AAg?$AAl?$AAi?$AAs?$AAh?$AA?9?$AAi?$AAr?$AAe@ 100d1cfc     libucrt:get_qualified_locale.obj
 0002:0001fd14       ??_C@_1CA@NJMMCFOC@?$AAe?$AAn?$AAg?$AAl?$AAi?$AAs?$AAh?$AA?9?$AAj?$AAa?$AAm?$AAa?$AAi?$AAc?$AAa@ 100d1d14     libucrt:get_qualified_locale.obj
 0002:0001fd34       ??_C@_1BG@BHJEBBGG@?$AAe?$AAn?$AAg?$AAl?$AAi?$AAs?$AAh?$AA?9?$AAn?$AAz@ 100d1d34     libucrt:get_qualified_locale.obj
 0002:0001fd4c       ??_C@_1CK@FGOEJJCO@?$AAe?$AAn?$AAg?$AAl?$AAi?$AAs?$AAh?$AA?9?$AAs?$AAo?$AAu?$AAt?$AAh?$AA?5?$AAa@ 100d1d4c     libucrt:get_qualified_locale.obj
 0002:0001fd78       ??_C@_1DE@PDBJPCJ@?$AAe?$AAn?$AAg?$AAl?$AAi?$AAs?$AAh?$AA?9?$AAt?$AAr?$AAi?$AAn?$AAi?$AAd?$AAa@ 100d1d78     libucrt:get_qualified_locale.obj
 0002:0001fdac       ??_C@_1BG@JGCANDME@?$AAe?$AAn?$AAg?$AAl?$AAi?$AAs?$AAh?$AA?9?$AAu?$AAk@ 100d1dac     libucrt:get_qualified_locale.obj
 0002:0001fdc4       ??_C@_1BG@DINKMLE@?$AAe?$AAn?$AAg?$AAl?$AAi?$AAs?$AAh?$AA?9?$AAu?$AAs@ 100d1dc4     libucrt:get_qualified_locale.obj
 0002:0001fddc       ??_C@_1BI@NMFDBHJE@?$AAe?$AAn?$AAg?$AAl?$AAi?$AAs?$AAh?$AA?9?$AAu?$AAs?$AAa@ 100d1ddc     libucrt:get_qualified_locale.obj
 0002:0001fdf4       ??_C@_1BO@OIHKJKII@?$AAf?$AAr?$AAe?$AAn?$AAc?$AAh?$AA?9?$AAb?$AAe?$AAl?$AAg?$AAi?$AAa?$AAn@ 100d1df4     libucrt:get_qualified_locale.obj
 0002:0001fe14       ??_C@_1CA@NKAELJKI@?$AAf?$AAr?$AAe?$AAn?$AAc?$AAh?$AA?9?$AAc?$AAa?$AAn?$AAa?$AAd?$AAi?$AAa?$AAn@ 100d1e14     libucrt:get_qualified_locale.obj
 0002:0001fe34       ??_C@_1CE@MGKCNLGN@?$AAf?$AAr?$AAe?$AAn?$AAc?$AAh?$AA?9?$AAl?$AAu?$AAx?$AAe?$AAm?$AAb?$AAo?$AAu@ 100d1e34     libucrt:get_qualified_locale.obj
 0002:0001fe58       ??_C@_1BK@CEGEAILM@?$AAf?$AAr?$AAe?$AAn?$AAc?$AAh?$AA?9?$AAs?$AAw?$AAi?$AAs?$AAs@ 100d1e58     libucrt:get_qualified_locale.obj
 0002:0001fe74       ??_C@_1CA@PAFKEOCC@?$AAg?$AAe?$AAr?$AAm?$AAa?$AAn?$AA?9?$AAa?$AAu?$AAs?$AAt?$AAr?$AAi?$AAa?$AAn@ 100d1e74     libucrt:get_qualified_locale.obj
 0002:0001fe94       ??_C@_1CI@HCFHGOFD@?$AAg?$AAe?$AAr?$AAm?$AAa?$AAn?$AA?9?$AAl?$AAi?$AAc?$AAh?$AAt?$AAe?$AAn?$AAs@ 100d1e94     libucrt:get_qualified_locale.obj
 0002:0001febc       ??_C@_1CE@FEDDNPDG@?$AAg?$AAe?$AAr?$AAm?$AAa?$AAn?$AA?9?$AAl?$AAu?$AAx?$AAe?$AAm?$AAb?$AAo?$AAu@ 100d1ebc     libucrt:get_qualified_locale.obj
 0002:0001fee0       ??_C@_1BK@LIMINNMN@?$AAg?$AAe?$AAr?$AAm?$AAa?$AAn?$AA?9?$AAs?$AAw?$AAi?$AAs?$AAs@ 100d1ee0     libucrt:get_qualified_locale.obj
 0002:0001fefc       ??_C@_1BM@LGMDBEPD@?$AAi?$AAr?$AAi?$AAs?$AAh?$AA?9?$AAe?$AAn?$AAg?$AAl?$AAi?$AAs?$AAh@ 100d1efc     libucrt:get_qualified_locale.obj
 0002:0001ff18       ??_C@_1BM@NNCFBAEE@?$AAi?$AAt?$AAa?$AAl?$AAi?$AAa?$AAn?$AA?9?$AAs?$AAw?$AAi?$AAs?$AAs@ 100d1f18     libucrt:get_qualified_locale.obj
 0002:0001ff34       ??_C@_1BE@FEDJNPIB@?$AAn?$AAo?$AAr?$AAw?$AAe?$AAg?$AAi?$AAa?$AAn@ 100d1f34     libucrt:get_qualified_locale.obj
 0002:0001ff48       ??_C@_1CC@CILKDEIE@?$AAn?$AAo?$AAr?$AAw?$AAe?$AAg?$AAi?$AAa?$AAn?$AA?9?$AAb?$AAo?$AAk?$AAm?$AAa@ 100d1f48     libucrt:get_qualified_locale.obj
 0002:0001ff6c       ??_C@_1CE@DHMMHEPL@?$AAn?$AAo?$AAr?$AAw?$AAe?$AAg?$AAi?$AAa?$AAn?$AA?9?$AAn?$AAy?$AAn?$AAo?$AAr@ 100d1f6c     libucrt:get_qualified_locale.obj
 0002:0001ff90       ??_C@_1CK@OPNMHECD@?$AAp?$AAo?$AAr?$AAt?$AAu?$AAg?$AAu?$AAe?$AAs?$AAe?$AA?9?$AAb?$AAr?$AAa?$AAz@ 100d1f90     libucrt:get_qualified_locale.obj
 0002:0001ffbc       ??_C@_1CE@KEEHCDB@?$AAs?$AAp?$AAa?$AAn?$AAi?$AAs?$AAh?$AA?9?$AAa?$AAr?$AAg?$AAe?$AAn?$AAt?$AAi@ 100d1fbc     libucrt:get_qualified_locale.obj
 0002:0001ffe0       ??_C@_1CA@GIAOLHJD@?$AAs?$AAp?$AAa?$AAn?$AAi?$AAs?$AAh?$AA?9?$AAb?$AAo?$AAl?$AAi?$AAv?$AAi?$AAa@ 100d1fe0     libucrt:get_qualified_locale.obj
 0002:00020000       ??_C@_1BM@OJNDFNPD@?$AAs?$AAp?$AAa?$AAn?$AAi?$AAs?$AAh?$AA?9?$AAc?$AAh?$AAi?$AAl?$AAe@ 100d2000     libucrt:get_qualified_locale.obj
 0002:0002001c       ??_C@_1CC@OCOLPALL@?$AAs?$AAp?$AAa?$AAn?$AAi?$AAs?$AAh?$AA?9?$AAc?$AAo?$AAl?$AAo?$AAm?$AAb?$AAi@ 100d201c     libucrt:get_qualified_locale.obj
 0002:00020040       ??_C@_1CG@BPOFMKBB@?$AAs?$AAp?$AAa?$AAn?$AAi?$AAs?$AAh?$AA?9?$AAc?$AAo?$AAs?$AAt?$AAa?$AA?5?$AAr@ 100d2040     libucrt:get_qualified_locale.obj
 0002:00020068       ??_C@_1DG@IGOBAPBB@?$AAs?$AAp?$AAa?$AAn?$AAi?$AAs?$AAh?$AA?9?$AAd?$AAo?$AAm?$AAi?$AAn?$AAi?$AAc@ 100d2068     libucrt:get_qualified_locale.obj
 0002:000200a0       ??_C@_1CA@JHAPGEGI@?$AAs?$AAp?$AAa?$AAn?$AAi?$AAs?$AAh?$AA?9?$AAe?$AAc?$AAu?$AAa?$AAd?$AAo?$AAr@ 100d20a0     libucrt:get_qualified_locale.obj
 0002:000200c0       ??_C@_1CI@LAPALJPP@?$AAs?$AAp?$AAa?$AAn?$AAi?$AAs?$AAh?$AA?9?$AAe?$AAl?$AA?5?$AAs?$AAa?$AAl?$AAv@ 100d20c0     libucrt:get_qualified_locale.obj
 0002:000200e8       ??_C@_1CE@PDGBOFOM@?$AAs?$AAp?$AAa?$AAn?$AAi?$AAs?$AAh?$AA?9?$AAg?$AAu?$AAa?$AAt?$AAe?$AAm?$AAa@ 100d20e8     libucrt:get_qualified_locale.obj
 0002:0002010c       ??_C@_1CC@NBEBAODI@?$AAs?$AAp?$AAa?$AAn?$AAi?$AAs?$AAh?$AA?9?$AAh?$AAo?$AAn?$AAd?$AAu?$AAr?$AAa@ 100d210c     libucrt:get_qualified_locale.obj
 0002:00020130       ??_C@_1CA@LLKGHBMF@?$AAs?$AAp?$AAa?$AAn?$AAi?$AAs?$AAh?$AA?9?$AAm?$AAe?$AAx?$AAi?$AAc?$AAa?$AAn@ 100d2130     libucrt:get_qualified_locale.obj
 0002:00020150       ??_C@_1BO@LKNDOIGD@?$AAs?$AAp?$AAa?$AAn?$AAi?$AAs?$AAh?$AA?9?$AAm?$AAo?$AAd?$AAe?$AAr?$AAn@ 100d2150     libucrt:get_qualified_locale.obj
 0002:00020170       ??_C@_1CE@NMDMOEEB@?$AAs?$AAp?$AAa?$AAn?$AAi?$AAs?$AAh?$AA?9?$AAn?$AAi?$AAc?$AAa?$AAr?$AAa?$AAg@ 100d2170     libucrt:get_qualified_locale.obj
 0002:00020194       ??_C@_1BO@LLCBEJGB@?$AAs?$AAp?$AAa?$AAn?$AAi?$AAs?$AAh?$AA?9?$AAp?$AAa?$AAn?$AAa?$AAm?$AAa@ 100d2194     libucrt:get_qualified_locale.obj
 0002:000201b4       ??_C@_1CC@FKPGGIHO@?$AAs?$AAp?$AAa?$AAn?$AAi?$AAs?$AAh?$AA?9?$AAp?$AAa?$AAr?$AAa?$AAg?$AAu?$AAa@ 100d21b4     libucrt:get_qualified_locale.obj
 0002:000201d8       ??_C@_1BK@CDEIHOOP@?$AAs?$AAp?$AAa?$AAn?$AAi?$AAs?$AAh?$AA?9?$AAp?$AAe?$AAr?$AAu@ 100d21d8     libucrt:get_qualified_locale.obj
 0002:000201f4       ??_C@_1CI@GAHAKKGP@?$AAs?$AAp?$AAa?$AAn?$AAi?$AAs?$AAh?$AA?9?$AAp?$AAu?$AAe?$AAr?$AAt?$AAo?$AA?5@ 100d21f4     libucrt:get_qualified_locale.obj
 0002:0002021c       ??_C@_1CA@NKJBCAGP@?$AAs?$AAp?$AAa?$AAn?$AAi?$AAs?$AAh?$AA?9?$AAu?$AAr?$AAu?$AAg?$AAu?$AAa?$AAy@ 100d221c     libucrt:get_qualified_locale.obj
 0002:0002023c       ??_C@_1CE@ODILCONM@?$AAs?$AAp?$AAa?$AAn?$AAi?$AAs?$AAh?$AA?9?$AAv?$AAe?$AAn?$AAe?$AAz?$AAu?$AAe@ 100d223c     libucrt:get_qualified_locale.obj
 0002:00020260       ??_C@_1CA@OBNMCGFO@?$AAs?$AAw?$AAe?$AAd?$AAi?$AAs?$AAh?$AA?9?$AAf?$AAi?$AAn?$AAl?$AAa?$AAn?$AAd@ 100d2260     libucrt:get_qualified_locale.obj
 0002:00020280       ??_C@_1M@PIPDDPPI@?$AAs?$AAw?$AAi?$AAs?$AAs@ 100d2280     libucrt:get_qualified_locale.obj
 0002:0002028c       ??_C@_15GMFIMNFM@?$AAu?$AAs@ 100d228c     libucrt:get_qualified_locale.obj
 0002:00020294       ??_C@_17HAEBFAGL@?$AAu?$AAs?$AAa@ 100d2294     libucrt:get_qualified_locale.obj
 0002:0002029c       ??_C@_1BA@DPFJEPHB@?$AAa?$AAm?$AAe?$AAr?$AAi?$AAc?$AAa@ 100d229c     libucrt:get_qualified_locale.obj
 0002:000202ac       ??_C@_1BA@ELOGGFK@?$AAb?$AAr?$AAi?$AAt?$AAa?$AAi?$AAn@ 100d22ac     libucrt:get_qualified_locale.obj
 0002:000202bc       ??_C@_1M@GHBGIGDA@?$AAc?$AAh?$AAi?$AAn?$AAa@ 100d22bc     libucrt:get_qualified_locale.obj
 0002:000202c8       ??_C@_1M@NCHEJOPO@?$AAc?$AAz?$AAe?$AAc?$AAh@ 100d22c8     libucrt:get_qualified_locale.obj
 0002:000202d4       ??_C@_1BA@BKPAPBLA@?$AAe?$AAn?$AAg?$AAl?$AAa?$AAn?$AAd@ 100d22d4     libucrt:get_qualified_locale.obj
 0002:000202e4       ??_C@_1BM@HKBCKIPC@?$AAg?$AAr?$AAe?$AAa?$AAt?$AA?5?$AAb?$AAr?$AAi?$AAt?$AAa?$AAi?$AAn@ 100d22e4     libucrt:get_qualified_locale.obj
 0002:00020300       ??_C@_1BA@PPCHPGJB@?$AAh?$AAo?$AAl?$AAl?$AAa?$AAn?$AAd@ 100d2300     libucrt:get_qualified_locale.obj
 0002:00020310       ??_C@_1BE@JBMPEGDG@?$AAh?$AAo?$AAn?$AAg?$AA?9?$AAk?$AAo?$AAn?$AAg@ 100d2310     libucrt:get_qualified_locale.obj
 0002:00020324       ??_C@_1BI@KOELBBPJ@?$AAn?$AAe?$AAw?$AA?9?$AAz?$AAe?$AAa?$AAl?$AAa?$AAn?$AAd@ 100d2324     libucrt:get_qualified_locale.obj
 0002:0002033c       ??_C@_15HIEBHAIO@?$AAn?$AAz@ 100d233c     libucrt:get_qualified_locale.obj
 0002:00020344       ??_C@_1BC@CHBCPFPI@?$AAp?$AAr?$AA?5?$AAc?$AAh?$AAi?$AAn?$AAa@ 100d2344     libucrt:get_qualified_locale.obj
 0002:00020358       ??_C@_1BC@JAOIIFKD@?$AAp?$AAr?$AA?9?$AAc?$AAh?$AAi?$AAn?$AAa@ 100d2358     libucrt:get_qualified_locale.obj
 0002:0002036c       ??_C@_1BI@BEHPPHKC@?$AAp?$AAu?$AAe?$AAr?$AAt?$AAo?$AA?9?$AAr?$AAi?$AAc?$AAo@ 100d236c     libucrt:get_qualified_locale.obj
 0002:00020384       ??_C@_1O@PAEOFKDI@?$AAs?$AAl?$AAo?$AAv?$AAa?$AAk@ 100d2384     libucrt:get_qualified_locale.obj
 0002:00020394       ??_C@_1BK@FIHMCKAM@?$AAs?$AAo?$AAu?$AAt?$AAh?$AA?5?$AAa?$AAf?$AAr?$AAi?$AAc?$AAa@ 100d2394     libucrt:get_qualified_locale.obj
 0002:000203b0       ??_C@_1BI@NAEOODKB@?$AAs?$AAo?$AAu?$AAt?$AAh?$AA?5?$AAk?$AAo?$AAr?$AAe?$AAa@ 100d23b0     libucrt:get_qualified_locale.obj
 0002:000203c8       ??_C@_1BK@FBDGGIFF@?$AAs?$AAo?$AAu?$AAt?$AAh?$AA?9?$AAa?$AAf?$AAr?$AAi?$AAc?$AAa@ 100d23c8     libucrt:get_qualified_locale.obj
 0002:000203e4       ??_C@_1BI@GHLEJDPK@?$AAs?$AAo?$AAu?$AAt?$AAh?$AA?9?$AAk?$AAo?$AAr?$AAe?$AAa@ 100d23e4     libucrt:get_qualified_locale.obj
 0002:000203fc       ??_C@_1CE@PLHLOMJF@?$AAt?$AAr?$AAi?$AAn?$AAi?$AAd?$AAa?$AAd?$AA?5?$AA?$CG?$AA?5?$AAt?$AAo?$AAb?$AAa@ 100d23fc     libucrt:get_qualified_locale.obj
 0002:00020420       ??_C@_1BO@MODIMHHI@?$AAu?$AAn?$AAi?$AAt?$AAe?$AAd?$AA?9?$AAk?$AAi?$AAn?$AAg?$AAd?$AAo?$AAm@ 100d2420     libucrt:get_qualified_locale.obj
 0002:00020440       ??_C@_1BM@FFHJONBJ@?$AAu?$AAn?$AAi?$AAt?$AAe?$AAd?$AA?9?$AAs?$AAt?$AAa?$AAt?$AAe?$AAs@ 100d2440     libucrt:get_qualified_locale.obj
 0002:0002045c       ??_C@_19MPDNHKDG@?$AAu?$AAt?$AAf?$AA8@ 100d245c     libucrt:get_qualified_locale.obj
 0002:00020468       ??_C@_17DNCLJFIF@?$AAA?$AAC?$AAP@ 100d2468     libucrt:get_qualified_locale.obj
 0002:00020470       ??_C@_1M@FPEIIFAM@?$AAu?$AAt?$AAf?$AA?9?$AA8@ 100d2470     libucrt:get_qualified_locale.obj
 0002:0002047c       ??_C@_17CIKBIHLH@?$AAO?$AAC?$AAP@ 100d247c     libucrt:get_qualified_locale.obj
 0002:00020484       ___rglangidNotDefault      100d2484     libucrt:getqloc_downlevel.obj
 0002:000215a8       ??_C@_05DNEBIAHO@1?$CDINF@ 100d35a8     libucrt:cfout.obj
 0002:000215b0       ??_C@_06IMKFLFPG@1?$CDQNAN@ 100d35b0     libucrt:cfout.obj
 0002:000215b8       ??_C@_06PGGFOGJG@1?$CDSNAN@ 100d35b8     libucrt:cfout.obj
 0002:000215c0       ??_C@_05PHHOCPM@1?$CDIND@  100d35c0     libucrt:cfout.obj
 0002:000217d0       __days                     100d37d0     libucrt:days.obj
 0002:00021804       __lpdays                   100d3804     libucrt:days.obj
 0002:00021840       ___acrt_exp_tbl_addr       100d3840     libucrt:exp_tables.obj
 0002:00021c40       ??_C@_1BA@BALFACEM@?$AAC?$AAO?$AAN?$AAO?$AAU?$AAT?$AA$@ 100d3c40     libucrt:initcon.obj
 0002:00021d60       ___acrt_log10_table_t      100d3d60     libucrt:log10_tables.obj
 0002:00022170       ___acrt_log10_table_cb     100d4170     libucrt:log10_tables.obj
 0002:00022618       __load_config_used         100d4618     LIBCMT:loadcfg.obj
 0002:000226b8       __tls_used                 100d46b8     LIBCMT:tlssup.obj
 0002:000226d0       ??_R4exception@std@@6B@    100d46d0     dll.obj
 0002:000226e4       ??_R3exception@std@@8      100d46e4     dll.obj
 0002:000226f4       ??_R2exception@std@@8      100d46f4     dll.obj
 0002:000226fc       ??_R1A@?0A@EA@exception@std@@8 100d46fc     dll.obj
 0002:00022718       ??_R4ios_base@std@@6B@     100d4718     dll.obj
 0002:0002272c       ??_R3ios_base@std@@8       100d472c     dll.obj
 0002:0002273c       ??_R2ios_base@std@@8       100d473c     dll.obj
 0002:00022748       ??_R1A@?0A@EA@ios_base@std@@8 100d4748     dll.obj
 0002:00022764       ??_R17?0A@EA@?$_Iosb@H@std@@8 100d4764     dll.obj
 0002:00022780       ??_R3?$_Iosb@H@std@@8      100d4780     dll.obj
 0002:00022790       ??_R2?$_Iosb@H@std@@8      100d4790     dll.obj
 0002:00022798       ??_R1A@?0A@EA@?$_Iosb@H@std@@8 100d4798     dll.obj
 0002:000227b4       ??_R4?$basic_ios@DU?$char_traits@D@std@@@std@@6B@ 100d47b4     dll.obj
 0002:000227c8       ??_R3?$basic_ios@DU?$char_traits@D@std@@@std@@8 100d47c8     dll.obj
 0002:000227d8       ??_R2?$basic_ios@DU?$char_traits@D@std@@@std@@8 100d47d8     dll.obj
 0002:000227e8       ??_R1A@?0A@EA@?$basic_ios@DU?$char_traits@D@std@@@std@@8 100d47e8     dll.obj
 0002:00022804       ??_R4?$basic_streambuf@DU?$char_traits@D@std@@@std@@6B@ 100d4804     dll.obj
 0002:00022818       ??_R3?$basic_streambuf@DU?$char_traits@D@std@@@std@@8 100d4818     dll.obj
 0002:00022828       ??_R2?$basic_streambuf@DU?$char_traits@D@std@@@std@@8 100d4828     dll.obj
 0002:00022830       ??_R1A@?0A@EA@?$basic_streambuf@DU?$char_traits@D@std@@@std@@8 100d4830     dll.obj
 0002:0002284c       ??_R4?$basic_istream@DU?$char_traits@D@std@@@std@@6B@ 100d484c     dll.obj
 0002:00022860       ??_R3?$basic_istream@DU?$char_traits@D@std@@@std@@8 100d4860     dll.obj
 0002:00022870       ??_R2?$basic_istream@DU?$char_traits@D@std@@@std@@8 100d4870     dll.obj
 0002:00022884       ??_R1A@?0A@EA@?$basic_istream@DU?$char_traits@D@std@@@std@@8 100d4884     dll.obj
 0002:000228a0       ??_R1A@A@3FA@?$basic_ios@DU?$char_traits@D@std@@@std@@8 100d48a0     dll.obj
 0002:000228bc       ??_R1A@A@3EA@ios_base@std@@8 100d48bc     dll.obj
 0002:000228d8       ??_R17A@3EA@?$_Iosb@H@std@@8 100d48d8     dll.obj
 0002:000228f4       ??_R4?$basic_ostream@DU?$char_traits@D@std@@@std@@6B@ 100d48f4     dll.obj
 0002:00022908       ??_R3?$basic_ostream@DU?$char_traits@D@std@@@std@@8 100d4908     dll.obj
 0002:00022918       ??_R2?$basic_ostream@DU?$char_traits@D@std@@@std@@8 100d4918     dll.obj
 0002:0002292c       ??_R1A@?0A@EA@?$basic_ostream@DU?$char_traits@D@std@@@std@@8 100d492c     dll.obj
 0002:00022948       ??_R4?$basic_iostream@DU?$char_traits@D@std@@@std@@6B@ 100d4948     dll.obj
 0002:0002295c       ??_R3?$basic_iostream@DU?$char_traits@D@std@@@std@@8 100d495c     dll.obj
 0002:0002296c       ??_R2?$basic_iostream@DU?$char_traits@D@std@@@std@@8 100d496c     dll.obj
 0002:00022994       ??_R1A@?0A@EA@?$basic_iostream@DU?$char_traits@D@std@@@std@@8 100d4994     dll.obj
 0002:000229b0       ??_R1BA@?0A@EA@?$basic_ostream@DU?$char_traits@D@std@@@std@@8 100d49b0     dll.obj
 0002:000229cc       ??_R4?$basic_filebuf@DU?$char_traits@D@std@@@std@@6B@ 100d49cc     dll.obj
 0002:000229e0       ??_R3?$basic_filebuf@DU?$char_traits@D@std@@@std@@8 100d49e0     dll.obj
 0002:000229f0       ??_R2?$basic_filebuf@DU?$char_traits@D@std@@@std@@8 100d49f0     dll.obj
 0002:000229fc       ??_R1A@?0A@EA@?$basic_filebuf@DU?$char_traits@D@std@@@std@@8 100d49fc     dll.obj
 0002:00022a18       ??_R4?$basic_fstream@DU?$char_traits@D@std@@@std@@6B@ 100d4a18     dll.obj
 0002:00022a2c       ??_R3?$basic_fstream@DU?$char_traits@D@std@@@std@@8 100d4a2c     dll.obj
 0002:00022a3c       ??_R2?$basic_fstream@DU?$char_traits@D@std@@@std@@8 100d4a3c     dll.obj
 0002:00022a68       ??_R1A@?0A@EA@?$basic_fstream@DU?$char_traits@D@std@@@std@@8 100d4a68     dll.obj
 0002:00022a84       ??_R4runtime_error@std@@6B@ 100d4a84     dll.obj
 0002:00022a98       ??_R3runtime_error@std@@8  100d4a98     dll.obj
 0002:00022aa8       ??_R2runtime_error@std@@8  100d4aa8     dll.obj
 0002:00022ab4       ??_R1A@?0A@EA@runtime_error@std@@8 100d4ab4     dll.obj
 0002:00022ad0       ??_R4_Facet_base@std@@6B@  100d4ad0     dll.obj
 0002:00022ae4       ??_R3_Facet_base@std@@8    100d4ae4     dll.obj
 0002:00022af4       ??_R2_Facet_base@std@@8    100d4af4     dll.obj
 0002:00022afc       ??_R1A@?0A@EA@_Facet_base@std@@8 100d4afc     dll.obj
 0002:00022b18       ??_R1A@?0A@EA@facet@locale@std@@8 100d4b18     dll.obj
 0002:00022b34       ??_R3facet@locale@std@@8   100d4b34     dll.obj
 0002:00022b44       ??_R2facet@locale@std@@8   100d4b44     dll.obj
 0002:00022b54       ??_R13?0A@EA@_Crt_new_delete@std@@8 100d4b54     dll.obj
 0002:00022b70       ??_R3_Crt_new_delete@std@@8 100d4b70     dll.obj
 0002:00022b80       ??_R2_Crt_new_delete@std@@8 100d4b80     dll.obj
 0002:00022b88       ??_R1A@?0A@EA@_Crt_new_delete@std@@8 100d4b88     dll.obj
 0002:00022ba4       ??_R3codecvt_base@std@@8   100d4ba4     dll.obj
 0002:00022bb4       ??_R2codecvt_base@std@@8   100d4bb4     dll.obj
 0002:00022bc8       ??_R1A@?0A@EA@codecvt_base@std@@8 100d4bc8     dll.obj
 0002:00022be4       ??_R3ctype_base@std@@8     100d4be4     dll.obj
 0002:00022bf4       ??_R2ctype_base@std@@8     100d4bf4     dll.obj
 0002:00022c08       ??_R1A@?0A@EA@ctype_base@std@@8 100d4c08     dll.obj
 0002:00022c24       ??_R4?$ctype@D@std@@6B@    100d4c24     dll.obj
 0002:00022c38       ??_R3?$ctype@D@std@@8      100d4c38     dll.obj
 0002:00022c48       ??_R2?$ctype@D@std@@8      100d4c48     dll.obj
 0002:00022c60       ??_R1A@?0A@EA@?$ctype@D@std@@8 100d4c60     dll.obj
 0002:00022c7c       ??_R3error_category@std@@8 100d4c7c     dll.obj
 0002:00022c8c       ??_R2error_category@std@@8 100d4c8c     dll.obj
 0002:00022c94       ??_R1A@?0A@EA@error_category@std@@8 100d4c94     dll.obj
 0002:00022cb0       ??_R4_System_error@std@@6B@ 100d4cb0     dll.obj
 0002:00022cc4       ??_R3_System_error@std@@8  100d4cc4     dll.obj
 0002:00022cd4       ??_R2_System_error@std@@8  100d4cd4     dll.obj
 0002:00022ce4       ??_R1A@?0A@EA@_System_error@std@@8 100d4ce4     dll.obj
 0002:00022d00       ??_R4system_error@std@@6B@ 100d4d00     dll.obj
 0002:00022d14       ??_R3system_error@std@@8   100d4d14     dll.obj
 0002:00022d24       ??_R2system_error@std@@8   100d4d24     dll.obj
 0002:00022d38       ??_R1A@?0A@EA@system_error@std@@8 100d4d38     dll.obj
 0002:00022d54       ??_R3_Generic_error_category@std@@8 100d4d54     dll.obj
 0002:00022d64       ??_R2_Generic_error_category@std@@8 100d4d64     dll.obj
 0002:00022d70       ??_R1A@?0A@EA@_Generic_error_category@std@@8 100d4d70     dll.obj
 0002:00022d8c       ??_R4_Iostream_error_category@std@@6B@ 100d4d8c     dll.obj
 0002:00022da0       ??_R3_Iostream_error_category@std@@8 100d4da0     dll.obj
 0002:00022db0       ??_R2_Iostream_error_category@std@@8 100d4db0     dll.obj
 0002:00022dc0       ??_R1A@?0A@EA@_Iostream_error_category@std@@8 100d4dc0     dll.obj
 0002:00022ddc       ??_R4failure@ios_base@std@@6B@ 100d4ddc     dll.obj
 0002:00022df0       ??_R3failure@ios_base@std@@8 100d4df0     dll.obj
 0002:00022e00       ??_R2failure@ios_base@std@@8 100d4e00     dll.obj
 0002:00022e18       ??_R1A@?0A@EA@failure@ios_base@std@@8 100d4e18     dll.obj
 0002:00022e34       ??_R4?$codecvt@DDU_Mbstatet@@@std@@6B@ 100d4e34     dll.obj
 0002:00022e48       ??_R3?$codecvt@DDU_Mbstatet@@@std@@8 100d4e48     dll.obj
 0002:00022e58       ??_R2?$codecvt@DDU_Mbstatet@@@std@@8 100d4e58     dll.obj
 0002:00022e70       ??_R1A@?0A@EA@?$codecvt@DDU_Mbstatet@@@std@@8 100d4e70     dll.obj
 0002:00022e8c       ??_R3ITraceFilter@SDK@@8   100d4e8c     Aimbot.obj
 0002:00022e9c       ??_R2ITraceFilter@SDK@@8   100d4e9c     Aimbot.obj
 0002:00022ea4       ??_R1A@?0A@EA@ITraceFilter@SDK@@8 100d4ea4     Aimbot.obj
 0002:00022ec0       ??_R4CTraceFilterOneEntity@SDK@@6B@ 100d4ec0     Aimbot.obj
 0002:00022ed4       ??_R3CTraceFilterOneEntity@SDK@@8 100d4ed4     Aimbot.obj
 0002:00022ee4       ??_R2CTraceFilterOneEntity@SDK@@8 100d4ee4     Aimbot.obj
 0002:00022ef0       ??_R1A@?0A@EA@CTraceFilterOneEntity@SDK@@8 100d4ef0     Aimbot.obj
 0002:00022f0c       ??_R4CTraceFilterOneEntity2@SDK@@6B@ 100d4f0c     Aimbot.obj
 0002:00022f20       ??_R3CTraceFilterOneEntity2@SDK@@8 100d4f20     Aimbot.obj
 0002:00022f30       ??_R2CTraceFilterOneEntity2@SDK@@8 100d4f30     Aimbot.obj
 0002:00022f3c       ??_R1A@?0A@EA@CTraceFilterOneEntity2@SDK@@8 100d4f3c     Aimbot.obj
 0002:00022f58       ??_R4CTraceFilter@SDK@@6B@ 100d4f58     Antiaim.obj
 0002:00022f6c       ??_R3CTraceFilter@SDK@@8   100d4f6c     Antiaim.obj
 0002:00022f7c       ??_R2CTraceFilter@SDK@@8   100d4f7c     Antiaim.obj
 0002:00022f88       ??_R1A@?0A@EA@CTraceFilter@SDK@@8 100d4f88     Antiaim.obj
 0002:00022fa4       ??_R4CTraceWorldOnly@SDK@@6B@ 100d4fa4     Antiaim.obj
 0002:00022fb8       ??_R3CTraceWorldOnly@SDK@@8 100d4fb8     Antiaim.obj
 0002:00022fc8       ??_R2CTraceWorldOnly@SDK@@8 100d4fc8     Antiaim.obj
 0002:00022fd4       ??_R1A@?0A@EA@CTraceWorldOnly@SDK@@8 100d4fd4     Antiaim.obj
 0002:00022ff0       ??_R4logic_error@std@@6B@  100d4ff0     Autowall.obj
 0002:00023004       ??_R3logic_error@std@@8    100d5004     Autowall.obj
 0002:00023014       ??_R2logic_error@std@@8    100d5014     Autowall.obj
 0002:00023020       ??_R1A@?0A@EA@logic_error@std@@8 100d5020     Autowall.obj
 0002:0002303c       ??_R4IGameEventListener@SDK@@6B@ 100d503c     EventListeners.obj
 0002:00023050       ??_R3IGameEventListener@SDK@@8 100d5050     EventListeners.obj
 0002:00023060       ??_R2IGameEventListener@SDK@@8 100d5060     EventListeners.obj
 0002:00023068       ??_R1A@?0A@EA@IGameEventListener@SDK@@8 100d5068     EventListeners.obj
 0002:00023084       ??_R4ItemPurchaseListener@MISC@FEATURES@@6B@ 100d5084     EventListeners.obj
 0002:00023098       ??_R3ItemPurchaseListener@MISC@FEATURES@@8 100d5098     EventListeners.obj
 0002:000230a8       ??_R2ItemPurchaseListener@MISC@FEATURES@@8 100d50a8     EventListeners.obj
 0002:000230b4       ??_R1A@?0A@EA@ItemPurchaseListener@MISC@FEATURES@@8 100d50b4     EventListeners.obj
 0002:000230d0       ??_R4PlayerHurtListener@MISC@FEATURES@@6B@ 100d50d0     EventListeners.obj
 0002:000230e4       ??_R3PlayerHurtListener@MISC@FEATURES@@8 100d50e4     EventListeners.obj
 0002:000230f4       ??_R2PlayerHurtListener@MISC@FEATURES@@8 100d50f4     EventListeners.obj
 0002:00023100       ??_R1A@?0A@EA@PlayerHurtListener@MISC@FEATURES@@8 100d5100     EventListeners.obj
 0002:0002311c       ??_R4BulletImpactListener@MISC@FEATURES@@6B@ 100d511c     EventListeners.obj
 0002:00023130       ??_R3BulletImpactListener@MISC@FEATURES@@8 100d5130     EventListeners.obj
 0002:00023140       ??_R2BulletImpactListener@MISC@FEATURES@@8 100d5140     EventListeners.obj
 0002:0002314c       ??_R1A@?0A@EA@BulletImpactListener@MISC@FEATURES@@8 100d514c     EventListeners.obj
 0002:00023168       ??_R4WeaponFireListener@MISC@FEATURES@@6B@ 100d5168     EventListeners.obj
 0002:0002317c       ??_R3WeaponFireListener@MISC@FEATURES@@8 100d517c     EventListeners.obj
 0002:0002318c       ??_R2WeaponFireListener@MISC@FEATURES@@8 100d518c     EventListeners.obj
 0002:00023198       ??_R1A@?0A@EA@WeaponFireListener@MISC@FEATURES@@8 100d5198     EventListeners.obj
 0002:000231b4       ??_R4?$basic_stringbuf@DU?$char_traits@D@std@@V?$allocator@D@2@@std@@6B@ 100d51b4     PPGUI_Commands.obj
 0002:000231c8       ??_R3?$basic_stringbuf@DU?$char_traits@D@std@@V?$allocator@D@2@@std@@8 100d51c8     PPGUI_Commands.obj
 0002:000231d8       ??_R2?$basic_stringbuf@DU?$char_traits@D@std@@V?$allocator@D@2@@std@@8 100d51d8     PPGUI_Commands.obj
 0002:000231e4       ??_R1A@?0A@EA@?$basic_stringbuf@DU?$char_traits@D@std@@V?$allocator@D@2@@std@@8 100d51e4     PPGUI_Commands.obj
 0002:00023200       ??_R4?$basic_stringstream@DU?$char_traits@D@std@@V?$allocator@D@2@@std@@6B@ 100d5200     PPGUI_Commands.obj
 0002:00023214       ??_R3?$basic_stringstream@DU?$char_traits@D@std@@V?$allocator@D@2@@std@@8 100d5214     PPGUI_Commands.obj
 0002:00023224       ??_R2?$basic_stringstream@DU?$char_traits@D@std@@V?$allocator@D@2@@std@@8 100d5224     PPGUI_Commands.obj
 0002:00023250       ??_R1A@?0A@EA@?$basic_stringstream@DU?$char_traits@D@std@@V?$allocator@D@2@@std@@8 100d5250     PPGUI_Commands.obj
 0002:0002326c       ??_R4PPGUI_Command@PPGUI@@6B@ 100d526c     PPGUI_Commands.obj
 0002:00023280       ??_R3PPGUI_Command@PPGUI@@8 100d5280     PPGUI_Commands.obj
 0002:00023290       ??_R2PPGUI_Command@PPGUI@@8 100d5290     PPGUI_Commands.obj
 0002:00023298       ??_R1A@?0A@EA@PPGUI_Command@PPGUI@@8 100d5298     PPGUI_Commands.obj
 0002:000232b4       ??_R4PPGUI_Window_Command@PPGUI@@6B@ 100d52b4     PPGUI_Commands.obj
 0002:000232c8       ??_R3PPGUI_Window_Command@PPGUI@@8 100d52c8     PPGUI_Commands.obj
 0002:000232d8       ??_R2PPGUI_Window_Command@PPGUI@@8 100d52d8     PPGUI_Commands.obj
 0002:000232e4       ??_R1A@?0A@EA@PPGUI_Window_Command@PPGUI@@8 100d52e4     PPGUI_Commands.obj
 0002:00023300       ??_R4PPGUI_Checkbox_Command@PPGUI@@6B@ 100d5300     PPGUI_Commands.obj
 0002:00023314       ??_R3PPGUI_Checkbox_Command@PPGUI@@8 100d5314     PPGUI_Commands.obj
 0002:00023324       ??_R2PPGUI_Checkbox_Command@PPGUI@@8 100d5324     PPGUI_Commands.obj
 0002:00023330       ??_R1A@?0A@EA@PPGUI_Checkbox_Command@PPGUI@@8 100d5330     PPGUI_Commands.obj
 0002:0002334c       ??_R4PPGUI_Button_Command@PPGUI@@6B@ 100d534c     PPGUI_Commands.obj
 0002:00023360       ??_R3PPGUI_Button_Command@PPGUI@@8 100d5360     PPGUI_Commands.obj
 0002:00023370       ??_R2PPGUI_Button_Command@PPGUI@@8 100d5370     PPGUI_Commands.obj
 0002:0002337c       ??_R1A@?0A@EA@PPGUI_Button_Command@PPGUI@@8 100d537c     PPGUI_Commands.obj
 0002:00023398       ??_R4PPGUI_Groupbox_Command@PPGUI@@6B@ 100d5398     PPGUI_Commands.obj
 0002:000233ac       ??_R3PPGUI_Groupbox_Command@PPGUI@@8 100d53ac     PPGUI_Commands.obj
 0002:000233bc       ??_R2PPGUI_Groupbox_Command@PPGUI@@8 100d53bc     PPGUI_Commands.obj
 0002:000233c8       ??_R1A@?0A@EA@PPGUI_Groupbox_Command@PPGUI@@8 100d53c8     PPGUI_Commands.obj
 0002:000233e4       ??_R4PPGUI_Slider_Command@PPGUI@@6B@ 100d53e4     PPGUI_Commands.obj
 0002:000233f8       ??_R3PPGUI_Slider_Command@PPGUI@@8 100d53f8     PPGUI_Commands.obj
 0002:00023408       ??_R2PPGUI_Slider_Command@PPGUI@@8 100d5408     PPGUI_Commands.obj
 0002:00023414       ??_R1A@?0A@EA@PPGUI_Slider_Command@PPGUI@@8 100d5414     PPGUI_Commands.obj
 0002:00023430       ??_R4PPGUI_Separator_Command@PPGUI@@6B@ 100d5430     PPGUI_Commands.obj
 0002:00023444       ??_R3PPGUI_Separator_Command@PPGUI@@8 100d5444     PPGUI_Commands.obj
 0002:00023454       ??_R2PPGUI_Separator_Command@PPGUI@@8 100d5454     PPGUI_Commands.obj
 0002:00023460       ??_R1A@?0A@EA@PPGUI_Separator_Command@PPGUI@@8 100d5460     PPGUI_Commands.obj
 0002:0002347c       ??_R4PPGUI_Keybind_Command@PPGUI@@6B@ 100d547c     PPGUI_Commands.obj
 0002:00023490       ??_R3PPGUI_Keybind_Command@PPGUI@@8 100d5490     PPGUI_Commands.obj
 0002:000234a0       ??_R2PPGUI_Keybind_Command@PPGUI@@8 100d54a0     PPGUI_Commands.obj
 0002:000234ac       ??_R1A@?0A@EA@PPGUI_Keybind_Command@PPGUI@@8 100d54ac     PPGUI_Commands.obj
 0002:000234c8       ??_R4PPGUI_Text_Input_Command@PPGUI@@6B@ 100d54c8     PPGUI_Commands.obj
 0002:000234dc       ??_R3PPGUI_Text_Input_Command@PPGUI@@8 100d54dc     PPGUI_Commands.obj
 0002:000234ec       ??_R2PPGUI_Text_Input_Command@PPGUI@@8 100d54ec     PPGUI_Commands.obj
 0002:000234f8       ??_R1A@?0A@EA@PPGUI_Text_Input_Command@PPGUI@@8 100d54f8     PPGUI_Commands.obj
 0002:00023514       ??_R4PPGUI_Combobox_Command@PPGUI@@6B@ 100d5514     PPGUI_Commands.obj
 0002:00023528       ??_R3PPGUI_Combobox_Command@PPGUI@@8 100d5528     PPGUI_Commands.obj
 0002:00023538       ??_R2PPGUI_Combobox_Command@PPGUI@@8 100d5538     PPGUI_Commands.obj
 0002:00023544       ??_R1A@?0A@EA@PPGUI_Combobox_Command@PPGUI@@8 100d5544     PPGUI_Commands.obj
 0002:00023560       ??_R4PPGUI_Multiselect_Combobox_Command@PPGUI@@6B@ 100d5560     PPGUI_Commands.obj
 0002:00023574       ??_R3PPGUI_Multiselect_Combobox_Command@PPGUI@@8 100d5574     PPGUI_Commands.obj
 0002:00023584       ??_R2PPGUI_Multiselect_Combobox_Command@PPGUI@@8 100d5584     PPGUI_Commands.obj
 0002:00023590       ??_R1A@?0A@EA@PPGUI_Multiselect_Combobox_Command@PPGUI@@8 100d5590     PPGUI_Commands.obj
 0002:000235ac       ??_R4PPGUI_Color_Picker_Command@PPGUI@@6B@ 100d55ac     PPGUI_Commands.obj
 0002:000235c0       ??_R3PPGUI_Color_Picker_Command@PPGUI@@8 100d55c0     PPGUI_Commands.obj
 0002:000235d0       ??_R2PPGUI_Color_Picker_Command@PPGUI@@8 100d55d0     PPGUI_Commands.obj
 0002:000235dc       ??_R1A@?0A@EA@PPGUI_Color_Picker_Command@PPGUI@@8 100d55dc     PPGUI_Commands.obj
 0002:000235f8       ??_R4PPGUI_Tab_Command@PPGUI@@6B@ 100d55f8     PPGUI_Commands.obj
 0002:0002360c       ??_R3PPGUI_Tab_Command@PPGUI@@8 100d560c     PPGUI_Commands.obj
 0002:0002361c       ??_R2PPGUI_Tab_Command@PPGUI@@8 100d561c     PPGUI_Commands.obj
 0002:00023628       ??_R1A@?0A@EA@PPGUI_Tab_Command@PPGUI@@8 100d5628     PPGUI_Commands.obj
 0002:00023644       ??_R4PPGUI_Tool_Tip_Command@PPGUI@@6B@ 100d5644     PPGUI_Commands.obj
 0002:00023658       ??_R3PPGUI_Tool_Tip_Command@PPGUI@@8 100d5658     PPGUI_Commands.obj
 0002:00023668       ??_R2PPGUI_Tool_Tip_Command@PPGUI@@8 100d5668     PPGUI_Commands.obj
 0002:00023674       ??_R1A@?0A@EA@PPGUI_Tool_Tip_Command@PPGUI@@8 100d5674     PPGUI_Commands.obj
 0002:00023690       ??_R4?$num_put@DV?$ostreambuf_iterator@DU?$char_traits@D@std@@@std@@@std@@6B@ 100d5690     PPGUI_Commands.obj
 0002:000236a4       ??_R3?$num_put@DV?$ostreambuf_iterator@DU?$char_traits@D@std@@@std@@@std@@8 100d56a4     PPGUI_Commands.obj
 0002:000236b4       ??_R2?$num_put@DV?$ostreambuf_iterator@DU?$char_traits@D@std@@@std@@@std@@8 100d56b4     PPGUI_Commands.obj
 0002:000236c8       ??_R1A@?0A@EA@?$num_put@DV?$ostreambuf_iterator@DU?$char_traits@D@std@@@std@@@std@@8 100d56c8     PPGUI_Commands.obj
 0002:000236e4       ??_R4?$numpunct@D@std@@6B@ 100d56e4     PPGUI_Commands.obj
 0002:000236f8       ??_R3?$numpunct@D@std@@8   100d56f8     PPGUI_Commands.obj
 0002:00023708       ??_R2?$numpunct@D@std@@8   100d5708     PPGUI_Commands.obj
 0002:0002371c       ??_R1A@?0A@EA@?$numpunct@D@std@@8 100d571c     PPGUI_Commands.obj
 0002:00023738       ??_R4bad_alloc@std@@6B@    100d5738     libcpmt:xthrow.obj
 0002:0002374c       ??_R3bad_alloc@std@@8      100d574c     libcpmt:xthrow.obj
 0002:0002375c       ??_R2bad_alloc@std@@8      100d575c     libcpmt:xthrow.obj
 0002:00023768       ??_R1A@?0A@EA@bad_alloc@std@@8 100d5768     libcpmt:xthrow.obj
 0002:00023784       ??_R4length_error@std@@6B@ 100d5784     libcpmt:xthrow.obj
 0002:00023798       ??_R3length_error@std@@8   100d5798     libcpmt:xthrow.obj
 0002:000237a8       ??_R2length_error@std@@8   100d57a8     libcpmt:xthrow.obj
 0002:000237b8       ??_R1A@?0A@EA@length_error@std@@8 100d57b8     libcpmt:xthrow.obj
 0002:000237d4       ??_R4out_of_range@std@@6B@ 100d57d4     libcpmt:xthrow.obj
 0002:000237e8       ??_R3out_of_range@std@@8   100d57e8     libcpmt:xthrow.obj
 0002:000237f8       ??_R2out_of_range@std@@8   100d57f8     libcpmt:xthrow.obj
 0002:00023808       ??_R1A@?0A@EA@out_of_range@std@@8 100d5808     libcpmt:xthrow.obj
 0002:00023824       ??_R4_Locimp@locale@std@@6B@ 100d5824     libcpmt:locale0.obj
 0002:00023838       ??_R3_Locimp@locale@std@@8 100d5838     libcpmt:locale0.obj
 0002:00023848       ??_R2_Locimp@locale@std@@8 100d5848     libcpmt:locale0.obj
 0002:0002385c       ??_R1A@?0A@EA@_Locimp@locale@std@@8 100d585c     libcpmt:locale0.obj
 0002:00023878       ??_R4type_info@@6B@        100d5878     LIBCMT:std_type_info_static.obj
 0002:0002388c       ??_R3type_info@@8          100d588c     LIBCMT:std_type_info_static.obj
 0002:0002389c       ??_R2type_info@@8          100d589c     LIBCMT:std_type_info_static.obj
 0002:000238a4       ??_R1A@?0A@EA@type_info@@8 100d58a4     LIBCMT:std_type_info_static.obj
 0002:000238c0       ??_R4bad_array_new_length@std@@6B@ 100d58c0     LIBCMT:throw_bad_alloc.obj
 0002:000238d4       ??_R3bad_array_new_length@std@@8 100d58d4     LIBCMT:throw_bad_alloc.obj
 0002:000238e4       ??_R2bad_array_new_length@std@@8 100d58e4     LIBCMT:throw_bad_alloc.obj
 0002:000238f4       ??_R1A@?0A@EA@bad_array_new_length@std@@8 100d58f4     LIBCMT:throw_bad_alloc.obj
 0002:00023910       ??_R4bad_exception@std@@6B@ 100d5910     libvcruntime:frame.obj
 0002:00023924       ??_R3bad_exception@std@@8  100d5924     libvcruntime:frame.obj
 0002:00023934       ??_R2bad_exception@std@@8  100d5934     libvcruntime:frame.obj
 0002:00023940       ??_R1A@?0A@EA@bad_exception@std@@8 100d5940     libvcruntime:frame.obj
 0002:00023d44       ___rtc_iaa                 100d5d44     LIBCMT:initsect.obj
 0002:00023d48       ___rtc_izz                 100d5d48     LIBCMT:initsect.obj
 0002:00023d4c       ___rtc_taa                 100d5d4c     LIBCMT:initsect.obj
 0002:00023d50       ___rtc_tzz                 100d5d50     LIBCMT:initsect.obj
 0002:00023d54       __tls_start                100d5d54     LIBCMT:tlssup.obj
 0002:00023d58       __Init_thread_epoch        100d5d58     LIBCMT:thread_safe_statics.obj
 0002:00023d5c       __tls_end                  100d5d5c     LIBCMT:tlssup.obj
 0002:000241b0       __TI2?AVruntime_error@std@@ 100d61b0     dll.obj
 0002:000241c0       __CTA2?AVruntime_error@std@@ 100d61c0     dll.obj
 0002:000241cc       __CT??_R0?AVruntime_error@std@@@8??0runtime_error@std@@QAE@ABV01@@Z12 100d61cc     dll.obj
 0002:000241e8       __CT??_R0?AVexception@std@@@8??0exception@std@@QAE@ABV01@@Z12 100d61e8     dll.obj
 0002:00024204       __TI5?AVfailure@ios_base@std@@ 100d6204     dll.obj
 0002:00024214       __CTA5?AVfailure@ios_base@std@@ 100d6214     dll.obj
 0002:0002422c       __CT??_R0?AVfailure@ios_base@std@@@8??0failure@ios_base@std@@QAE@ABV012@@Z20 100d622c     dll.obj
 0002:00024248       __CT??_R0?AVsystem_error@std@@@8??0system_error@std@@QAE@ABV01@@Z20 100d6248     dll.obj
 0002:00024264       __CT??_R0?AV_System_error@std@@@8??0_System_error@std@@QAE@ABV01@@Z20 100d6264     dll.obj
 0002:000243e4       __CT??_R0?AVlogic_error@std@@@8??0logic_error@std@@QAE@ABV01@@Z12 100d63e4     Autowall.obj
 0002:000250a4       __TI1?AVexception@std@@    100d70a4     SkinChanger.obj
 0002:000250b4       __CTA1?AVexception@std@@   100d70b4     SkinChanger.obj
 0002:00026b9c       __TI2?AVbad_alloc@std@@    100d8b9c     libcpmt:xthrow.obj
 0002:00026bac       __CTA2?AVbad_alloc@std@@   100d8bac     libcpmt:xthrow.obj
 0002:00026bb8       __CT??_R0?AVbad_alloc@std@@@8??0bad_alloc@std@@QAE@ABV01@@Z12 100d8bb8     libcpmt:xthrow.obj
 0002:00026bd4       __TI3?AVlength_error@std@@ 100d8bd4     libcpmt:xthrow.obj
 0002:00026be4       __CTA3?AVlength_error@std@@ 100d8be4     libcpmt:xthrow.obj
 0002:00026bf4       __CT??_R0?AVlength_error@std@@@8??0length_error@std@@QAE@ABV01@@Z12 100d8bf4     libcpmt:xthrow.obj
 0002:00026c10       __TI3?AVout_of_range@std@@ 100d8c10     libcpmt:xthrow.obj
 0002:00026c20       __CTA3?AVout_of_range@std@@ 100d8c20     libcpmt:xthrow.obj
 0002:00026c30       __CT??_R0?AVout_of_range@std@@@8??0out_of_range@std@@QAE@ABV01@@Z12 100d8c30     libcpmt:xthrow.obj
 0002:00026dac       __TI3?AVbad_array_new_length@std@@ 100d8dac     LIBCMT:throw_bad_alloc.obj
 0002:00026dbc       __CTA3?AVbad_array_new_length@std@@ 100d8dbc     LIBCMT:throw_bad_alloc.obj
 0002:00026dcc       __CT??_R0?AVbad_array_new_length@std@@@8??0bad_array_new_length@std@@QAE@ABV01@@Z12 100d8dcc     LIBCMT:throw_bad_alloc.obj
 0002:00026de8       __TI1?AV_com_error@@       100d8de8     comsuppw:comraise.obj
 0002:00026df8       __CTA1?AV_com_error@@      100d8df8     comsuppw:comraise.obj
 0002:00026e00       __CT??_R0?AV_com_error@@@8??0_com_error@@QAE@ABV0@@Z16 100d8e00     comsuppw:comraise.obj
 0002:00026f24       __TI2?AVbad_exception@std@@ 100d8f24     libvcruntime:frame.obj
 0002:00026f34       __CTA2?AVbad_exception@std@@ 100d8f34     libvcruntime:frame.obj
 0002:00026f40       __CT??_R0?AVbad_exception@std@@@8??0bad_exception@std@@QAE@ABV01@@Z12 100d8f40     libvcruntime:frame.obj
 0002:00027664       __IMPORT_DESCRIPTOR_KERNEL32 100d9664     kernel32:KERNEL32.dll
 0002:00027678       __IMPORT_DESCRIPTOR_USER32 100d9678     user32:USER32.dll
 0002:0002768c       __IMPORT_DESCRIPTOR_GDI32  100d968c     gdi32:GDI32.dll
 0002:000276a0       __IMPORT_DESCRIPTOR_OLEAUT32 100d96a0     oleaut32:OLEAUT32.dll
 0002:000276b4       __IMPORT_DESCRIPTOR_urlmon 100d96b4     urlmon:urlmon.dll
 0002:000276c8       __IMPORT_DESCRIPTOR_WINMM  100d96c8     Winmm:WINMM.dll
 0002:000276dc       __IMPORT_DESCRIPTOR_IMM32  100d96dc     imm32:IMM32.dll
 0002:000276f0       __IMPORT_DESCRIPTOR_d3d9   100d96f0     d3d9:d3d9.dll
 0002:00027704       __NULL_IMPORT_DESCRIPTOR   100d9704     kernel32:KERNEL32.dll
 0003:00000020       ?autostrafer@MISC@FEATURES@@3VAutostrafer@12@A 100db020     Autostrafer.obj
 0003:0000006c       ?item_purchase_listener@MISC@FEATURES@@3VItemPurchaseListener@12@A 100db06c     EventListeners.obj
 0003:00000070       ?player_hurt_listener@MISC@FEATURES@@3VPlayerHurtListener@12@A 100db070     EventListeners.obj
 0003:00000074       ?bullet_impact_listener@MISC@FEATURES@@3VBulletImpactListener@12@A 100db074     EventListeners.obj
 0003:00000078       ?weapon_fire_listener@MISC@FEATURES@@3VWeaponFireListener@12@A 100db078     EventListeners.obj
 0003:0000007c       ?in_game_logger@MISC@FEATURES@@3VInGameLogger@12@A 100db07c     InGameLogger.obj
 0003:000000b0       ?hitsound_byte_array@@3PAEA 100db0b0     Misc.obj
 0003:0000a38c       ?bullet_tracers@MISC@FEATURES@@3VBulletTracers@12@A 100e538c     Misc.obj
 0003:0000a39c       ?hitmarkers@MISC@FEATURES@@3VHitmarkers@12@A 100e539c     Misc.obj
 0003:0000a3b8       ?ragebot_configs@SETTINGS@@3VRagebotConfig@1@A 100e53b8     Configurations.obj
 0003:0000a49c       ?world_color@VISUALS@FEATURES@@3VCColor@@A 100e549c     World Textures.obj
 0003:0000a4a0       ?prop_color@VISUALS@FEATURES@@3VCColor@@A 100e54a0     World Textures.obj
 0003:0000a4a4       ?skybox_color@VISUALS@FEATURES@@3VCColor@@A 100e54a4     World Textures.obj
 0003:0000a680       ?accent_color@@3PAHA       100e5680     main.obj
 0003:0000a690       ?icon@@3PAEA               100e5690     main.obj
 0003:00010ae8       ?logo@@3PAEA               100ebae8     main.obj
 0003:00017ee8       ?menu@PPGUI@@3VPPGUI_Framework@1@A 100f2ee8     PPGUI.obj
 0003:00018770       ?debugger@DEBUGGER@UTILS@@3VDebugger@12@A 100f3770     Debugger.obj
 0003:000187b4       ?synced_rainbow_color@GLOBAL@@3VCColor@@A 100f37b4     variables.obj
 0003:00018864       ?_Sync@ios_base@std@@0_NA  100f3864     libcpmt:ios.obj
 0003:00018868       ?_PJP_CPP_Copyright@@3PADA 100f3868     libcpmt:iosptrs.obj
 0003:000188c0       ___security_cookie_complement 100f38c0     LIBCMT:gs_cookie.obj
 0003:000188c4       ___security_cookie         100f38c4     LIBCMT:gs_cookie.obj
 0003:000188c8       __Init_global_epoch        100f38c8     LIBCMT:thread_safe_statics.obj
 0003:000188d0       __fltused                  100f38d0     LIBCMT:fltused.obj
 0003:000188d4       ___scrt_native_dllmain_reason 100f38d4     LIBCMT:utility.obj
 0003:000188e0       ___isa_enabled             100f38e0     LIBCMT:cpu_disp.obj
 0003:000188e4       ?__errorPfn@@3P6GXJPAUIErrorInfo@@@ZA 100f38e4     comsuppw:comsupp.obj
 0003:000188e8       ?vtMissing@@3V_variant_t@@A 100f38e8     comsuppw:comutil.obj
 0003:000188f8       ?_S_spinCount@_SpinCount@details@Concurrency@@2IA 100f38f8     libconcrt:rtlocks.obj
 0003:00018900       ?s_schedulerIdCount@ResourceManager@details@Concurrency@@0JC 100f3900     libconcrt:ResourceManager.obj
 0003:00018904       ?s_executionContextIdCount@ResourceManager@details@Concurrency@@0JC 100f3904     libconcrt:ResourceManager.obj
 0003:00018908       ?s_threadProxyIdCount@ResourceManager@details@Concurrency@@0JC 100f3908     libconcrt:ResourceManager.obj
 0003:0001890c       ?s_oneShotInitializationState@SchedulerBase@details@Concurrency@@0JA 100f390c     libconcrt:SchedulerBase.obj
 0003:00018910       ?PolicyDefaults@details@Concurrency@@3PAIA 100f3910     libconcrt:SchedulerPolicyBase.obj
 0003:00018938       ?PolicyElementKeyStrings@details@Concurrency@@3PAPADA 100f3938     libconcrt:SchedulerPolicyBase.obj
 0003:00018970       __NLG_Destination          100f3970     libvcruntime:exsup.obj
 0003:00018990       __iob                      100f3990     libucrt:_file.obj
 0003:00018a50       ___acrt_lconv_c            100f3a50     libucrt:localeconv.obj
 0003:00018aa0       ___acrt_lconv              100f3aa0     libucrt:localeconv.obj
 0003:00018aa4       ___acrt_lconv_static_decimal 100f3aa4     libucrt:localeconv.obj
 0003:00018aa8       ___acrt_lconv_static_W_decimal 100f3aa8     libucrt:localeconv.obj
 0003:00018ab0       __pctype                   100f3ab0     libucrt:ctype.obj
 0003:00018ab4       __pwctype                  100f3ab4     libucrt:ctype.obj
 0003:00018ab8       ___abort_behavior          100f3ab8     libucrt:abort.obj
 0003:00018ac8       ___acrt_initial_locale_data 100f3ac8     libucrt:nlsdata.obj
 0003:00018b80       ___acrt_initial_locale_pointers 100f3b80     libucrt:nlsdata.obj
 0003:00018b88       ___acrt_wide_c_locale_string 100f3b88     libucrt:nlsdata.obj
 0003:00018b8c       ___mb_cur_max              100f3b8c     libucrt:nlsdata.obj
 0003:00018b90       ___badioinfo               100f3b90     libucrt:ioinit.obj
 0003:00018bc8       __lookuptrailbytes         100f3bc8     libucrt:read.obj
 0003:00018d70       ___globallocalestatus      100f3d70     libucrt:glstatus.obj
 0003:00018d80       ___acrt_initial_multibyte_data 100f3d80     libucrt:mbctype.obj
 0003:000192c0       ??_R0?AVruntime_error@std@@@8 100f42c0     dll.obj
 0003:000192e0       ??_R0?AVexception@std@@@8  100f42e0     dll.obj
 0003:000192fc       ??_R0?AVfailure@ios_base@std@@@8 100f42fc     dll.obj
 0003:00019320       ??_R0?AVsystem_error@std@@@8 100f4320     dll.obj
 0003:00019340       ??_R0?AV_System_error@std@@@8 100f4340     dll.obj
 0003:00019360       ??_R0?AVios_base@std@@@8   100f4360     dll.obj
 0003:0001937c       ??_R0?AV?$_Iosb@H@std@@@8  100f437c     dll.obj
 0003:00019398       ??_R0?AV?$basic_ios@DU?$char_traits@D@std@@@std@@@8 100f4398     dll.obj
 0003:000193d0       ??_R0?AV?$basic_streambuf@DU?$char_traits@D@std@@@std@@@8 100f43d0     dll.obj
 0003:0001940c       ??_R0?AV?$basic_istream@DU?$char_traits@D@std@@@std@@@8 100f440c     dll.obj
 0003:00019448       ??_R0?AV?$basic_ostream@DU?$char_traits@D@std@@@std@@@8 100f4448     dll.obj
 0003:00019484       ??_R0?AV?$basic_iostream@DU?$char_traits@D@std@@@std@@@8 100f4484     dll.obj
 0003:000194c0       ??_R0?AV?$basic_filebuf@DU?$char_traits@D@std@@@std@@@8 100f44c0     dll.obj
 0003:000194fc       ??_R0?AV?$basic_fstream@DU?$char_traits@D@std@@@std@@@8 100f44fc     dll.obj
 0003:00019538       ??_R0?AV_Facet_base@std@@@8 100f4538     dll.obj
 0003:00019558       ??_R0?AVfacet@locale@std@@@8 100f4558     dll.obj
 0003:00019578       ??_R0?AU_Crt_new_delete@std@@@8 100f4578     dll.obj
 0003:0001959c       ??_R0?AVcodecvt_base@std@@@8 100f459c     dll.obj
 0003:000195bc       ??_R0?AUctype_base@std@@@8 100f45bc     dll.obj
 0003:000195dc       ??_R0?AV?$ctype@D@std@@@8  100f45dc     dll.obj
 0003:000195f8       ??_R0?AVerror_category@std@@@8 100f45f8     dll.obj
 0003:0001961c       ??_R0?AV_Generic_error_category@std@@@8 100f461c     dll.obj
 0003:00019648       ??_R0?AV_Iostream_error_category@std@@@8 100f4648     dll.obj
 0003:00019674       ??_R0?AV?$codecvt@DDU_Mbstatet@@@std@@@8 100f4674     dll.obj
 0003:000196a0       ??_R0?AVITraceFilter@SDK@@@8 100f46a0     Aimbot.obj
 0003:000196c0       ??_R0?AVCTraceFilterOneEntity@SDK@@@8 100f46c0     Aimbot.obj
 0003:000196e8       ??_R0?AVCTraceFilterOneEntity2@SDK@@@8 100f46e8     Aimbot.obj
 0003:00019714       ??_R0?AVCTraceFilter@SDK@@@8 100f4714     Antiaim.obj
 0003:00019734       ??_R0?AVCTraceWorldOnly@SDK@@@8 100f4734     Antiaim.obj
 0003:00019758       ??_R0?AVlogic_error@std@@@8 100f4758     Autowall.obj
 0003:00019778       ??_R0?AVIGameEventListener@SDK@@@8 100f4778     EventListeners.obj
 0003:000197a0       ??_R0?AVItemPurchaseListener@MISC@FEATURES@@@8 100f47a0     EventListeners.obj
 0003:000197d4       ??_R0?AVPlayerHurtListener@MISC@FEATURES@@@8 100f47d4     EventListeners.obj
 0003:00019804       ??_R0?AVBulletImpactListener@MISC@FEATURES@@@8 100f4804     EventListeners.obj
 0003:00019838       ??_R0?AVWeaponFireListener@MISC@FEATURES@@@8 100f4838     EventListeners.obj
 0003:00019868       ??_R0?AV?$basic_stringbuf@DU?$char_traits@D@std@@V?$allocator@D@2@@std@@@8 100f4868     PPGUI_Commands.obj
 0003:000198b8       ??_R0?AV?$basic_stringstream@DU?$char_traits@D@std@@V?$allocator@D@2@@std@@@8 100f48b8     PPGUI_Commands.obj
 0003:00019908       ??_R0?AVPPGUI_Command@PPGUI@@@8 100f4908     PPGUI_Commands.obj
 0003:0001992c       ??_R0?AVPPGUI_Window_Command@PPGUI@@@8 100f492c     PPGUI_Commands.obj
 0003:00019958       ??_R0?AVPPGUI_Checkbox_Command@PPGUI@@@8 100f4958     PPGUI_Commands.obj
 0003:00019984       ??_R0?AVPPGUI_Button_Command@PPGUI@@@8 100f4984     PPGUI_Commands.obj
 0003:000199b0       ??_R0?AVPPGUI_Groupbox_Command@PPGUI@@@8 100f49b0     PPGUI_Commands.obj
 0003:000199dc       ??_R0?AVPPGUI_Slider_Command@PPGUI@@@8 100f49dc     PPGUI_Commands.obj
 0003:00019a08       ??_R0?AVPPGUI_Separator_Command@PPGUI@@@8 100f4a08     PPGUI_Commands.obj
 0003:00019a34       ??_R0?AVPPGUI_Keybind_Command@PPGUI@@@8 100f4a34     PPGUI_Commands.obj
 0003:00019a60       ??_R0?AVPPGUI_Text_Input_Command@PPGUI@@@8 100f4a60     PPGUI_Commands.obj
 0003:00019a90       ??_R0?AVPPGUI_Combobox_Command@PPGUI@@@8 100f4a90     PPGUI_Commands.obj
 0003:00019abc       ??_R0?AVPPGUI_Multiselect_Combobox_Command@PPGUI@@@8 100f4abc     PPGUI_Commands.obj
 0003:00019af4       ??_R0?AVPPGUI_Color_Picker_Command@PPGUI@@@8 100f4af4     PPGUI_Commands.obj
 0003:00019b24       ??_R0?AVPPGUI_Tab_Command@PPGUI@@@8 100f4b24     PPGUI_Commands.obj
 0003:00019b4c       ??_R0?AVPPGUI_Tool_Tip_Command@PPGUI@@@8 100f4b4c     PPGUI_Commands.obj
 0003:00019b78       ??_R0?AV?$num_put@DV?$ostreambuf_iterator@DU?$char_traits@D@std@@@std@@@std@@@8 100f4b78     PPGUI_Commands.obj
 0003:00019bcc       ??_R0?AV?$numpunct@D@std@@@8 100f4bcc     PPGUI_Commands.obj
 0003:00019bec       ??_R0?AVbad_alloc@std@@@8  100f4bec     libcpmt:xthrow.obj
 0003:00019c08       ??_R0?AVlength_error@std@@@8 100f4c08     libcpmt:xthrow.obj
 0003:00019c28       ??_R0?AVout_of_range@std@@@8 100f4c28     libcpmt:xthrow.obj
 0003:00019c48       ??_R0?AV_Locimp@locale@std@@@8 100f4c48     libcpmt:locale0.obj
 0003:00019c6c       ??_R0?AVtype_info@@@8      100f4c6c     LIBCMT:std_type_info_static.obj
 0003:00019c84       ??_R0?AVbad_array_new_length@std@@@8 100f4c84     LIBCMT:throw_bad_alloc.obj
 0003:00019cac       ??_R0?AV_com_error@@@8     100f4cac     comsuppw:comraise.obj
 0003:00019cc8       ??_R0?AVbad_exception@std@@@8 100f4cc8     libvcruntime:frame.obj
 0003:00019ce8       ?stream_sounds@BASS@@3Ustream_sounds_s@@A 100f4ce8     dll.obj
 0003:00019d14       ?bass_lib_handle@BASS@@3PAXA 100f4d14     dll.obj
 0003:00019d18       ?bass_lib@BASS@@3VCLoad@@A 100f4d18     dll.obj
 0003:00019d1c       ?stream_handle@BASS@@3KA   100f4d1c     dll.obj
 0003:00019d20       ?request_number@BASS@@3KA  100f4d20     dll.obj
 0003:00019d24       ?bass_init@BASS@@3HA       100f4d24     dll.obj
 0003:00019d28       ?bass_metadata@BASS@@3PADA 100f4d28     dll.obj
 0003:00019e30       ?bass_channelinfo@BASS@@3PADA 100f4e30     dll.obj
 0003:00019f34       ?id@?$codecvt@DDU_Mbstatet@@@std@@2V0locale@2@A 100f4f34     dll.obj
 0003:00019f38       ?_Stinit@?1??_Init@?$basic_filebuf@DU?$char_traits@D@std@@@std@@IAEXPAU_iobuf@@W4_Initfl@23@@Z@4U_Mbstatet@@A 100f4f38     dll.obj
 0003:00019f40       ?_Psave@?$_Facetptr@V?$ctype@D@std@@@std@@2PBVfacet@locale@2@B 100f4f40     dll.obj
 0003:00019f44       ?_Flag@?1???$_Immortalize@V_Iostream_error_category@std@@@std@@YAAAV_Iostream_error_category@1@XZ@4PAXA 100f4f44     dll.obj
 0003:00019f48       ?_Storage@?1???$_Immortalize@V_Iostream_error_category@std@@@std@@YAAAV_Iostream_error_category@1@XZ@4T?$_Align_type@H$07@1@A 100f4f48     dll.obj
 0003:00019f50       ?_Psave@?$_Facetptr@V?$codecvt@DDU_Mbstatet@@@std@@@std@@2PBVfacet@locale@2@B 100f4f50     dll.obj
 0003:00019f58       ?aimbot@RAGEBOT@FEATURES@@3VAimbot@12@A 100f4f58     Aimbot.obj
 0003:000c8358       ?aimbot_enabled@RagebotConfig@SETTINGS@@2_NA 101a3358     Aimbot.obj
 0003:000c8359       ?aimbot_autocrouch_enabled@RagebotConfig@SETTINGS@@2_NA 101a3359     Aimbot.obj
 0003:000c835c       ?aimbot_autostop_damage_trigger@RagebotConfig@SETTINGS@@2HA 101a335c     Aimbot.obj
 0003:000c8364       ?random_float@?1???R<lambda_226465845abdf7192f61acb56475a920>@@QBEMMM@Z@4P6AMMM@ZA 101a3364     Aimbot.obj
 0003:000c8368       ?$TSS0@?1???R<lambda_226465845abdf7192f61acb56475a920>@@QBEMMM@Z@4HA 101a3368     Aimbot.obj
 0003:000c836c       ?id@?$num_put@DV?$ostreambuf_iterator@DU?$char_traits@D@std@@@std@@@std@@2V0locale@2@A 101a336c     Aimbot.obj
 0003:000c8370       ?id@?$numpunct@D@std@@2V0locale@2@A 101a3370     Aimbot.obj
 0003:000c8378       ?rand_gen@?1??RandomNumber@MATH@@YAMMM@Z@4V?$mersenne_twister_engine@I$0CA@$0CHA@$0BIN@$0BP@$0JJAILANP@$0L@$0PPPPPPPP@$06$0JNCMFGIA@$0P@$0OPMGAAAA@$0BC@$0GMAHIJGF@@std@@A 101a3378     Antiaim.obj
 0003:000c9700       ?$TSS1@?1??RandomNumber@MATH@@YAMMM@Z@4HA 101a4700     Antiaim.obj
 0003:000c9704       ?antiaim@RAGEBOT@FEATURES@@3VAntiaim@12@A 101a4704     Antiaim.obj
 0003:000c971c       ?dwAddress@?1??UTIL_ClipTraceToPlayers@Autowall@RAGEBOT@FEATURES@@AAEXABVVector@@0IPAVITraceFilter@SDK@@PAUtrace_t@7@@Z@4KA 101a471c     Autowall.obj
 0003:000c9720       ?$TSS0@?1??UTIL_ClipTraceToPlayers@Autowall@RAGEBOT@FEATURES@@AAEXABVVector@@0IPAVITraceFilter@SDK@@PAUtrace_t@7@@Z@4HA 101a4720     Autowall.obj
 0003:000c9724       ?autowall@RAGEBOT@FEATURES@@3VAutowall@12@A 101a4724     Autowall.obj
 0003:000c9730       ?func@?1??SetAbsOrigin@CBaseEntity@SDK@@QAEXVVector@@@Z@4P6EXPAV23@ABV4@@ZA 101a4730     Backtracking.obj
 0003:000c9734       ?func@?1??SetAbsAngles@CBaseEntity@SDK@@QAEXVVector@@@Z@4P6EXPAV23@ABV4@@ZA 101a4734     Backtracking.obj
 0003:000c9738       ?backtracking@RAGEBOT@FEATURES@@3VCBacktracking@12@A 101a4738     Backtracking.obj
 0003:000c9ac4       ?box_esp@VISUALS@FEATURES@@3VCBoxESP@12@A 101a4ac4     BoxESP.obj
 0003:000c9ac8       ?_OptionsStorage@?1??__local_stdio_printf_options@@9@4_KA 101a4ac8     BoxESP.obj
 0003:000c9ad0       ?chams@VISUALS@FEATURES@@3VCChams@12@A 101a4ad0     Chams.obj
 0003:000c9aec       ?pKeyValuesSystem@?1???2KeyValues@SDK@@SAPAXI@Z@4PAXA 101a4aec     Chams.obj
 0003:000c9b04       ?circle_strafer@MISC@FEATURES@@3VCircleStrafer@12@A 101a4b04     CircleStrafer.obj
 0003:000c9b08       ?engine_prediction@MISC@FEATURES@@3VEnginePrediction@12@A 101a4b08     EnginePrediction.obj
 0003:000c9bcd       ?fakewalk@RAGEBOT@FEATURES@@3VFakewalk@12@A 101a4bcd     Fakewalk.obj
 0003:000c9bce       ?glow@VISUALS@FEATURES@@3VCGlow@12@A 101a4bce     Glow.obj
 0003:000c9bd0       ?legit_aimbot@LEGITBOT@FEATURES@@3VLegitAimbot@12@A 101a4bd0     Legitbot.obj
 0003:000c9be0       ?desired_channel@@3HA      101a4be0     Misc.obj
 0003:000c9bf8       ?set_clan_tag@?1???R<lambda_a6669d928a94ba27917059d5a85f90cd>@@QBE@PBD0@Z@4P6IX00@ZA 101a4bf8     Misc.obj
 0003:000c9bfc       ?$TSS0@?1???R<lambda_a6669d928a94ba27917059d5a85f90cd>@@QBE@PBD0@Z@4HA 101a4bfc     Misc.obj
 0003:000c9c40       ?offset@?1??GetSequenceActivity@CBaseEntity@SDK@@QAEHH@Z@4KA 101a4c40     Resolver.obj
 0003:000c9c44       ?$TSS0@?1??GetSequenceActivity@CBaseEntity@SDK@@QAEHH@Z@4HA 101a4c44     Resolver.obj
 0003:000c9c48       ?GetSequenceActivity@?1??0CBaseEntity@SDK@@QAEHH@Z@4P6IHPAXPAUstudiohdr_t@2@H@ZA 101a4c48     Resolver.obj
 0003:000c9c4c       ?$TSS1@?1??GetSequenceActivity@CBaseEntity@SDK@@QAEHH@Z@4HA 101a4c4c     Resolver.obj
 0003:000c9c50       ?resolver@RAGEBOT@FEATURES@@3VResolver@12@A 101a4c50     Resolver.obj
 0003:000d9b68       ?main_configs@SETTINGS@@3VMainConfig@1@A 101b4b68     Configurations.obj
 0003:000d9d50       ?skin_configs@SETTINGS@@3VSkinConfig@1@A 101b4d50     Configurations.obj
 0003:000dc330       ?skeleton_esp@VISUALS@FEATURES@@3VSkeletonESP@12@A 101b7330     SkeletonESP.obj
 0003:000dc338       ?skin_changer@MISC@FEATURES@@3VSkinChanger@12@A 101b7338     SkinChanger.obj
 0003:00109964       ?visualize_backtrack@VISUALS@FEATURES@@3VVisualizeBacktrack@12@A 101e4964     VisualizeBacktrack.obj
 0003:00109968       ?player_time_dormant@VISUALS@FEATURES@@3PAMA 101e4968     Visuals.obj
 0003:00109a68       ?player_time_not_dormant@VISUALS@FEATURES@@3PAMA 101e4a68     Visuals.obj
 0003:00109b6c       ?visuals_misc@VISUALS@FEATURES@@3VVisualsMisc@12@A 101e4b6c     VisualsMisc.obj
 0003:00109b98       ?prepared@VISUALS@FEATURES@@3_NA 101e4b98     World Textures.obj
 0003:00109b9c       ?world_opacity@VISUALS@FEATURES@@3MA 101e4b9c     World Textures.obj
 0003:00109ba0       ?props_opacity@VISUALS@FEATURES@@3MA 101e4ba0     World Textures.obj
 0003:00109ba4       ?skybox@VISUALS@FEATURES@@3HA 101e4ba4     World Textures.obj
 0003:00109ba8       ?world_textures@VISUALS@FEATURES@@3VWorldTextures@12@A 101e4ba8     World Textures.obj
 0003:0010bdb4       ?GImGui@@3PAUImGuiContext@@A 101e6db4     imgui.obj
 0003:0010bdb8       ?EmptyString@ImGuiTextBuffer@@2PADA 101e6db8     imgui.obj
 0003:0010bdc0       ?_OptionsStorage@?1??__local_stdio_scanf_options@@9@4_KA 101e6dc0     imgui.obj
 0003:0010bdc8       ?s_current_sort_specs@MyItem@?A0x38224dbd@@2PBUImGuiTableSortSpecs@@B 101e6dc8     imgui_demo.obj
 0003:0010ed10       ?vol23@BASS@@3MA           101e9d10     sounds.obj
 0003:0010ee00       ?DllHandle@@3PAUHINSTANCE__@@A 101e9e00     main.obj
 0003:0010ee04       ?pEndScene@@3P6GJPAUIDirect3DDevice9@@@ZA 101e9e04     main.obj
 0003:0010ee08       ?font@@3PAUImFont@@A       101e9e08     main.obj
 0003:0010ee0c       ?oWndProc@@3P6GJPAUHWND__@@IIJ@ZA 101e9e0c     main.obj
 0003:0010ee10       ?init@@3_NA                101e9e10     main.obj
 0003:00111ab8       ?_Psave@?$_Facetptr@V?$num_put@DV?$ostreambuf_iterator@DU?$char_traits@D@std@@@std@@@std@@@std@@2PBVfacet@locale@2@B 101ecab8     PPGUI_Commands.obj
 0003:00111abc       ?_Psave@?$_Facetptr@V?$numpunct@D@std@@@std@@2PBVfacet@locale@2@B 101ecabc     PPGUI_Commands.obj
 0003:00111ac0       ?ppgui_attributes@PPGUI@@3PAMA 101ecac0     PPGUI_Defines.obj
 0003:00111b30       ?ppgui_fonts@PPGUI@@3PAIA  101ecb30     PPGUI_Defines.obj
 0003:00111b80       ?ppgui_colors@PPGUI@@3PAVPPGUI_Color@HELPERS@1@A 101ecb80     PPGUI_Defines.obj
 0003:00111c80       ?ppgui_command_data_base@PPGUI@@3VPPGUI_Command_Data_Base@1@A 101ecc80     PPGUI_Defines.obj
 0003:00111ca0       ?gCRC@SDK@@3VCCRC@1@A      101ecca0     sdk.obj
 0003:00111ca4       ?original_create_move@HOOKS@@3P6E_NPAXMPAVCUserCmd@SDK@@@ZA 101ecca4     hooks.obj
 0003:00111ca8       ?original_paint_traverse@HOOKS@@3P6EXPAXI_N1@ZA 101ecca8     hooks.obj
 0003:00111cac       ?original_frame_stage_notify@HOOKS@@3P6EXPAXH@ZA 101eccac     hooks.obj
 0003:00111cb0       ?original_draw_model_execute@HOOKS@@3P6EXPAXPAVIMatRenderContext@SDK@@ABUDrawModelState_t@3@ABUModelRenderInfo_t@3@PAUmatrix3x4_t@@@ZA 101eccb0     hooks.obj
 0003:00111cb4       ?original_scene_end@HOOKS@@3P6EXPAX@ZA 101eccb4     hooks.obj
 0003:00111cb8       ?original_trace_ray@HOOKS@@3P6EXPAXABURay_t@SDK@@IPAVITraceFilter@3@PAUtrace_t@3@@ZA 101eccb8     hooks.obj
 0003:00111cbc       ?original_send_datagram@HOOKS@@3P6EHPAX0@ZA 101eccbc     hooks.obj
 0003:00111cc0       ?original_override_view@HOOKS@@3P6EXPAXPAUCViewSetup@SDK@@@ZA 101eccc0     hooks.obj
 0003:00111cc4       ?original_setup_bones@HOOKS@@3P6E_NPAXPAUmatrix3x4_t@@HHM@ZA 101eccc4     hooks.obj
 0003:00111cc8       ?OriginalSequenceFn@HOOKS@@3PAXA 101eccc8     hooks.obj
 0003:00111ccc       ?net_channel_hook_manager@HOOKS@@3VVMTHookManager@VMT@@A 101ecccc     hooks.obj
 0003:00111ce0       ?trace_hook_manager@HOOKS@@3VVMTHookManager@VMT@@A 101ecce0     hooks.obj
 0003:00111cf4       ?setup_bones_hook_manager@HOOKS@@3VVMTHookManager@VMT@@A 101eccf4     hooks.obj
 0003:00111d0c       ?client_mode_hook_manager@HOOKS@@3VVMTHookManager@VMT@@A 101ecd0c     hooks.obj
 0003:00111d20       ?render_view_hook_manager@HOOKS@@3VVMTHookManager@VMT@@A 101ecd20     hooks.obj
 0003:00111d34       ?panel_hook_manager@HOOKS@@3VVMTHookManager@VMT@@A 101ecd34     hooks.obj
 0003:00111d48       ?model_render_hook_manager@HOOKS@@3VVMTHookManager@VMT@@A 101ecd48     hooks.obj
 0003:00111d5c       ?iclient_hook_manager@HOOKS@@3VVMTHookManager@VMT@@A 101ecd5c     hooks.obj
 0003:00111d78       ?old_wnd_proc@INPUT@UTILS@@3JA 101ecd78     input_handler.obj
 0003:00111d80       ?input_handler@INPUT@UTILS@@3VInputHandler@12@A 101ecd80     input_handler.obj
 0003:001125a0       ?Client@INTERFACES@@3PAVIClient@SDK@@A 101ed5a0     interfaces.obj
 0003:001125a4       ?Input@INTERFACES@@3PAVCInput@SDK@@A 101ed5a4     interfaces.obj
 0003:001125a8       ?Panel@INTERFACES@@3PAVCPanel@SDK@@A 101ed5a8     interfaces.obj
 0003:001125ac       ?Surface@INTERFACES@@3PAVISurface@SDK@@A 101ed5ac     interfaces.obj
 0003:001125b0       ?Engine@INTERFACES@@3PAVIEngine@SDK@@A 101ed5b0     interfaces.obj
 0003:001125b4       ?ClientEntityList@INTERFACES@@3PAVCClientEntityList@SDK@@A 101ed5b4     interfaces.obj
 0003:001125b8       ?Globals@INTERFACES@@3PAVCGlobalVars@SDK@@A 101ed5b8     interfaces.obj
 0003:001125bc       ?DebugOverlay@INTERFACES@@3PAVIVDebugOverlay@SDK@@A 101ed5bc     interfaces.obj
 0003:001125c0       ?Trace@INTERFACES@@3PAVCTrace@SDK@@A 101ed5c0     interfaces.obj
 0003:001125c4       ?ModelInfo@INTERFACES@@3PAVCModelInfo@SDK@@A 101ed5c4     interfaces.obj
 0003:001125c8       ?cvar@INTERFACES@@3PAVICVar@SDK@@A 101ed5c8     interfaces.obj
 0003:001125cc       ?InputSystem@INTERFACES@@3PAVCInputSystem@SDK@@A 101ed5cc     interfaces.obj
 0003:001125d0       ?ModelRender@INTERFACES@@3PAVCModelRender@SDK@@A 101ed5d0     interfaces.obj
 0003:001125d4       ?RenderView@INTERFACES@@3PAVCRenderView@SDK@@A 101ed5d4     interfaces.obj
 0003:001125d8       ?MaterialSystem@INTERFACES@@3PAVIMaterialSystem@SDK@@A 101ed5d8     interfaces.obj
 0003:001125dc       ?PhysicsProps@INTERFACES@@3PAVIPhysicsProps@SDK@@A 101ed5dc     interfaces.obj
 0003:001125e0       ?ClientMode@INTERFACES@@3PAVCClientMode@SDK@@A 101ed5e0     interfaces.obj
 0003:001125e4       ?GameEventManager@INTERFACES@@3PAVIGameEventManager@SDK@@A 101ed5e4     interfaces.obj
 0003:001125e8       ?GlowObjManager@INTERFACES@@3PAVCGlowObjectManager@SDK@@A 101ed5e8     interfaces.obj
 0003:001125ec       ?GameMovement@INTERFACES@@3PAVIGameMovement@SDK@@A 101ed5ec     interfaces.obj
 0003:001125f0       ?Prediction@INTERFACES@@3PAVCPrediction@SDK@@A 101ed5f0     interfaces.obj
 0003:001125f4       ?MoveHelper@INTERFACES@@3PAVIMoveHelper@SDK@@A 101ed5f4     interfaces.obj
 0003:001126fd       ?netvar_manager@UTILS@@3VCNetvarManager@1@A 101ed6fd     NetvarManager.obj
 0003:00112700       ?m_iHealth@OFFSETS@@3IA    101ed700     offsets.obj
 0003:00112704       ?m_fFlags@OFFSETS@@3IA     101ed704     offsets.obj
 0003:00112708       ?m_vecVelocity@OFFSETS@@3IA 101ed708     offsets.obj
 0003:0011270c       ?m_flLowerBodyYawTarget@OFFSETS@@3IA 101ed70c     offsets.obj
 0003:00112710       ?deadflag@OFFSETS@@3IA     101ed710     offsets.obj
 0003:00112714       ?m_vecOrigin@OFFSETS@@3IA  101ed714     offsets.obj
 0003:00112718       ?m_iTeamNum@OFFSETS@@3IA   101ed718     offsets.obj
 0003:0011271c       ?m_nTickBase@OFFSETS@@3IA  101ed71c     offsets.obj
 0003:00112720       ?m_bDormant@OFFSETS@@3IA   101ed720     offsets.obj
 0003:00112724       ?animstate@OFFSETS@@3IA    101ed724     offsets.obj
 0003:00112728       ?m_Collision@OFFSETS@@3IA  101ed728     offsets.obj
 0003:0011272c       ?m_angEyeAngles@OFFSETS@@3IA 101ed72c     offsets.obj
 0003:00112730       ?m_flSimulationTime@OFFSETS@@3IA 101ed730     offsets.obj
 0003:00112734       ?m_vecViewOffset@OFFSETS@@3IA 101ed734     offsets.obj
 0003:00112738       ?m_dwBoneMatrix@OFFSETS@@3IA 101ed738     offsets.obj
 0003:0011273c       ?m_aimPunchAngle@OFFSETS@@3IA 101ed73c     offsets.obj
 0003:00112740       ?m_bGunGameImmunity@OFFSETS@@3IA 101ed740     offsets.obj
 0003:00112744       ?m_nForceBone@OFFSETS@@3IA 101ed744     offsets.obj
 0003:00112748       ?m_flPoseParameter@OFFSETS@@3IA 101ed748     offsets.obj
 0003:0011274c       ?dwGlowObjectManager@OFFSETS@@3IA 101ed74c     offsets.obj
 0003:00112750       ?m_flNextPrimaryAttack@OFFSETS@@3IA 101ed750     offsets.obj
 0003:00112754       ?m_flNextAttack@OFFSETS@@3IA 101ed754     offsets.obj
 0003:00112758       ?m_hActiveWeapon@OFFSETS@@3IA 101ed758     offsets.obj
 0003:0011275c       ?m_ArmorValue@OFFSETS@@3IA 101ed75c     offsets.obj
 0003:00112760       ?m_bHasHelmet@OFFSETS@@3IA 101ed760     offsets.obj
 0003:00112764       ?m_bIsScoped@OFFSETS@@3IA  101ed764     offsets.obj
 0003:00112768       ?ClientState@OFFSETS@@3IA  101ed768     offsets.obj
 0003:0011276c       ?m_iItemDefinitionIndex@OFFSETS@@3IA 101ed76c     offsets.obj
 0003:00112770       ?m_iItemIDHigh@OFFSETS@@3IA 101ed770     offsets.obj
 0003:00112774       ?m_nFallbackPaintKit@OFFSETS@@3IA 101ed774     offsets.obj
 0003:00112778       ?m_flFallbackWear@OFFSETS@@3IA 101ed778     offsets.obj
 0003:0011277c       ?m_szCustomName@OFFSETS@@3IA 101ed77c     offsets.obj
 0003:00112780       ?m_hMyWeapons@OFFSETS@@3IA 101ed780     offsets.obj
 0003:00112784       ?m_nFallbackSeed@OFFSETS@@3IA 101ed784     offsets.obj
 0003:00112788       ?m_nFallbackStatTrak@OFFSETS@@3IA 101ed788     offsets.obj
 0003:0011278c       ?m_iEntityQuality@OFFSETS@@3IA 101ed78c     offsets.obj
 0003:00112790       ?m_iAccountID@OFFSETS@@3IA 101ed790     offsets.obj
 0003:00112794       ?m_flPostponeFireReadyTime@OFFSETS@@3IA 101ed794     offsets.obj
 0003:00112798       ?m_iObserverMode@OFFSETS@@3IA 101ed798     offsets.obj
 0003:0011279c       ?m_flFlashDuration@OFFSETS@@3IA 101ed79c     offsets.obj
 0003:001127a0       ?m_flThrowStrength@OFFSETS@@3IA 101ed7a0     offsets.obj
 0003:001127a4       ?m_bPinPulled@OFFSETS@@3IA 101ed7a4     offsets.obj
 0003:001127a8       ?m_bSpotted@OFFSETS@@3IA   101ed7a8     offsets.obj
 0003:001127ac       ?m_flNextSecondaryAttack@OFFSETS@@3IA 101ed7ac     offsets.obj
 0003:001127b0       ?m_fThrowTime@OFFSETS@@3IA 101ed7b0     offsets.obj
 0003:001127b4       ?m_MoveType@OFFSETS@@3IA   101ed7b4     offsets.obj
 0003:001127b8       ?m_iClip1@OFFSETS@@3IA     101ed7b8     offsets.obj
 0003:001127bc       ?m_iPrimaryReserveAmmoCount@OFFSETS@@3IA 101ed7bc     offsets.obj
 0003:001127c0       ?m_hViewModel@OFFSETS@@3IA 101ed7c0     offsets.obj
 0003:001127c4       ?m_nModelIndex@OFFSETS@@3IA 101ed7c4     offsets.obj
 0003:001127c8       ?m_hWeapon@OFFSETS@@3IA    101ed7c8     offsets.obj
 0003:001127cc       ?m_hOwner@OFFSETS@@3IA     101ed7cc     offsets.obj
 0003:001127d0       ?m_hWeaponWorldModel@OFFSETS@@3IA 101ed7d0     offsets.obj
 0003:001127d4       ?m_iViewModelIndex@OFFSETS@@3IA 101ed7d4     offsets.obj
 0003:001127d8       ?m_iWorldModelIndex@OFFSETS@@3IA 101ed7d8     offsets.obj
 0003:001127dc       ?m_angRotation@OFFSETS@@3IA 101ed7dc     offsets.obj
 0003:001127e0       ?render_queue@RENDER@@3VRenderQueue@1@A 101ed7e0     render.obj
 0003:001127f4       ?should_send_packet@GLOBAL@@3_NA 101ed7f4     variables.obj
 0003:001127f5       ?disable_fake_lag@GLOBAL@@3_NA 101ed7f5     variables.obj
 0003:001127f6       ?is_fakewalking@GLOBAL@@3_NA 101ed7f6     variables.obj
 0003:001127f7       ?should_choke_packets@GLOBAL@@3_NA 101ed7f7     variables.obj
 0003:001127f8       ?is_freestanding@GLOBAL@@3_NA 101ed7f8     variables.obj
 0003:001127f9       ?is_edging@GLOBAL@@3_NA    101ed7f9     variables.obj
 0003:001127fa       ?can_shoot_someone@GLOBAL@@3_NA 101ed7fa     variables.obj
 0003:001127fb       ?is_jumping@GLOBAL@@3_NA   101ed7fb     variables.obj
 0003:001127fc       ?do_max_fake_lag@GLOBAL@@3_NA 101ed7fc     variables.obj
 0003:001127fd       ?pressing_move@GLOBAL@@3_NA 101ed7fd     variables.obj
 0003:001127fe       ?testing_bool_1@GLOBAL@@3_NA 101ed7fe     variables.obj
 0003:001127ff       ?testing_bool_2@GLOBAL@@3_NA 101ed7ff     variables.obj
 0003:00112800       ?choke_amount@GLOBAL@@3HA  101ed800     variables.obj
 0003:00112804       ?cheat_start_time@GLOBAL@@3MA 101ed804     variables.obj
 0003:00112808       ?lerp@GLOBAL@@3MA          101ed808     variables.obj
 0003:0011280c       ?testing_float_1@GLOBAL@@3MA 101ed80c     variables.obj
 0003:00112810       ?testing_float_2@GLOBAL@@3MA 101ed810     variables.obj
 0003:00112814       ?last_cmd@GLOBAL@@3PAXA    101ed814     variables.obj
 0003:00112818       ?menu_tab_font@FONTS@@3IA  101ed818     variables.obj
 0003:0011281c       ?menu_checkbox_font@FONTS@@3IA 101ed81c     variables.obj
 0003:00112820       ?menu_slider_font@FONTS@@3IA 101ed820     variables.obj
 0003:00112824       ?menu_slider_value_font@FONTS@@3IA 101ed824     variables.obj
 0003:00112828       ?menu_groupbox_font@FONTS@@3IA 101ed828     variables.obj
 0003:0011282c       ?menu_combobox_name_font@FONTS@@3IA 101ed82c     variables.obj
 0003:00112830       ?menu_combobox_value_font@FONTS@@3IA 101ed830     variables.obj
 0003:00112834       ?menu_window_font@FONTS@@3IA 101ed834     variables.obj
 0003:00112838       ?menu_separator_font@FONTS@@3IA 101ed838     variables.obj
 0003:0011283c       ?menu_window_blurr_font@FONTS@@3IA 101ed83c     variables.obj
 0003:00112840       ?menu_keybind_value_font@FONTS@@3IA 101ed840     variables.obj
 0003:00112844       ?menu_keybind_name_font@FONTS@@3IA 101ed844     variables.obj
 0003:00112848       ?menu_text_input_name_font@FONTS@@3IA 101ed848     variables.obj
 0003:0011284c       ?menu_text_input_value_font@FONTS@@3IA 101ed84c     variables.obj
 0003:00112850       ?menu_button_font@FONTS@@3IA 101ed850     variables.obj
 0003:00112854       ?menu_colorpicker_font@FONTS@@3IA 101ed854     variables.obj
 0003:00112858       ?menu_tool_tip_font@FONTS@@3IA 101ed858     variables.obj
 0003:0011285c       ?visuals_esp_font@FONTS@@3IA 101ed85c     variables.obj
 0003:00112860       ?visuals_esp_font_small@FONTS@@3IA 101ed860     variables.obj
 0003:00112864       ?lby_indicator_font@FONTS@@3IA 101ed864     variables.obj
 0003:00112868       ?radio_indicator_font@FONTS@@3IA 101ed868     variables.obj
 0003:0011286c       ?in_game_logging_font@FONTS@@3IA 101ed86c     variables.obj
 0003:00112870       ?weapon_icon_font@FONTS@@3IA 101ed870     variables.obj
 0003:00112874       ?welcome_font@FONTS@@3IA   101ed874     variables.obj
 0003:00112878       ?csgo_hwnd@GLOBAL@@3PAUHWND__@@A 101ed878     variables.obj
 0003:0011287c       ?real_angles@GLOBAL@@3VVector@@A 101ed87c     variables.obj
 0003:00112888       ?fake_angles@GLOBAL@@3VVector@@A 101ed888     variables.obj
 0003:00112894       ?strafe_angles@GLOBAL@@3VVector@@A 101ed894     variables.obj
 0003:00112978       ?_Id_cnt@id@locale@std@@0HA 101ed978     libcpmt:locale0.obj
 0003:0011297c       ?_Clocptr@_Locimp@locale@std@@0PAV123@A 101ed97c     libcpmt:locale0.obj
 0003:00112980       ?id@?$ctype@G@std@@2V0locale@2@A 101ed980     libcpmt:locale0.obj
 0003:00112984       ?id@?$codecvt@_WDU_Mbstatet@@@std@@2V0locale@2@A 101ed984     libcpmt:locale0.obj
 0003:00112988       ?id@?$codecvt@GDU_Mbstatet@@@std@@2V0locale@2@A 101ed988     libcpmt:locale0.obj
 0003:0011298c       ?id@?$ctype@_W@std@@2V0locale@2@A 101ed98c     libcpmt:locale0.obj
 0003:00112990       ?id@?$ctype@D@std@@2V0locale@2@A 101ed990     libcpmt:locale0.obj
 0003:001129ac       ?_Index@ios_base@std@@0HA  101ed9ac     libcpmt:ios.obj
 0003:001129f0       ?cout@std@@3V?$basic_ostream@DU?$char_traits@D@std@@@1@A 101ed9f0     libcpmt:cout.obj
 0003:00112a98       ?id@?$num_get@DV?$istreambuf_iterator@DU?$char_traits@D@std@@@std@@@std@@2V0locale@2@A 101eda98     libcpmt:locale.obj
 0003:00112a9c       ?_Ptr_cin@std@@3PAV?$basic_istream@DU?$char_traits@D@std@@@1@A 101eda9c     libcpmt:iosptrs.obj
 0003:00112aa0       ?_Ptr_cout@std@@3PAV?$basic_ostream@DU?$char_traits@D@std@@@1@A 101edaa0     libcpmt:iosptrs.obj
 0003:00112aa4       ?_Ptr_cerr@std@@3PAV?$basic_ostream@DU?$char_traits@D@std@@@1@A 101edaa4     libcpmt:iosptrs.obj
 0003:00112aa8       ?_Ptr_clog@std@@3PAV?$basic_ostream@DU?$char_traits@D@std@@@1@A 101edaa8     libcpmt:iosptrs.obj
 0003:00112aac       ?_Ptr_wcin@std@@3PAV?$basic_istream@_WU?$char_traits@_W@std@@@1@A 101edaac     libcpmt:iosptrs.obj
 0003:00112ab0       ?_Ptr_wcout@std@@3PAV?$basic_ostream@_WU?$char_traits@_W@std@@@1@A 101edab0     libcpmt:iosptrs.obj
 0003:00112ab4       ?_Ptr_wcerr@std@@3PAV?$basic_ostream@_WU?$char_traits@_W@std@@@1@A 101edab4     libcpmt:iosptrs.obj
 0003:00112ab8       ?_Ptr_wclog@std@@3PAV?$basic_ostream@_WU?$char_traits@_W@std@@@1@A 101edab8     libcpmt:iosptrs.obj
 0003:00112ae8       ___encodedKERNEL32Functions 101edae8     libcpmt:winapisupp.obj
 0003:00112b88       ?__stl_sync_api_impl_mode@@3W4__stl_sync_api_modes_enum@@A 101edb88     libcpmt:mutex.obj
 0003:00112d28       ?id@?$time_put@_WV?$ostreambuf_iterator@_WU?$char_traits@_W@std@@@std@@@std@@2V0locale@2@A 101edd28     libcpmt:wlocale.obj
 0003:00112d2c       ?id@?$num_get@_WV?$istreambuf_iterator@_WU?$char_traits@_W@std@@@std@@@std@@2V0locale@2@A 101edd2c     libcpmt:wlocale.obj
 0003:00112d30       ?id@?$num_put@_WV?$ostreambuf_iterator@_WU?$char_traits@_W@std@@@std@@@std@@2V0locale@2@A 101edd30     libcpmt:wlocale.obj
 0003:00112d34       ?id@?$numpunct@_W@std@@2V0locale@2@A 101edd34     libcpmt:wlocale.obj
 0003:00112d38       ?id@?$collate@_W@std@@2V0locale@2@A 101edd38     libcpmt:wlocale.obj
 0003:00112d3c       ?id@?$messages@_W@std@@2V0locale@2@A 101edd3c     libcpmt:wlocale.obj
 0003:00112d40       ?id@?$money_get@_WV?$istreambuf_iterator@_WU?$char_traits@_W@std@@@std@@@std@@2V0locale@2@A 101edd40     libcpmt:wlocale.obj
 0003:00112d44       ?id@?$money_put@_WV?$ostreambuf_iterator@_WU?$char_traits@_W@std@@@std@@@std@@2V0locale@2@A 101edd44     libcpmt:wlocale.obj
 0003:00112d48       ?id@?$moneypunct@_W$0A@@std@@2V0locale@2@A 101edd48     libcpmt:wlocale.obj
 0003:00112d4c       ?id@?$moneypunct@_W$00@std@@2V0locale@2@A 101edd4c     libcpmt:wlocale.obj
 0003:00112d50       ?id@?$time_get@_WV?$istreambuf_iterator@_WU?$char_traits@_W@std@@@std@@@std@@2V0locale@2@A 101edd50     libcpmt:wlocale.obj
 0003:00112d54       ?id@?$num_get@GV?$istreambuf_iterator@GU?$char_traits@G@std@@@std@@@std@@2V0locale@2@A 101edd54     libcpmt:wlocale.obj
 0003:00112d58       ?id@?$num_put@GV?$ostreambuf_iterator@GU?$char_traits@G@std@@@std@@@std@@2V0locale@2@A 101edd58     libcpmt:wlocale.obj
 0003:00112d5c       ?id@?$numpunct@G@std@@2V0locale@2@A 101edd5c     libcpmt:wlocale.obj
 0003:00112d60       ?id@?$collate@G@std@@2V0locale@2@A 101edd60     libcpmt:wlocale.obj
 0003:00112d64       ?id@?$messages@G@std@@2V0locale@2@A 101edd64     libcpmt:wlocale.obj
 0003:00112d68       ?id@?$money_get@GV?$istreambuf_iterator@GU?$char_traits@G@std@@@std@@@std@@2V0locale@2@A 101edd68     libcpmt:wlocale.obj
 0003:00112d6c       ?id@?$money_put@GV?$ostreambuf_iterator@GU?$char_traits@G@std@@@std@@@std@@2V0locale@2@A 101edd6c     libcpmt:wlocale.obj
 0003:00112d70       ?id@?$moneypunct@G$0A@@std@@2V0locale@2@A 101edd70     libcpmt:wlocale.obj
 0003:00112d74       ?id@?$moneypunct@G$00@std@@2V0locale@2@A 101edd74     libcpmt:wlocale.obj
 0003:00112d78       ?id@?$time_get@GV?$istreambuf_iterator@GU?$char_traits@G@std@@@std@@@std@@2V0locale@2@A 101edd78     libcpmt:wlocale.obj
 0003:00112d7c       ?id@?$time_put@GV?$ostreambuf_iterator@GU?$char_traits@G@std@@@std@@@std@@2V0locale@2@A 101edd7c     libcpmt:wlocale.obj
 0003:00112d80       ?id@?$collate@D@std@@2V0locale@2@A 101edd80     libcpmt:xlocale.obj
 0003:00112d84       ?id@?$messages@D@std@@2V0locale@2@A 101edd84     libcpmt:xlocale.obj
 0003:00112d88       ?id@?$money_get@DV?$istreambuf_iterator@DU?$char_traits@D@std@@@std@@@std@@2V0locale@2@A 101edd88     libcpmt:xlocale.obj
 0003:00112d8c       ?id@?$money_put@DV?$ostreambuf_iterator@DU?$char_traits@D@std@@@std@@@std@@2V0locale@2@A 101edd8c     libcpmt:xlocale.obj
 0003:00112d90       ?id@?$moneypunct@D$0A@@std@@2V0locale@2@A 101edd90     libcpmt:xlocale.obj
 0003:00112d94       ?id@?$moneypunct@D$00@std@@2V0locale@2@A 101edd94     libcpmt:xlocale.obj
 0003:00112d98       ?id@?$time_get@DV?$istreambuf_iterator@DU?$char_traits@D@std@@@std@@@std@@2V0locale@2@A 101edd98     libcpmt:xlocale.obj
 0003:00112d9c       ?id@?$time_put@DV?$ostreambuf_iterator@DU?$char_traits@D@std@@@std@@@std@@2V0locale@2@A 101edd9c     libcpmt:xlocale.obj
 0003:00112dc8       __tls_index                101eddc8     LIBCMT:tlssup.obj
 0003:00112dcc       ___scrt_current_native_startup_state 101eddcc     LIBCMT:utility.obj
 0003:00112dd0       ___scrt_native_startup_lock 101eddd0     LIBCMT:utility.obj
 0003:00113110       ___scrt_debugger_hook_flag 101ee110     LIBCMT:utility_desktop.obj
 0003:00113114       ___isa_available           101ee114     LIBCMT:cpu_disp.obj
 0003:00113118       ___favor                   101ee118     LIBCMT:cpu_disp.obj
 0003:00113120       ?__type_info_root_node@@3U__type_info_node@@A 101ee120     LIBCMT:tncleanup.obj
 0003:00113128       ?g_TimerQueueDemandInit@details@Concurrency@@3JC 101ee128     libconcrt:event.obj
 0003:0011312c       ?g_hTimerQueue@details@Concurrency@@3RAXA 101ee12c     libconcrt:event.obj
 0003:00113148       ?LoadLibraryCount@details@Concurrency@@3JC 101ee148     libconcrt:utils.obj
 0003:0011314c       ?HostModule@details@Concurrency@@3PAUHINSTANCE__@@A 101ee14c     libconcrt:utils.obj
 0003:00113160       ?s_pResourceManager@ResourceManager@details@Concurrency@@0PAV123@A 101ee160     libconcrt:ResourceManager.obj
 0003:00113164       ?s_processAffinityMask@ResourceManager@details@Concurrency@@0KA 101ee164     libconcrt:ResourceManager.obj
 0003:00113168       ?s_systemAffinityMask@ResourceManager@details@Concurrency@@0KA 101ee168     libconcrt:ResourceManager.obj
 0003:0011316c       ?s_pUserAffinityRestriction@ResourceManager@details@Concurrency@@0PAUAffinityRestriction@123@A 101ee16c     libconcrt:ResourceManager.obj
 0003:00113170       ?s_pProcessAffinityRestriction@ResourceManager@details@Concurrency@@0PAUAffinityRestriction@123@A 101ee170     libconcrt:ResourceManager.obj
 0003:00113174       ?s_coreCount@ResourceManager@details@Concurrency@@0IA 101ee174     libconcrt:ResourceManager.obj
 0003:00113178       ?s_countProcessorPackages@ResourceManager@details@Concurrency@@0_NA 101ee178     libconcrt:ResourceManager.obj
 0003:0011317c       ?s_nodeCount@ResourceManager@details@Concurrency@@0IA 101ee17c     libconcrt:ResourceManager.obj
 0003:00113180       ?s_numaNodeCount@ResourceManager@details@Concurrency@@0IA 101ee180     libconcrt:ResourceManager.obj
 0003:00113184       ?s_version@ResourceManager@details@Concurrency@@0W4OSVersion@IResourceManager@3@A 101ee184     libconcrt:ResourceManager.obj
 0003:00113188       ?s_logicalProcessorInformationLength@ResourceManager@details@Concurrency@@0KA 101ee188     libconcrt:ResourceManager.obj
 0003:0011318c       ?s_pSysInfo@ResourceManager@details@Concurrency@@0PAU_SYSTEM_LOGICAL_PROCESSOR_INFORMATION@@A 101ee18c     libconcrt:ResourceManager.obj
 0003:00113190       ?s_pDefaultScheduler@SchedulerBase@details@Concurrency@@1PAV123@A 101ee190     libconcrt:SchedulerBase.obj
 0003:00113194       ?s_pDefaultSchedulerPolicy@SchedulerBase@details@Concurrency@@1PAVSchedulerPolicy@3@A 101ee194     libconcrt:SchedulerBase.obj
 0003:00113198       ?t_dwContextIndex@SchedulerBase@details@Concurrency@@1KA 101ee198     libconcrt:SchedulerBase.obj
 0003:0011319c       ?s_workQueueIdCounter@SchedulerBase@details@Concurrency@@0JC 101ee19c     libconcrt:SchedulerBase.obj
 0003:001131a0       ?s_initializedCount@SchedulerBase@details@Concurrency@@0JA 101ee1a0     libconcrt:SchedulerBase.obj
 0003:001131a4       ?s_numExternalAllocators@SchedulerBase@details@Concurrency@@0JC 101ee1a4     libconcrt:SchedulerBase.obj
 0003:001131a8       ?s_initialized@Security@details@Concurrency@@2JC 101ee1a8     libconcrt:staticinits.obj
 0003:001131ac       ?s_schedulerLock@SchedulerBase@details@Concurrency@@0V_NonReentrantLock@23@A 101ee1ac     libconcrt:staticinits.obj
 0003:001131b0       ?s_cookie@Security@details@Concurrency@@2KA 101ee1b0     libconcrt:staticinits.obj
 0003:001131b4       ?s_defaultSchedulerLock@SchedulerBase@details@Concurrency@@1V_NonReentrantLock@23@A 101ee1b4     libconcrt:staticinits.obj
 0003:001131b8       ?s_subAllocatorFreePool@SchedulerBase@details@Concurrency@@0V?$LockFreeStack@VSubAllocator@details@Concurrency@@@23@A 101ee1b8     libconcrt:staticinits.obj
 0003:001131c0       ?s_lock@Etw@details@Concurrency@@0V_NonReentrantLock@23@A 101ee1c0     libconcrt:staticinits.obj
 0003:001131c4       ?s_lock@ResourceManager@details@Concurrency@@0V_NonReentrantLock@23@A 101ee1c4     libconcrt:staticinits.obj
 0003:001131c8       ?s_pfn_RoInitialize@WinRT@details@Concurrency@@0P6GJW4RO_INIT_TYPE@@@ZA 101ee1c8     libconcrt:WinRTWrapper.obj
 0003:001131cc       ?s_pfn_RoUninitialize@WinRT@details@Concurrency@@0P6GXXZA 101ee1cc     libconcrt:WinRTWrapper.obj
 0003:001131d0       ?m_hModule@WinRT@details@Concurrency@@0PAUHINSTANCE__@@A 101ee1d0     libconcrt:WinRTWrapper.obj
 0003:001131d4       ?s_fInitialized@WinRT@details@Concurrency@@0JC 101ee1d4     libconcrt:WinRTWrapper.obj
 0003:001131d8       ?g_ConcRTPRoviderHandle@details@Concurrency@@3_KA 101ee1d8     libconcrt:Trace.obj
 0003:001131e0       ?g_TraceInfo@details@Concurrency@@3U_CONCRT_TRACE_INFO@12@A 101ee1e0     libconcrt:Trace.obj
 0003:001131e8       ?g_ConcRTSessionHandle@details@Concurrency@@3_KA 101ee1e8     libconcrt:Trace.obj
 0003:001131f0       ?g_pEtw@details@Concurrency@@3PAVEtw@12@A 101ee1f0     libconcrt:Trace.obj
 0003:001131f4       ?t_dwSchedulingContextIndex@UMSThreadScheduler@details@Concurrency@@0KA 101ee1f4     libconcrt:UMSThreadScheduler.obj
 0003:001131f8       ?s_currentId@VirtualProcessorRoot@details@Concurrency@@0JA 101ee1f8     libconcrt:VirtualProcessorRoot.obj
 0003:001131fc       ?s_pfn_CreateUmsCompletionList@UMS@details@Concurrency@@0P6GHPAPAX@ZA 101ee1fc     libconcrt:UMSWrapper.obj
 0003:00113200       ?s_pfn_DequeueUmsCompletionListItems@UMS@details@Concurrency@@0P6GHPAXKPAPAX@ZA 101ee200     libconcrt:UMSWrapper.obj
 0003:00113204       ?s_pfn_GetUmsCompletionListEvent@UMS@details@Concurrency@@0P6GHPAXPAPAX@ZA 101ee204     libconcrt:UMSWrapper.obj
 0003:00113208       ?s_pfn_ExecuteUmsThread@UMS@details@Concurrency@@0P6GHPAX@ZA 101ee208     libconcrt:UMSWrapper.obj
 0003:0011320c       ?s_pfn_UmsThreadYield@UMS@details@Concurrency@@0P6GHPAX@ZA 101ee20c     libconcrt:UMSWrapper.obj
 0003:00113210       ?s_pfn_DeleteUmsCompletionList@UMS@details@Concurrency@@0P6GHPAX@ZA 101ee210     libconcrt:UMSWrapper.obj
 0003:00113214       ?s_pfn_GetCurrentUmsThread@UMS@details@Concurrency@@0P6GPAXXZA 101ee214     libconcrt:UMSWrapper.obj
 0003:00113218       ?s_pfn_GetNextUmsListItem@UMS@details@Concurrency@@0P6GPAXPAX@ZA 101ee218     libconcrt:UMSWrapper.obj
 0003:0011321c       ?s_pfn_QueryUmsThreadInformation@UMS@details@Concurrency@@0P6GHPAXW4_RTL_UMS_THREAD_INFO_CLASS@@0KPAK@ZA 101ee21c     libconcrt:UMSWrapper.obj
 0003:00113220       ?s_pfn_SetUmsThreadInformation@UMS@details@Concurrency@@0P6GHPAXW4_RTL_UMS_THREAD_INFO_CLASS@@0K@ZA 101ee220     libconcrt:UMSWrapper.obj
 0003:00113224       ?s_pfn_DeleteUmsThreadContext@UMS@details@Concurrency@@0P6GHPAX@ZA 101ee224     libconcrt:UMSWrapper.obj
 0003:00113228       ?s_pfn_CreateUmsThreadContext@UMS@details@Concurrency@@0P6GHPAPAX@ZA 101ee228     libconcrt:UMSWrapper.obj
 0003:0011322c       ?s_pfn_EnterUmsSchedulingMode@UMS@details@Concurrency@@0P6GHPAU_UMS_SCHEDULER_STARTUP_INFO@@@ZA 101ee22c     libconcrt:UMSWrapper.obj
 0003:00113230       ?s_pfn_CreateRemoteThreadEx@UMS@details@Concurrency@@0P6GPAXPAXPAU_SECURITY_ATTRIBUTES@@KP6GK0@Z0KPAU_PROC_THREAD_ATTRIBUTE_LIST@@PAK@ZA 101ee230     libconcrt:UMSWrapper.obj
 0003:00113234       ?s_pfn_InitializeProcThreadAttributeList@UMS@details@Concurrency@@0P6GHPAU_PROC_THREAD_ATTRIBUTE_LIST@@KKPAK@ZA 101ee234     libconcrt:UMSWrapper.obj
 0003:00113238       ?s_pfn_UpdateProcThreadAttribute@UMS@details@Concurrency@@0P6GHPAU_PROC_THREAD_ATTRIBUTE_LIST@@KKPAXK1PAK@ZA 101ee238     libconcrt:UMSWrapper.obj
 0003:0011323c       ?s_pfn_DeleteProcThreadAttributeList@UMS@details@Concurrency@@0P6GXPAU_PROC_THREAD_ATTRIBUTE_LIST@@@ZA 101ee23c     libconcrt:UMSWrapper.obj
 0003:00113240       ?s_fInitialized@UMS@details@Concurrency@@0JC 101ee240     libconcrt:UMSWrapper.obj
 0003:00113244       ?__WinRTOutOfMemoryExceptionCallback@@3P6GPAXXZA 101ee244     libvcruntime:ehhelpers.obj
 0003:00113248       ___pPurecall               101ee248     libvcruntime:purevirt_data.obj
 0003:0011333c       ?pArgList@UnDecorator@@0PAVReplicator@@A 101ee33c     libvcruntime:undname.obj
 0003:00113340       ?pZNameList@UnDecorator@@0PAVReplicator@@A 101ee340     libvcruntime:undname.obj
 0003:00113344       ?pTemplateArgList@UnDecorator@@0PAVReplicator@@A 101ee344     libvcruntime:undname.obj
 0003:00113348       ?gName@UnDecorator@@0PBDB  101ee348     libvcruntime:undname.obj
 0003:0011334c       ?name@UnDecorator@@0PBDB   101ee34c     libvcruntime:undname.obj
 0003:00113350       ?disableFlags@UnDecorator@@0KA 101ee350     libvcruntime:undname.obj
 0003:00113354       ?fExplicitTemplateParams@UnDecorator@@0_NA 101ee354     libvcruntime:undname.obj
 0003:00113355       ?fGetTemplateArgumentList@UnDecorator@@0_NA 101ee355     libvcruntime:undname.obj
 0003:00113358       ?m_pGetParameter@UnDecorator@@0P6APADJ@ZA 101ee358     libvcruntime:undname.obj
 0003:0011335c       ?m_CHPENameOffset@UnDecorator@@0KA 101ee35c     libvcruntime:undname.obj
 0003:00113360       ?m_recursionLevel@UnDecorator@@0KA 101ee360     libvcruntime:undname.obj
 0003:0011337c       __nstream                  101ee37c     libucrt:_file.obj
 0003:00113380       ___piob                    101ee380     libucrt:_file.obj
 0003:00113384       __cflush                   101ee384     libucrt:_file.obj
 0003:00113388       ___acrt_lconv_static_null  101ee388     libucrt:localeconv.obj
 0003:0011338c       ___acrt_lconv_static_W_null 101ee38c     libucrt:localeconv.obj
 0003:001134f0       ?c_exit_complete@?1???R<lambda_6e4b09c48022b2350581041d5f6b0c4c>@@QBE@XZ@4_NA 101ee4f0     libucrt:exit.obj
 0003:00113600       __environ_table            101ee600     libucrt:environment_initialization.obj
 0003:00113604       __wenviron_table           101ee604     libucrt:environment_initialization.obj
 0003:00113608       ___dcrt_initial_wide_environment 101ee608     libucrt:environment_initialization.obj
 0003:0011360c       ___dcrt_initial_narrow_environment 101ee60c     libucrt:environment_initialization.obj
 0003:00113610       ___acrt_atexit_table       101ee610     libucrt:onexit.obj
 0003:0011361c       ___acrt_at_quick_exit_table 101ee61c     libucrt:onexit.obj
 0003:00113628       ___acrt_locale_changed_data 101ee628     libucrt:wsetlocale.obj
 0003:0011362c       ___acrt_current_locale_data 101ee62c     libucrt:nlsdata.obj
 0003:00113710       ___pioinfo                 101ee710     libucrt:ioinit.obj
 0003:00113910       __nhandle                  101ee910     libucrt:ioinit.obj
 0003:00113914       ___acrt_stdout_buffer      101ee914     libucrt:_sftbuf.obj
 0003:00113918       ___acrt_stderr_buffer      101ee918     libucrt:_sftbuf.obj
 0003:00113944       ?_timezone@@3V?$dual_state_global@J@__crt_state_management@@A 101ee944     libucrt:timeset.obj
 0003:00113948       ?_daylight@@3V?$dual_state_global@H@__crt_state_management@@A 101ee948     libucrt:timeset.obj
 0003:0011394c       ?_dstbias@@3V?$dual_state_global@J@__crt_state_management@@A 101ee94c     libucrt:timeset.obj
 0003:00113a18       ___fastflag                101eea18     libucrt:fp_flags.obj
 0003:00113a1c       __mbctype                  101eea1c     libucrt:mbctype.obj
 0003:00113a20       __mbcasemap                101eea20     libucrt:mbctype.obj
 0003:00113a24       ___acrt_current_multibyte_data 101eea24     libucrt:mbctype.obj
 0003:00113a30       __pgmptr                   101eea30     libucrt:argv_data.obj
 0003:00113a34       ___argc                    101eea34     libucrt:argv_data.obj
 0003:00113a38       ___argv                    101eea38     libucrt:argv_data.obj
 0003:00113a3c       ___wargv                   101eea3c     libucrt:argv_data.obj
 0003:00113a40       __acmdln                   101eea40     libucrt:argv_data.obj
 0003:00113a44       __wcmdln                   101eea44     libucrt:argv_data.obj
 0003:00113a48       ___acrt_heap               101eea48     libucrt:heap_handle.obj
 0003:00113a54       __commode                  101eea54     libucrt:ncommode.obj
 0003:00113a60       __umaskval                 101eea60     libucrt:umask.obj
 0003:00113a6c       __fmode                    101eea6c     libucrt:txtmode.obj
 0003:00113af4       ___dyn_tls_init_callback   101eeaf4     <common>
 0003:00113af8       ___scrt_ucrt_dll_is_in_use 101eeaf8     <common>
 0003:00113afc       ___use_sse2_mathfcns       101eeafc     <common>
 0003:00113b00       __pmatherr                 101eeb00     <common>

 entry point at        0001:000815cf

 Static symbols

 0000:ffe06000       .debug$S                   10000000     kernel32:KERNEL32.dll
 0000:ffe06000       .debug$S                   10000000     kernel32:KERNEL32.dll
 0000:ffe06000       .debug$S                   10000000     kernel32:KERNEL32.dll
 0000:ffe06000       .debug$S                   10000000     kernel32:KERNEL32.dll
 0000:ffe06000       .debug$S                   10000000     urlmon:urlmon.dll
 0000:ffe06000       .debug$S                   10000000     kernel32:KERNEL32.dll
 0000:ffe06000       .debug$S                   10000000     Winmm:WINMM.dll
 0000:ffe06000       .debug$S                   10000000     Winmm:WINMM.dll
 0000:ffe06000       .debug$S                   10000000     Winmm:WINMM.dll
 0000:ffe06000       .debug$S                   10000000     kernel32:KERNEL32.dll
 0000:ffe06000       .debug$S                   10000000     imm32:IMM32.dll
 0000:ffe06000       .debug$S                   10000000     imm32:IMM32.dll
 0000:ffe06000       .debug$S                   10000000     imm32:IMM32.dll
 0000:ffe06000       .debug$S                   10000000     oleaut32:OLEAUT32.dll
 0000:ffe06000       .debug$S                   10000000     oleaut32:OLEAUT32.dll
 0000:ffe06000       .debug$S                   10000000     oleaut32:OLEAUT32.dll
 0000:ffe06000       .debug$S                   10000000     oleaut32:OLEAUT32.dll
 0000:ffe06000       .debug$S                   10000000     oleaut32:OLEAUT32.dll
 0000:ffe06000       .debug$S                   10000000     oleaut32:OLEAUT32.dll
 0000:ffe06000       .debug$S                   10000000     kernel32:KERNEL32.dll
 0000:ffe06000       .debug$S                   10000000     kernel32:KERNEL32.dll
 0000:ffe06000       .debug$S                   10000000     kernel32:KERNEL32.dll
 0000:ffe06000       .debug$S                   10000000     kernel32:KERNEL32.dll
 0000:ffe06000       .debug$S                   10000000     kernel32:KERNEL32.dll
 0000:ffe06000       .debug$S                   10000000     kernel32:KERNEL32.dll
 0000:ffe06000       .debug$S                   10000000     kernel32:KERNEL32.dll
 0000:ffe06000       .debug$S                   10000000     kernel32:KERNEL32.dll
 0000:ffe06000       .debug$S                   10000000     kernel32:KERNEL32.dll
 0000:ffe06000       .debug$S                   10000000     kernel32:KERNEL32.dll
 0000:ffe06000       .debug$S                   10000000     kernel32:KERNEL32.dll
 0000:ffe06000       .debug$S                   10000000     kernel32:KERNEL32.dll
 0000:ffe06000       .debug$S                   10000000     kernel32:KERNEL32.dll
 0000:ffe06000       .debug$S                   10000000     kernel32:KERNEL32.dll
 0000:ffe06000       .debug$S                   10000000     kernel32:KERNEL32.dll
 0000:ffe06000       .debug$S                   10000000     kernel32:KERNEL32.dll
 0000:ffe06000       .debug$S                   10000000     kernel32:KERNEL32.dll
 0000:ffe06000       .debug$S                   10000000     kernel32:KERNEL32.dll
 0000:ffe06000       .debug$S                   10000000     kernel32:KERNEL32.dll
 0000:ffe06000       .debug$S                   10000000     kernel32:KERNEL32.dll
 0000:ffe06000       .debug$S                   10000000     kernel32:KERNEL32.dll
 0000:ffe06000       .debug$S                   10000000     kernel32:KERNEL32.dll
 0000:ffe06000       .debug$S                   10000000     kernel32:KERNEL32.dll
 0000:ffe06000       .debug$S                   10000000     kernel32:KERNEL32.dll
 0000:ffe06000       .debug$S                   10000000     kernel32:KERNEL32.dll
 0000:ffe06000       .debug$S                   10000000     kernel32:KERNEL32.dll
 0000:ffe06000       .debug$S                   10000000     kernel32:KERNEL32.dll
 0000:ffe06000       .debug$S                   10000000     kernel32:KERNEL32.dll
 0000:ffe06000       .debug$S                   10000000     kernel32:KERNEL32.dll
 0000:ffe06000       .debug$S                   10000000     kernel32:KERNEL32.dll
 0000:ffe06000       .debug$S                   10000000     kernel32:KERNEL32.dll
 0000:ffe06000       .debug$S                   10000000     kernel32:KERNEL32.dll
 0000:ffe06000       .debug$S                   10000000     kernel32:KERNEL32.dll
 0000:ffe06000       .debug$S                   10000000     kernel32:KERNEL32.dll
 0000:ffe06000       .debug$S                   10000000     kernel32:KERNEL32.dll
 0000:ffe06000       .debug$S                   10000000     kernel32:KERNEL32.dll
 0000:ffe06000       .debug$S                   10000000     kernel32:KERNEL32.dll
 0000:ffe06000       .debug$S                   10000000     kernel32:KERNEL32.dll
 0000:ffe06000       .debug$S                   10000000     kernel32:KERNEL32.dll
 0000:ffe06000       .debug$S                   10000000     kernel32:KERNEL32.dll
 0000:ffe06000       .debug$S                   10000000     kernel32:KERNEL32.dll
 0000:ffe06000       .debug$S                   10000000     kernel32:KERNEL32.dll
 0000:ffe06000       .debug$S                   10000000     kernel32:KERNEL32.dll
 0000:ffe06000       .debug$S                   10000000     kernel32:KERNEL32.dll
 0000:ffe06000       .debug$S                   10000000     kernel32:KERNEL32.dll
 0000:ffe06000       .debug$S                   10000000     kernel32:KERNEL32.dll
 0000:ffe06000       .debug$S                   10000000     kernel32:KERNEL32.dll
 0000:ffe06000       .debug$S                   10000000     kernel32:KERNEL32.dll
 0000:ffe06000       .debug$S                   10000000     kernel32:KERNEL32.dll
 0000:ffe06000       .debug$S                   10000000     kernel32:KERNEL32.dll
 0000:ffe06000       .debug$S                   10000000     kernel32:KERNEL32.dll
 0000:ffe06000       .debug$S                   10000000     kernel32:KERNEL32.dll
 0000:ffe06000       .debug$S                   10000000     kernel32:KERNEL32.dll
 0000:ffe06000       .debug$S                   10000000     kernel32:KERNEL32.dll
 0000:ffe06000       .debug$S                   10000000     kernel32:KERNEL32.dll
 0000:ffe06000       .debug$S                   10000000     kernel32:KERNEL32.dll
 0000:ffe06000       .debug$S                   10000000     kernel32:KERNEL32.dll
 0000:ffe06000       .debug$S                   10000000     kernel32:KERNEL32.dll
 0000:ffe06000       .debug$S                   10000000     kernel32:KERNEL32.dll
 0000:ffe06000       .debug$S                   10000000     kernel32:KERNEL32.dll
 0000:ffe06000       .debug$S                   10000000     kernel32:KERNEL32.dll
 0000:ffe06000       .debug$S                   10000000     kernel32:KERNEL32.dll
 0000:ffe06000       .debug$S                   10000000     kernel32:KERNEL32.dll
 0000:ffe06000       .debug$S                   10000000     kernel32:KERNEL32.dll
 0000:ffe06000       .debug$S                   10000000     kernel32:KERNEL32.dll
 0000:ffe06000       .debug$S                   10000000     kernel32:KERNEL32.dll
 0000:ffe06000       .debug$S                   10000000     kernel32:KERNEL32.dll
 0000:ffe06000       .debug$S                   10000000     kernel32:KERNEL32.dll
 0000:ffe06000       .debug$S                   10000000     kernel32:KERNEL32.dll
 0000:ffe06000       .debug$S                   10000000     kernel32:KERNEL32.dll
 0000:ffe06000       .debug$S                   10000000     kernel32:KERNEL32.dll
 0000:ffe06000       .debug$S                   10000000     kernel32:KERNEL32.dll
 0000:ffe06000       .debug$S                   10000000     kernel32:KERNEL32.dll
 0000:ffe06000       .debug$S                   10000000     kernel32:KERNEL32.dll
 0000:ffe06000       .debug$S                   10000000     kernel32:KERNEL32.dll
 0000:ffe06000       .debug$S                   10000000     kernel32:KERNEL32.dll
 0000:ffe06000       .debug$S                   10000000     kernel32:KERNEL32.dll
 0000:ffe06000       .debug$S                   10000000     kernel32:KERNEL32.dll
 0000:ffe06000       .debug$S                   10000000     kernel32:KERNEL32.dll
 0000:ffe06000       .debug$S                   10000000     kernel32:KERNEL32.dll
 0000:ffe06000       .debug$S                   10000000     kernel32:KERNEL32.dll
 0000:ffe06000       .debug$S                   10000000     kernel32:KERNEL32.dll
 0000:ffe06000       .debug$S                   10000000     kernel32:KERNEL32.dll
 0000:ffe06000       .debug$S                   10000000     kernel32:KERNEL32.dll
 0000:ffe06000       .debug$S                   10000000     kernel32:KERNEL32.dll
 0000:ffe06000       .debug$S                   10000000     kernel32:KERNEL32.dll
 0000:ffe06000       .debug$S                   10000000     kernel32:KERNEL32.dll
 0000:ffe06000       .debug$S                   10000000     kernel32:KERNEL32.dll
 0000:ffe06000       .debug$S                   10000000     kernel32:KERNEL32.dll
 0000:ffe06000       .debug$S                   10000000     kernel32:KERNEL32.dll
 0000:ffe06000       .debug$S                   10000000     kernel32:KERNEL32.dll
 0000:ffe06000       .debug$S                   10000000     kernel32:KERNEL32.dll
 0000:ffe06000       .debug$S                   10000000     kernel32:KERNEL32.dll
 0000:ffe06000       .debug$S                   10000000     kernel32:KERNEL32.dll
 0000:ffe06000       .debug$S                   10000000     kernel32:KERNEL32.dll
 0000:ffe06000       .debug$S                   10000000     kernel32:KERNEL32.dll
 0000:ffe06000       .debug$S                   10000000     kernel32:KERNEL32.dll
 0000:ffe06000       .debug$S                   10000000     kernel32:KERNEL32.dll
 0000:ffe06000       .debug$S                   10000000     kernel32:KERNEL32.dll
 0000:ffe06000       .debug$S                   10000000     kernel32:KERNEL32.dll
 0000:ffe06000       .debug$S                   10000000     kernel32:KERNEL32.dll
 0000:ffe06000       .debug$S                   10000000     kernel32:KERNEL32.dll
 0000:ffe06000       .debug$S                   10000000     kernel32:KERNEL32.dll
 0000:ffe06000       .debug$S                   10000000     kernel32:KERNEL32.dll
 0000:ffe06000       .debug$S                   10000000     kernel32:KERNEL32.dll
 0000:ffe06000       .debug$S                   10000000     kernel32:KERNEL32.dll
 0000:ffe06000       .debug$S                   10000000     kernel32:KERNEL32.dll
 0000:ffe06000       .debug$S                   10000000     kernel32:KERNEL32.dll
 0000:ffe06000       .debug$S                   10000000     kernel32:KERNEL32.dll
 0000:ffe06000       .debug$S                   10000000     kernel32:KERNEL32.dll
 0000:ffe06000       .debug$S                   10000000     dwmapi:dwmapi.dll
 0000:ffe06000       .debug$S                   10000000     kernel32:KERNEL32.dll
 0000:ffe06000       .debug$S                   10000000     kernel32:KERNEL32.dll
 0000:ffe06000       .debug$S                   10000000     dwmapi:dwmapi.dll
 0000:ffe06000       .debug$S                   10000000     dwmapi:dwmapi.dll
 0002:fff4e000       .idata$6                   10000000     dwmapi:dwmapi.dll
 0000:ffe06000       .debug$S                   10000000     d3d9:d3d9.dll
 0000:ffe06000       .debug$S                   10000000     kernel32:KERNEL32.dll
 0000:ffe06000       .debug$S                   10000000     kernel32:KERNEL32.dll
 0000:ffe06000       .debug$S                   10000000     kernel32:KERNEL32.dll
 0000:ffe06000       .debug$S                   10000000     kernel32:KERNEL32.dll
 0000:ffe06000       .debug$S                   10000000     kernel32:KERNEL32.dll
 0000:ffe06000       .debug$S                   10000000     kernel32:KERNEL32.dll
 0000:ffe06000       .debug$S                   10000000     kernel32:KERNEL32.dll
 0000:ffe06000       .debug$S                   10000000     kernel32:KERNEL32.dll
 0000:ffe06000       .debug$S                   10000000     kernel32:KERNEL32.dll
 0000:ffe06000       .debug$S                   10000000     kernel32:KERNEL32.dll
 0000:ffe06000       .debug$S                   10000000     kernel32:KERNEL32.dll
 0000:ffe06000       .debug$S                   10000000     kernel32:KERNEL32.dll
 0000:ffe06000       .debug$S                   10000000     kernel32:KERNEL32.dll
 0000:ffe06000       .debug$S                   10000000     kernel32:KERNEL32.dll
 0000:ffe06000       .debug$S                   10000000     oleaut32:OLEAUT32.dll
 0000:ffe06000       .debug$S                   10000000     oleaut32:OLEAUT32.dll
 0000:ffe06000       .debug$S                   10000000     gdi32:GDI32.dll
 0000:ffe06000       .debug$S                   10000000     gdi32:GDI32.dll
 0000:ffe06000       .debug$S                   10000000     gdi32:GDI32.dll
 0000:ffe06000       .debug$S                   10000000     kernel32:KERNEL32.dll
 0000:ffe06000       .debug$S                   10000000     gdi32:GDI32.dll
 0000:ffe06000       .debug$S                   10000000     kernel32:KERNEL32.dll
 0000:ffe06000       .debug$S                   10000000     kernel32:KERNEL32.dll
 0000:ffe06000       .debug$S                   10000000     user32:USER32.dll
 0000:ffe06000       .debug$S                   10000000     user32:USER32.dll
 0000:ffe06000       .debug$S                   10000000     user32:USER32.dll
 0000:ffe06000       .debug$S                   10000000     user32:USER32.dll
 0000:ffe06000       .debug$S                   10000000     user32:USER32.dll
 0000:ffe06000       .debug$S                   10000000     user32:USER32.dll
 0000:ffe06000       .debug$S                   10000000     user32:USER32.dll
 0000:ffe06000       .debug$S                   10000000     user32:USER32.dll
 0000:ffe06000       .debug$S                   10000000     user32:USER32.dll
 0000:ffe06000       .debug$S                   10000000     user32:USER32.dll
 0000:ffe06000       .debug$S                   10000000     user32:USER32.dll
 0000:ffe06000       .debug$S                   10000000     user32:USER32.dll
 0000:ffe06000       .debug$S                   10000000     user32:USER32.dll
 0000:ffe06000       .debug$S                   10000000     user32:USER32.dll
 0000:ffe06000       .debug$S                   10000000     user32:USER32.dll
 0000:ffe06000       .debug$S                   10000000     user32:USER32.dll
 0000:ffe06000       .debug$S                   10000000     user32:USER32.dll
 0000:ffe06000       .debug$S                   10000000     user32:USER32.dll
 0000:ffe06000       .debug$S                   10000000     user32:USER32.dll
 0000:ffe06000       .debug$S                   10000000     user32:USER32.dll
 0000:ffe06000       .debug$S                   10000000     user32:USER32.dll
 0000:ffe06000       .debug$S                   10000000     user32:USER32.dll
 0000:ffe06000       .debug$S                   10000000     user32:USER32.dll
 0000:ffe06000       .debug$S                   10000000     user32:USER32.dll
 0000:ffe06000       .debug$S                   10000000     user32:USER32.dll
 0000:ffe06000       .debug$S                   10000000     user32:USER32.dll
 0000:ffe06000       .debug$S                   10000000     user32:USER32.dll
 0000:ffe06000       .debug$S                   10000000     user32:USER32.dll
 0000:ffe06000       .debug$S                   10000000     user32:USER32.dll
 0000:ffe06000       .debug$S                   10000000     user32:USER32.dll
 0000:ffe06000       .debug$S                   10000000     user32:USER32.dll
 0000:ffe06000       .debug$S                   10000000     kernel32:KERNEL32.dll
 0000:ffe06000       .debug$S                   10000000     user32:USER32.dll
 0000:ffe06000       .debug$S                   10000000     kernel32:KERNEL32.dll
 0000:ffe06000       .debug$S                   10000000     kernel32:KERNEL32.dll
 0000:ffe06000       .debug$S                   10000000     kernel32:KERNEL32.dll
 0000:ffe06000       .debug$S                   10000000     kernel32:KERNEL32.dll
 0000:ffe06000       .debug$S                   10000000     kernel32:KERNEL32.dll
 0000:ffe06000       .debug$S                   10000000     kernel32:KERNEL32.dll
 0000:ffe06000       .debug$S                   10000000     kernel32:KERNEL32.dll
 0000:ffe06000       .debug$S                   10000000     kernel32:KERNEL32.dll
 0000:ffe06000       .debug$S                   10000000     kernel32:KERNEL32.dll
 0000:ffe06000       .debug$S                   10000000     kernel32:KERNEL32.dll
 0000:ffe06000       .debug$S                   10000000     kernel32:KERNEL32.dll
 0001:00000dd0       ??__Eaimbot@RAGEBOT@FEATURES@@YAXXZ 10001dd0 f   Aimbot.obj
 0001:00000e00       ??__Ebacktracking@RAGEBOT@FEATURES@@YAXXZ 10001e00 f   Backtracking.obj
 0001:00000eb0       ??__Ebullet_impact_listener@MISC@FEATURES@@YAXXZ 10001eb0 f   EventListeners.obj
 0001:00000ec0       ??__Eitem_purchase_listener@MISC@FEATURES@@YAXXZ 10001ec0 f   EventListeners.obj
 0001:00000ed0       ??__Eplayer_hurt_listener@MISC@FEATURES@@YAXXZ 10001ed0 f   EventListeners.obj
 0001:00000ee0       ??__Eweapon_fire_listener@MISC@FEATURES@@YAXXZ 10001ee0 f   EventListeners.obj
 0001:00000ef0       ??__Ein_game_logger@MISC@FEATURES@@YAXXZ 10001ef0 f   InGameLogger.obj
 0001:00000f00       ??__Ebullet_tracers@MISC@FEATURES@@YAXXZ 10001f00 f   Misc.obj
 0001:00000f10       ??__Ehitmarkers@MISC@FEATURES@@YAXXZ 10001f10 f   Misc.obj
 0001:00000f20       ??__Eresolver@RAGEBOT@FEATURES@@YAXXZ 10001f20 f   Resolver.obj
 0001:00000f70       ??__Emain_configs@SETTINGS@@YAXXZ 10001f70 f   Configurations.obj
 0001:00000f80       ??__Eskin_configs@SETTINGS@@YAXXZ 10001f80 f   Configurations.obj
 0001:00000ff0       ??__Eskin_changer@MISC@FEATURES@@YAXXZ 10001ff0 f   SkinChanger.obj
 0001:00001000       ??__Eworld_textures@VISUALS@FEATURES@@YAXXZ 10002000 f   World Textures.obj
 0001:00001010       ??__EFONT_ATLAS_DEFAULT_TEX_CURSOR_DATA@@YAXXZ 10002010 f   imgui_draw.obj
 0001:00001040       ??__Emenu@PPGUI@@YAXXZ     10002040 f   PPGUI.obj
 0001:00001050       ??__Eppgui_colors@PPGUI@@YAXXZ 10002050 f   PPGUI_Defines.obj
 0001:00001080       ??__Eppgui_command_data_base@PPGUI@@YAXXZ 10002080 f   PPGUI_Defines.obj
 0001:00001120       ??__Edebugger@DEBUGGER@UTILS@@YAXXZ 10002120 f   Debugger.obj
 0001:00001130       ??__Eclient_mode_hook_manager@HOOKS@@YAXXZ 10002130 f   hooks.obj
 0001:00001150       ??__Eiclient_hook_manager@HOOKS@@YAXXZ 10002150 f   hooks.obj
 0001:00001170       ??__Elinegoesthrusmoke@@YAXXZ 10002170 f   hooks.obj
 0001:00001190       ??__Emodel_render_hook_manager@HOOKS@@YAXXZ 10002190 f   hooks.obj
 0001:000011b0       ??__Enet_channel_hook_manager@HOOKS@@YAXXZ 100021b0 f   hooks.obj
 0001:000011d0       ??__Epanel_hook_manager@HOOKS@@YAXXZ 100021d0 f   hooks.obj
 0001:000011f0       ??__Erender_view_hook_manager@HOOKS@@YAXXZ 100021f0 f   hooks.obj
 0001:00001210       ??__Esetup_bones_hook_manager@HOOKS@@YAXXZ 10002210 f   hooks.obj
 0001:00001230       ??__Etrace_hook_manager@HOOKS@@YAXXZ 10002230 f   hooks.obj
 0001:00001250       ??__Einput_handler@INPUT@UTILS@@YAXXZ 10002250 f   input_handler.obj
 0001:00001260       ??__Erender_queue@RENDER@@YAXXZ 10002260 f   render.obj
 0001:00001270       ??__Ecsgo_hwnd@GLOBAL@@YAXXZ 10002270 f   variables.obj
 0001:00001283       ??__Einitlocks@std@@YAXXZ  10002283 f   libcpmt:xlock.obj
 0001:00001299       ??__E_Fac_tidy_reg@std@@YAXXZ 10002299 f   libcpmt:locale0.obj
 0001:000012a5       ??__Eclassic_locale@std@@YAXXZ 100022a5 f   libcpmt:locale0.obj
 0001:000012b1       ??__Ecout@std@@YAXXZ       100022b1 f   libcpmt:cout.obj
 0001:000012d0       ??__Efout@std@@YAXXZ       100022d0 f   libcpmt:cout.obj
 0001:0000130a       ??__Einit_cout@std@@YAXXZ  1000230a f   libcpmt:cout.obj
 0001:00001314       ??__Einitlocks@@YAXXZ      10002314 f   libcpmt:cout.obj
 0001:0000132a       ??__Einit_atexit@@YAXXZ    1000232a f   libcpmt:iosptrs.obj
 0001:00001336       ??__Einitlocks@std@@YAXXZ  10002336 f   libcpmt:iosptrs.obj
 0001:00001350       ??__EvtMissing@@YAXXZ      10002350 f   comsuppw:comutil.obj
 0001:0000135c       ??__Es_defaultWaiterPool@platform@details@Concurrency@@YAXXZ 1000235c f   libconcrt:Platform.obj
 0001:00001368       ??__Eg_DebugOutFilePtr@details@Concurrency@@YAXXZ 10002368 f   libconcrt:utils.obj
 0001:00001376       ??__E?s_cookie@Security@details@Concurrency@@2KA@@YAXXZ 10002376 f   libconcrt:staticinits.obj
 0001:00001381       ??__E?s_subAllocatorFreePool@SchedulerBase@details@Concurrency@@0V?$LockFreeStack@VSubAllocator@details@Concurrency@@@23@A@@YAXXZ 10002381 f   libconcrt:staticinits.obj
 0001:00003992       __catch$?_Ipfx@?$basic_istream@DU?$char_traits@D@std@@@std@@QAE_N_N@Z$0 10004992 f i dll.obj
 0001:00003aab       __catch$?_Osfx@?$basic_ostream@DU?$char_traits@D@std@@@std@@QAEXXZ$0 10004aab f i dll.obj
 0001:00003f50       _initialize_global_state_isolation 10004f50 f i libucrt:initialization.obj
 0001:00003f50       _report_memory_leaks       10004f50 f i libucrt:initialization.obj
 0001:00003f50       _initialize_environment    10004f50 f i libucrt:initialization.obj
 0001:00003f50       _uninitialize_global_state_isolation 10004f50 f i libucrt:initialization.obj
 0001:00003f50       _uninitialize_c            10004f50 f i libucrt:initialization.obj
 0001:0000462d       __catch$?read@?$basic_istream@DU?$char_traits@D@std@@@std@@QAEAAV12@PAD_J@Z$0 1000562d f i dll.obj
 0001:00004990       _no_op_initialize          10005990 f i libucrt:wsetlocale.obj
 0001:00005ba0       ??R<lambda_0cab095c76534eb198b5f50b5a00c77e>@@QBEXAAV?$vector@U?$pair@VVector@@H@std@@V?$allocator@U?$pair@VVector@@H@std@@@2@@std@@HM@Z 10006ba0 f   Aimbot.obj
 0001:00005c50       ??R<lambda_115b1d6c016fdc4669f69dce8f4024be>@@QBE?AV?$vector@U?$pair@VVector@@H@std@@V?$allocator@U?$pair@VVector@@H@std@@@2@@std@@_N@Z 10006c50 f   Aimbot.obj
 0001:00006150       ??R<lambda_226465845abdf7192f61acb56475a920>@@QBEMMM@Z 10007150 f   Aimbot.obj
 0001:000061e0       ??R<lambda_6274d49b6fa3fb8d37bebe255f761e7f>@@QBEX_N@Z 100071e0 f   Aimbot.obj
 0001:000062a0       ??R<lambda_aa7eae771a1e706dd80983d5858c8e0c>@@QBE_NABVPlayerResolveRecord@Resolver@RAGEBOT@FEATURES@@@Z 100072a0 f   Aimbot.obj
 0001:0000630c       $LN25                      1000730c     Aimbot.obj
 0001:00009860       ??1<lambda_b3df28b95d0018330c2d6f1c32534c64>@@QAE@XZ 1000a860 f   Antiaim.obj
 0001:00009920       ??R<lambda_149ec7548fba44f639f661a543689a1a>@@QBEMH_NM@Z 1000a920 f   Antiaim.obj
 0001:00009968       $LN13                      1000a968     Antiaim.obj
 0001:00009980       ??R<lambda_2b5f5180946c1da13220f54fb41800ec>@@QBEMH_NM@Z 1000a980 f   Antiaim.obj
 0001:000099d8       $LN14                      1000a9d8     Antiaim.obj
 0001:000099f0       ??R<lambda_658b4d7811d43194f49751d86a719d93>@@QBE_NAAM0@Z 1000a9f0 f   Antiaim.obj
 0001:0000ae40       ??R<lambda_6eb6d85b0b657499c89eb465e9103568>@@QBEM_N@Z 1000be40 f   Antiaim.obj
 0001:0000b010       ??R<lambda_adacd974840d3d95ab3ec2318437504b>@@QBE_NXZ 1000c010 f   Antiaim.obj
 0001:0000b260       ??R<lambda_b3df28b95d0018330c2d6f1c32534c64>@@QBEHVVector@@@Z 1000c260 f   Antiaim.obj
 0001:0000b3e0       ??R<lambda_ca1395ee6ee8d0693dfae009aada850d>@@QBEMXZ 1000c3e0 f   Antiaim.obj
 0001:0000b7a0       ??R<lambda_df142c4a4b304cb02dd43135454f17eb>@@QBEMH@Z 1000c7a0 f   Antiaim.obj
 0001:0000b820       ??R<lambda_ef762df83468fcf4b9121a2eced62e1d>@@QBE_NAAM0@Z 1000c820 f   Antiaim.obj
 0001:0000bb10       ??R<lambda_fe202057e3bc75116c903a49302ba59c>@@QBEMXZ 1000cb10 f   Antiaim.obj
 0001:0000d98c       $LN31                      1000e98c     Autowall.obj
 0001:0000d9a8       $LN32                      1000e9a8     Autowall.obj
 0001:0001043a       __catch$??$_Emplace_reallocate@AAY0N@$$CBDVCColor@@@?$vector@U?$pair@V?$basic_string@DU?$char_traits@D@std@@V?$allocator@D@2@@std@@VCColor@@@std@@V?$allocator@U?$pair@V?$basic_string@DU?$char_traits@D@std@@V?$allocator@D@2@@std@@VCColor@@@std@@@2@@std@@QAEPAU?$pair@V?$basic_string@DU?$char_traits@D@std@@V?$allocator@D@2@@std@@VCColor@@@1@QAU21@AAY0N@$$CBD$$QAVCColor@@@Z$0 1001143a f i BoxESP.obj
 0001:00010ac0       ??R<lambda_7bab73d15b979bfd1c30ae24dcf8094e>@@QBEHVCColor@@@Z 10011ac0 f   BoxESP.obj
 0001:00010b90       ??R<lambda_8ca78e416b1deb9e9ca8a006b6192d87>@@QBE_NXZ 10011b90 f   BoxESP.obj
 0001:00010d60       $LN93                      10011d60     BoxESP.obj
 0001:00010dbc       $LN88                      10011dbc     BoxESP.obj
 0001:00013630       ??R<lambda_e6802c701946cc1fe85c386837962e60>@@QBEXVVector@@000AAM@Z 10014630 f   CircleStrafer.obj
 0001:00015230       __catch$??$_Emplace_reallocate@ABULog@InGameLogger@MISC@FEATURES@@@?$vector@ULog@InGameLogger@MISC@FEATURES@@V?$allocator@ULog@InGameLogger@MISC@FEATURES@@@std@@@std@@QAEPAULog@InGameLogger@MISC@FEATURES@@QAU2345@ABU2345@@Z$0 10016230 f i EventListeners.obj
 0001:000153f8       __catch$??$_Emplace_reallocate@ABV?$basic_string@DU?$char_traits@D@std@@V?$allocator@D@2@@std@@@?$vector@V?$basic_string@DU?$char_traits@D@std@@V?$allocator@D@2@@std@@V?$allocator@V?$basic_string@DU?$char_traits@D@std@@V?$allocator@D@2@@std@@@2@@std@@QAEPAV?$basic_string@DU?$char_traits@D@std@@V?$allocator@D@2@@1@QAV21@ABV21@@Z$0 100163f8 f i EventListeners.obj
 0001:000159b3       __catch$??0?$vector@V?$basic_string@DU?$char_traits@D@std@@V?$allocator@D@2@@std@@V?$allocator@V?$basic_string@DU?$char_traits@D@std@@V?$allocator@D@2@@std@@@2@@std@@QAE@ABV01@@Z$0 100169b3 f i EventListeners.obj
 0001:00016d7f       __catch$??$?6U?$char_traits@D@std@@@std@@YAAAV?$basic_ostream@DU?$char_traits@D@std@@@0@AAV10@PBD@Z$0 10017d7f f i Misc.obj
 0001:00017192       __catch$??$_Emplace_reallocate@ABV?$vector@V?$basic_string@DU?$char_traits@D@std@@V?$allocator@D@2@@std@@V?$allocator@V?$basic_string@DU?$char_traits@D@std@@V?$allocator@D@2@@std@@@2@@std@@@?$vector@V?$vector@V?$basic_string@DU?$char_traits@D@std@@V?$allocator@D@2@@std@@V?$allocator@V?$basic_string@DU?$char_traits@D@std@@V?$allocator@D@2@@std@@@2@@std@@V?$allocator@V?$vector@V?$basic_string@DU?$char_traits@D@std@@V?$allocator@D@2@@std@@V?$allocator@V?$basic_string@DU?$char_traits@D@std@@V?$allocator@D@2@@std@@@2@@std@@@2@@std@@QAEPAV?$vector@V?$basic_string@DU?$char_traits@D@std@@V?$allocator@D@2@@std@@V?$allocator@V?$basic_string@DU?$char_traits@D@std@@V?$allocator@D@2@@std@@@2@@1@QAV21@ABV21@@Z$0 10018192 f i Misc.obj
 0001:000176cf       __catch$??$_Insert_hint@AAU?$pair@$$CBHPAX@std@@PAU?$_Tree_node@U?$pair@$$CBHPAX@std@@PAX@2@@?$_Tree@V?$_Tmap_traits@HPAXU?$less@H@std@@V?$allocator@U?$pair@$$CBHPAX@std@@@2@$0A@@std@@@std@@IAE?AV?$_Tree_iterator@V?$_Tree_val@U?$_Tree_simple_types@U?$pair@$$CBHPAX@std@@@std@@@std@@@1@V?$_Tree_const_iterator@V?$_Tree_val@U?$_Tree_simple_types@U?$pair@$$CBHPAX@std@@@std@@@std@@@1@AAU?$pair@$$CBHPAX@1@PAU?$_Tree_node@U?$pair@$$CBHPAX@std@@PAX@1@@Z$0 100186cf f i Misc.obj
 0001:000177f2       __catch$??$_Insert_nohint@AAU?$pair@$$CBHPAX@std@@PAU?$_Tree_node@U?$pair@$$CBHPAX@std@@PAX@2@@?$_Tree@V?$_Tmap_traits@HPAXU?$less@H@std@@V?$allocator@U?$pair@$$CBHPAX@std@@@2@$0A@@std@@@std@@IAE?AU?$pair@V?$_Tree_iterator@V?$_Tree_val@U?$_Tree_simple_types@U?$pair@$$CBHPAX@std@@@std@@@std@@@std@@_N@1@_NAAU?$pair@$$CBHPAX@1@PAU?$_Tree_node@U?$pair@$$CBHPAX@std@@PAX@1@@Z$0 100187f2 f i Misc.obj
 0001:000179dd       __catch$??$getline@DU?$char_traits@D@std@@V?$allocator@D@2@@std@@YAAAV?$basic_istream@DU?$char_traits@D@std@@@0@$$QAV10@AAV?$basic_string@DU?$char_traits@D@std@@V?$allocator@D@2@@0@D@Z$0 100189dd f i Misc.obj
 0001:00017c60       ??R<lambda_2b454360143fe68a53aee6855408b19d>@@QBEPBDPBDM@Z 10018c60 f   Misc.obj
 0001:00017dd0       ??R<lambda_7411d79f4ee59d52de45b16a5109c3cd>@@QBE?AV?$vector@V?$vector@V?$basic_string@DU?$char_traits@D@std@@V?$allocator@D@2@@std@@V?$allocator@V?$basic_string@DU?$char_traits@D@std@@V?$allocator@D@2@@std@@@2@@std@@V?$allocator@V?$vector@V?$basic_string@DU?$char_traits@D@std@@V?$allocator@D@2@@std@@V?$allocator@V?$basic_string@DU?$char_traits@D@std@@V?$allocator@D@2@@std@@@2@@std@@@2@@std@@XZ 10018dd0 f   Misc.obj
 0001:00018000       ??R<lambda_8598c850d2f80c08bd6af5fc93c9f3cd>@@QBE@XZ 10019000 f   Misc.obj
 0001:00018310       ??R<lambda_904ef878f4742172dfbc63f88a754c38>@@QBE?AU?$pair@V?$basic_string@DU?$char_traits@D@std@@V?$allocator@D@2@@std@@D@std@@XZ 10019310 f   Misc.obj
 0001:000183e0       ??R<lambda_9b8261605b3730bd32a8ecba71e34e65>@@QBE?AVVector@@H@Z 100193e0 f   Misc.obj
 0001:00018520       ??R<lambda_a6669d928a94ba27917059d5a85f90cd>@@QBE@PBD0@Z 10019520 f   Misc.obj
 0001:00018690       ??R<lambda_b58585d07ca0d6147613ae0d72d6a7d6>@@QBE?AV?$vector@V?$basic_string@DU?$char_traits@D@std@@V?$allocator@D@2@@std@@V?$allocator@V?$basic_string@DU?$char_traits@D@std@@V?$allocator@D@2@@std@@@2@@std@@V?$basic_string@DU?$char_traits@D@std@@V?$allocator@D@2@@2@@Z 10019690 f   Misc.obj
 0001:00018d70       ??R<lambda_fd5eead23b1c8bddaf702e8e75d246a3>@@QBE?AU?$pair@V?$basic_string@DU?$char_traits@D@std@@V?$allocator@D@2@@std@@D@std@@XZ 10019d70 f   Misc.obj
 0001:0001b8e4       __catch$?put@?$basic_ostream@DU?$char_traits@D@std@@@std@@QAEAAV12@D@Z$0 1001c8e4 f i Misc.obj
 0001:0002acb3       __catch$?Do@SkinChanger@MISC@FEATURES@@QAEXXZ$0 1002bcb3 f   SkinChanger.obj
 0001:0002b180       ??R<lambda_2f60984f3df694eaedcb4e1a12189376>@@QBEHABVVector@@0AAV1@M@Z 1002c180 f   VisualsMisc.obj
 0001:0002b280       ??R<lambda_3f8d456383f60cea172b2cb947f6fb45>@@QBEMH@Z 1002c280 f   VisualsMisc.obj
 0001:0002b2d0       $LN12                      1002c2d0     VisualsMisc.obj
 0001:0002b2e0       $LN10                      1002c2e0     VisualsMisc.obj
 0001:0002b300       ??R<lambda_7f5127423f924797da7c63e46c0ebfa5>@@QBEXVVector@@0@Z 1002c300 f   VisualsMisc.obj
 0001:0002bb38       $LN128                     1002cb38     VisualsMisc.obj
 0001:0002e1e0       ?MallocWrapper@@YAPAXIPAX@Z 1002f1e0 f   imgui.obj
 0001:0002e1f0       ?FreeWrapper@@YAXPAX0@Z    1002f1f0 f   imgui.obj
 0001:00030270       ?AddDrawListToDrawData@@YAXPAU?$ImVector@PAUImDrawList@@@@PAUImDrawList@@@Z 10031270 f   imgui.obj
 0001:00030440       ?AddWindowToDrawData@@YAXPAUImGuiWindow@@H@Z 10031440 f   imgui.obj
 0001:00030500       ?AddWindowToSortBuffer@@YAXPAU?$ImVector@PAUImGuiWindow@@@@PAUImGuiWindow@@@Z 10031500 f   imgui.obj
 0001:000305d0       ?ApplyWindowSettings@@YAXPAUImGuiWindow@@PAUImGuiWindowSettings@@@Z 100315d0 f   imgui.obj
 0001:00032f20       ?CalcNextScrollFromScrollTargetAndClamp@@YA?AUImVec2@@PAUImGuiWindow@@@Z 10033f20 f   imgui.obj
 0001:00033130       ?CalcResizePosSizeFromAnyCorner@@YAXPAUImGuiWindow@@ABUImVec2@@1PAU2@2@Z 10034130 f   imgui.obj
 0001:000333a0       ?CalcWindowAutoFitSize@@YA?AUImVec2@@PAUImGuiWindow@@ABU1@@Z 100343a0 f   imgui.obj
 0001:00033630       ?CalcWindowContentSizes@@YAXPAUImGuiWindow@@PAUImVec2@@1@Z 10034630 f   imgui.obj
 0001:00033760       ?CalcWindowSizeAfterConstraint@@YA?AUImVec2@@PAUImGuiWindow@@ABU1@@Z 10034760 f   imgui.obj
 0001:00033aa0       ?ChildWindowComparer@@YAHPBX0@Z 10034aa0 f   imgui.obj
 0001:00034590       ?CreateNewWindow@@YAPAUImGuiWindow@@PBDH@Z 10035590 f   imgui.obj
 0001:00034dd0       $LN92                      10035dd0     imgui.obj
 0001:00035670       ?ErrorCheckNewFrameSanityChecks@ImGui@@YAXXZ 10036670 f   imgui.obj
 0001:00035f70       ?FindHoveredWindow@@YAXXZ  10036f70 f   imgui.obj
 0001:000362a0       ?FindWindowFocusIndex@ImGui@@YAHPAUImGuiWindow@@@Z 100372a0 f   imgui.obj
 0001:00036310       ?FindWindowNavFocusable@@YAPAUImGuiWindow@@HHH@Z 10037310 f   imgui.obj
 0001:00036950       ?GetClipboardTextFn_DefaultImpl@@YAPBDPAX@Z 10037950 f   imgui.obj
 0001:00037180       ?GetResizeBorderRect@@YA?AUImRect@@PAUImGuiWindow@@HMM@Z 10038180 f   imgui.obj
 0001:00037360       ?GetViewportDrawList@@YAPAUImDrawList@@PAUImGuiViewportP@@IPBD@Z 10038360 f   imgui.obj
 0001:00037fc0       ?ImeSetInputScreenPosFn_DefaultImpl@@YAXHH@Z 10038fc0 f   imgui.obj
 0001:00038b80       ?IsWindowContentHoverable@@YA_NPAUImGuiWindow@@H@Z 10039b80 f   imgui.obj
 0001:00039750       ?LogTextV@@YAXAAUImGuiContext@@PBDPAD@Z 1003a750 f   imgui.obj
 0001:00039970       ?NavCalcPreferredRefPos@ImGui@@YA?AUImVec2@@XZ 1003a970 f   imgui.obj
 0001:00039ae0       ?NavEndFrame@ImGui@@YAXXZ  1003aae0 f   imgui.obj
 0001:00039f70       ?NavProcessItem@ImGui@@YAXPAUImGuiWindow@@ABUImRect@@I@Z 1003af70 f   imgui.obj
 0001:0003a1c0       ?NavRestoreLayer@ImGui@@YAXW4ImGuiNavLayer@@@Z 1003b1c0 f   imgui.obj
 0001:0003a250       ?NavScoreItem@ImGui@@YA_NPAUImGuiNavMoveResult@@UImRect@@@Z 1003b250 f   imgui.obj
 0001:0003a780       ?NavUpdate@ImGui@@YAXXZ    1003b780 f   imgui.obj
 0001:0003bbc0       ?NavUpdateAnyRequestFlag@ImGui@@YAXXZ 1003cbc0 f   imgui.obj
 0001:0003bc10       ?NavUpdateMoveResult@ImGui@@YAXXZ 1003cc10 f   imgui.obj
 0001:0003be40       ?NavUpdatePageUpPageDown@ImGui@@YAMXZ 1003ce40 f   imgui.obj
 0001:0003c1d0       ?NavUpdateWindowing@ImGui@@YAXXZ 1003d1d0 f   imgui.obj
 0001:0003c800       ?NavUpdateWindowingOverlay@ImGui@@YAXXZ 1003d800 f   imgui.obj
 0001:0003f150       ?RenderWindowDecorations@ImGui@@YAXPAUImGuiWindow@@ABUImRect@@_NHQBIM@Z 10040150 f   imgui.obj
 0001:0003fa30       ?RenderWindowOuterBorders@ImGui@@YAXPAUImGuiWindow@@@Z 10040a30 f   imgui.obj
 0001:0003fd70       ?RenderWindowTitleBarContents@ImGui@@YAXPAUImGuiWindow@@ABUImRect@@PBDPA_N@Z 10040d70 f   imgui.obj
 0001:00040900       ?SetClipboardTextFn_DefaultImpl@@YAXPAXPBD@Z 10041900 f   imgui.obj
 0001:00040a80       ?SetCurrentWindow@@YAXPAUImGuiWindow@@@Z 10041a80 f   imgui.obj
 0001:00041210       ?StartLockWheelingWindow@@YAXPAUImGuiWindow@@@Z 10042210 f   imgui.obj
 0001:00041530       ?UpdateMouseInputs@ImGui@@YAXXZ 10042530 f   imgui.obj
 0001:00041c50       ?UpdateMouseWheel@ImGui@@YAXXZ 10042c50 f   imgui.obj
 0001:000420c0       ?UpdateWindowManualResize@ImGui@@YA_NPAUImGuiWindow@@ABUImVec2@@PAHHQAIABUImRect@@@Z 100430c0 f   imgui.obj
 0001:000429d0       ?WindowSettingsHandler_ApplyAll@@YAXPAUImGuiContext@@PAUImGuiSettingsHandler@@@Z 100439d0 f   imgui.obj
 0001:00042af0       ?WindowSettingsHandler_ClearAll@@YAXPAUImGuiContext@@PAUImGuiSettingsHandler@@@Z 10043af0 f   imgui.obj
 0001:00042b90       ?WindowSettingsHandler_ReadLine@@YAXPAUImGuiContext@@PAUImGuiSettingsHandler@@PAXPBD@Z 10043b90 f   imgui.obj
 0001:00042c40       ?WindowSettingsHandler_ReadOpen@@YAPAXPAUImGuiContext@@PAUImGuiSettingsHandler@@PBD@Z 10043c40 f   imgui.obj
 0001:00042cb0       ?WindowSettingsHandler_WriteAll@@YAXPAUImGuiContext@@PAUImGuiSettingsHandler@@PAUImGuiTextBuffer@@@Z 10043cb0 f   imgui.obj
 0001:00047c10       ?ImFontAtlasBuildRenderDefaultTexData@@YAXPAUImFontAtlas@@@Z 10048c10 f   imgui_draw.obj
 0001:00047e20       ?ImFontAtlasBuildRenderLinesTexData@@YAXPAUImFontAtlas@@@Z 10048e20 f   imgui_draw.obj
 0001:00048030       ?ImFontAtlasBuildWithStbTruetype@@YA_NPAUImFontAtlas@@@Z 10049030 f   imgui_draw.obj
 0001:0004aac8       $LN83                      1004bac8     imgui_draw.obj
 0001:0004c6f0       ?rect_height_compare@@YAHPBX0@Z 1004d6f0 f   imgui_draw.obj
 0001:0004c730       ?rect_original_order@@YAHPBX0@Z 1004d730 f   imgui_draw.obj
 0001:0004ca30       ?stb__lit@@YAXPBEI@Z       1004da30 f   imgui_draw.obj
 0001:0004cab0       ?stb__match@@YAXPBEI@Z     1004dab0 f   imgui_draw.obj
 0001:0004cb30       ?stb_decompress@@YAIPAEPBEI@Z 1004db30 f   imgui_draw.obj
 0001:0004cdf0       ?stb_decompress_token@@YAPBEPBE@Z 1004ddf0 f   imgui_draw.obj
 0001:0004d010       ?stbrp__skyline_find_best_pos@@YA?AUstbrp__findresult@@PAUstbrp_context@@HH@Z 1004e010 f   imgui_draw.obj
 0001:0004d250       ?stbrp__skyline_find_min_y@@YAHPAUstbrp_context@@PAUstbrp_node@@HHPAH@Z 1004e250 f   imgui_draw.obj
 0001:0004d390       ?stbtt_FlattenCurves@@YAPAUstbtt__point@@PAUstbtt_vertex@@HMPAPAHPAHPAX@Z 1004e390 f   imgui_draw.obj
 0001:0004d7b8       $LN67                      1004e7b8     imgui_draw.obj
 0001:0004d7d0       ?stbtt_InitFont_internal@@YAHPAUstbtt_fontinfo@@PAEH@Z 1004e7d0 f   imgui_draw.obj
 0001:0004dc10       ?stbtt__GetGlyfOffset@@YAHPBUstbtt_fontinfo@@H@Z 1004ec10 f   imgui_draw.obj
 0001:0004dcf0       ?stbtt__GetGlyphShapeT2@@YAHPBUstbtt_fontinfo@@HPAPAUstbtt_vertex@@@Z 1004ecf0 f   imgui_draw.obj
 0001:0004ddc0       ?stbtt__GetGlyphShapeTT@@YAHPBUstbtt_fontinfo@@HPAPAUstbtt_vertex@@@Z 1004edc0 f   imgui_draw.obj
 0001:0004e800       ?stbtt__buf_get8@@YAEPAUstbtt__buf@@@Z 1004f800 f   imgui_draw.obj
 0001:0004e820       ?stbtt__buf_get@@YAIPAUstbtt__buf@@H@Z 1004f820 f   imgui_draw.obj
 0001:0004e880       ?stbtt__buf_peek8@@YAEPAUstbtt__buf@@@Z 1004f880 f   imgui_draw.obj
 0001:0004e8a0       ?stbtt__buf_seek@@YAXPAUstbtt__buf@@H@Z 1004f8a0 f   imgui_draw.obj
 0001:0004e8f0       ?stbtt__buf_skip@@YAXPAUstbtt__buf@@H@Z 1004f8f0 f   imgui_draw.obj
 0001:0004e940       ?stbtt__cff_get_index@@YA?AUstbtt__buf@@PAU1@@Z 1004f940 f   imgui_draw.obj
 0001:0004eaa0       ?stbtt__cff_index_get@@YA?AUstbtt__buf@@U1@H@Z 1004faa0 f   imgui_draw.obj
 0001:0004ec00       ?stbtt__cff_int@@YAIPAUstbtt__buf@@@Z 1004fc00 f   imgui_draw.obj
 0001:0004ed90       ?stbtt__cid_get_glyph_subrs@@YA?AUstbtt__buf@@PBUstbtt_fontinfo@@H@Z 1004fd90 f   imgui_draw.obj
 0001:0004ef50       ?stbtt__close_shape@@YAHPAUstbtt_vertex@@HHHHHHHHH@Z 1004ff50 f   imgui_draw.obj
 0001:0004f030       ?stbtt__csctx_close_shape@@YAXPAUstbtt__csctx@@@Z 10050030 f   imgui_draw.obj
 0001:0004f080       ?stbtt__csctx_rccurve_to@@YAXPAUstbtt__csctx@@MMMMMM@Z 10050080 f   imgui_draw.obj
 0001:0004f0f0       ?stbtt__csctx_rmove_to@@YAXPAUstbtt__csctx@@MM@Z 100500f0 f   imgui_draw.obj
 0001:0004f190       ?stbtt__csctx_v@@YAXPAUstbtt__csctx@@EHHHHHH@Z 10050190 f   imgui_draw.obj
 0001:0004f280       ?stbtt__dict_get@@YA?AUstbtt__buf@@PAU1@H@Z 10050280 f   imgui_draw.obj
 0001:0004f490       ?stbtt__dict_get_ints@@YAXPAUstbtt__buf@@HHPAI@Z 10050490 f   imgui_draw.obj
 0001:0004f4f0       ?stbtt__fill_active_edges_new@@YAXPAM0HPAUstbtt__active_edge@@M@Z 100504f0 f   imgui_draw.obj
 0001:0004fc40       ?stbtt__find_table@@YAIPAEIPBD@Z 10050c40 f   imgui_draw.obj
 0001:0004fce0       ?stbtt__get_subrs@@YA?AUstbtt__buf@@U1@0@Z 10050ce0 f   imgui_draw.obj
 0001:0004fe10       ?stbtt__h_prefilter@@YAXPAEHHHI@Z 10050e10 f   imgui_draw.obj
 0001:00050048       $LN65                      10051048     imgui_draw.obj
 0001:00050060       ?stbtt__handle_clipped_edge@@YAXPAMHPAUstbtt__active_edge@@MMMM@Z 10051060 f   imgui_draw.obj
 0001:000502e0       ?stbtt__isfont@@YAHPAE@Z   100512e0 f   imgui_draw.obj
 0001:00050370       ?stbtt__new_buf@@YA?AUstbtt__buf@@PBXI@Z 10051370 f   imgui_draw.obj
 0001:000503b0       ?stbtt__rasterize@@YAXPAUstbtt__bitmap@@PAUstbtt__point@@PAHHMMMMHHHPAX@Z 100513b0 f   imgui_draw.obj
 0001:00050690       ?stbtt__rasterize_sorted_edges@@YAXPAUstbtt__bitmap@@PAUstbtt__edge@@HHHHPAX@Z 10051690 f   imgui_draw.obj
 0001:00050ba0       ?stbtt__run_charstring@@YAHPBUstbtt_fontinfo@@HPAUstbtt__csctx@@@Z 10051ba0 f   imgui_draw.obj
 0001:00051b44       $LN290                     10052b44     imgui_draw.obj
 0001:00051b94       $LN270                     10052b94     imgui_draw.obj
 0001:00051bb4       $LN291                     10052bb4     imgui_draw.obj
 0001:00051bd0       ?stbtt__sort_edges_quicksort@@YAXPAUstbtt__edge@@H@Z 10052bd0 f   imgui_draw.obj
 0001:00051d50       ?stbtt__tesselate_cubic@@YAXPAUstbtt__point@@PAHMMMMMMMMMH@Z 10052d50 f   imgui_draw.obj
 0001:00052160       ?stbtt__tesselate_curve@@YAHPAUstbtt__point@@PAHMMMMMMMH@Z 10053160 f   imgui_draw.obj
 0001:00052310       ?stbtt__track_vertex@@YAXPAUstbtt__csctx@@HH@Z 10053310 f   imgui_draw.obj
 0001:00052360       ?stbtt__v_prefilter@@YAXPAEHHHI@Z 10053360 f   imgui_draw.obj
 0001:000525c0       $LN70                      100535c0     imgui_draw.obj
 0001:000525d0       ?ttULONG@@YAIPAE@Z         100535d0 f   imgui_draw.obj
 0001:000525d0       ?ttLONG@@YAHPAE@Z          100535d0 f   imgui_draw.obj
 0001:00052600       _stbrp_init_target         10053600 f   imgui_draw.obj
 0001:000527c0       _stbrp_pack_rects          100537c0 f   imgui_draw.obj
 0001:00052990       _stbtt_FindGlyphIndex      10053990 f   imgui_draw.obj
 0001:00052cf0       _stbtt_GetFontOffsetForIndex 10053cf0 f   imgui_draw.obj
 0001:00052d80       _stbtt_GetGlyphBitmapBoxSubpixel 10053d80 f   imgui_draw.obj
 0001:00052fe0       _stbtt_GetGlyphShape       10053fe0 f   imgui_draw.obj
 0001:000530d0       _stbtt_MakeGlyphBitmapSubpixel 100540d0 f   imgui_draw.obj
 0001:000532f0       _stbtt_PackFontRangesRenderIntoRects 100542f0 f   imgui_draw.obj
 0001:000537e0       ?ImGui_ImplDX9_CreateFontsTexture@@YA_NXZ 100547e0 f   imgui_impl_dx9.obj
 0001:00053f10       ?ImGui_ImplDX9_SetupRenderState@@YAXPAUImDrawData@@@Z 10054f10 f   imgui_impl_dx9.obj
 0001:00054660       ?ImGui_ImplWin32_UpdateGamepads@@YAXXZ 10055660 f   imgui_impl_win32.obj
 0001:00054920       ?ImGui_ImplWin32_UpdateMouseCursor@@YA_NXZ 10055920 f   imgui_impl_win32.obj
 0001:00054a38       $LN20                      10055a38     imgui_impl_win32.obj
 0001:00054ca4       $LN39                      10055ca4     imgui_impl_win32.obj
 0001:00054cbc       $LN36                      10055cbc     imgui_impl_win32.obj
 0001:00054dbc       $LN40                      10055dbc     imgui_impl_win32.obj
 0001:00054dd4       $LN37                      10055dd4     imgui_impl_win32.obj
 0001:00055c90       ?TableSettingsHandler_ApplyAll@@YAXPAUImGuiContext@@PAUImGuiSettingsHandler@@@Z 10056c90 f   imgui_tables.obj
 0001:00055d00       ?TableSettingsHandler_ClearAll@@YAXPAUImGuiContext@@PAUImGuiSettingsHandler@@@Z 10056d00 f   imgui_tables.obj
 0001:00055d90       ?TableSettingsHandler_ReadLine@@YAXPAUImGuiContext@@PAUImGuiSettingsHandler@@PAXPBD@Z 10056d90 f   imgui_tables.obj
 0001:00055fc0       ?TableSettingsHandler_ReadOpen@@YAPAXPAUImGuiContext@@PAUImGuiSettingsHandler@@PBD@Z 10056fc0 f   imgui_tables.obj
 0001:00056050       ?TableSettingsHandler_WriteAll@@YAXPAUImGuiContext@@PAUImGuiSettingsHandler@@PAUImGuiTextBuffer@@@Z 10057050 f   imgui_tables.obj
 0001:00056300       ?TableSettingsInit@@YAXPAUImGuiTableSettings@@IHH@Z 10057300 f   imgui_tables.obj
 0001:00056470       ??$ImAtoi@H@@YAPBDPBDPAH@Z 10057470 f   imgui_widgets.obj
 0001:000564e0       ??$ImAtoi@_J@@YAPBDPBDPA_J@Z 100574e0 f   imgui_widgets.obj
 0001:0005c0a1       __catch$??$_Insert_nohint@U?$pair@$$CBIUtab_anim@@@std@@U_Not_a_node_tag@2@@?$_Tree@V?$_Tmap_traits@IUtab_anim@@U?$less@I@std@@V?$allocator@U?$pair@$$CBIUtab_anim@@@std@@@3@$0A@@std@@@std@@IAE?AU?$pair@V?$_Tree_iterator@V?$_Tree_val@U?$_Tree_simple_types@U?$pair@$$CBIUtab_anim@@@std@@@std@@@std@@@std@@_N@1@_N$$QAU?$pair@$$CBIUtab_anim@@@1@U_Not_a_node_tag@1@@Z$0 1005d0a1 f i imgui_widgets.obj
 0001:0005d85c       $LN85                      1005e85c     imgui_widgets.obj
 0001:0005da00       $LN70                      1005ea00     imgui_widgets.obj
 0001:0005dba0       ?ImCharIsBlankW@@YA_NI@Z   1005eba0 f   imgui_widgets.obj
 0001:0005dce0       ?ImSaturate@@YAMM@Z        1005ece0 f   imgui_widgets.obj
 0001:00060530       ?InputTextFilterCharacter@@YA_NPAIHP6AHPAUImGuiInputTextCallbackData@@@ZPAXW4ImGuiInputSource@@@Z 10061530 f   imgui_widgets.obj
 0001:00060860       ?PatchFormatStringFloatToInt@@YAPBDPBD@Z 10061860 f   imgui_widgets.obj
 0001:00060910       ?STB_TEXTEDIT_DELETECHARS@ImStb@@YAXPAUImGuiInputTextState@@HH@Z 10061910 f   imgui_widgets.obj
 0001:00060980       ?STB_TEXTEDIT_GETWIDTH@ImStb@@YAMPAUImGuiInputTextState@@HH@Z 10061980 f   imgui_widgets.obj
 0001:00060a00       ?STB_TEXTEDIT_INSERTCHARS@ImStb@@YA_NPAUImGuiInputTextState@@HPBGH@Z 10061a00 f   imgui_widgets.obj
 0001:00060b60       ?STB_TEXTEDIT_LAYOUTROW@ImStb@@YAXPAUStbTexteditRow@1@PAUImGuiInputTextState@@H@Z 10061b60 f   imgui_widgets.obj
 0001:00060c50       ?STB_TEXTEDIT_MOVEWORDLEFT_IMPL@ImStb@@YAHPAUImGuiInputTextState@@H@Z 10061c50 f   imgui_widgets.obj
 0001:00060d60       ?STB_TEXTEDIT_MOVEWORDRIGHT_IMPL@ImStb@@YAHPAUImGuiInputTextState@@H@Z 10061d60 f   imgui_widgets.obj
 0001:00060e80       ?SanitizeFormatString@@YAXPBDPADI@Z 10061e80 f   imgui_widgets.obj
 0001:00061fa0       $LN53                      10062fa0     imgui_widgets.obj
 0001:00063070       ?stb_text_createundo@ImStb@@YAPAGPAUStbUndoState@1@HHH@Z 10064070 f   imgui_widgets.obj
 0001:00063140       ?stb_text_locate_coord@ImStb@@YAHPAUImGuiInputTextState@@MM@Z 10064140 f   imgui_widgets.obj
 0001:000632a0       ?stb_text_makeundo_replace@ImStb@@YAXPAUImGuiInputTextState@@PAUSTB_TexteditState@1@HHH@Z 100642a0 f   imgui_widgets.obj
 0001:00063320       ?stb_text_undo@ImStb@@YAXPAUImGuiInputTextState@@PAUSTB_TexteditState@1@@Z 10064320 f   imgui_widgets.obj
 0001:00063600       ?stb_textedit_clamp@ImStb@@YAXPAUImGuiInputTextState@@PAUSTB_TexteditState@1@@Z 10064600 f   imgui_widgets.obj
 0001:00063640       ?stb_textedit_delete@ImStb@@YAXPAUImGuiInputTextState@@PAUSTB_TexteditState@1@HH@Z 10064640 f   imgui_widgets.obj
 0001:000636e0       ?stb_textedit_delete_selection@ImStb@@YAXPAUImGuiInputTextState@@PAUSTB_TexteditState@1@@Z 100646e0 f   imgui_widgets.obj
 0001:00063770       ?stb_textedit_discard_undo@ImStb@@YAXPAUStbUndoState@1@@Z 10064770 f   imgui_widgets.obj
 0001:00063810       ?stb_textedit_find_charpos@ImStb@@YAXPAUStbFindState@1@PAUImGuiInputTextState@@HH@Z 10064810 f   imgui_widgets.obj
 0001:000639d0       ?stb_textedit_key@ImStb@@YAXPAUImGuiInputTextState@@PAUSTB_TexteditState@1@H@Z 100649d0 f   imgui_widgets.obj
 0001:00064488       $LN267                     10065488     imgui_widgets.obj
 0001:000644c8       $LN268                     100654c8     imgui_widgets.obj
 0001:00064510       ?stb_textedit_move_to_first@ImStb@@YAXPAUSTB_TexteditState@1@@Z 10065510 f   imgui_widgets.obj
 0001:00064540       ?stb_textedit_move_to_last@ImStb@@YAXPAUImGuiInputTextState@@PAUSTB_TexteditState@1@@Z 10065540 f   imgui_widgets.obj
 0001:00064590       ?stb_textedit_prep_selection_at_cursor@ImStb@@YAXPAUSTB_TexteditState@1@@Z 10065590 f   imgui_widgets.obj
 0001:00064950       ??R<lambda_113d2a1038a9c0984f2531d6b9537186>@@QBE?AU?$pair@V?$basic_string@DU?$char_traits@D@std@@V?$allocator@D@2@@std@@D@std@@XZ 10065950 f   sounds.obj
 0001:00064a40       ??R<lambda_12a4f081ec775bf65f134e9967dcab6f>@@QBE?AU?$pair@V?$basic_string@DU?$char_traits@D@std@@V?$allocator@D@2@@std@@D@std@@XZ 10065a40 f   sounds.obj
 0001:00064b30       ??R<lambda_1b42ed014eadee93338dfbcf771adaec>@@QBE?AU?$pair@V?$basic_string@DU?$char_traits@D@std@@V?$allocator@D@2@@std@@D@std@@XZ 10065b30 f   sounds.obj
 0001:00064c10       ??R<lambda_3934ae6e7282b96cfd76c89236ff33c2>@@QBE?AU?$pair@V?$basic_string@DU?$char_traits@D@std@@V?$allocator@D@2@@std@@D@std@@XZ 10065c10 f   sounds.obj
 0001:00064d00       ??R<lambda_3a2a330ef8b115903a5fa13fdc6361de>@@QBE?AU?$pair@V?$basic_string@DU?$char_traits@D@std@@V?$allocator@D@2@@std@@D@std@@XZ 10065d00 f   sounds.obj
 0001:00064e00       ??R<lambda_ac2bcd9f408d054b6975ceef76fa07a9>@@QBE?AU?$pair@V?$basic_string@DU?$char_traits@D@std@@V?$allocator@D@2@@std@@D@std@@XZ 10065e00 f   sounds.obj
 0001:00064ef0       ??R<lambda_b89d977b1c6e664be5b5cd5de43189ba>@@QBE?AU?$pair@V?$basic_string@DU?$char_traits@D@std@@V?$allocator@D@2@@std@@D@std@@XZ 10065ef0 f   sounds.obj
 0001:00064fe0       ??R<lambda_c8436459d727ac7b7cd1ecc5aa07f0fc>@@QBE?AU?$pair@V?$basic_string@DU?$char_traits@D@std@@V?$allocator@D@2@@std@@D@std@@XZ 10065fe0 f   sounds.obj
 0001:000650c0       ?BASS_PLAY_STREAM@@YAXXZ   100660c0 f   sounds.obj
 0001:00065560       ?DoMeta@@YAXXZ             10066560 f   sounds.obj
 0001:000656f0       ?EndSync@@YGXKKKPAX@Z      100666f0 f   sounds.obj
 0001:00065700       ?MetaSync@@YGXKKKPAX@Z     10066700 f   sounds.obj
 0001:00065710       ?StatusProc@@YGXPBXKPAX@Z  10066710 f   sounds.obj
 0001:00066720       ??R<lambda_753ff23033665ab5252a14e3bc6bdd04>@@QBEXXZ 10067720 f   Menu.obj
 0001:00066780       ??R<lambda_dd82e866c72702136ef8f4717127e403>@@QBEXXZ 10067780 f   Menu.obj
 0001:00066850       ??R<lambda_ea7b150de2ea66b30a4447ae22c37d94>@@QBEXXZ 10067850 f   Menu.obj
 0001:00066c20       ??R<lambda_ead7ad9128ed13ce27faa52c81d10309>@@QBEXXZ 10067c20 f   Menu.obj
 0001:00068ac4       $LN512                     10069ac4     Menu.obj
 0001:00068ad4       $LN513                     10069ad4     Menu.obj
 0001:00068f9c       __catch$??$_Emplace_reallocate@ABVPPGUI_Command_Frame@PPGUI@@@?$vector@VPPGUI_Command_Frame@PPGUI@@V?$allocator@VPPGUI_Command_Frame@PPGUI@@@std@@@std@@QAEPAVPPGUI_Command_Frame@PPGUI@@QAV23@ABV23@@Z$0 10069f9c f i PPGUI.obj
 0001:0006923c       __catch$??$_Insert@AAU?$pair@$$CBITPPGUI_Command_Data@PPGUI_Command_Data_Base@PPGUI@@@std@@V?$_List_unchecked_iterator@V?$_List_val@U?$_List_simple_types@U?$pair@$$CBITPPGUI_Command_Data@PPGUI_Command_Data_Base@PPGUI@@@std@@@std@@@std@@@2@@?$_Hash@V?$_Umap_traits@ITPPGUI_Command_Data@PPGUI_Command_Data_Base@PPGUI@@V?$_Uhash_compare@IU?$hash@I@std@@U?$equal_to@I@2@@std@@V?$allocator@U?$pair@$$CBITPPGUI_Command_Data@PPGUI_Command_Data_Base@PPGUI@@@std@@@5@$0A@@std@@@std@@IAE?AU?$pair@V?$_List_iterator@V?$_List_val@U?$_List_simple_types@U?$pair@$$CBITPPGUI_Command_Data@PPGUI_Command_Data_Base@PPGUI@@@std@@@std@@@std@@@std@@_N@1@AAU?$pair@$$CBITPPGUI_Command_Data@PPGUI_Command_Data_Base@PPGUI@@@1@V?$_List_unchecked_iterator@V?$_List_val@U?$_List_simple_types@U?$pair@$$CBITPPGUI_Command_Data@PPGUI_Command_Data_Base@PPGUI@@@std@@@std@@@std@@@1@@Z$2 1006a23c f i PPGUI.obj
 0001:00069a20       $LN22                      1006aa20     PPGUI_Commands.obj
 0001:00069a20       $LN22                      1006aa20     PPGUI_Commands.obj
 0001:00069a20       $LN22                      1006aa20     PPGUI_Commands.obj
 0001:00069a20       $LN22                      1006aa20     PPGUI_Commands.obj
 0001:00069a20       $LN22                      1006aa20     PPGUI_Commands.obj
 0001:00069a20       $LN22                      1006aa20     PPGUI_Commands.obj
 0001:00069a20       $LN22                      1006aa20     PPGUI.obj
 0001:00069a20       $LN22                      1006aa20     PPGUI_Commands.obj
 0001:00069a20       $LN22                      1006aa20     PPGUI_Commands.obj
 0001:00069a20       $LN22                      1006aa20     PPGUI_Commands.obj
 0001:00069a20       $LN22                      1006aa20     PPGUI_Commands.obj
 0001:0006b904       $LN20                      1006c904     PPGUI_Commands.obj
 0001:0006b904       $LN20                      1006c904     PPGUI_Commands.obj
 0001:0006b904       $LN20                      1006c904     PPGUI_Commands.obj
 0001:0006b904       $LN20                      1006c904     PPGUI_Commands.obj
 0001:0006b904       $LN20                      1006c904     PPGUI_Commands.obj
 0001:0006b904       $LN20                      1006c904     PPGUI_Commands.obj
 0001:0006b904       $LN20                      1006c904     PPGUI_Commands.obj
 0001:0006b904       $LN20                      1006c904     PPGUI_Commands.obj
 0001:0006b904       $LN20                      1006c904     PPGUI_Commands.obj
 0001:0006b904       $LN20                      1006c904     PPGUI_Commands.obj
 0001:0006b904       $LN20                      1006c904     PPGUI_Commands.obj
 0001:0006b90c       $LN17                      1006c90c     PPGUI_Commands.obj
 0001:0006b90c       $LN17                      1006c90c     PPGUI_Commands.obj
 0001:0006b90c       $LN17                      1006c90c     PPGUI_Commands.obj
 0001:0006b90c       $LN17                      1006c90c     PPGUI_Commands.obj
 0001:0006b90c       $LN17                      1006c90c     PPGUI_Commands.obj
 0001:0006b90c       $LN17                      1006c90c     PPGUI_Commands.obj
 0001:0006b90c       $LN17                      1006c90c     PPGUI_Commands.obj
 0001:0006b90c       $LN17                      1006c90c     PPGUI_Commands.obj
 0001:0006b90c       $LN17                      1006c90c     PPGUI_Commands.obj
 0001:0006b90c       $LN17                      1006c90c     PPGUI_Commands.obj
 0001:0006b90c       $LN17                      1006c90c     PPGUI_Commands.obj
 0001:0006c6b6       __catch$??6?$basic_ostream@DU?$char_traits@D@std@@@std@@QAEAAV01@M@Z$0 1006d6b6 f i PPGUI_Commands.obj
 0001:0006c750       ??R<lambda_07e8e09b926849ee5c09d399f814ef9d>@@QBE?AV?$basic_string@DU?$char_traits@D@std@@V?$allocator@D@2@@std@@MH@Z 1006d750 f   PPGUI_Commands.obj
 0001:0006c9b0       ??R<lambda_40cdd183d11bfbc899d0c97996b519ee>@@QBEXPBD@Z 1006d9b0 f   PPGUI_Commands.obj
 0001:0006c9b0       ??R<lambda_f7786c3b8487cbd3eaa26362862c6fd5>@@QBEXPBD@Z 1006d9b0 f   PPGUI_Commands.obj
 0001:00071510       $LN47                      10072510     PPGUI_Commands.obj
 0001:000717b0       $LN89                      100727b0     PPGUI_Commands.obj
 0001:000718f8       $LN87                      100728f8     PPGUI_Commands.obj
 0001:0007215c       $LN20                      1007315c     PPGUI_Commands.obj
 0001:0007218c       $LN18                      1007318c     PPGUI_Commands.obj
 0001:000737f0       $LN124                     100747f0     PPGUI_Commands.obj
 0001:000737f8       $LN117                     100747f8     PPGUI_Commands.obj
 0001:00074648       __catch$?_Init@?$numpunct@D@std@@IAEXABV_Locinfo@2@_N@Z$0 10075648 f i PPGUI_Commands.obj
 0001:00076121       __catch$??$_Insert_string@DU?$char_traits@D@std@@I@std@@YAAAV?$basic_ostream@DU?$char_traits@D@std@@@0@AAV10@QBDI@Z$0 10077121 f i Debugger.obj
 0001:00077ba7       __catch$??6?$basic_ostream@DU?$char_traits@D@std@@@std@@QAEAAV01@PBX@Z$0 10078ba7 f i interfaces.obj
 0001:0007d71c       $LN14                      1007e71c     utils.obj
 0001:0007f26d       _tidy_global               1008026d f   libcpmt:locale0.obj
 0001:0007f52a       _xtime_diff                1008052a f   libcpmt:xtime.obj
 0001:0007f934       ?spfun@std@@YAXAAVios_base@1@_J@Z 10080934 f   libcpmt:iomanip.obj
 0001:0007fc0d       ?initialize_pointers@@YAHXZ 10080c0d f   libcpmt:winapisupp.obj
 0001:0008025f       ?__scrt_initialize_thread_safe_statics@@YAHXZ 1008125f f   LIBCMT:thread_safe_statics.obj
 0001:000802a3       ?__scrt_initialize_thread_safe_statics_platform_specific@@YAXXZ 100812a3 f   LIBCMT:thread_safe_statics.obj
 0001:00080392       ?__scrt_uninitialize_thread_safe_statics@@YAXXZ 10081392 f   LIBCMT:thread_safe_statics.obj
 0001:00080510       $$000000                   10081510     LIBCMT:chkstk.obj
 0001:000806af       ?find_pe_section@@YAPAU_IMAGE_SECTION_HEADER@@QAEI@Z 100816af f   LIBCMT:utility.obj
 0001:00080bf0       $$000000                   10081bf0     LIBCMT:alloca16.obj
 0001:00080c20       $$000000                   10081c20     LIBCMT:ftol3.obj
 0001:00080fa0       $$000000                   10081fa0     LIBCMT:llmul.obj
 0001:00080ff0       $$000000                   10081ff0     LIBCMT:ftol2.obj
 0001:000810b0       $$000000                   100820b0     LIBCMT:lldiv.obj
 0001:00081160       $$000000                   10082160     LIBCMT:ulldiv.obj
 0001:000811d0       $$000000                   100821d0     LIBCMT:lldvrm.obj
 0001:000812af       ?dllmain_crt_dispatch@@YGHQAUHINSTANCE__@@KQAX@Z 100822af f   LIBCMT:dll_dllmain.obj
 0001:00081302       ?dllmain_crt_process_attach@@YAHQAUHINSTANCE__@@QAX@Z 10082302 f   LIBCMT:dll_dllmain.obj
 0001:0008140c       ?dllmain_crt_process_detach@@YAH_N@Z 1008240c f   LIBCMT:dll_dllmain.obj
 0001:0008149e       ?dllmain_dispatch@@YAHQAUHINSTANCE__@@KQAX@Z 1008249e f   LIBCMT:dll_dllmain.obj
 0001:000815a4       ?dllmain_raw@@YGHQAUHINSTANCE__@@KQAX@Z 100825a4 f   LIBCMT:dll_dllmain.obj
 0001:000816c0       $$000000                   100826c0     LIBCMT:ulldvrm.obj
 0001:000818d0       $$000000                   100828d0     LIBCMT:sehprolg4.obj
 0001:00081ad2       ___get_entropy             10082ad2 f   LIBCMT:gs_support.obj
 0001:000824f0       $$000000                   100834f0     libvcruntime:memcpy.obj
 0001:00082754       TrailingUpVec              10083754     libvcruntime:memcpy.obj
 0001:00082800       TrailingDownVec            10083800     libvcruntime:memcpy.obj
 0001:00082a70       $$000000                   10083a70     libvcruntime:memmove.obj
 0001:00082cd4       TrailingUpVec              10083cd4     libvcruntime:memmove.obj
 0001:00082d80       TrailingDownVec            10083d80     libvcruntime:memmove.obj
 0001:00082ff0       $$000000                   10083ff0     libvcruntime:memset.obj
 0001:00083150       $$000000                   10084150     libvcruntime:strstr.obj
 0001:000833c0       $$000000                   100843c0     libvcruntime:memchr.obj
 0001:00083470       $$000000                   10084470     libvcruntime:strchr.obj
 0001:000835a0       $$000000                   100845a0     libvcruntime:exsup.obj
 0001:000835c1       __unwind_handler           100845c1 f   libvcruntime:exsup.obj
 0001:000836e0       $$000000                   100846e0     libvcruntime:exsup3.obj
 0001:0008473f       $LN1285                    1008573f     libvcruntime:memcmp.obj
 0001:000847e0       _ValidateLocalCookies      100857e0 f   libvcruntime:chandler4.obj
 0001:00084bbe       ??$BuildCatchObjectHelperInternal@V__FrameHandler3@@@@YAHPAUEHExceptionRecord@@PAXPBU_s_HandlerType@@PBU_s_CatchableType@@@Z 10085bbe f   libvcruntime:frame.obj
 0001:00084cfd       ??$BuildCatchObjectInternal@V__FrameHandler3@@@@YAXPAUEHExceptionRecord@@PAXPBU_s_HandlerType@@PBU_s_CatchableType@@@Z 10085cfd f   libvcruntime:frame.obj
 0001:00084d96       ??$CatchIt@V__FrameHandler3@@@@YAXPAUEHExceptionRecord@@PAUEHRegistrationNode@@PAU_CONTEXT@@PAXPBU_s_FuncInfo@@PBU_s_HandlerType@@PBU_s_CatchableType@@PBU_s_TryBlockMapEntry@@H1E@Z 10085d96 f   libvcruntime:frame.obj
 0001:00084e16       ??$FindHandler@V__FrameHandler3@@@@YAXPAUEHExceptionRecord@@PAUEHRegistrationNode@@PAU_CONTEXT@@PAXPBU_s_FuncInfo@@EH1@Z 10085e16 f   libvcruntime:frame.obj
 0001:000851a4       ??$FindHandlerForForeignException@V__FrameHandler3@@@@YAXPAUEHExceptionRecord@@PAUEHRegistrationNode@@PAU_CONTEXT@@PAXPBU_s_FuncInfo@@HH1@Z 100861a4 f   libvcruntime:frame.obj
 0001:00085497       ?CallCatchBlock@@YAPAXPAUEHExceptionRecord@@PAUEHRegistrationNode@@PAU_CONTEXT@@PBU_s_FuncInfo@@PAXHK@Z 10086497 f   libvcruntime:frame.obj
 0001:0008565b       ?CallUnexpected@@YAXPBU_s_ESTypeList@@@Z 1008665b f   libvcruntime:frame.obj
 0001:0008567b       __catch$?CallUnexpected@@YAXPBU_s_ESTypeList@@@Z$0 1008667b f   libvcruntime:frame.obj
 0001:00085695       ?ExFilterRethrow@@YAHPAU_EXCEPTION_POINTERS@@@Z 10086695 f   libvcruntime:frame.obj
 0001:000857df       ?IsInExceptionSpec@@YAEPAUEHExceptionRecord@@PBU_s_ESTypeList@@@Z 100867df f   libvcruntime:frame.obj
 0001:000858b0       $$000000                   100868b0     libvcruntime:lowhelpr.obj
 0001:000859a0       _ValidateScopeTableHandlers 100869a0 f   libvcruntime:eh3valid.obj
 0001:00085dd0       $$000000                   10086dd0     libvcruntime:exsup4.obj
 0001:00085e60       __unwind_handler4          10086e60 f   libvcruntime:exsup4.obj
 0001:00085fa2       ?try_get_first_available_module@@YAPAUHINSTANCE__@@QBW4module_id@?A0xa2817912@@0@Z 10086fa2 f   libvcruntime:winapi_downlevel.obj
 0001:00086066       ?try_get_function@@YAPAXW4function_id@?A0xa2817912@@QBDQBW4module_id@2@2@Z 10087066 f   libvcruntime:winapi_downlevel.obj
 0001:00086911       ??$?RV<lambda_2866be3712abc81a800a822484c830d8>@@AAV<lambda_39ca0ed439415581b5b15c265174cece>@@V<lambda_2b24c74d71094a6cd0cb82e44167d71b>@@@?$__crt_seh_guarded_call@X@@QAEX$$QAV<lambda_2866be3712abc81a800a822484c830d8>@@AAV<lambda_39ca0ed439415581b5b15c265174cece>@@$$QAV<lambda_2b24c74d71094a6cd0cb82e44167d71b>@@@Z 10087911 f   libucrt:fflush.obj
 0001:0008699d       ??$?RV<lambda_2cc53f568c5a2bb6f192f930a45d44ea>@@AAV<lambda_ab61a845afdef5b7c387490eaf3616ee>@@V<lambda_c2ffc0b7726aa6be21d5f0026187e748>@@@?$__crt_seh_guarded_call@X@@QAEX$$QAV<lambda_2cc53f568c5a2bb6f192f930a45d44ea>@@AAV<lambda_ab61a845afdef5b7c387490eaf3616ee>@@$$QAV<lambda_c2ffc0b7726aa6be21d5f0026187e748>@@@Z 1008799d f   libucrt:fflush.obj
 0001:00086a49       ??$?RV<lambda_6d20deecaf4856105ebacbad442d1079>@@AAV<lambda_9a32fed5bf61b6b509b2d3f6003082a1>@@V<lambda_63ea2239ed67c638ddbae41947fdf875>@@@?$__crt_seh_guarded_call@H@@QAEH$$QAV<lambda_6d20deecaf4856105ebacbad442d1079>@@AAV<lambda_9a32fed5bf61b6b509b2d3f6003082a1>@@$$QAV<lambda_63ea2239ed67c638ddbae41947fdf875>@@@Z 10087a49 f   libucrt:fflush.obj
 0001:00086aa9       ?common_flush_all@@YAH_N@Z 10087aa9 f   libucrt:fflush.obj
 0001:00086af6       ?common_flush_all_should_try_to_flush_stream@@YA_NV__crt_stdio_stream@@QAH@Z 10087af6 f   libucrt:fflush.obj
 0001:00086b29       ?is_stream_flushable_or_commitable@@YA_NJ@Z 10087b29 f   libucrt:fflush.obj
 0001:000871cb       _memcpy_s                  100881cb f   libucrt:mbctype.obj
 0001:000871cb       _memcpy_s                  100881cb f   libucrt:input.obj
 0001:000871cb       _memcpy_s                  100881cb f   libucrt:assert.obj
 0001:000871cb       _memcpy_s                  100881cb f   libucrt:cfout.obj
 0001:000871cb       _memcpy_s                  100881cb f   libucrt:fread.obj
 0001:00087301       ?common_fseek@@YAHV__crt_stdio_stream@@_JH@Z 10088301 f   libucrt:fseek.obj
 0001:0008738c       ?common_fseek_binary_mode_read_only_fast_track_nolock@@YA_NV__crt_stdio_stream@@_JH@Z 1008838c f   libucrt:fseek.obj
 0001:00087465       ?common_fseek_nolock@@YAHV__crt_stdio_stream@@_JH@Z 10088465 f   libucrt:fseek.obj
 0001:00087579       ??$?RV<lambda_4ac01c32aa5b53846f05d0620572872e>@@AAV<lambda_5856287d7ecd2be6c9197bb4007c3f6e>@@V<lambda_e7a9868ed898c75c0f0637692d94351a>@@@?$__crt_seh_guarded_call@I@@QAEI$$QAV<lambda_4ac01c32aa5b53846f05d0620572872e>@@AAV<lambda_5856287d7ecd2be6c9197bb4007c3f6e>@@$$QAV<lambda_e7a9868ed898c75c0f0637692d94351a>@@@Z 10088579 f   libucrt:fwrite.obj
 0001:000875d4       ??R<lambda_5856287d7ecd2be6c9197bb4007c3f6e>@@QBEIXZ 100885d4 f   libucrt:fwrite.obj
 0001:000877fb       ??$?RV<lambda_70c0770dcc4f6ec6272bb01dc82d3c91>@@AAV<lambda_ca71763b3c0644891230e4f79ea54fa6>@@V<lambda_ca266f0f09348b8765c113e3a39a2bc1>@@@?$__crt_seh_guarded_call@H@@QAEH$$QAV<lambda_70c0770dcc4f6ec6272bb01dc82d3c91>@@AAV<lambda_ca71763b3c0644891230e4f79ea54fa6>@@$$QAV<lambda_ca266f0f09348b8765c113e3a39a2bc1>@@@Z 100887fb f   libucrt:setvbuf.obj
 0001:00087856       ??R<lambda_ca71763b3c0644891230e4f79ea54fa6>@@QBEHXZ 10088856 f   libucrt:setvbuf.obj
 0001:000878f0       ?set_buffer@@YAHV__crt_stdio_stream@@QADIH@Z 100888f0 f   libucrt:setvbuf.obj
 0001:00087ba0       $$000000                   10088ba0     libucrt:cos_sse2_precise.obj
 0001:00087d60       $$000000                   10088d60     libucrt:sin_sse2_precise.obj
 0001:00087f30       $$000000                   10088f30     libucrt:sqrt_sse2_precise.obj
 0001:00088030       $$000000                   10089030     libucrt:floor_pentium4.obj
 0001:000882a0       $$000000                   100892a0     libucrt:ceil_pentium4.obj
 0001:000883c0       $$000000                   100893c0     libucrt:87ctriga.obj
 0001:000883d0       $$000000                   100893d0     libucrt:asin_sse2_precise.obj
 0001:000889d0       $$000000                   100899d0     libucrt:pow_sse2_precise.obj
 0001:000895ac       ??$?RV<lambda_9b2bd5c6bb91c5c032542faa5c3cb611>@@AAV<lambda_be68057ced330f874c40fe9612235e36>@@V<lambda_dbd837d1c0b7fc6e2d81c287c81c071b>@@@?$__crt_seh_guarded_call@H@@QAEH$$QAV<lambda_9b2bd5c6bb91c5c032542faa5c3cb611>@@AAV<lambda_be68057ced330f874c40fe9612235e36>@@$$QAV<lambda_dbd837d1c0b7fc6e2d81c287c81c071b>@@@Z 1008a5ac f   libucrt:output.obj
 0001:00089607       ??$?RV<lambda_c29ee0499b841886b80d843682cc403a>@@AAV<lambda_0be4ab1c2a6918fda4e39227d83ea893>@@V<lambda_5a3ed3da325c8ea037a470278c0f2d16>@@@?$__crt_seh_guarded_call@H@@QAEH$$QAV<lambda_c29ee0499b841886b80d843682cc403a>@@AAV<lambda_0be4ab1c2a6918fda4e39227d83ea893>@@$$QAV<lambda_5a3ed3da325c8ea037a470278c0f2d16>@@@Z 1008a607 f   libucrt:output.obj
 0001:00089662       ??$common_vsnprintf_s@D@@YAH_KQADIIQBDQAU__crt_locale_pointers@@1@Z 1008a662 f   libucrt:output.obj
 0001:0008974a       ??$common_vsprintf@Vformat_validation_base@__crt_stdio_output@@D@@YAH_KQADIQBDQAU__crt_locale_pointers@@1@Z 1008a74a f   libucrt:output.obj
 0001:000898c8       ??$common_vsprintf@Vstandard_base@__crt_stdio_output@@D@@YAH_KQADIQBDQAU__crt_locale_pointers@@1@Z 1008a8c8 f   libucrt:output.obj
 0001:00089a46       ??$common_vsprintf@Vstandard_base@__crt_stdio_output@@_W@@YAH_KQA_WIQB_WQAU__crt_locale_pointers@@QAD@Z 1008aa46 f   libucrt:output.obj
 0001:00089bcd       ??$common_vsprintf_s@D@@YAH_KQADIQBDQAU__crt_locale_pointers@@1@Z 1008abcd f   libucrt:output.obj
 0001:0008a255       ??R<lambda_0be4ab1c2a6918fda4e39227d83ea893>@@QBEHXZ 1008b255 f   libucrt:output.obj
 0001:0008a314       ??R<lambda_be68057ced330f874c40fe9612235e36>@@QBEHXZ 1008b314 f   libucrt:output.obj
 0001:0008a729       $LN53                      1008b729     libucrt:output.obj
 0001:0008a84d       $LN51                      1008b84d     libucrt:output.obj
 0001:0008a961       $LN53                      1008b961     libucrt:output.obj
 0001:0008aa7d       $LN53                      1008ba7d     libucrt:output.obj
 0001:0008ab99       $LN53                      1008bb99     libucrt:output.obj
 0001:0008bdbb       $LN20                      1008cdbb     libucrt:output.obj
 0001:0008bdcf       $LN17                      1008cdcf     libucrt:output.obj
 0001:0008cfa0       $$000000                   1008dfa0     libucrt:87fmod_impl.obj
 0001:0008dc7c       ??$__acrt_convert_wcs_mbs_cp@D_WV<lambda_62f6974d9771e494a5ea317cc32e971c>@@U__crt_win32_buffer_internal_dynamic_resizing@@@@YAHQBDAAV?$__crt_win32_buffer@_WU__crt_win32_buffer_internal_dynamic_resizing@@@@ABV<lambda_62f6974d9771e494a5ea317cc32e971c>@@I@Z 1008ec7c f   libucrt:unlink.obj
 0001:0008de70       $$000000                   1008ee70     libucrt:strncpy.obj
 0001:0008df94       ??$common_assert_to_message_box@_W@@YAXQB_W0IQAX@Z 1008ef94 f   libucrt:assert.obj
 0001:0008e02e       ??$common_assert_to_message_box_build_string@_W@@YAXQA_WIQB_W1IQAX@Z 1008f02e f   libucrt:assert.obj
 0001:0008e50f       ??$common_assert_to_stderr@_W@@YAXQB_W0I@Z 1008f50f f   libucrt:assert.obj
 0001:0008e5bb       ?common_assert_to_stderr_direct@@YAXQB_W0I@Z 1008f5bb f   libucrt:assert.obj
 0001:0008e66a       ?get_assert_format@@YAPB_W_W@Z 1008f66a f   libucrt:assert.obj
 0001:0008e705       ??$common_fsopen@D@@YAPAU_iobuf@@QBD0H@Z 1008f705 f   libucrt:fopen.obj
 0001:0008e7bc       ??$common_fsopen@_W@@YAPAU_iobuf@@QB_W0H@Z 1008f7bc f   libucrt:fopen.obj
 0001:0008e894       ??$common_ftell@J@@YAJV__crt_stdio_stream@@@Z 1008f894 f   libucrt:ftell.obj
 0001:0008e905       ??$common_ftell@_J@@YA_JV__crt_stdio_stream@@@Z 1008f905 f   libucrt:ftell.obj
 0001:0008e985       ??$common_ftell_nolock@J@@YAJV__crt_stdio_stream@@@Z 1008f985 f   libucrt:ftell.obj
 0001:0008e9b0       ??$common_ftell_nolock@_J@@YA_JV__crt_stdio_stream@@@Z 1008f9b0 f   libucrt:ftell.obj
 0001:0008eb34       ?common_ftell_read_mode_nolock@@YA_JV__crt_stdio_stream@@_J1@Z 1008fb34 f   libucrt:ftell.obj
 0001:0008ecf3       ?common_ftell_translated_utf8_nolock@@YA_JV__crt_stdio_stream@@_J@Z 1008fcf3 f   libucrt:ftell.obj
 0001:0008ee8c       ?count_newline_bytes@@YA_JQBD0W4__crt_lowio_text_mode@@@Z 1008fe8c f   libucrt:ftell.obj
 0001:0008efbe       ??$common_vsscanf@D@@YAH_KQBDI1QAU__crt_locale_pointers@@QAD@Z 1008ffbe f   libucrt:input.obj
 0001:0008f9f5       $LN38                      100909f5     libucrt:input.obj
 0001:0008fb19       $LN37                      10090b19     libucrt:input.obj
 0001:000902eb       ??R<lambda_f1fa4c266c18b246f3ed9c36247dab4f>@@QBE_NXZ 100912eb f   libucrt:input.obj
 0001:000902eb       ??R<lambda_f765c90ab33e8386abf09c0f079d37e9>@@QBE_NXZ 100912eb f   libucrt:input.obj
 0001:000902eb       ??R<lambda_644f8ab42ed3fd1d660977a2364b3a7d>@@QBE_NXZ 100912eb f   libucrt:input.obj
 0001:00092e63       $LN22                      10093e63     libucrt:input.obj
 0001:000935a8       $LN19                      100945a8     libucrt:input.obj
 0001:000935bc       $LN16                      100945bc     libucrt:input.obj
 0001:00093790       ?swap@@YAXPAD0I@Z          10094790 f   libucrt:qsort.obj
 0001:00093d50       $$000000                   10094d50     libucrt:strncmp.obj
 0001:00093dd0       $$000000                   10094dd0     libucrt:acos_sse2_precise.obj
 0001:000942f0       ??$common_atof_l@D@@YANQBDQAU__crt_locale_pointers@@@Z 100952f0 f   libucrt:atof.obj
 0001:000949d9       ??R<lambda_32aa245da1b5b882fa96db788295c8b2>@@QBE_NXZ 100959d9 f   libucrt:atof.obj
 0001:00094a20       $$000000                   10095a20     libucrt:log_sse2_precise.obj
 0001:00094e94       ??$common_freopen@D@@YAHQAPAU_iobuf@@QBD1V__crt_stdio_stream@@H@Z 10095e94 f   libucrt:freopen.obj
 0001:00094fc0       $$000000                   10095fc0     libucrt:strcspn.obj
 0001:00095133       ??$common_localtime_s@_J@@YAHQAUtm@@QB_J@Z 10096133 f   libucrt:localtime.obj
 0001:000953e9       ??$__acrt_convert_wcs_mbs_cp@_WDV<lambda_0fec1a7b3f42a53036604e18c2d5e07e>@@U__crt_win32_buffer_no_resizing@@@@YAHQB_WAAV?$__crt_win32_buffer@DU__crt_win32_buffer_no_resizing@@@@ABV<lambda_0fec1a7b3f42a53036604e18c2d5e07e>@@I@Z 100963e9 f   libucrt:getmodulefilenamea.obj
 0001:000953e9       ??$__acrt_convert_wcs_mbs_cp@_WDV<lambda_0fec1a7b3f42a53036604e18c2d5e07e>@@U__crt_win32_buffer_no_resizing@@@@YAHQB_WAAV?$__crt_win32_buffer@DU__crt_win32_buffer_no_resizing@@@@ABV<lambda_0fec1a7b3f42a53036604e18c2d5e07e>@@I@Z 100963e9 f   libucrt:strftime.obj
 0001:00095624       ?fperrraise_with@@YAXHK@Z  10096624 f   libucrt:_test.obj
 0001:000957d8       ?_mbstowcs_l_helper@@YAIPA_WPBDIPAU__crt_locale_pointers@@@Z 100967d8 f   libucrt:mbstowcs.obj
 0001:00095a80       $$000000                   10096a80     libucrt:strcat.obj
 0001:00095b80       $$000000                   10096b80     libucrt:strcmp.obj
 0001:0009634a       ??$?RV<lambda_646e26742ed01d5bc03234f44bb6d3d3>@@AAV<lambda_b37934c380d97b75fd242ea49540127a>@@V<lambda_bbd9d45274666fbb50f81a29ad795c13>@@@?$__crt_seh_guarded_call@PAD@@QAEPAD$$QAV<lambda_646e26742ed01d5bc03234f44bb6d3d3>@@AAV<lambda_b37934c380d97b75fd242ea49540127a>@@$$QAV<lambda_bbd9d45274666fbb50f81a29ad795c13>@@@Z 1009734a f   libucrt:setlocale.obj
 0001:000963a5       ??R<lambda_b37934c380d97b75fd242ea49540127a>@@QBEPADXZ 100973a5 f   libucrt:setlocale.obj
 0001:00096509       _call_wsetlocale           10097509 f   libucrt:setlocale.obj
 0001:00096690       $$000000                   10097690     libucrt:pow_impl.obj
 0001:00096c51       ?compute_iso_week@@YAHHHH@Z 10097c51 f   libucrt:wcsftime.obj
 0001:00096c9a       ?compute_iso_week_internal@@YAHHHH@Z 10097c9a f   libucrt:wcsftime.obj
 0001:00096d2f       ?compute_iso_year@@YAHHHH@Z 10097d2f f   libucrt:wcsftime.obj
 0001:00096d5a       ?expand_time@@YA_NPAU__crt_locale_pointers@@_WPBUtm@@PAPA_WPAIPBU__crt_lc_time_data@@_N@Z 10097d5a f   libucrt:wcsftime.obj
 0001:00097752       $LN191                     10098752     libucrt:wcsftime.obj
 0001:00097772       ?store_number@@YAXHHQAPA_WQAI_W@Z 10098772 f   libucrt:wcsftime.obj
 0001:00097806       ?store_number_without_lead_zeroes@@YAXHQAPA_WQAI@Z 10098806 f   libucrt:wcsftime.obj
 0001:00097872       ?store_string@@YAXPB_WQAPA_WQAI@Z 10098872 f   libucrt:wcsftime.obj
 0001:000978a3       ?store_winword@@YA_NQAU__crt_locale_pointers@@HQBUtm@@QAPA_WQAIQBU__crt_lc_time_data@@@Z 100988a3 f   libucrt:wcsftime.obj
 0001:0009807c       ??$?RV<lambda_03b1d95aef87969028cfba75ccab2455>@@AAV<lambda_6e4b09c48022b2350581041d5f6b0c4c>@@V<lambda_22bdf7517842c4b3e53723af5aa32b9e>@@@?$__crt_seh_guarded_call@X@@QAEX$$QAV<lambda_03b1d95aef87969028cfba75ccab2455>@@AAV<lambda_6e4b09c48022b2350581041d5f6b0c4c>@@$$QAV<lambda_22bdf7517842c4b3e53723af5aa32b9e>@@@Z 1009907c f   libucrt:exit.obj
 0001:000980c9       ??R<lambda_6e4b09c48022b2350581041d5f6b0c4c>@@QBE@XZ 100990c9 f   libucrt:exit.obj
 0001:000981a3       ?atexit_exception_filter@@YAHK@Z 100991a3 f   libucrt:exit.obj
 0001:000981b6       ?common_exit@@YAXHW4_crt_exit_cleanup_mode@@W4_crt_exit_return_mode@@@Z 100991b6 f   libucrt:exit.obj
 0001:0009821a       ?exit_or_terminate_process@@YAXI@Z 1009921a f   libucrt:exit.obj
 0001:0009825c       ?is_managed_app@@YA_NXZ    1009925c f   libucrt:exit.obj
 0001:0009829f       ?try_cor_exit_process@@YAXI@Z 1009929f f   libucrt:exit.obj
 0001:0009832d       ??$common_configure_argv@D@@YAHW4_crt_argv_mode@@@Z 1009932d f   libucrt:argv_parsing.obj
 0001:00098463       ??$parse_command_line@D@@YAXPADPAPAD0PAI2@Z 10099463 f   libucrt:argv_parsing.obj
 0001:00098634       ??$common_get_or_create_environment_nolock@D@@YAPAPADXZ 10099634 f   libucrt:environment_initialization.obj
 0001:00098660       ??$common_initialize_environment_nolock@D@@YAHXZ 10099660 f   libucrt:environment_initialization.obj
 0001:000986b3       ??$create_environment@D@@YAQAPADQAD@Z 100996b3 f   libucrt:environment_initialization.obj
 0001:00098783       ??$free_environment@D@@YAXQAPAD@Z 10099783 f   libucrt:environment_initialization.obj
 0001:00098783       ??$free_environment@_W@@YAXQAPA_W@Z 10099783 f   libucrt:environment_initialization.obj
 0001:000987b2       ??$initialize_environment_by_cloning_nolock@D@@YAHXZ 100997b2 f   libucrt:environment_initialization.obj
 0001:0009885e       ??$uninitialize_environment_internal@D@@YAXAAPAPAD@Z 1009985e f   libucrt:environment_initialization.obj
 0001:00098879       ??$uninitialize_environment_internal@_W@@YAXAAPAPA_W@Z 10099879 f   libucrt:environment_initialization.obj
 0001:000988d5       ??$?RV<lambda_69a2805e680e0e292e8ba93315fe43a8>@@AAV<lambda_f03950bc5685219e0bcd2087efbe011e>@@V<lambda_03fcd07e894ec930e3f35da366ca99d6>@@@?$__crt_seh_guarded_call@H@@QAEH$$QAV<lambda_69a2805e680e0e292e8ba93315fe43a8>@@AAV<lambda_f03950bc5685219e0bcd2087efbe011e>@@$$QAV<lambda_03fcd07e894ec930e3f35da366ca99d6>@@@Z 100998d5 f   libucrt:onexit.obj
 0001:00098930       ??$?RV<lambda_8e746cf0007f6ed984d6f78af1fec997>@@AAV<lambda_22ebabd17bc4fa466a2aca6d8deb888d>@@V<lambda_18ed0c0b38a6dc0daf1e7ac6d6adf05e>@@@?$__crt_seh_guarded_call@H@@QAEH$$QAV<lambda_8e746cf0007f6ed984d6f78af1fec997>@@AAV<lambda_22ebabd17bc4fa466a2aca6d8deb888d>@@$$QAV<lambda_18ed0c0b38a6dc0daf1e7ac6d6adf05e>@@@Z 10099930 f   libucrt:onexit.obj
 0001:000989aa       ??R<lambda_22ebabd17bc4fa466a2aca6d8deb888d>@@QBEHXZ 100999aa f   libucrt:onexit.obj
 0001:00098ad3       ??R<lambda_f03950bc5685219e0bcd2087efbe011e>@@QBEHXZ 10099ad3 f   libucrt:onexit.obj
 0001:00098c4c       _initialize_global_variables 10099c4c f   libucrt:initialization.obj
 0001:00098c59       _initialize_c              10099c59 f   libucrt:initialization.obj
 0001:00098c73       _uninitialize_environment  10099c73 f   libucrt:initialization.obj
 0001:00098c7b       _initialize_pointers       10099c7b f   libucrt:initialization.obj
 0001:00098ca9       _uninitialize_vcruntime    10099ca9 f   libucrt:initialization.obj
 0001:00098cb2       _uninitialize_allocated_memory 10099cb2 f   libucrt:initialization.obj
 0001:00098cc9       _uninitialize_allocated_io_buffers 10099cc9 f   libucrt:initialization.obj
 0001:00098d19       ??R<lambda_af42a3ee9806e9a7305d451646e05244>@@QBEXAAPAU__crt_multibyte_data@@@Z 10099d19 f   libucrt:initialization.obj
 0001:00099500       $$000000                   1009a500     libucrt:87ctran.obj
 0001:00099550       $$000000                   1009a550     libucrt:sqrt_impl.obj
 0001:00099601       ??$common_tcsncpy_s@_W@@YAHQA_WIQB_WI@Z 1009a601 f   libucrt:wcsncpy_s.obj
 0001:00099757       ??$?RV<lambda_15ade71b0218206bbe3333a0c9b79046>@@AAV<lambda_da44e0f8b0f19ba52fefafb335991732>@@V<lambda_207f2d024fc103971653565357d6cd41>@@@?$__crt_seh_guarded_call@X@@QAEX$$QAV<lambda_15ade71b0218206bbe3333a0c9b79046>@@AAV<lambda_da44e0f8b0f19ba52fefafb335991732>@@$$QAV<lambda_207f2d024fc103971653565357d6cd41>@@@Z 1009a757 f   libucrt:per_thread_data.obj
 0001:000997a9       ??$?RV<lambda_38edbb1296d33220d7e4dd0ed76b244a>@@AAV<lambda_5ce1d447e08cb34b2473517608e21441>@@V<lambda_fb385d3da700c9147fc39e65dd577a8c>@@@?$__crt_seh_guarded_call@X@@QAEX$$QAV<lambda_38edbb1296d33220d7e4dd0ed76b244a>@@AAV<lambda_5ce1d447e08cb34b2473517608e21441>@@$$QAV<lambda_fb385d3da700c9147fc39e65dd577a8c>@@@Z 1009a7a9 f   libucrt:per_thread_data.obj
 0001:00099814       ??$?RV<lambda_6affb1475c98b40b75cdec977db92e3c>@@AAV<lambda_b8d4b9c228a6ecc3f80208dbb4b4a104>@@V<lambda_608742c3c92a14382c1684fc64f96c88>@@@?$__crt_seh_guarded_call@X@@QAEX$$QAV<lambda_6affb1475c98b40b75cdec977db92e3c>@@AAV<lambda_b8d4b9c228a6ecc3f80208dbb4b4a104>@@$$QAV<lambda_608742c3c92a14382c1684fc64f96c88>@@@Z 1009a814 f   libucrt:per_thread_data.obj
 0001:00099869       ??$?RV<lambda_a7e850c220f1c8d1e6efeecdedd162c6>@@AAV<lambda_46720907175c18b6c9d2717bc0d2d362>@@V<lambda_9048902d66e8d99359bc9897bbb930a8>@@@?$__crt_seh_guarded_call@X@@QAEX$$QAV<lambda_a7e850c220f1c8d1e6efeecdedd162c6>@@AAV<lambda_46720907175c18b6c9d2717bc0d2d362>@@$$QAV<lambda_9048902d66e8d99359bc9897bbb930a8>@@@Z 1009a869 f   libucrt:per_thread_data.obj
 0001:000998c3       ?construct_ptd@@YAXQAU__acrt_ptd@@QAPAU__crt_locale_data@@@Z 1009a8c3 f   libucrt:per_thread_data.obj
 0001:0009995c       ?destroy_fls@@YGXPAX@Z     1009a95c f   libucrt:per_thread_data.obj
 0001:0009997d       ?destroy_ptd@@YAXQAU__acrt_ptd@@@Z 1009a97d f   libucrt:per_thread_data.obj
 0001:00099a4a       ?replace_current_thread_locale_nolock@@YAXQAU__acrt_ptd@@QAU__crt_locale_data@@@Z 1009aa4a f   libucrt:per_thread_data.obj
 0001:00099d6d       ??$?RV<lambda_135d2772fca65dc1248eeaa1b56e886a>@@AAV<lambda_2a444430fde8c29194d880d93eed5e8f>@@AAV<lambda_8dff2cf36a5417162780cd64fa2883ef>@@@?$__crt_seh_guarded_call@X@@QAEX$$QAV<lambda_135d2772fca65dc1248eeaa1b56e886a>@@AAV<lambda_2a444430fde8c29194d880d93eed5e8f>@@AAV<lambda_8dff2cf36a5417162780cd64fa2883ef>@@@Z 1009ad6d f   libucrt:wsetlocale.obj
 0001:00099db2       ??$?RV<lambda_4fdada1b837b2abbf20876fac97688ad>@@AAV<lambda_b57350f2640456a0859d250846f69caf>@@V<lambda_eed5e4f92b5b7d55fa22c48c484aaa54>@@@?$__crt_seh_guarded_call@X@@QAEX$$QAV<lambda_4fdada1b837b2abbf20876fac97688ad>@@AAV<lambda_b57350f2640456a0859d250846f69caf>@@$$QAV<lambda_eed5e4f92b5b7d55fa22c48c484aaa54>@@@Z 1009adb2 f   libucrt:wsetlocale.obj
 0001:00099dff       ??$?RV<lambda_e5124f882df8998aaf41531e079ba474>@@AAV<lambda_3e16ef9562a7dcce91392c22ab16ea36>@@V<lambda_e25ca0880e6ef98be67edffd8c599615>@@@?$__crt_seh_guarded_call@X@@QAEX$$QAV<lambda_e5124f882df8998aaf41531e079ba474>@@AAV<lambda_3e16ef9562a7dcce91392c22ab16ea36>@@$$QAV<lambda_e25ca0880e6ef98be67edffd8c599615>@@@Z 1009adff f   libucrt:wsetlocale.obj
 0001:00099ee7       ??R<lambda_2a444430fde8c29194d880d93eed5e8f>@@QBE@XZ 1009aee7 f   libucrt:wsetlocale.obj
 0001:00099f51       ??R<lambda_b57350f2640456a0859d250846f69caf>@@QBEXXZ 1009af51 f   libucrt:wsetlocale.obj
 0001:0009a31a       __copytlocinfo_nolock      1009b31a f   libucrt:wsetlocale.obj
 0001:0009a349       __expandlocale             1009b349 f   libucrt:wsetlocale.obj
 0001:0009a7d3       __wsetlocale_get_all       1009b7d3 f   libucrt:wsetlocale.obj
 0001:0009a96e       __wsetlocale_nolock        1009b96e f   libucrt:wsetlocale.obj
 0001:0009ac5e       __wsetlocale_set_cat       1009bc5e f   libucrt:wsetlocale.obj
 0001:0009b025       _get_default_code_page     1009c025 f   libucrt:wsetlocale.obj
 0001:0009b054       _parse_bcp47               1009c054 f   libucrt:wsetlocale.obj
 0001:0009b23e       _parse_bcp47_code_page     1009c23e f   libucrt:wsetlocale.obj
 0001:0009b27d       _parse_bcp47_language      1009c27d f   libucrt:wsetlocale.obj
 0001:0009b2ef       _parse_bcp47_region        1009c2ef f   libucrt:wsetlocale.obj
 0001:0009b3a8       _parse_bcp47_script        1009c3a8 f   libucrt:wsetlocale.obj
 0001:0009b418       _string_is_alpha           1009c418 f   libucrt:wsetlocale.obj
 0001:0009b555       ?<lambda_invoker_stdcall>@<lambda_29d3c280b90b41c2ae070ffca879996a>@@CGHPA_W@Z 1009c555 f   libucrt:winapi_thunks.obj
 0001:0009b562       ??$?RV<lambda_6b4b7855443974f2b4b77000ea21c99c>@@AAV<lambda_8f7d3b162ab39427f4fa9995c67a7986>@@V<lambda_cc9a5ba8a5d8428b9634eab82665e5dc>@@@?$__crt_seh_guarded_call@H@@QAEH$$QAV<lambda_6b4b7855443974f2b4b77000ea21c99c>@@AAV<lambda_8f7d3b162ab39427f4fa9995c67a7986>@@$$QAV<lambda_cc9a5ba8a5d8428b9634eab82665e5dc>@@@Z 1009c562 f   libucrt:winapi_thunks.obj
 0001:0009b5de       ??R<lambda_29d3c280b90b41c2ae070ffca879996a>@@QBEHPA_W@Z 1009c5de f   libucrt:winapi_thunks.obj
 0001:0009b60d       ?try_get_AreFileApisANSI@@YAP6GHXZXZ 1009c60d f   libucrt:winapi_thunks.obj
 0001:0009b627       ?try_get_CompareStringEx@@YAP6GHPB_WK0H0HPAU_nlsversioninfo@@PAXJ@ZXZ 1009c627 f   libucrt:winapi_thunks.obj
 0001:0009b641       ?try_get_EnumSystemLocalesEx@@YAP6GHP6GHPA_WKJ@ZKJPAX@ZXZ 1009c641 f   libucrt:winapi_thunks.obj
 0001:0009b65b       ?try_get_GetDateFormatEx@@YAP6GHPB_WKPBU_SYSTEMTIME@@0PA_WH0@ZXZ 1009c65b f   libucrt:winapi_thunks.obj
 0001:0009b675       ?try_get_GetLocaleInfoEx@@YAP6GHPB_WKPA_WH@ZXZ 1009c675 f   libucrt:winapi_thunks.obj
 0001:0009b68f       ?try_get_GetTimeFormatEx@@YAP6GHPB_WKPBU_SYSTEMTIME@@0PA_WH@ZXZ 1009c68f f   libucrt:winapi_thunks.obj
 0001:0009b6a9       ?try_get_GetUserDefaultLocaleName@@YAP6GHPA_WH@ZXZ 1009c6a9 f   libucrt:winapi_thunks.obj
 0001:0009b6c3       ?try_get_IsValidLocaleName@@YAP6GHPB_W@ZXZ 1009c6c3 f   libucrt:winapi_thunks.obj
 0001:0009b6dd       ?try_get_LCIDToLocaleName@@YAP6GHKPA_WHK@ZXZ 1009c6dd f   libucrt:winapi_thunks.obj
 0001:0009b6f7       ?try_get_LCMapStringEx@@YAP6GHPB_WK0HPA_WHPAU_nlsversioninfo@@PAXJ@ZXZ 1009c6f7 f   libucrt:winapi_thunks.obj
 0001:0009b711       ?try_get_LocaleNameToLCID@@YAP6GKPB_WK@ZXZ 1009c711 f   libucrt:winapi_thunks.obj
 0001:0009b72b       ?try_get_MessageBoxA@@YAP6GHPAUHWND__@@PBD1I@ZXZ 1009c72b f   libucrt:winapi_thunks.obj
 0001:0009b745       ?try_get_MessageBoxW@@YAP6GHPAUHWND__@@PB_W1I@ZXZ 1009c745 f   libucrt:winapi_thunks.obj
 0001:0009b75f       ?try_get_first_available_module@@YAPAUHINSTANCE__@@QBW4module_id@?A0x391cf84c@@0@Z 1009c75f f   libucrt:winapi_thunks.obj
 0001:0009b826       ?try_get_function@@YAPAXW4function_id@?A0x391cf84c@@QBDQBW4module_id@2@2@Z 1009c826 f   libucrt:winapi_thunks.obj
 0001:0009c0cd       ?initialize_inherited_file_handles_nolock@@YAXXZ 1009d0cd f   libucrt:ioinit.obj
 0001:0009c183       ?initialize_stdio_handles_nolock@@YAXXZ 1009d183 f   libucrt:ioinit.obj
 0001:0009c2c3       ??$?RV<lambda_218ce3db14220d0be481dae8ef3383b6>@@AAV<lambda_628dfdc04ba53c8bfc02c9951375f3f5>@@V<lambda_57dc472bd5c9d5f3b2cbca59b8a843ae>@@@?$__crt_seh_guarded_call@H@@QAEH$$QAV<lambda_218ce3db14220d0be481dae8ef3383b6>@@AAV<lambda_628dfdc04ba53c8bfc02c9951375f3f5>@@$$QAV<lambda_57dc472bd5c9d5f3b2cbca59b8a843ae>@@@Z 1009d2c3 f   libucrt:close.obj
 0001:0009c543       ?find_or_allocate_unused_stream_nolock@@YA?AV__crt_stdio_stream@@XZ 1009d543 f   libucrt:stream.obj
 0001:0009c605       ??$?RV<lambda_9e9de3de5fa147e2223d7db92bc10aa6>@@AAV<lambda_38ce7e780aa69e748d6df282ebc68efe>@@V<lambda_8ca6da459f0f6780f1cff60fdc3d00e5>@@@?$__crt_seh_guarded_call@H@@QAEH$$QAV<lambda_9e9de3de5fa147e2223d7db92bc10aa6>@@AAV<lambda_38ce7e780aa69e748d6df282ebc68efe>@@$$QAV<lambda_8ca6da459f0f6780f1cff60fdc3d00e5>@@@Z 1009d605 f   libucrt:commit.obj
 0001:0009c724       ?write_double_translated_ansi_nolock@@YA?AUwrite_result@?A0x17268360@@HQBDI@Z 1009d724 f   libucrt:write.obj
 0001:0009cace       ?write_double_translated_unicode_nolock@@YA?AUwrite_result@?A0x17268360@@QBDI@Z 1009dace f   libucrt:write.obj
 0001:0009cb36       ?write_requires_double_translation_nolock@@YA_NH@Z 1009db36 f   libucrt:write.obj
 0001:0009cba7       ?write_text_ansi_nolock@@YA?AUwrite_result@?A0x17268360@@HQBDI@Z 1009dba7 f   libucrt:write.obj
 0001:0009cc82       ?write_text_utf16le_nolock@@YA?AUwrite_result@?A0x17268360@@HQBDI@Z 1009dc82 f   libucrt:write.obj
 0001:0009cd6b       ?write_text_utf8_nolock@@YA?AUwrite_result@?A0x17268360@@HQBDI@Z 1009dd6b f   libucrt:write.obj
 0001:0009d171       ??$common_refill_and_read_nolock@D@@YAHV__crt_stdio_stream@@@Z 1009e171 f   libucrt:_filbuf.obj
 0001:0009d306       ??$common_flush_and_write_nolock@D@@YAHHV__crt_stdio_stream@@@Z 1009e306 f   libucrt:_flsbuf.obj
 0001:0009d41b       ??$common_flush_and_write_nolock@_W@@YAHHV__crt_stdio_stream@@@Z 1009e41b f   libucrt:_flsbuf.obj
 0001:0009d534       ??$write_buffer_nolock@D@@YA_NDV__crt_stdio_stream@@@Z 1009e534 f   libucrt:_flsbuf.obj
 0001:0009d600       ??$write_buffer_nolock@_W@@YA_N_WV__crt_stdio_stream@@@Z 1009e600 f   libucrt:_flsbuf.obj
 0001:0009d6ce       ?stream_is_at_end_of_file_nolock@@YA_NV__crt_stdio_stream@@@Z 1009e6ce f   libucrt:_flsbuf.obj
 0001:0009d769       ??$translate_text_mode_nolock@D@@YAHHQADI@Z 1009e769 f   libucrt:read.obj
 0001:0009d8ca       ??$translate_text_mode_nolock@_W@@YAHHQA_WI@Z 1009e8ca f   libucrt:read.obj
 0001:0009da9b       ?translate_ansi_or_utf8_nolock@@YAHHQADIQA_WI@Z 1009ea9b f   libucrt:read.obj
 0001:0009dbf2       ?translate_utf16_from_console_nolock@@YAHHQA_WI@Z 1009ebf2 f   libucrt:read.obj
 0001:0009e131       ??$common_lseek@_J@@YA_JH_JH@Z 1009f131 f   libucrt:lseek.obj
 0001:0009e23d       ??$common_lseek_nolock@_J@@YA_JH_JH@Z 1009f23d f   libucrt:lseek.obj
 0001:0009e490       $$000000                   1009f490     libucrt:cos_impl.obj
 0001:0009e580       $$000000                   1009f580     libucrt:sin_impl.obj
 0001:0009e860       $$000000                   1009f860     libucrt:sqrt.obj
 0001:0009ea70       $$000000                   1009fa70     libucrt:87triga.obj
 0001:0009eb30       $$000000                   1009fb30     libucrt:87cdisp.obj
 0001:0009edd0       $$000000                   1009fdd0     libucrt:asin_impl.obj
 0001:0009f20c       ?fp_format_a@@YAHQBNPADIQADIH_NIQAU__crt_locale_pointers@@@Z 100a020c f   libucrt:cvt.obj
 0001:0009f525       ?fp_format_e@@YAHQBNQADI1IH_NIQAU__crt_locale_pointers@@@Z 100a0525 f   libucrt:cvt.obj
 0001:0009f5c7       ?fp_format_e_internal@@YAHQADIH_NIQAU_strflt@@1QAU__crt_locale_pointers@@@Z 100a05c7 f   libucrt:cvt.obj
 0001:0009f70f       ?fp_format_f@@YAHQBNQADI1IHQAU__crt_locale_pointers@@@Z 100a070f f   libucrt:cvt.obj
 0001:0009f79a       ?fp_format_f_internal@@YAHQADIHQAU_strflt@@_NQAU__crt_locale_pointers@@@Z 100a079a f   libucrt:cvt.obj
 0001:0009f86b       ?fp_format_g@@YAHQBNQADI1IH_NIQAU__crt_locale_pointers@@@Z 100a086b f   libucrt:cvt.obj
 0001:0009f92c       ?fp_format_nan_or_infinity@@YAHW4__acrt_fp_class@@_NPADI1@Z 100a092c f   libucrt:cvt.obj
 0001:0009f9c1       ?shift_bytes@@YAXQADI0H@Z  100a09c1 f   libucrt:cvt.obj
 0001:0009fb30       ?fputwc_binary_nolock@@YAG_WV__crt_stdio_stream@@@Z 100a0b30 f   libucrt:fputwc.obj
 0001:0009fca0       $$000000                   100a0ca0     libucrt:87disp.obj
 0001:000a00d2       ??$common_xtox@K_W@@YAHKQA_WII_N@Z 100a10d2 f   libucrt:xtoa.obj
 0001:000a0185       ??$common_xtox_s@K_W@@YAHKQA_WII_N@Z 100a1185 f   libucrt:xtoa.obj
 0001:000a02de       ??$common_tcsncat_s@_W@@YAHQA_WIQB_WI@Z 100a12de f   libucrt:wcsncat_s.obj
 0001:000a0471       ??$common_show_message_box@_W@@YAHQB_W0I@Z 100a1471 f   libucrt:crtmbox.obj
 0001:000a04fa       ??$?RV<lambda_cbab9ec6f41b0180b23cc171c22676b0>@@AAV<lambda_44731a7d0e6d81c3e6aa82d741081786>@@V<lambda_4b292cb8dd18144e164572427af410ab>@@@?$__crt_seh_guarded_call@P6AXH@Z@@QAEP6AXH@Z$$QAV<lambda_cbab9ec6f41b0180b23cc171c22676b0>@@AAV<lambda_44731a7d0e6d81c3e6aa82d741081786>@@$$QAV<lambda_4b292cb8dd18144e164572427af410ab>@@@Z 100a14fa f   libucrt:signal.obj
 0001:000a055e       ?get_global_action_nolock@@YAPAP6AXH@ZH@Z 100a155e f   libucrt:signal.obj
 0001:000a05a0       ?siglookup@@YAPAU__crt_signal_action_t@@HQAU1@@Z 100a15a0 f   libucrt:signal.obj
 0001:000a0ca6       ??$common_openfile@D@@YAPAU_iobuf@@QBD0HV__crt_stdio_stream@@@Z 100a1ca6 f   libucrt:openfile.obj
 0001:000a0d29       ??$common_openfile@_W@@YAPAU_iobuf@@QB_W0HV__crt_stdio_stream@@@Z 100a1d29 f   libucrt:openfile.obj
 0001:000a0f1d       ?__acrt_LCMapStringA_stat@@YAHPAU__crt_locale_pointers@@PB_WKPBDHPADHHH@Z 100a1f1d f   libucrt:lcmapstringa.obj
 0001:000a1150       $$000000                   100a2150     libucrt:acos_impl.obj
 0001:000a1260       $$000000                   100a2260     libucrt:log_impl.obj
 0001:000a1370       $$000000                   100a2370     libucrt:_strnicm.obj
 0001:000a16e3       ??$common_gmtime_s@_J@@YAHQAUtm@@QB_J@Z 100a26e3 f   libucrt:gmtime.obj
 0001:000a182d       ?compute_year@@YAHAA_JAA_N@Z 100a282d f   libucrt:gmtime.obj
 0001:000a192f       ?_isindst_nolock@@YAHQAUtm@@@Z 100a292f f   libucrt:tzset.obj
 0001:000a1b49       ?cvtdate@@YAXW4transition_type@?A0x7639d0b4@@W4date_type@2@HHHHHHHHH@Z 100a2b49 f   libucrt:tzset.obj
 0001:000a1c89       ?tzset_from_environment_nolock@@YAXPAD@Z 100a2c89 f   libucrt:tzset.obj
 0001:000a1e64       ?tzset_from_system_nolock@@YAXXZ 100a2e64 f   libucrt:tzset.obj
 0001:000a1fbf       ?tzset_nolock@@YAXXZ       100a2fbf f   libucrt:tzset.obj
 0001:000a2285       ?to_abstract_control@@YA?AW4__acrt_fenv_abstract_control@@W4__acrt_fenv_machine_sse_control@@@Z 100a3285 f   libucrt:_fenvutils.obj
 0001:000a2341       ?to_abstract_control@@YA?AW4__acrt_fenv_abstract_control@@W4__acrt_fenv_machine_x87_control@@@Z 100a3341 f   libucrt:_fenvutils.obj
 0001:000a23fa       ?to_machine_sse_control@@YA?AW4__acrt_fenv_machine_sse_control@@W4__acrt_fenv_abstract_control@@@Z 100a33fa f   libucrt:_fenvutils.obj
 0001:000a24c7       ?to_machine_x87_control@@YA?AW4__acrt_fenv_machine_x87_control@@W4__acrt_fenv_abstract_control@@@Z 100a34c7 f   libucrt:_fenvutils.obj
 0001:000a2865       ??R<lambda_3d301b9e52f5099be73030e1f0bf487e>@@QBEIPBD@Z 100a3865 f   libucrt:mbrtowc.obj
 0001:000a29cc       ?InternalGetLocaleInfoA@@YAHQAU__crt_locale_pointers@@QB_WKQADH@Z 100a39cc f   libucrt:getlocaleinfoa.obj
 0001:000a2d5e       ?_wcstombs_l_helper@@YAIPADPB_WIPAU__crt_locale_pointers@@@Z 100a3d5e f   libucrt:wcstombs.obj
 0001:000a3250       $$000000                   100a4250     libucrt:pow_pentium4.obj
 0001:000a3d70       $$000000                   100a4d70     libucrt:87tran.obj
 0001:000a3f80       $$000000                   100a4f80     libucrt:genexcep.obj
 0001:000a3fe0       $$000000                   100a4fe0     libucrt:common.obj
 0001:000a447c       ?<lambda_invoker_cdecl>@<lambda_838c7f62c73c983481e27c09e84b0b5d>@@CAHPBX0@Z 100a547c f   libucrt:argv_wildcards.obj
 0001:000a4494       ??$__acrt_convert_wcs_mbs_cp@_WDV<lambda_28bda7af82a03b66c1cb3803a755f95d>@@U__crt_win32_buffer_internal_dynamic_resizing@@@@YAHQB_WAAV?$__crt_win32_buffer@DU__crt_win32_buffer_internal_dynamic_resizing@@@@ABV<lambda_28bda7af82a03b66c1cb3803a755f95d>@@I@Z 100a5494 f   libucrt:argv_wildcards.obj
 0001:000a4563       ??$common_expand_argv_wildcards@D@@YAHQAPADQAPAPAD@Z 100a5563 f   libucrt:argv_wildcards.obj
 0001:000a4752       ??$copy_and_add_argument_to_buffer@D@@YAHQBD0IAAV?$argument_list@D@?A0x5f5c8891@@@Z 100a5752 f   libucrt:argv_wildcards.obj
 0001:000a4803       ??$expand_argument_wildcards@D@@YAHQAD0AAV?$argument_list@D@?A0x5f5c8891@@@Z 100a5803 f   libucrt:argv_wildcards.obj
 0001:000a4a96       ?expand_if_necessary@?$argument_list@D@?A0x5f5c8891@@AAEHXZ 100a5a96 f   libucrt:argv_wildcards.obj
 0001:000a4b28       ??$?RV<lambda_ceb1ee4838e85a9d631eb091e2fbe199>@@AAV<lambda_ae742caa10f662c28703da3d2ea5e57e>@@V<lambda_cd08b5d6af4937fe54fc07d0c9bf6b37>@@@?$__crt_seh_guarded_call@X@@QAEX$$QAV<lambda_ceb1ee4838e85a9d631eb091e2fbe199>@@AAV<lambda_ae742caa10f662c28703da3d2ea5e57e>@@$$QAV<lambda_cd08b5d6af4937fe54fc07d0c9bf6b37>@@@Z 100a5b28 f   libucrt:mbctype.obj
 0001:000a4b75       ??R<lambda_ae742caa10f662c28703da3d2ea5e57e>@@QBEXXZ 100a5b75 f   libucrt:mbctype.obj
 0001:000a4bf8       ?CPtoLocaleName@@YAPB_WH@Z 100a5bf8 f   libucrt:mbctype.obj
 0001:000a4c36       ?getSystemCP@@YAHH@Z       100a5c36 f   libucrt:mbctype.obj
 0001:000a4ca7       ?setSBCS@@YAXPAU__crt_multibyte_data@@@Z 100a5ca7 f   libucrt:mbctype.obj
 0001:000a4d0c       ?setSBUpLow@@YAXPAU__crt_multibyte_data@@@Z 100a5d0c f   libucrt:mbctype.obj
 0001:000a4e8d       ?setmbcp_internal@@YAHH_NQAU__acrt_ptd@@QAPAU__crt_multibyte_data@@@Z 100a5e8d f   libucrt:mbctype.obj
 0001:000a4fa6       ?update_thread_multibyte_data_internal@@YAPAU__crt_multibyte_data@@QAU__acrt_ptd@@QAPAU1@@Z 100a5fa6 f   libucrt:mbctype.obj
 0001:000a5294       ?x_ismbbtype_l@@YAHPAU__crt_locale_pointers@@IHH@Z 100a6294 f   libucrt:ismbbyte.obj
 0001:000a531c       ?find_end_of_double_null_terminated_sequence@@YAPB_WQB_W@Z 100a631c f   libucrt:get_environment_from_os.obj
 0001:000a53d7       ??$common_set_variable_in_environment_nolock@D@@YAHQADH@Z 100a63d7 f   libucrt:setenv.obj
 0001:000a5615       ??$copy_environment@D@@YAPAPADQAPAD@Z 100a6615 f   libucrt:setenv.obj
 0001:000a56c5       ??$ensure_current_environment_is_not_initial_environment_nolock@D@@YAXXZ 100a66c5 f   libucrt:setenv.obj
 0001:000a56df       ??$find_in_environment_nolock@D@@YAHQBDI@Z 100a66df f   libucrt:setenv.obj
 0001:000a58c0       $$000000                   100a68c0     libucrt:exp_pentium4.obj
 0001:000a6647       ?free_crt_array_internal@@YAXQAPBXI@Z 100a7647 f   libucrt:inittime.obj
 0001:000a667f       ?initialize_lc_time@@YA_NQAU__crt_lc_time_data@@QAU__crt_locale_data@@@Z 100a767f f   libucrt:inittime.obj
 0001:000a6b01       _GetLocaleNameFromDefault  100a7b01 f   libucrt:get_qualified_locale.obj
 0001:000a6b88       _GetLocaleNameFromLangCountry 100a7b88 f   libucrt:get_qualified_locale.obj
 0001:000a6c21       _GetLocaleNameFromLanguage 100a7c21 f   libucrt:get_qualified_locale.obj
 0001:000a6c7a       _GetPrimaryLen             100a7c7a f   libucrt:get_qualified_locale.obj
 0001:000a6cae       _LangCountryEnumProcEx@12  100a7cae f   libucrt:get_qualified_locale.obj
 0001:000a6f8e       _LanguageEnumProcEx@12     100a7f8e f   libucrt:get_qualified_locale.obj
 0001:000a704d       _ProcessCodePage           100a804d f   libucrt:get_qualified_locale.obj
 0001:000a7143       _TestDefaultCountry        100a8143 f   libucrt:get_qualified_locale.obj
 0001:000a7190       _TranslateName             100a8190 f   libucrt:get_qualified_locale.obj
 0001:000a73f8       _CountryEnumProc@4         100a83f8 f   libucrt:getqloc_downlevel.obj
 0001:000a749f       _GetLcidFromCountry        100a849f f   libucrt:getqloc_downlevel.obj
 0001:000a74ea       _GetLcidFromLangCountry    100a84ea f   libucrt:getqloc_downlevel.obj
 0001:000a7585       _GetLcidFromLanguage       100a8585 f   libucrt:getqloc_downlevel.obj
 0001:000a75e4       _GetPrimaryLen             100a85e4 f   libucrt:getqloc_downlevel.obj
 0001:000a7610       _LangCountryEnumProc@4     100a8610 f   libucrt:getqloc_downlevel.obj
 0001:000a7863       _LanguageEnumProc@4        100a8863 f   libucrt:getqloc_downlevel.obj
 0001:000a7938       _LcidFromHexString         100a8938 f   libucrt:getqloc_downlevel.obj
 0001:000a7989       _ProcessCodePage           100a8989 f   libucrt:getqloc_downlevel.obj
 0001:000a7a6a       _TestDefaultCountry        100a8a6a f   libucrt:getqloc_downlevel.obj
 0001:000a7a8f       _TestDefaultLanguage       100a8a8f f   libucrt:getqloc_downlevel.obj
 0001:000a7afd       _TranslateName             100a8afd f   libucrt:getqloc_downlevel.obj
 0001:000a7d5a       ?GetTableIndexFromLocaleName@@YAHPB_W@Z 100a8d5a f   libucrt:lcidtoname_downlevel.obj
 0001:000a8340       $$000000                   100a9340     libucrt:cos_pentium4.obj
 0001:000a84f0       $$000000                   100a94f0     libucrt:sin_pentium4.obj
 0001:000a88b0       $$000000                   100a98b0     libucrt:asin_pentium4.obj
 0001:000aa496       ??$common_sopen_dispatch@D@@YAHQBDHHHQAHH@Z 100ab496 f   libucrt:open.obj
 0001:000aa557       ??$common_sopen_dispatch@_W@@YAHQB_WHHHQAHH@Z 100ab557 f   libucrt:open.obj
 0001:000aa618       ?configure_text_mode@@YAHHUfile_options@?A0xa9d50aae@@HAAW4__crt_lowio_text_mode@@@Z 100ab618 f   libucrt:open.obj
 0001:000aa86b       ?create_file@@YAPAXQB_WQAU_SECURITY_ATTRIBUTES@@Ufile_options@?A0xa9d50aae@@@Z 100ab86b f   libucrt:open.obj
 0001:000aa890       ?decode_open_create_flags@@YAKH@Z 100ab890 f   libucrt:open.obj
 0001:000aa900       ?decode_options@@YA?AUfile_options@?A0xa9d50aae@@HHH@Z 100ab900 f   libucrt:open.obj
 0001:000aaa7a       ?truncate_ctrl_z_if_present@@YAHH@Z 100aba7a f   libucrt:open.obj
 0001:000aaf00       $$000000                   100abf00     libucrt:acos_pentium4.obj
 0001:000ab460       $$000000                   100ac460     libucrt:log_pentium4.obj
 0001:000ab6d0       ??$common_getenv_nolock@D@@YAPADQBD@Z 100ac6d0 f   libucrt:getenv.obj
 0001:000ab73d       ??$common_getenv_s@D@@YAHQAIQADIQBD@Z 100ac73d f   libucrt:getenv.obj
 0001:000ab79c       ??$common_getenv_s_nolock@D@@YAHQAIQADIQBD@Z 100ac79c f   libucrt:getenv.obj
 0001:000ab84d       ??$common_tcsncpy_s@D@@YAHQADIQBDI@Z 100ac84d f   libucrt:strncpy_s.obj
 0001:000abc80       $$000000                   100acc80     libucrt:strpbrk.obj
 0001:000abd64       ?initialize_multibyte@@YAHXZ 100acd64 f   libucrt:multibyte_initializer.obj
 0001:000abf2c       ?__dcrt_lowio_initialize_console_output@@YAXXZ 100acf2c f   libucrt:initcon.obj
 0001:000ac090       $$000000                   100ad090     libucrt:log10_impl.obj
 0001:000ac531       ?InternalCompareStringA@@YAHPAU__crt_locale_pointers@@PB_WKPBDH2HH@Z 100ad531 f   libucrt:comparestringa.obj
 0001:000ac8e0       $$000000                   100ad8e0     libucrt:log10_pentium4.obj
 0001:000acb80       $$000000                   100adb80     LIBCMT:ullrem.obj
 0001:000acd50       $$000000                   100add50     LIBCMT:llshl.obj
 0001:000acd70       $$000000                   100add70     LIBCMT:ullshr.obj
 0001:000acd90       $$000000                   100add90     LIBCMT:llrem.obj
 0001:000ace50       $$000000                   100ade50     libvcruntime:strrchr.obj
 0001:000ad050       __unwindfunclet$??$use_facet@V?$codecvt@DDU_Mbstatet@@@std@@@std@@YAABV?$codecvt@DDU_Mbstatet@@@0@ABVlocale@0@@Z$0 100ae050 f   dll.obj
 0001:000ad058       __unwindfunclet$??$use_facet@V?$codecvt@DDU_Mbstatet@@@std@@@std@@YAABV?$codecvt@DDU_Mbstatet@@@0@ABVlocale@0@@Z$3 100ae058 f   dll.obj
 0001:000ad067       __unwindfunclet$??$use_facet@V?$codecvt@DDU_Mbstatet@@@std@@@std@@YAABV?$codecvt@DDU_Mbstatet@@@0@ABVlocale@0@@Z$1 100ae067 f   dll.obj
 0001:000ad06f       __ehhandler$??$use_facet@V?$codecvt@DDU_Mbstatet@@@std@@@std@@YAABV?$codecvt@DDU_Mbstatet@@@0@ABVlocale@0@@Z 100ae06f f   dll.obj
 0001:000ad090       __unwindfunclet$??$use_facet@V?$ctype@D@std@@@std@@YAABV?$ctype@D@0@ABVlocale@0@@Z$0 100ae090 f   dll.obj
 0001:000ad098       __unwindfunclet$??$use_facet@V?$ctype@D@std@@@std@@YAABV?$ctype@D@0@ABVlocale@0@@Z$3 100ae098 f   dll.obj
 0001:000ad0a7       __unwindfunclet$??$use_facet@V?$ctype@D@std@@@std@@YAABV?$ctype@D@0@ABVlocale@0@@Z$1 100ae0a7 f   dll.obj
 0001:000ad0af       __ehhandler$??$use_facet@V?$ctype@D@std@@@std@@YAABV?$ctype@D@0@ABVlocale@0@@Z 100ae0af f   dll.obj
 0001:000ad0d0       __unwindfunclet$??0?$basic_fstream@DU?$char_traits@D@std@@@std@@QAE@PBDHH@Z$0 100ae0d0 f   dll.obj
 0001:000ad0ec       __unwindfunclet$??0?$basic_fstream@DU?$char_traits@D@std@@@std@@QAE@PBDHH@Z$1 100ae0ec f   dll.obj
 0001:000ad0f7       __unwindfunclet$??0?$basic_fstream@DU?$char_traits@D@std@@@std@@QAE@PBDHH@Z$2 100ae0f7 f   dll.obj
 0001:000ad102       __unwindfunclet$??0?$basic_fstream@DU?$char_traits@D@std@@@std@@QAE@PBDHH@Z$5 100ae102 f   dll.obj
 0001:000ad10a       __ehhandler$??0?$basic_fstream@DU?$char_traits@D@std@@@std@@QAE@PBDHH@Z 100ae10a f   dll.obj
 0001:000ad130       __unwindfunclet$??0?$basic_iostream@DU?$char_traits@D@std@@@std@@QAE@PAV?$basic_streambuf@DU?$char_traits@D@std@@@1@@Z$0 100ae130 f   dll.obj
 0001:000ad14c       __unwindfunclet$??0?$basic_iostream@DU?$char_traits@D@std@@@std@@QAE@PAV?$basic_streambuf@DU?$char_traits@D@std@@@1@@Z$5 100ae14c f   dll.obj
 0001:000ad154       __unwindfunclet$??0?$basic_iostream@DU?$char_traits@D@std@@@std@@QAE@PAV?$basic_streambuf@DU?$char_traits@D@std@@@1@@Z$1 100ae154 f   dll.obj
 0001:000ad15f       __ehhandler$??0?$basic_iostream@DU?$char_traits@D@std@@@std@@QAE@PAV?$basic_streambuf@DU?$char_traits@D@std@@@1@@Z 100ae15f f   dll.obj
 0001:000ad180       __unwindfunclet$??0_Locinfo@std@@QAE@PBD@Z$0 100ae180 f   dll.obj
 0001:000ad188       __unwindfunclet$??0_Locinfo@std@@QAE@PBD@Z$1 100ae188 f   dll.obj
 0001:000ad193       __unwindfunclet$??0_Locinfo@std@@QAE@PBD@Z$2 100ae193 f   dll.obj
 0001:000ad19e       __unwindfunclet$??0_Locinfo@std@@QAE@PBD@Z$3 100ae19e f   dll.obj
 0001:000ad1a9       __unwindfunclet$??0_Locinfo@std@@QAE@PBD@Z$4 100ae1a9 f   dll.obj
 0001:000ad1b4       __unwindfunclet$??0_Locinfo@std@@QAE@PBD@Z$5 100ae1b4 f   dll.obj
 0001:000ad1bf       __unwindfunclet$??0_Locinfo@std@@QAE@PBD@Z$6 100ae1bf f   dll.obj
 0001:000ad1ca       __ehhandler$??0_Locinfo@std@@QAE@PBD@Z 100ae1ca f   dll.obj
 0001:000ad1f0       __unwindfunclet$??0_System_error@std@@IAE@Verror_code@1@ABV?$basic_string@DU?$char_traits@D@std@@V?$allocator@D@2@@1@@Z$3 100ae1f0 f   dll.obj
 0001:000ad1f8       __unwindfunclet$??0_System_error@std@@IAE@Verror_code@1@ABV?$basic_string@DU?$char_traits@D@std@@V?$allocator@D@2@@1@@Z$4 100ae1f8 f   dll.obj
 0001:000ad200       __ehhandler$??0_System_error@std@@IAE@Verror_code@1@ABV?$basic_string@DU?$char_traits@D@std@@V?$allocator@D@2@@1@@Z 100ae200 f   dll.obj
 0001:000ad230       __unwindfunclet$??0failure@ios_base@std@@QAE@PBDABVerror_code@2@@Z$1 100ae230 f   dll.obj
 0001:000ad238       __ehhandler$??0failure@ios_base@std@@QAE@PBDABVerror_code@2@@Z 100ae238 f   dll.obj
 0001:000ad260       __ehhandler$??_G?$basic_iostream@DU?$char_traits@D@std@@@std@@UAEPAXI@Z 100ae260 f   dll.obj
 0001:000ad260       __ehhandler$??_G?$basic_streambuf@DU?$char_traits@D@std@@@std@@UAEPAXI@Z 100ae260 f   dll.obj
 0001:000ad260       __ehhandler$??1?$basic_filebuf@DU?$char_traits@D@std@@@std@@UAE@XZ 100ae260 f   dll.obj
 0001:000ad280       __ehhandler$??1?$ImChunkStream@UImGuiTableSettings@@@@QAE@XZ 100ae280 f   imgui.obj
 0001:000ad280       __ehhandler$??1?$ImChunkStream@UImGuiWindowSettings@@@@QAE@XZ 100ae280 f   imgui.obj
 0001:000ad280       __ehhandler$??1sentry@?$basic_istream@DU?$char_traits@D@std@@@std@@QAE@XZ 100ae280 f   dll.obj
 0001:000ad280       __ehhandler$??1ImGuiStorage@@QAE@XZ 100ae280 f   imgui.obj
 0001:000ad280       __ehhandler$??1ImGuiTextBuffer@@QAE@XZ 100ae280 f   imgui.obj
 0001:000ad280       __ehhandler$??_D?$basic_ostream@DU?$char_traits@D@std@@@std@@QAEXXZ 100ae280 f   libcpmt:cout.obj
 0001:000ad280       __ehhandler$??1?$basic_ios@DU?$char_traits@D@std@@@std@@UAE@XZ 100ae280 f   dll.obj
 0001:000ad280       __ehhandler$??1ImGuiIO@@QAE@XZ 100ae280 f   imgui.obj
 0001:000ad2a0       __ehhandler$??1_Locimp@locale@std@@MAE@XZ 100ae2a0 f   libcpmt:locale0.obj
 0001:000ad2a0       __ehhandler$??1_Init_atexit@@QAE@XZ 100ae2a0 f   libcpmt:iosptrs.obj
 0001:000ad2a0       __ehhandler$??1_Locinfo@std@@QAE@XZ 100ae2a0 f   dll.obj
 0001:000ad2c0       __ehhandler$??1?$ImVector@UImGuiStyleMod@@@@QAE@XZ 100ae2c0 f   imgui.obj
 0001:000ad2c0       __ehhandler$??1?$ImVector@PAUImDrawList@@@@QAE@XZ 100ae2c0 f   imgui.obj
 0001:000ad2c0       __ehhandler$??1locale@std@@QAE@XZ 100ae2c0 f   dll.obj
 0001:000ad2c0       __ehhandler$??1?$ImVector@PAUImGuiWindow@@@@QAE@XZ 100ae2c0 f   imgui.obj
 0001:000ad2c0       __ehhandler$??1?$ImVector@UImGuiColorMod@@@@QAE@XZ 100ae2c0 f   imgui.obj
 0001:000ad2c0       __ehhandler$??1?$ImVector@UImFontConfig@@@@QAE@XZ 100ae2c0 f   imgui_draw.obj
 0001:000ad2c0       __ehhandler$??1?$ImVector@PAUImGuiViewportP@@@@QAE@XZ 100ae2c0 f   imgui.obj
 0001:000ad2c0       __ehhandler$??1?$ImVector@E@@QAE@XZ 100ae2c0 f   imgui.obj
 0001:000ad2c0       __ehhandler$??1?$ImVector@UImFontAtlasCustomRect@@@@QAE@XZ 100ae2c0 f   imgui_draw.obj
 0001:000ad2c0       __ehhandler$??1?$ImVector@H@@QAE@XZ 100ae2c0 f   imgui.obj
 0001:000ad2c0       __ehhandler$??1?$ImVector@M@@QAE@XZ 100ae2c0 f   imgui.obj
 0001:000ad2c0       __ehhandler$??1?$ImVector@G@@QAE@XZ 100ae2c0 f   imgui.obj
 0001:000ad2c0       __ehhandler$??1?$ImVector@UImGuiPtrOrIndex@@@@QAE@XZ 100ae2c0 f   imgui.obj
 0001:000ad2c0       __ehhandler$??1?$ImVector@UImFontBuildSrcData@@@@QAE@XZ 100ae2c0 f   imgui_draw.obj
 0001:000ad2c0       __ehhandler$??1?$ImVector@UImFontBuildDstData@@@@QAE@XZ 100ae2c0 f   imgui_draw.obj
 0001:000ad2c0       __ehhandler$??1?$ImVector@UImGuiGroupData@@@@QAE@XZ 100ae2c0 f   imgui.obj
 0001:000ad2c0       __ehhandler$??1?$ImVector@D@@QAE@XZ 100ae2c0 f   imgui.obj
 0001:000ad2c0       __ehhandler$??1?$ImVector@Ustbrp_rect@@@@QAE@XZ 100ae2c0 f   imgui_draw.obj
 0001:000ad2c0       __ehhandler$??1?$ImVector@Ustbtt_packedchar@@@@QAE@XZ 100ae2c0 f   imgui_draw.obj
 0001:000ad2c0       __ehhandler$??1?$ImVector@UImDrawChannel@@@@QAE@XZ 100ae2c0 f   imgui.obj
 0001:000ad2c0       __ehhandler$??1?$ImVector@UImGuiPopupData@@@@QAE@XZ 100ae2c0 f   imgui.obj
 0001:000ad2c0       __ehhandler$??1_Sentry_base@?$basic_ostream@DU?$char_traits@D@std@@@std@@QAE@XZ 100ae2c0 f   dll.obj
 0001:000ad2c0       __ehhandler$??1?$ImVector@UImGuiOldColumns@@@@QAE@XZ 100ae2c0 f   imgui.obj
 0001:000ad2c0       __ehhandler$??1_Sentry_base@?$basic_istream@DU?$char_traits@D@std@@@std@@QAE@XZ 100ae2c0 f   dll.obj
 0001:000ad2c0       __ehhandler$??1?$ImVector@UImGuiShrinkWidthItem@@@@QAE@XZ 100ae2c0 f   imgui.obj
 0001:000ad2c0       __ehhandler$??1?$ImVector@I@@QAE@XZ 100ae2c0 f   imgui.obj
 0001:000ad2c0       __ehhandler$??1?$ImVector@PAUImFont@@@@QAE@XZ 100ae2c0 f   imgui.obj
 0001:000ad2c0       __ehhandler$??1?$ImVector@UImGuiSettingsHandler@@@@QAE@XZ 100ae2c0 f   imgui.obj
 0001:000ad2c0       __ehhandler$??1?$ImVector@UImGuiContextHook@@@@QAE@XZ 100ae2c0 f   imgui.obj
 0001:000ad2e0       __ehhandler$??_GPlayerHurtListener@MISC@FEATURES@@UAEPAXI@Z 100ae2e0 f   EventListeners.obj
 0001:000ad2e0       __ehhandler$??_GBulletImpactListener@MISC@FEATURES@@UAEPAXI@Z 100ae2e0 f   EventListeners.obj
 0001:000ad2e0       __ehhandler$??_GItemPurchaseListener@MISC@FEATURES@@UAEPAXI@Z 100ae2e0 f   EventListeners.obj
 0001:000ad2e0       __ehhandler$??_D?$basic_fstream@DU?$char_traits@D@std@@@std@@QAEXXZ 100ae2e0 f   dll.obj
 0001:000ad2e0       __ehhandler$??_GWeaponFireListener@MISC@FEATURES@@UAEPAXI@Z 100ae2e0 f   EventListeners.obj
 0001:000ad2e0       __ehhandler$??_G?$basic_istream@DU?$char_traits@D@std@@@std@@UAEPAXI@Z 100ae2e0 f   dll.obj
 0001:000ad2e0       __ehhandler$??_G?$basic_ios@DU?$char_traits@D@std@@@std@@UAEPAXI@Z 100ae2e0 f   dll.obj
 0001:000ad2e0       __ehhandler$??_G?$basic_ostream@DU?$char_traits@D@std@@@std@@UAEPAXI@Z 100ae2e0 f   dll.obj
 0001:000ad2e0       __ehhandler$??_Gios_base@std@@UAEPAXI@Z 100ae2e0 f   dll.obj
 0001:000ad2e0       __ehhandler$??_D?$basic_stringstream@DU?$char_traits@D@std@@V?$allocator@D@2@@std@@QAEXXZ 100ae2e0 f   PPGUI_Commands.obj
 0001:000ad2e0       __ehhandler$??1?$basic_stringbuf@DU?$char_traits@D@std@@V?$allocator@D@2@@std@@UAE@XZ 100ae2e0 f   PPGUI_Commands.obj
 0001:000ad2e0       __ehhandler$??1sentry@?$basic_ostream@DU?$char_traits@D@std@@@std@@QAE@XZ 100ae2e0 f   dll.obj
 0001:000ad300       __unwindfunclet$?LoadFromFile@CLoad@@QAEPAXPBD@Z$0 100ae300 f   dll.obj
 0001:000ad30b       __unwindfunclet$?LoadFromFile@CLoad@@QAEPAXPBD@Z$2 100ae30b f   dll.obj
 0001:000ad313       __unwindfunclet$?LoadFromFile@CLoad@@QAEPAXPBD@Z$1 100ae313 f   dll.obj
 0001:000ad31b       __unwindfunclet$?LoadFromFile@CLoad@@QAEPAXPBD@Z$8 100ae31b f   dll.obj
 0001:000ad323       __unwindfunclet$?LoadFromFile@CLoad@@QAEPAXPBD@Z$7 100ae323 f   dll.obj
 0001:000ad32b       __ehhandler$?LoadFromFile@CLoad@@QAEPAXPBD@Z 100ae32b f   dll.obj
 0001:000ad350       __unwindfunclet$?_Ipfx@?$basic_istream@DU?$char_traits@D@std@@@std@@QAE_N_N@Z$2 100ae350 f   dll.obj
 0001:000ad358       __ehhandler$?_Ipfx@?$basic_istream@DU?$char_traits@D@std@@@std@@QAE_N_N@Z 100ae358 f   dll.obj
 0001:000ad380       __ehhandler$?_Osfx@?$basic_ostream@DU?$char_traits@D@std@@@std@@QAEXXZ 100ae380 f   dll.obj
 0001:000ad3a0       __unwindfunclet$?flush@?$basic_ostream@DU?$char_traits@D@std@@@std@@QAEAAV12@XZ$1 100ae3a0 f   dll.obj
 0001:000ad3a8       __unwindfunclet$?flush@?$basic_ostream@DU?$char_traits@D@std@@@std@@QAEAAV12@XZ$0 100ae3a8 f   dll.obj
 0001:000ad3b0       __ehhandler$?flush@?$basic_ostream@DU?$char_traits@D@std@@@std@@QAEAAV12@XZ 100ae3b0 f   dll.obj
 0001:000ad3d0       __unwindfunclet$?read@?$basic_istream@DU?$char_traits@D@std@@@std@@QAEAAV12@PAD_J@Z$3 100ae3d0 f   dll.obj
 0001:000ad3d8       __unwindfunclet$?read@?$basic_istream@DU?$char_traits@D@std@@@std@@QAEAAV12@PAD_J@Z$2 100ae3d8 f   dll.obj
 0001:000ad3e0       __ehhandler$?read@?$basic_istream@DU?$char_traits@D@std@@@std@@QAEAAV12@PAD_J@Z 100ae3e0 f   dll.obj
 0001:000ad400       __unwindfunclet$?uflow@?$basic_filebuf@DU?$char_traits@D@std@@@std@@MAEHXZ$0 100ae400 f   dll.obj
 0001:000ad408       __ehhandler$?uflow@?$basic_filebuf@DU?$char_traits@D@std@@@std@@MAEHXZ 100ae408 f   dll.obj
 0001:000ad430       __unwindfunclet$??R<lambda_115b1d6c016fdc4669f69dce8f4024be>@@QBE?AV?$vector@U?$pair@VVector@@H@std@@V?$allocator@U?$pair@VVector@@H@std@@@2@@std@@_N@Z$0 100ae430 f   Aimbot.obj
 0001:000ad438       __ehhandler$??R<lambda_115b1d6c016fdc4669f69dce8f4024be>@@QBE?AV?$vector@U?$pair@VVector@@H@std@@V?$allocator@U?$pair@VVector@@H@std@@@2@@std@@_N@Z 100ae438 f   Aimbot.obj
 0001:000ad460       __unwindfunclet$?Do@Aimbot@RAGEBOT@FEATURES@@QAEXPAVCUserCmd@SDK@@@Z$0 100ae460 f   Aimbot.obj
 0001:000ad46b       __ehhandler$?Do@Aimbot@RAGEBOT@FEATURES@@QAEXPAVCUserCmd@SDK@@@Z 100ae46b f   Aimbot.obj
 0001:000ad4a0       __unwindfunclet$?DoHitscan@Aimbot@RAGEBOT@FEATURES@@AAE_NPAVCBaseEntity@SDK@@ABUBacktracking_Record@23@AAVVector@@AAH@Z$3 100ae4a0 f   Aimbot.obj
 0001:000ad4a8       __unwindfunclet$?DoHitscan@Aimbot@RAGEBOT@FEATURES@@AAE_NPAVCBaseEntity@SDK@@ABUBacktracking_Record@23@AAVVector@@AAH@Z$0 100ae4a8 f   Aimbot.obj
 0001:000ad4b0       __unwindfunclet$?DoHitscan@Aimbot@RAGEBOT@FEATURES@@AAE_NPAVCBaseEntity@SDK@@ABUBacktracking_Record@23@AAVVector@@AAH@Z$5 100ae4b0 f   Aimbot.obj
 0001:000ad4b8       __unwindfunclet$?DoHitscan@Aimbot@RAGEBOT@FEATURES@@AAE_NPAVCBaseEntity@SDK@@ABUBacktracking_Record@23@AAVVector@@AAH@Z$1 100ae4b8 f   Aimbot.obj
 0001:000ad4c0       __unwindfunclet$?DoHitscan@Aimbot@RAGEBOT@FEATURES@@AAE_NPAVCBaseEntity@SDK@@ABUBacktracking_Record@23@AAVVector@@AAH@Z$2 100ae4c0 f   Aimbot.obj
 0001:000ad4c8       __ehhandler$?DoHitscan@Aimbot@RAGEBOT@FEATURES@@AAE_NPAVCBaseEntity@SDK@@ABUBacktracking_Record@23@AAVVector@@AAH@Z 100ae4c8 f   Aimbot.obj
 0001:000ad4f0       __unwindfunclet$??R<lambda_658b4d7811d43194f49751d86a719d93>@@QBE_NAAM0@Z$0 100ae4f0 f   Antiaim.obj
 0001:000ad4fb       __unwindfunclet$??R<lambda_658b4d7811d43194f49751d86a719d93>@@QBE_NAAM0@Z$1 100ae4fb f   Antiaim.obj
 0001:000ad506       __ehhandler$??R<lambda_658b4d7811d43194f49751d86a719d93>@@QBE_NAAM0@Z 100ae506 f   Antiaim.obj
 0001:000ad530       __unwindfunclet$?RandomNumber@MATH@@YAMMM@Z$1 100ae530 f   Antiaim.obj
 0001:000ad53c       __ehhandler$?RandomNumber@MATH@@YAMMM@Z 100ae53c f   Antiaim.obj
 0001:000ad560       __unwindfunclet$?CalculateDamage@Autowall@RAGEBOT@FEATURES@@QAE?AUAutowall_Return_Info@123@VVector@@0PAVCBaseEntity@SDK@@1H@Z$0 100ae560 f   Autowall.obj
 0001:000ad56c       __ehhandler$?CalculateDamage@Autowall@RAGEBOT@FEATURES@@QAE?AUAutowall_Return_Info@123@VVector@@0PAVCBaseEntity@SDK@@1H@Z 100ae56c f   Autowall.obj
 0001:000ad5a0       __unwindfunclet$?CanPenetrate@Autowall@RAGEBOT@FEATURES@@AAE_NPAVCBaseEntity@SDK@@AAUAutowall_Info@123@PAUWeapon_Info@5@@Z$1 100ae5a0 f   Autowall.obj
 0001:000ad5b9       __unwindfunclet$?CanPenetrate@Autowall@RAGEBOT@FEATURES@@AAE_NPAVCBaseEntity@SDK@@AAUAutowall_Info@123@PAUWeapon_Info@5@@Z$0 100ae5b9 f   Autowall.obj
 0001:000ad5c5       __ehhandler$?CanPenetrate@Autowall@RAGEBOT@FEATURES@@AAE_NPAVCBaseEntity@SDK@@AAUAutowall_Info@123@PAUWeapon_Info@5@@Z 100ae5c5 f   Autowall.obj
 0001:000ad5f0       __unwindfunclet$??__Ebacktracking@RAGEBOT@FEATURES@@YAXXZ$0 100ae5f0 f   Backtracking.obj
 0001:000ad5fa       __ehhandler$??__Ebacktracking@RAGEBOT@FEATURES@@YAXXZ 100ae5fa f   Backtracking.obj
 0001:000ad620       __ehhandler$??__Fbacktracking@RAGEBOT@FEATURES@@YAXXZ 100ae620 f   Backtracking.obj
 0001:000ad620       __ehhandler$??__Fweapon_fire_listener@MISC@FEATURES@@YAXXZ 100ae620 f   EventListeners.obj
 0001:000ad620       __ehhandler$??__Fbullet_impact_listener@MISC@FEATURES@@YAXXZ 100ae620 f   EventListeners.obj
 0001:000ad620       __ehhandler$??__Fplayer_hurt_listener@MISC@FEATURES@@YAXXZ 100ae620 f   EventListeners.obj
 0001:000ad620       __ehhandler$??__Fitem_purchase_listener@MISC@FEATURES@@YAXXZ 100ae620 f   EventListeners.obj
 0001:000ad640       __unwindfunclet$?ApplyRestore@CBacktracking@RAGEBOT@FEATURES@@QAEXPAVCBaseEntity@SDK@@M@Z$0 100ae640 f   Backtracking.obj
 0001:000ad64c       __ehhandler$?ApplyRestore@CBacktracking@RAGEBOT@FEATURES@@QAEXPAVCBaseEntity@SDK@@M@Z 100ae64c f   Backtracking.obj
 0001:000ad670       __unwindfunclet$?GetLerpTicks@CBacktracking@RAGEBOT@FEATURES@@SAHXZ$0 100ae670 f   Backtracking.obj
 0001:000ad67c       __unwindfunclet$?GetLerpTicks@CBacktracking@RAGEBOT@FEATURES@@SAHXZ$1 100ae67c f   Backtracking.obj
 0001:000ad688       __unwindfunclet$?GetLerpTicks@CBacktracking@RAGEBOT@FEATURES@@SAHXZ$2 100ae688 f   Backtracking.obj
 0001:000ad694       __ehhandler$?GetLerpTicks@CBacktracking@RAGEBOT@FEATURES@@SAHXZ 100ae694 f   Backtracking.obj
 0001:000ad6b0       __unwindfunclet$?GetPriorityRecords@CBacktracking@RAGEBOT@FEATURES@@QAE?AV?$vector@UBacktracking_Record@RAGEBOT@FEATURES@@V?$allocator@UBacktracking_Record@RAGEBOT@FEATURES@@@std@@@std@@PAVCBaseEntity@SDK@@@Z$0 100ae6b0 f   Backtracking.obj
 0001:000ad6bb       __unwindfunclet$?GetPriorityRecords@CBacktracking@RAGEBOT@FEATURES@@QAE?AV?$vector@UBacktracking_Record@RAGEBOT@FEATURES@@V?$allocator@UBacktracking_Record@RAGEBOT@FEATURES@@@std@@@std@@PAVCBaseEntity@SDK@@@Z$2 100ae6bb f   Backtracking.obj
 0001:000ad6c6       __ehhandler$?GetPriorityRecords@CBacktracking@RAGEBOT@FEATURES@@QAE?AV?$vector@UBacktracking_Record@RAGEBOT@FEATURES@@V?$allocator@UBacktracking_Record@RAGEBOT@FEATURES@@@std@@@std@@PAVCBaseEntity@SDK@@@Z 100ae6c6 f   Backtracking.obj
 0001:000ad6f0       __unwindfunclet$?GetValidRecords@CBacktracking@RAGEBOT@FEATURES@@QAE?AV?$vector@UBacktracking_Record@RAGEBOT@FEATURES@@V?$allocator@UBacktracking_Record@RAGEBOT@FEATURES@@@std@@@std@@PAVCBaseEntity@SDK@@@Z$0 100ae6f0 f   Backtracking.obj
 0001:000ad709       __ehhandler$?GetValidRecords@CBacktracking@RAGEBOT@FEATURES@@QAE?AV?$vector@UBacktracking_Record@RAGEBOT@FEATURES@@V?$allocator@UBacktracking_Record@RAGEBOT@FEATURES@@@std@@@std@@PAVCBaseEntity@SDK@@@Z 100ae709 f   Backtracking.obj
 0001:000ad730       __ehhandler$??$_Emplace_reallocate@AAY0N@$$CBDVCColor@@@?$vector@U?$pair@V?$basic_string@DU?$char_traits@D@std@@V?$allocator@D@2@@std@@VCColor@@@std@@V?$allocator@U?$pair@V?$basic_string@DU?$char_traits@D@std@@V?$allocator@D@2@@std@@VCColor@@@std@@@2@@std@@QAEPAU?$pair@V?$basic_string@DU?$char_traits@D@std@@V?$allocator@D@2@@std@@VCColor@@@1@QAU21@AAY0N@$$CBD$$QAVCColor@@@Z 100ae730 f   BoxESP.obj
 0001:000ad750       __unwindfunclet$?DrawBoxInfo@CBoxESP@VISUALS@FEATURES@@AAEXPAVCBaseEntity@SDK@@VCColor@@PAVVector@@_N33@Z$0 100ae750 f   BoxESP.obj
 0001:000ad75b       __unwindfunclet$?DrawBoxInfo@CBoxESP@VISUALS@FEATURES@@AAEXPAVCBaseEntity@SDK@@VCColor@@PAVVector@@_N33@Z$1 100ae75b f   BoxESP.obj
 0001:000ad766       __unwindfunclet$?DrawBoxInfo@CBoxESP@VISUALS@FEATURES@@AAEXPAVCBaseEntity@SDK@@VCColor@@PAVVector@@_N33@Z$2 100ae766 f   BoxESP.obj
 0001:000ad771       __unwindfunclet$?DrawBoxInfo@CBoxESP@VISUALS@FEATURES@@AAEXPAVCBaseEntity@SDK@@VCColor@@PAVVector@@_N33@Z$3 100ae771 f   BoxESP.obj
 0001:000ad77c       __ehhandler$?DrawBoxInfo@CBoxESP@VISUALS@FEATURES@@AAEXPAVCBaseEntity@SDK@@VCColor@@PAVVector@@_N33@Z 100ae77c f   BoxESP.obj
 0001:000ad7b0       __unwindfunclet$?DrawHealthBar@CBoxESP@VISUALS@FEATURES@@AAEXPAVCBaseEntity@SDK@@PAVVector@@H@Z$0 100ae7b0 f   BoxESP.obj
 0001:000ad7b8       __unwindfunclet$?DrawHealthBar@CBoxESP@VISUALS@FEATURES@@AAEXPAVCBaseEntity@SDK@@PAVVector@@H@Z$1 100ae7b8 f   BoxESP.obj
 0001:000ad7c0       __ehhandler$?DrawHealthBar@CBoxESP@VISUALS@FEATURES@@AAEXPAVCBaseEntity@SDK@@PAVVector@@H@Z 100ae7c0 f   BoxESP.obj
 0001:000ad7e0       __unwindfunclet$?CreateMaterial@CChams@VISUALS@FEATURES@@QAEPAVIMaterial@SDK@@_N00@Z$4 100ae7e0 f   Chams.obj
 0001:000ad7eb       __unwindfunclet$?CreateMaterial@CChams@VISUALS@FEATURES@@QAEPAVIMaterial@SDK@@_N00@Z$2 100ae7eb f   Chams.obj
 0001:000ad7f6       __unwindfunclet$?CreateMaterial@CChams@VISUALS@FEATURES@@QAEPAVIMaterial@SDK@@_N00@Z$10 100ae7f6 f   Chams.obj
 0001:000ad801       __unwindfunclet$?CreateMaterial@CChams@VISUALS@FEATURES@@QAEPAVIMaterial@SDK@@_N00@Z$11 100ae801 f   Chams.obj
 0001:000ad80c       __unwindfunclet$?CreateMaterial@CChams@VISUALS@FEATURES@@QAEPAVIMaterial@SDK@@_N00@Z$5 100ae80c f   Chams.obj
 0001:000ad818       __unwindfunclet$?CreateMaterial@CChams@VISUALS@FEATURES@@QAEPAVIMaterial@SDK@@_N00@Z$12 100ae818 f   Chams.obj
 0001:000ad824       __ehhandler$?CreateMaterial@CChams@VISUALS@FEATURES@@QAEPAVIMaterial@SDK@@_N00@Z 100ae824 f   Chams.obj
 0001:000ad850       __unwindfunclet$?DrawBacktrackPlayer@CChams@VISUALS@FEATURES@@AAEXPAVCBaseEntity@SDK@@@Z$0 100ae850 f   Chams.obj
 0001:000ad858       __ehhandler$?DrawBacktrackPlayer@CChams@VISUALS@FEATURES@@AAEXPAVCBaseEntity@SDK@@@Z 100ae858 f   Chams.obj
 0001:000ad880       __unwindfunclet$??$_Emplace_reallocate@ABULog@InGameLogger@MISC@FEATURES@@@?$vector@ULog@InGameLogger@MISC@FEATURES@@V?$allocator@ULog@InGameLogger@MISC@FEATURES@@@std@@@std@@QAEPAULog@InGameLogger@MISC@FEATURES@@QAU2345@ABU2345@@Z$3 100ae880 f   EventListeners.obj
 0001:000ad888       __ehhandler$??$_Emplace_reallocate@ABULog@InGameLogger@MISC@FEATURES@@@?$vector@ULog@InGameLogger@MISC@FEATURES@@V?$allocator@ULog@InGameLogger@MISC@FEATURES@@@std@@@std@@QAEPAULog@InGameLogger@MISC@FEATURES@@QAU2345@ABU2345@@Z 100ae888 f   EventListeners.obj
 0001:000ad8b0       __ehhandler$??$_Emplace_reallocate@ABV?$basic_string@DU?$char_traits@D@std@@V?$allocator@D@2@@std@@@?$vector@V?$basic_string@DU?$char_traits@D@std@@V?$allocator@D@2@@std@@V?$allocator@V?$basic_string@DU?$char_traits@D@std@@V?$allocator@D@2@@std@@@2@@std@@QAEPAV?$basic_string@DU?$char_traits@D@std@@V?$allocator@D@2@@1@QAV21@ABV21@@Z 100ae8b0 f   EventListeners.obj
 0001:000ad8d0       __unwindfunclet$??$emplace@ABULog@InGameLogger@MISC@FEATURES@@@?$vector@ULog@InGameLogger@MISC@FEATURES@@V?$allocator@ULog@InGameLogger@MISC@FEATURES@@@std@@@std@@QAE?AV?$_Vector_iterator@V?$_Vector_val@U?$_Simple_types@ULog@InGameLogger@MISC@FEATURES@@@std@@@std@@@1@V?$_Vector_const_iterator@V?$_Vector_val@U?$_Simple_types@ULog@InGameLogger@MISC@FEATURES@@@std@@@std@@@1@ABULog@InGameLogger@MISC@FEATURES@@@Z$2 100ae8d0 f   EventListeners.obj
 0001:000ad8d8       __unwindfunclet$??$emplace@ABULog@InGameLogger@MISC@FEATURES@@@?$vector@ULog@InGameLogger@MISC@FEATURES@@V?$allocator@ULog@InGameLogger@MISC@FEATURES@@@std@@@std@@QAE?AV?$_Vector_iterator@V?$_Vector_val@U?$_Simple_types@ULog@InGameLogger@MISC@FEATURES@@@std@@@std@@@1@V?$_Vector_const_iterator@V?$_Vector_val@U?$_Simple_types@ULog@InGameLogger@MISC@FEATURES@@@std@@@std@@@1@ABULog@InGameLogger@MISC@FEATURES@@@Z$5 100ae8d8 f   EventListeners.obj
 0001:000ad8e0       __ehhandler$??$emplace@ABULog@InGameLogger@MISC@FEATURES@@@?$vector@ULog@InGameLogger@MISC@FEATURES@@V?$allocator@ULog@InGameLogger@MISC@FEATURES@@@std@@@std@@QAE?AV?$_Vector_iterator@V?$_Vector_val@U?$_Simple_types@ULog@InGameLogger@MISC@FEATURES@@@std@@@std@@@1@V?$_Vector_const_iterator@V?$_Vector_val@U?$_Simple_types@ULog@InGameLogger@MISC@FEATURES@@@std@@@std@@@1@ABULog@InGameLogger@MISC@FEATURES@@@Z 100ae8e0 f   EventListeners.obj
 0001:000ad900       __unwindfunclet$??0?$vector@V?$basic_string@DU?$char_traits@D@std@@V?$allocator@D@2@@std@@V?$allocator@V?$basic_string@DU?$char_traits@D@std@@V?$allocator@D@2@@std@@@2@@std@@QAE@ABV01@@Z$2 100ae900 f   EventListeners.obj
 0001:000ad908       __ehhandler$??0?$vector@V?$basic_string@DU?$char_traits@D@std@@V?$allocator@D@2@@std@@V?$allocator@V?$basic_string@DU?$char_traits@D@std@@V?$allocator@D@2@@std@@@2@@std@@QAE@ABV01@@Z 100ae908 f   EventListeners.obj
 0001:000ad930       __unwindfunclet$??0Log@InGameLogger@MISC@FEATURES@@QAE@ABU0123@@Z$1 100ae930 f   EventListeners.obj
 0001:000ad938       __ehhandler$??0Log@InGameLogger@MISC@FEATURES@@QAE@ABU0123@@Z 100ae938 f   EventListeners.obj
 0001:000ad960       __unwindfunclet$??0Log@InGameLogger@MISC@FEATURES@@QAE@XZ$0 100ae960 f   EventListeners.obj
 0001:000ad968       __ehhandler$??0Log@InGameLogger@MISC@FEATURES@@QAE@XZ 100ae968 f   EventListeners.obj
 0001:000ad990       __unwindfunclet$?AddLog@InGameLogger@MISC@FEATURES@@QAEXULog@123@@Z$0 100ae990 f   EventListeners.obj
 0001:000ad998       __ehhandler$?AddLog@InGameLogger@MISC@FEATURES@@QAEXULog@123@@Z 100ae998 f   EventListeners.obj
 0001:000ad9c0       __unwindfunclet$?FireGameEvent@ItemPurchaseListener@MISC@FEATURES@@UAEXPAVIGameEvent@SDK@@@Z$0 100ae9c0 f   EventListeners.obj
 0001:000ad9cb       __ehhandler$?FireGameEvent@ItemPurchaseListener@MISC@FEATURES@@UAEXPAVIGameEvent@SDK@@@Z 100ae9cb f   EventListeners.obj
 0001:000ada00       __unwindfunclet$?FireGameEvent@PlayerHurtListener@MISC@FEATURES@@UAEXPAVIGameEvent@SDK@@@Z$0 100aea00 f   EventListeners.obj
 0001:000ada0b       __unwindfunclet$?FireGameEvent@PlayerHurtListener@MISC@FEATURES@@UAEXPAVIGameEvent@SDK@@@Z$11 100aea0b f   EventListeners.obj
 0001:000ada13       __ehhandler$?FireGameEvent@PlayerHurtListener@MISC@FEATURES@@UAEXPAVIGameEvent@SDK@@@Z 100aea13 f   EventListeners.obj
 0001:000ada40       __unwindfunclet$?InitializeEventListeners@MISC@FEATURES@@YAXXZ$0 100aea40 f   EventListeners.obj
 0001:000ada48       __unwindfunclet$?InitializeEventListeners@MISC@FEATURES@@YAXXZ$1 100aea48 f   EventListeners.obj
 0001:000ada50       __unwindfunclet$?InitializeEventListeners@MISC@FEATURES@@YAXXZ$2 100aea50 f   EventListeners.obj
 0001:000ada58       __unwindfunclet$?InitializeEventListeners@MISC@FEATURES@@YAXXZ$3 100aea58 f   EventListeners.obj
 0001:000ada60       __ehhandler$?InitializeEventListeners@MISC@FEATURES@@YAXXZ 100aea60 f   EventListeners.obj
 0001:000ada90       __unwindfunclet$?PushBack@ColorLine@MISC@FEATURES@@QAEXV?$basic_string@DU?$char_traits@D@std@@V?$allocator@D@2@@std@@VCColor@@@Z$0 100aea90 f   EventListeners.obj
 0001:000ada90       __unwindfunclet$?CreateF@RENDER@@YAIV?$basic_string@DU?$char_traits@D@std@@V?$allocator@D@2@@std@@HHHHH@Z$0 100aea90 f   render.obj
 0001:000ada98       __ehhandler$?PushBack@ColorLine@MISC@FEATURES@@QAEXV?$basic_string@DU?$char_traits@D@std@@V?$allocator@D@2@@std@@VCColor@@@Z 100aea98 f   EventListeners.obj
 0001:000ada98       __ehhandler$?CreateF@RENDER@@YAIV?$basic_string@DU?$char_traits@D@std@@V?$allocator@D@2@@std@@HHHHH@Z 100aea98 f   render.obj
 0001:000adac0       __unwindfunclet$?Do@InGameLogger@MISC@FEATURES@@QAEXXZ$3 100aeac0 f   InGameLogger.obj
 0001:000adac8       __unwindfunclet$?Do@InGameLogger@MISC@FEATURES@@QAEXXZ$0 100aeac8 f   InGameLogger.obj
 0001:000adad0       __ehhandler$?Do@InGameLogger@MISC@FEATURES@@QAEXXZ 100aead0 f   InGameLogger.obj
 0001:000adaf0       __unwindfunclet$??$?6U?$char_traits@D@std@@@std@@YAAAV?$basic_ostream@DU?$char_traits@D@std@@@0@AAV10@PBD@Z$3 100aeaf0 f   Misc.obj
 0001:000adaf8       __unwindfunclet$??$?6U?$char_traits@D@std@@@std@@YAAAV?$basic_ostream@DU?$char_traits@D@std@@@0@AAV10@PBD@Z$2 100aeaf8 f   Misc.obj
 0001:000adb00       __ehhandler$??$?6U?$char_traits@D@std@@@std@@YAAAV?$basic_ostream@DU?$char_traits@D@std@@@0@AAV10@PBD@Z 100aeb00 f   Misc.obj
 0001:000adb20       __ehhandler$??$_Emplace_reallocate@ABV?$vector@V?$basic_string@DU?$char_traits@D@std@@V?$allocator@D@2@@std@@V?$allocator@V?$basic_string@DU?$char_traits@D@std@@V?$allocator@D@2@@std@@@2@@std@@@?$vector@V?$vector@V?$basic_string@DU?$char_traits@D@std@@V?$allocator@D@2@@std@@V?$allocator@V?$basic_string@DU?$char_traits@D@std@@V?$allocator@D@2@@std@@@2@@std@@V?$allocator@V?$vector@V?$basic_string@DU?$char_traits@D@std@@V?$allocator@D@2@@std@@V?$allocator@V?$basic_string@DU?$char_traits@D@std@@V?$allocator@D@2@@std@@@2@@std@@@2@@std@@QAEPAV?$vector@V?$basic_string@DU?$char_traits@D@std@@V?$allocator@D@2@@std@@V?$allocator@V?$basic_string@DU?$char_traits@D@std@@V?$allocator@D@2@@std@@@2@@1@QAV21@ABV21@@Z 100aeb20 f   Misc.obj
 0001:000adb40       __ehhandler$??$_Insert_hint@AAU?$pair@$$CBHPAX@std@@PAU?$_Tree_node@U?$pair@$$CBHPAX@std@@PAX@2@@?$_Tree@V?$_Tmap_traits@HPAXU?$less@H@std@@V?$allocator@U?$pair@$$CBHPAX@std@@@2@$0A@@std@@@std@@IAE?AV?$_Tree_iterator@V?$_Tree_val@U?$_Tree_simple_types@U?$pair@$$CBHPAX@std@@@std@@@std@@@1@V?$_Tree_const_iterator@V?$_Tree_val@U?$_Tree_simple_types@U?$pair@$$CBHPAX@std@@@std@@@std@@@1@AAU?$pair@$$CBHPAX@1@PAU?$_Tree_node@U?$pair@$$CBHPAX@std@@PAX@1@@Z 100aeb40 f   Misc.obj
 0001:000adb60       __ehhandler$??$_Insert_nohint@AAU?$pair@$$CBHPAX@std@@PAU?$_Tree_node@U?$pair@$$CBHPAX@std@@PAX@2@@?$_Tree@V?$_Tmap_traits@HPAXU?$less@H@std@@V?$allocator@U?$pair@$$CBHPAX@std@@@2@$0A@@std@@@std@@IAE?AU?$pair@V?$_Tree_iterator@V?$_Tree_val@U?$_Tree_simple_types@U?$pair@$$CBHPAX@std@@@std@@@std@@@std@@_N@1@_NAAU?$pair@$$CBHPAX@1@PAU?$_Tree_node@U?$pair@$$CBHPAX@std@@PAX@1@@Z 100aeb60 f   Misc.obj
 0001:000adb80       __unwindfunclet$??$getline@DU?$char_traits@D@std@@V?$allocator@D@2@@std@@YAAAV?$basic_istream@DU?$char_traits@D@std@@@0@$$QAV10@AAV?$basic_string@DU?$char_traits@D@std@@V?$allocator@D@2@@0@D@Z$3 100aeb80 f   Misc.obj
 0001:000adb88       __unwindfunclet$??$getline@DU?$char_traits@D@std@@V?$allocator@D@2@@std@@YAAAV?$basic_istream@DU?$char_traits@D@std@@@0@$$QAV10@AAV?$basic_string@DU?$char_traits@D@std@@V?$allocator@D@2@@0@D@Z$2 100aeb88 f   Misc.obj
 0001:000adb90       __ehhandler$??$getline@DU?$char_traits@D@std@@V?$allocator@D@2@@std@@YAAAV?$basic_istream@DU?$char_traits@D@std@@@0@$$QAV10@AAV?$basic_string@DU?$char_traits@D@std@@V?$allocator@D@2@@0@D@Z 100aeb90 f   Misc.obj
 0001:000adbb0       __unwindfunclet$??0sentry@?$basic_ostream@DU?$char_traits@D@std@@@std@@QAE@AAV12@@Z$0 100aebb0 f   Misc.obj
 0001:000adbb8       __ehhandler$??0sentry@?$basic_ostream@DU?$char_traits@D@std@@@std@@QAE@AAV12@@Z 100aebb8 f   Misc.obj
 0001:000adbe0       __unwindfunclet$??R<lambda_7411d79f4ee59d52de45b16a5109c3cd>@@QBE?AV?$vector@V?$vector@V?$basic_string@DU?$char_traits@D@std@@V?$allocator@D@2@@std@@V?$allocator@V?$basic_string@DU?$char_traits@D@std@@V?$allocator@D@2@@std@@@2@@std@@V?$allocator@V?$vector@V?$basic_string@DU?$char_traits@D@std@@V?$allocator@D@2@@std@@V?$allocator@V?$basic_string@DU?$char_traits@D@std@@V?$allocator@D@2@@std@@@2@@std@@@2@@std@@XZ$0 100aebe0 f   Misc.obj
 0001:000adbf9       __unwindfunclet$??R<lambda_7411d79f4ee59d52de45b16a5109c3cd>@@QBE?AV?$vector@V?$vector@V?$basic_string@DU?$char_traits@D@std@@V?$allocator@D@2@@std@@V?$allocator@V?$basic_string@DU?$char_traits@D@std@@V?$allocator@D@2@@std@@@2@@std@@V?$allocator@V?$vector@V?$basic_string@DU?$char_traits@D@std@@V?$allocator@D@2@@std@@V?$allocator@V?$basic_string@DU?$char_traits@D@std@@V?$allocator@D@2@@std@@@2@@std@@@2@@std@@XZ$1 100aebf9 f   Misc.obj
 0001:000adc01       __unwindfunclet$??R<lambda_7411d79f4ee59d52de45b16a5109c3cd>@@QBE?AV?$vector@V?$vector@V?$basic_string@DU?$char_traits@D@std@@V?$allocator@D@2@@std@@V?$allocator@V?$basic_string@DU?$char_traits@D@std@@V?$allocator@D@2@@std@@@2@@std@@V?$allocator@V?$vector@V?$basic_string@DU?$char_traits@D@std@@V?$allocator@D@2@@std@@V?$allocator@V?$basic_string@DU?$char_traits@D@std@@V?$allocator@D@2@@std@@@2@@std@@@2@@std@@XZ$3 100aec01 f   Misc.obj
 0001:000adc09       __ehhandler$??R<lambda_7411d79f4ee59d52de45b16a5109c3cd>@@QBE?AV?$vector@V?$vector@V?$basic_string@DU?$char_traits@D@std@@V?$allocator@D@2@@std@@V?$allocator@V?$basic_string@DU?$char_traits@D@std@@V?$allocator@D@2@@std@@@2@@std@@V?$allocator@V?$vector@V?$basic_string@DU?$char_traits@D@std@@V?$allocator@D@2@@std@@V?$allocator@V?$basic_string@DU?$char_traits@D@std@@V?$allocator@D@2@@std@@@2@@std@@@2@@std@@XZ 100aec09 f   Misc.obj
 0001:000adc30       __unwindfunclet$??R<lambda_904ef878f4742172dfbc63f88a754c38>@@QBE?AU?$pair@V?$basic_string@DU?$char_traits@D@std@@V?$allocator@D@2@@std@@D@std@@XZ$2 100aec30 f   Misc.obj
 0001:000adc49       __ehhandler$??R<lambda_904ef878f4742172dfbc63f88a754c38>@@QBE?AU?$pair@V?$basic_string@DU?$char_traits@D@std@@V?$allocator@D@2@@std@@D@std@@XZ 100aec49 f   Misc.obj
 0001:000adc70       __unwindfunclet$??R<lambda_a6669d928a94ba27917059d5a85f90cd>@@QBE@PBD0@Z$0 100aec70 f   Misc.obj
 0001:000adc7c       __unwindfunclet$??R<lambda_a6669d928a94ba27917059d5a85f90cd>@@QBE@PBD0@Z$1 100aec7c f   Misc.obj
 0001:000adc84       __unwindfunclet$??R<lambda_a6669d928a94ba27917059d5a85f90cd>@@QBE@PBD0@Z$2 100aec84 f   Misc.obj
 0001:000adc8c       __unwindfunclet$??R<lambda_a6669d928a94ba27917059d5a85f90cd>@@QBE@PBD0@Z$3 100aec8c f   Misc.obj
 0001:000adc94       __ehhandler$??R<lambda_a6669d928a94ba27917059d5a85f90cd>@@QBE@PBD0@Z 100aec94 f   Misc.obj
 0001:000adcc0       __unwindfunclet$??R<lambda_b58585d07ca0d6147613ae0d72d6a7d6>@@QBE?AV?$vector@V?$basic_string@DU?$char_traits@D@std@@V?$allocator@D@2@@std@@V?$allocator@V?$basic_string@DU?$char_traits@D@std@@V?$allocator@D@2@@std@@@2@@std@@V?$basic_string@DU?$char_traits@D@std@@V?$allocator@D@2@@2@@Z$0 100aecc0 f   Misc.obj
 0001:000adcc8       __unwindfunclet$??R<lambda_b58585d07ca0d6147613ae0d72d6a7d6>@@QBE?AV?$vector@V?$basic_string@DU?$char_traits@D@std@@V?$allocator@D@2@@std@@V?$allocator@V?$basic_string@DU?$char_traits@D@std@@V?$allocator@D@2@@std@@@2@@std@@V?$basic_string@DU?$char_traits@D@std@@V?$allocator@D@2@@2@@Z$1 100aecc8 f   Misc.obj
 0001:000adcd0       __unwindfunclet$??R<lambda_b58585d07ca0d6147613ae0d72d6a7d6>@@QBE?AV?$vector@V?$basic_string@DU?$char_traits@D@std@@V?$allocator@D@2@@std@@V?$allocator@V?$basic_string@DU?$char_traits@D@std@@V?$allocator@D@2@@std@@@2@@std@@V?$basic_string@DU?$char_traits@D@std@@V?$allocator@D@2@@2@@Z$3 100aecd0 f   Misc.obj
 0001:000adcd8       __unwindfunclet$??R<lambda_b58585d07ca0d6147613ae0d72d6a7d6>@@QBE?AV?$vector@V?$basic_string@DU?$char_traits@D@std@@V?$allocator@D@2@@std@@V?$allocator@V?$basic_string@DU?$char_traits@D@std@@V?$allocator@D@2@@std@@@2@@std@@V?$basic_string@DU?$char_traits@D@std@@V?$allocator@D@2@@2@@Z$4 100aecd8 f   Misc.obj
 0001:000adce0       __ehhandler$??R<lambda_b58585d07ca0d6147613ae0d72d6a7d6>@@QBE?AV?$vector@V?$basic_string@DU?$char_traits@D@std@@V?$allocator@D@2@@std@@V?$allocator@V?$basic_string@DU?$char_traits@D@std@@V?$allocator@D@2@@std@@@2@@std@@V?$basic_string@DU?$char_traits@D@std@@V?$allocator@D@2@@2@@Z 100aece0 f   Misc.obj
 0001:000add10       __unwindfunclet$??R<lambda_fd5eead23b1c8bddaf702e8e75d246a3>@@QBE?AU?$pair@V?$basic_string@DU?$char_traits@D@std@@V?$allocator@D@2@@std@@D@std@@XZ$2 100aed10 f   Misc.obj
 0001:000add29       __ehhandler$??R<lambda_fd5eead23b1c8bddaf702e8e75d246a3>@@QBE?AU?$pair@V?$basic_string@DU?$char_traits@D@std@@V?$allocator@D@2@@std@@D@std@@XZ 100aed29 f   Misc.obj
 0001:000add50       __unwindfunclet$?ClantagChanger@MISC@FEATURES@@YAXXZ$2 100aed50 f   Misc.obj
 0001:000add58       __unwindfunclet$?ClantagChanger@MISC@FEATURES@@YAXXZ$1 100aed58 f   Misc.obj
 0001:000add60       __ehhandler$?ClantagChanger@MISC@FEATURES@@YAXXZ 100aed60 f   Misc.obj
 0001:000add90       __unwindfunclet$?DrawMisc@MISC@FEATURES@@YAXXZ$1 100aed90 f   Misc.obj
 0001:000add9c       __unwindfunclet$?DrawMisc@MISC@FEATURES@@YAXXZ$2 100aed9c f   Misc.obj
 0001:000adda8       __ehhandler$?DrawMisc@MISC@FEATURES@@YAXXZ 100aeda8 f   Misc.obj
 0001:000addd0       __unwindfunclet$?LoadUserConfig@MISC@FEATURES@@YAXXZ$0 100aedd0 f   Misc.obj
 0001:000adddb       __unwindfunclet$?LoadUserConfig@MISC@FEATURES@@YAXXZ$1 100aeddb f   Misc.obj
 0001:000adde6       __unwindfunclet$?LoadUserConfig@MISC@FEATURES@@YAXXZ$4 100aede6 f   Misc.obj
 0001:000addee       __unwindfunclet$?LoadUserConfig@MISC@FEATURES@@YAXXZ$3 100aedee f   Misc.obj
 0001:000addf6       __unwindfunclet$?LoadUserConfig@MISC@FEATURES@@YAXXZ$2 100aedf6 f   Misc.obj
 0001:000addfe       __ehhandler$?LoadUserConfig@MISC@FEATURES@@YAXXZ 100aedfe f   Misc.obj
 0001:000ade20       __unwindfunclet$?put@?$basic_ostream@DU?$char_traits@D@std@@@std@@QAEAAV12@D@Z$3 100aee20 f   Misc.obj
 0001:000ade28       __unwindfunclet$?put@?$basic_ostream@DU?$char_traits@D@std@@@std@@QAEAAV12@D@Z$2 100aee28 f   Misc.obj
 0001:000ade30       __ehhandler$?put@?$basic_ostream@DU?$char_traits@D@std@@@std@@QAEAAV12@D@Z 100aee30 f   Misc.obj
 0001:000ade50       __unwindfunclet$?widen@?$basic_ios@DU?$char_traits@D@std@@@std@@QBEDD@Z$0 100aee50 f   Misc.obj
 0001:000ade58       __ehhandler$?widen@?$basic_ios@DU?$char_traits@D@std@@@std@@QBEDD@Z 100aee58 f   Misc.obj
 0001:000ade80       __unwindfunclet$??$?HDU?$char_traits@D@std@@V?$allocator@D@1@@std@@YA?AV?$basic_string@DU?$char_traits@D@std@@V?$allocator@D@2@@0@QBDABV10@@Z$0 100aee80 f   Resolver.obj
 0001:000ade99       __ehhandler$??$?HDU?$char_traits@D@std@@V?$allocator@D@1@@std@@YA?AV?$basic_string@DU?$char_traits@D@std@@V?$allocator@D@2@@0@QBDABV10@@Z 100aee99 f   Resolver.obj
 0001:000adec0       __unwindfunclet$??0Log@InGameLogger@MISC@FEATURES@@QAE@V?$basic_string@DU?$char_traits@D@std@@V?$allocator@D@2@@std@@VCColor@@@Z$0 100aeec0 f   Resolver.obj
 0001:000adec8       __unwindfunclet$??0Log@InGameLogger@MISC@FEATURES@@QAE@V?$basic_string@DU?$char_traits@D@std@@V?$allocator@D@2@@std@@VCColor@@@Z$1 100aeec8 f   Resolver.obj
 0001:000aded0       __unwindfunclet$??0Log@InGameLogger@MISC@FEATURES@@QAE@V?$basic_string@DU?$char_traits@D@std@@V?$allocator@D@2@@std@@VCColor@@@Z$4 100aeed0 f   Resolver.obj
 0001:000aded8       __unwindfunclet$??0Log@InGameLogger@MISC@FEATURES@@QAE@V?$basic_string@DU?$char_traits@D@std@@V?$allocator@D@2@@std@@VCColor@@@Z$5 100aeed8 f   Resolver.obj
 0001:000adee0       __unwindfunclet$??0Log@InGameLogger@MISC@FEATURES@@QAE@V?$basic_string@DU?$char_traits@D@std@@V?$allocator@D@2@@std@@VCColor@@@Z$6 100aeee0 f   Resolver.obj
 0001:000adee8       __ehhandler$??0Log@InGameLogger@MISC@FEATURES@@QAE@V?$basic_string@DU?$char_traits@D@std@@V?$allocator@D@2@@std@@VCColor@@@Z 100aeee8 f   Resolver.obj
 0001:000adf10       __unwindfunclet$?EventCallback@Resolver@RAGEBOT@FEATURES@@QAEXPAVIGameEvent@SDK@@@Z$2 100aef10 f   Resolver.obj
 0001:000adf18       __unwindfunclet$?EventCallback@Resolver@RAGEBOT@FEATURES@@QAEXPAVIGameEvent@SDK@@@Z$0 100aef18 f   Resolver.obj
 0001:000adf20       __unwindfunclet$?EventCallback@Resolver@RAGEBOT@FEATURES@@QAEXPAVIGameEvent@SDK@@@Z$1 100aef20 f   Resolver.obj
 0001:000adf28       __ehhandler$?EventCallback@Resolver@RAGEBOT@FEATURES@@QAEXPAVIGameEvent@SDK@@@Z 100aef28 f   Resolver.obj
 0001:000adf50       __unwindfunclet$?ProcessSnapShots@Resolver@RAGEBOT@FEATURES@@AAEXXZ$0 100aef50 f   Resolver.obj
 0001:000adf58       __unwindfunclet$?ProcessSnapShots@Resolver@RAGEBOT@FEATURES@@AAEXXZ$3 100aef58 f   Resolver.obj
 0001:000adf60       __ehhandler$?ProcessSnapShots@Resolver@RAGEBOT@FEATURES@@AAEXXZ 100aef60 f   Resolver.obj
 0001:000adf90       __unwindfunclet$?ResolveYaw@Resolver@RAGEBOT@FEATURES@@AAEXPAVCBaseEntity@SDK@@@Z$0 100aef90 f   Resolver.obj
 0001:000adf98       __ehhandler$?ResolveYaw@Resolver@RAGEBOT@FEATURES@@AAEXPAVCBaseEntity@SDK@@@Z 100aef98 f   Resolver.obj
 0001:000adfc0       __unwindfunclet$?TranslateResolveRecord@Resolver@RAGEBOT@FEATURES@@QAE?AV?$basic_string@DU?$char_traits@D@std@@V?$allocator@D@2@@std@@G@Z$0 100aefc0 f   Resolver.obj
 0001:000adfc8       __unwindfunclet$?TranslateResolveRecord@Resolver@RAGEBOT@FEATURES@@QAE?AV?$basic_string@DU?$char_traits@D@std@@V?$allocator@D@2@@std@@G@Z$1 100aefc8 f   Resolver.obj
 0001:000adfd0       __unwindfunclet$?TranslateResolveRecord@Resolver@RAGEBOT@FEATURES@@QAE?AV?$basic_string@DU?$char_traits@D@std@@V?$allocator@D@2@@std@@G@Z$2 100aefd0 f   Resolver.obj
 0001:000adfd8       __unwindfunclet$?TranslateResolveRecord@Resolver@RAGEBOT@FEATURES@@QAE?AV?$basic_string@DU?$char_traits@D@std@@V?$allocator@D@2@@std@@G@Z$3 100aefd8 f   Resolver.obj
 0001:000adfe0       __unwindfunclet$?TranslateResolveRecord@Resolver@RAGEBOT@FEATURES@@QAE?AV?$basic_string@DU?$char_traits@D@std@@V?$allocator@D@2@@std@@G@Z$4 100aefe0 f   Resolver.obj
 0001:000adfe8       __unwindfunclet$?TranslateResolveRecord@Resolver@RAGEBOT@FEATURES@@QAE?AV?$basic_string@DU?$char_traits@D@std@@V?$allocator@D@2@@std@@G@Z$5 100aefe8 f   Resolver.obj
 0001:000adff0       __unwindfunclet$?TranslateResolveRecord@Resolver@RAGEBOT@FEATURES@@QAE?AV?$basic_string@DU?$char_traits@D@std@@V?$allocator@D@2@@std@@G@Z$6 100aeff0 f   Resolver.obj
 0001:000adff8       __unwindfunclet$?TranslateResolveRecord@Resolver@RAGEBOT@FEATURES@@QAE?AV?$basic_string@DU?$char_traits@D@std@@V?$allocator@D@2@@std@@G@Z$7 100aeff8 f   Resolver.obj
 0001:000ae000       __unwindfunclet$?TranslateResolveRecord@Resolver@RAGEBOT@FEATURES@@QAE?AV?$basic_string@DU?$char_traits@D@std@@V?$allocator@D@2@@std@@G@Z$8 100af000 f   Resolver.obj
 0001:000ae008       __unwindfunclet$?TranslateResolveRecord@Resolver@RAGEBOT@FEATURES@@QAE?AV?$basic_string@DU?$char_traits@D@std@@V?$allocator@D@2@@std@@G@Z$9 100af008 f   Resolver.obj
 0001:000ae010       __unwindfunclet$?TranslateResolveRecord@Resolver@RAGEBOT@FEATURES@@QAE?AV?$basic_string@DU?$char_traits@D@std@@V?$allocator@D@2@@std@@G@Z$10 100af010 f   Resolver.obj
 0001:000ae018       __unwindfunclet$?TranslateResolveRecord@Resolver@RAGEBOT@FEATURES@@QAE?AV?$basic_string@DU?$char_traits@D@std@@V?$allocator@D@2@@std@@G@Z$12 100af018 f   Resolver.obj
 0001:000ae020       __unwindfunclet$?TranslateResolveRecord@Resolver@RAGEBOT@FEATURES@@QAE?AV?$basic_string@DU?$char_traits@D@std@@V?$allocator@D@2@@std@@G@Z$13 100af020 f   Resolver.obj
 0001:000ae039       __ehhandler$?TranslateResolveRecord@Resolver@RAGEBOT@FEATURES@@QAE?AV?$basic_string@DU?$char_traits@D@std@@V?$allocator@D@2@@std@@G@Z 100af039 f   Resolver.obj
 0001:000ae060       __unwindfunclet$?UpdateResolveRecord@Resolver@RAGEBOT@FEATURES@@AAEXPAVCBaseEntity@SDK@@@Z$0 100af060 f   Resolver.obj
 0001:000ae06c       __ehhandler$?UpdateResolveRecord@Resolver@RAGEBOT@FEATURES@@AAEXPAVCBaseEntity@SDK@@@Z 100af06c f   Resolver.obj
 0001:000ae0a0       __unwindfunclet$?CreateConfig@Configuration@SETTINGS@@SA_NPBD0@Z$0 100af0a0 f   Configurations.obj
 0001:000ae0ab       __ehhandler$?CreateConfig@Configuration@SETTINGS@@SA_NPBD0@Z 100af0ab f   Configurations.obj
 0001:000ae0e0       __unwindfunclet$?Load@Configuration@SETTINGS@@QAE_NPBDI@Z$0 100af0e0 f   Configurations.obj
 0001:000ae0eb       __unwindfunclet$?Load@Configuration@SETTINGS@@QAE_NPBDI@Z$1 100af0eb f   Configurations.obj
 0001:000ae0f6       __ehhandler$?Load@Configuration@SETTINGS@@QAE_NPBDI@Z 100af0f6 f   Configurations.obj
 0001:000ae120       __unwindfunclet$?Save@Configuration@SETTINGS@@QAE_NPBDI@Z$0 100af120 f   Configurations.obj
 0001:000ae12b       __ehhandler$?Save@Configuration@SETTINGS@@QAE_NPBDI@Z 100af12b f   Configurations.obj
 0001:000ae160       __unwindfunclet$?Do@SkinChanger@MISC@FEATURES@@QAEXXZ$2 100af160 f   SkinChanger.obj
 0001:000ae16b       __ehhandler$?Do@SkinChanger@MISC@FEATURES@@QAEXXZ 100af16b f   SkinChanger.obj
 0001:000ae1a0       __unwindfunclet$?Do@VisualizeBacktrack@VISUALS@FEATURES@@QAEXXZ$0 100af1a0 f   VisualizeBacktrack.obj
 0001:000ae1a8       __ehhandler$?Do@VisualizeBacktrack@VISUALS@FEATURES@@QAEXXZ 100af1a8 f   VisualizeBacktrack.obj
 0001:000ae1d0       __unwindfunclet$?DrawGrenadePrediction@VisualsMisc@VISUALS@FEATURES@@AAEXXZ$0 100af1d0 f   VisualsMisc.obj
 0001:000ae1dc       __unwindfunclet$?DrawGrenadePrediction@VisualsMisc@VISUALS@FEATURES@@AAEXXZ$1 100af1dc f   VisualsMisc.obj
 0001:000ae1e8       __unwindfunclet$?DrawGrenadePrediction@VisualsMisc@VISUALS@FEATURES@@AAEXXZ$2 100af1e8 f   VisualsMisc.obj
 0001:000ae1f4       __ehhandler$?DrawGrenadePrediction@VisualsMisc@VISUALS@FEATURES@@AAEXXZ 100af1f4 f   VisualsMisc.obj
 0001:000ae220       __unwindfunclet$?DoFSN@WorldTextures@VISUALS@FEATURES@@QAEXXZ$0 100af220 f   World Textures.obj
 0001:000ae22c       __ehhandler$?DoFSN@WorldTextures@VISUALS@FEATURES@@QAEXXZ 100af22c f   World Textures.obj
 0001:000ae250       __unwindfunclet$??0ImGuiContext@@QAE@PAUImFontAtlas@@@Z$0 100af250 f   imgui.obj
 0001:000ae25b       __unwindfunclet$??0ImGuiContext@@QAE@PAUImFontAtlas@@@Z$1 100af25b f   imgui.obj
 0001:000ae269       __unwindfunclet$??0ImGuiContext@@QAE@PAUImFontAtlas@@@Z$2 100af269 f   imgui.obj
 0001:000ae277       __unwindfunclet$??0ImGuiContext@@QAE@PAUImFontAtlas@@@Z$3 100af277 f   imgui.obj
 0001:000ae285       __unwindfunclet$??0ImGuiContext@@QAE@PAUImFontAtlas@@@Z$4 100af285 f   imgui.obj
 0001:000ae293       __unwindfunclet$??0ImGuiContext@@QAE@PAUImFontAtlas@@@Z$5 100af293 f   imgui.obj
 0001:000ae2a1       __unwindfunclet$??0ImGuiContext@@QAE@PAUImFontAtlas@@@Z$6 100af2a1 f   imgui.obj
 0001:000ae2af       __unwindfunclet$??0ImGuiContext@@QAE@PAUImFontAtlas@@@Z$7 100af2af f   imgui.obj
 0001:000ae2bd       __unwindfunclet$??0ImGuiContext@@QAE@PAUImFontAtlas@@@Z$8 100af2bd f   imgui.obj
 0001:000ae2cb       __unwindfunclet$??0ImGuiContext@@QAE@PAUImFontAtlas@@@Z$9 100af2cb f   imgui.obj
 0001:000ae2d9       __unwindfunclet$??0ImGuiContext@@QAE@PAUImFontAtlas@@@Z$10 100af2d9 f   imgui.obj
 0001:000ae2e7       __unwindfunclet$??0ImGuiContext@@QAE@PAUImFontAtlas@@@Z$11 100af2e7 f   imgui.obj
 0001:000ae2f5       __unwindfunclet$??0ImGuiContext@@QAE@PAUImFontAtlas@@@Z$12 100af2f5 f   imgui.obj
 0001:000ae303       __unwindfunclet$??0ImGuiContext@@QAE@PAUImFontAtlas@@@Z$13 100af303 f   imgui.obj
 0001:000ae311       __unwindfunclet$??0ImGuiContext@@QAE@PAUImFontAtlas@@@Z$14 100af311 f   imgui.obj
 0001:000ae31f       __unwindfunclet$??0ImGuiContext@@QAE@PAUImFontAtlas@@@Z$15 100af31f f   imgui.obj
 0001:000ae32d       __unwindfunclet$??0ImGuiContext@@QAE@PAUImFontAtlas@@@Z$16 100af32d f   imgui.obj
 0001:000ae33b       __unwindfunclet$??0ImGuiContext@@QAE@PAUImFontAtlas@@@Z$17 100af33b f   imgui.obj
 0001:000ae349       __unwindfunclet$??0ImGuiContext@@QAE@PAUImFontAtlas@@@Z$18 100af349 f   imgui.obj
 0001:000ae357       __unwindfunclet$??0ImGuiContext@@QAE@PAUImFontAtlas@@@Z$19 100af357 f   imgui.obj
 0001:000ae365       __unwindfunclet$??0ImGuiContext@@QAE@PAUImFontAtlas@@@Z$20 100af365 f   imgui.obj
 0001:000ae373       __unwindfunclet$??0ImGuiContext@@QAE@PAUImFontAtlas@@@Z$21 100af373 f   imgui.obj
 0001:000ae381       __unwindfunclet$??0ImGuiContext@@QAE@PAUImFontAtlas@@@Z$22 100af381 f   imgui.obj
 0001:000ae38f       __unwindfunclet$??0ImGuiContext@@QAE@PAUImFontAtlas@@@Z$23 100af38f f   imgui.obj
 0001:000ae39d       __unwindfunclet$??0ImGuiContext@@QAE@PAUImFontAtlas@@@Z$24 100af39d f   imgui.obj
 0001:000ae3ab       __unwindfunclet$??0ImGuiContext@@QAE@PAUImFontAtlas@@@Z$25 100af3ab f   imgui.obj
 0001:000ae3b9       __unwindfunclet$??0ImGuiContext@@QAE@PAUImFontAtlas@@@Z$26 100af3b9 f   imgui.obj
 0001:000ae3c7       __unwindfunclet$??0ImGuiContext@@QAE@PAUImFontAtlas@@@Z$27 100af3c7 f   imgui.obj
 0001:000ae3d5       __unwindfunclet$??0ImGuiContext@@QAE@PAUImFontAtlas@@@Z$28 100af3d5 f   imgui.obj
 0001:000ae3e3       __unwindfunclet$??0ImGuiContext@@QAE@PAUImFontAtlas@@@Z$29 100af3e3 f   imgui.obj
 0001:000ae3f1       __unwindfunclet$??0ImGuiContext@@QAE@PAUImFontAtlas@@@Z$30 100af3f1 f   imgui.obj
 0001:000ae3ff       __unwindfunclet$??0ImGuiContext@@QAE@PAUImFontAtlas@@@Z$31 100af3ff f   imgui.obj
 0001:000ae40d       __unwindfunclet$??0ImGuiContext@@QAE@PAUImFontAtlas@@@Z$32 100af40d f   imgui.obj
 0001:000ae41b       __unwindfunclet$??0ImGuiContext@@QAE@PAUImFontAtlas@@@Z$33 100af41b f   imgui.obj
 0001:000ae433       __ehhandler$??0ImGuiContext@@QAE@PAUImFontAtlas@@@Z 100af433 f   imgui.obj
 0001:000ae450       __unwindfunclet$??0ImGuiWindow@@QAE@PAUImGuiContext@@PBD@Z$0 100af450 f   imgui.obj
 0001:000ae45e       __unwindfunclet$??0ImGuiWindow@@QAE@PAUImGuiContext@@PBD@Z$1 100af45e f   imgui.obj
 0001:000ae46c       __unwindfunclet$??0ImGuiWindow@@QAE@PAUImGuiContext@@PBD@Z$2 100af46c f   imgui.obj
 0001:000ae47a       __unwindfunclet$??0ImGuiWindow@@QAE@PAUImGuiContext@@PBD@Z$3 100af47a f   imgui.obj
 0001:000ae488       __unwindfunclet$??0ImGuiWindow@@QAE@PAUImGuiContext@@PBD@Z$4 100af488 f   imgui.obj
 0001:000ae496       __ehhandler$??0ImGuiWindow@@QAE@PAUImGuiContext@@PBD@Z 100af496 f   imgui.obj
 0001:000ae4c0       __ehhandler$??1?$ImPool@UImGuiTable@@@@QAE@XZ 100af4c0 f   imgui.obj
 0001:000ae4c0       __ehhandler$??1?$ImPool@UImGuiTabBar@@@@QAE@XZ 100af4c0 f   imgui.obj
 0001:000ae4e0       __ehhandler$??1ImDrawList@@QAE@XZ 100af4e0 f   imgui.obj
 0001:000ae500       __ehhandler$??1ImGuiWindowTempData@@QAE@XZ 100af500 f   imgui.obj
 0001:000ae500       __ehhandler$??1ImGuiInputTextState@@QAE@XZ 100af500 f   imgui.obj
 0001:000ae500       __ehhandler$??1ImFont@@QAE@XZ 100af500 f   imgui_draw.obj
 0001:000ae520       __ehhandler$?Clear@?$ImPool@UImGuiTabBar@@@@QAEXXZ 100af520 f   imgui.obj
 0001:000ae540       __ehhandler$?Clear@?$ImPool@UImGuiTable@@@@QAEXXZ 100af540 f   imgui.obj
 0001:000ae560       __unwindfunclet$?CreateContext@ImGui@@YAPAUImGuiContext@@PAUImFontAtlas@@@Z$0 100af560 f   imgui.obj
 0001:000ae578       __ehhandler$?CreateContext@ImGui@@YAPAUImGuiContext@@PAUImFontAtlas@@@Z 100af578 f   imgui.obj
 0001:000ae5a0       __unwindfunclet$?CreateNewWindow@@YAPAUImGuiWindow@@PBDH@Z$0 100af5a0 f   imgui.obj
 0001:000ae5b8       __ehhandler$?CreateNewWindow@@YAPAUImGuiWindow@@PBDH@Z 100af5b8 f   imgui.obj
 0001:000ae5e0       __unwindfunclet$?ImFileOpen@@YAPAU_iobuf@@PBD0@Z$0 100af5e0 f   imgui.obj
 0001:000ae5e8       __ehhandler$?ImFileOpen@@YAPAU_iobuf@@PBD0@Z 100af5e8 f   imgui.obj
 0001:000ae610       __unwindfunclet$?Initialize@ImGui@@YAXPAUImGuiContext@@@Z$0 100af610 f   imgui.obj
 0001:000ae628       __ehhandler$?Initialize@ImGui@@YAXPAUImGuiContext@@@Z 100af628 f   imgui.obj
 0001:000ae650       __unwindfunclet$??0ImFontAtlas@@QAE@XZ$0 100af650 f   imgui_draw.obj
 0001:000ae65b       __unwindfunclet$??0ImFontAtlas@@QAE@XZ$1 100af65b f   imgui_draw.obj
 0001:000ae666       __unwindfunclet$??0ImFontAtlas@@QAE@XZ$2 100af666 f   imgui_draw.obj
 0001:000ae671       __ehhandler$??0ImFontAtlas@@QAE@XZ 100af671 f   imgui_draw.obj
 0001:000ae690       __unwindfunclet$?ImFontAtlasBuildPackCustomRects@@YAXPAUImFontAtlas@@PAX@Z$0 100af690 f   imgui_draw.obj
 0001:000ae698       __ehhandler$?ImFontAtlasBuildPackCustomRects@@YAXPAUImFontAtlas@@PAX@Z 100af698 f   imgui_draw.obj
 0001:000ae6c0       __unwindfunclet$?ImFontAtlasBuildWithStbTruetype@@YA_NPAUImFontAtlas@@@Z$0 100af6c0 f   imgui_draw.obj
 0001:000ae6cb       __unwindfunclet$?ImFontAtlasBuildWithStbTruetype@@YA_NPAUImFontAtlas@@@Z$1 100af6cb f   imgui_draw.obj
 0001:000ae6d6       __unwindfunclet$?ImFontAtlasBuildWithStbTruetype@@YA_NPAUImFontAtlas@@@Z$2 100af6d6 f   imgui_draw.obj
 0001:000ae6e1       __unwindfunclet$?ImFontAtlasBuildWithStbTruetype@@YA_NPAUImFontAtlas@@@Z$3 100af6e1 f   imgui_draw.obj
 0001:000ae6ec       __ehhandler$?ImFontAtlasBuildWithStbTruetype@@YA_NPAUImFontAtlas@@@Z 100af6ec f   imgui_draw.obj
 0001:000ae720       __unwindfunclet$?TableGcCompactSettings@ImGui@@YAXXZ$0 100af720 f   imgui_tables.obj
 0001:000ae728       __ehhandler$?TableGcCompactSettings@ImGui@@YAXXZ 100af728 f   imgui_tables.obj
 0001:000ae750       __ehhandler$??$_Insert_nohint@U?$pair@$$CBIUtab_anim@@@std@@U_Not_a_node_tag@2@@?$_Tree@V?$_Tmap_traits@IUtab_anim@@U?$less@I@std@@V?$allocator@U?$pair@$$CBIUtab_anim@@@std@@@3@$0A@@std@@@std@@IAE?AU?$pair@V?$_Tree_iterator@V?$_Tree_val@U?$_Tree_simple_types@U?$pair@$$CBIUtab_anim@@@std@@@std@@@std@@@std@@_N@1@_N$$QAU?$pair@$$CBIUtab_anim@@@1@U_Not_a_node_tag@1@@Z 100af750 f   imgui_widgets.obj
 0001:000ae770       __ehhandler$??1?$_Tree@V?$_Tmap_traits@IUtab_anim@@U?$less@I@std@@V?$allocator@U?$pair@$$CBIUtab_anim@@@std@@@3@$0A@@std@@@std@@QAE@XZ 100af770 f   imgui_widgets.obj
 0001:000ae790       __unwindfunclet$?InputTextEx@ImGui@@YA_NPBD0PADHABUImVec2@@HP6AHPAUImGuiInputTextCallbackData@@@ZPAX@Z$0 100af790 f   imgui_widgets.obj
 0001:000ae798       __ehhandler$?InputTextEx@ImGui@@YA_NPBD0PADHABUImVec2@@HP6AHPAUImGuiInputTextCallbackData@@@ZPAX@Z 100af798 f   imgui_widgets.obj
 0001:000ae7c0       __unwindfunclet$?tab@ImGui@@YA_NPBD_N@Z$0 100af7c0 f   imgui_widgets.obj
 0001:000ae7cc       __ehhandler$?tab@ImGui@@YA_NPBD_N@Z 100af7cc f   imgui_widgets.obj
 0001:000ae7f0       __unwindfunclet$??R<lambda_ac2bcd9f408d054b6975ceef76fa07a9>@@QBE?AU?$pair@V?$basic_string@DU?$char_traits@D@std@@V?$allocator@D@2@@std@@D@std@@XZ$2 100af7f0 f   sounds.obj
 0001:000ae7f0       __unwindfunclet$??R<lambda_113d2a1038a9c0984f2531d6b9537186>@@QBE?AU?$pair@V?$basic_string@DU?$char_traits@D@std@@V?$allocator@D@2@@std@@D@std@@XZ$2 100af7f0 f   sounds.obj
 0001:000ae7f0       __unwindfunclet$??R<lambda_b89d977b1c6e664be5b5cd5de43189ba>@@QBE?AU?$pair@V?$basic_string@DU?$char_traits@D@std@@V?$allocator@D@2@@std@@D@std@@XZ$2 100af7f0 f   sounds.obj
 0001:000ae7f0       __unwindfunclet$??R<lambda_12a4f081ec775bf65f134e9967dcab6f>@@QBE?AU?$pair@V?$basic_string@DU?$char_traits@D@std@@V?$allocator@D@2@@std@@D@std@@XZ$2 100af7f0 f   sounds.obj
 0001:000ae809       __ehhandler$??R<lambda_ac2bcd9f408d054b6975ceef76fa07a9>@@QBE?AU?$pair@V?$basic_string@DU?$char_traits@D@std@@V?$allocator@D@2@@std@@D@std@@XZ 100af809 f   sounds.obj
 0001:000ae809       __ehhandler$??R<lambda_12a4f081ec775bf65f134e9967dcab6f>@@QBE?AU?$pair@V?$basic_string@DU?$char_traits@D@std@@V?$allocator@D@2@@std@@D@std@@XZ 100af809 f   sounds.obj
 0001:000ae809       __ehhandler$??R<lambda_113d2a1038a9c0984f2531d6b9537186>@@QBE?AU?$pair@V?$basic_string@DU?$char_traits@D@std@@V?$allocator@D@2@@std@@D@std@@XZ 100af809 f   sounds.obj
 0001:000ae809       __ehhandler$??R<lambda_b89d977b1c6e664be5b5cd5de43189ba>@@QBE?AU?$pair@V?$basic_string@DU?$char_traits@D@std@@V?$allocator@D@2@@std@@D@std@@XZ 100af809 f   sounds.obj
 0001:000ae830       __unwindfunclet$??R<lambda_1b42ed014eadee93338dfbcf771adaec>@@QBE?AU?$pair@V?$basic_string@DU?$char_traits@D@std@@V?$allocator@D@2@@std@@D@std@@XZ$2 100af830 f   sounds.obj
 0001:000ae849       __ehhandler$??R<lambda_1b42ed014eadee93338dfbcf771adaec>@@QBE?AU?$pair@V?$basic_string@DU?$char_traits@D@std@@V?$allocator@D@2@@std@@D@std@@XZ 100af849 f   sounds.obj
 0001:000ae870       __unwindfunclet$??R<lambda_3934ae6e7282b96cfd76c89236ff33c2>@@QBE?AU?$pair@V?$basic_string@DU?$char_traits@D@std@@V?$allocator@D@2@@std@@D@std@@XZ$2 100af870 f   sounds.obj
 0001:000ae889       __ehhandler$??R<lambda_3934ae6e7282b96cfd76c89236ff33c2>@@QBE?AU?$pair@V?$basic_string@DU?$char_traits@D@std@@V?$allocator@D@2@@std@@D@std@@XZ 100af889 f   sounds.obj
 0001:000ae8b0       __unwindfunclet$??R<lambda_3a2a330ef8b115903a5fa13fdc6361de>@@QBE?AU?$pair@V?$basic_string@DU?$char_traits@D@std@@V?$allocator@D@2@@std@@D@std@@XZ$2 100af8b0 f   sounds.obj
 0001:000ae8c9       __ehhandler$??R<lambda_3a2a330ef8b115903a5fa13fdc6361de>@@QBE?AU?$pair@V?$basic_string@DU?$char_traits@D@std@@V?$allocator@D@2@@std@@D@std@@XZ 100af8c9 f   sounds.obj
 0001:000ae8f0       __unwindfunclet$??R<lambda_c8436459d727ac7b7cd1ecc5aa07f0fc>@@QBE?AU?$pair@V?$basic_string@DU?$char_traits@D@std@@V?$allocator@D@2@@std@@D@std@@XZ$2 100af8f0 f   sounds.obj
 0001:000ae909       __ehhandler$??R<lambda_c8436459d727ac7b7cd1ecc5aa07f0fc>@@QBE?AU?$pair@V?$basic_string@DU?$char_traits@D@std@@V?$allocator@D@2@@std@@D@std@@XZ 100af909 f   sounds.obj
 0001:000ae930       __unwindfunclet$?BASS_PLAY_STREAM@@YAXXZ$0 100af930 f   sounds.obj
 0001:000ae938       __unwindfunclet$?BASS_PLAY_STREAM@@YAXXZ$1 100af938 f   sounds.obj
 0001:000ae940       __ehhandler$?BASS_PLAY_STREAM@@YAXXZ 100af940 f   sounds.obj
 0001:000ae970       __unwindfunclet$?playback_loop@@YAXXZ$0 100af970 f   sounds.obj
 0001:000ae97c       __unwindfunclet$?playback_loop@@YAXXZ$1 100af97c f   sounds.obj
 0001:000ae986       __unwindfunclet$?playback_loop@@YAXXZ$2 100af986 f   sounds.obj
 0001:000ae990       __unwindfunclet$?playback_loop@@YAXXZ$3 100af990 f   sounds.obj
 0001:000ae99a       __unwindfunclet$?playback_loop@@YAXXZ$4 100af99a f   sounds.obj
 0001:000ae9a4       __unwindfunclet$?playback_loop@@YAXXZ$5 100af9a4 f   sounds.obj
 0001:000ae9ae       __unwindfunclet$?playback_loop@@YAXXZ$6 100af9ae f   sounds.obj
 0001:000ae9b8       __unwindfunclet$?playback_loop@@YAXXZ$7 100af9b8 f   sounds.obj
 0001:000ae9c2       __ehhandler$?playback_loop@@YAXXZ 100af9c2 f   sounds.obj
 0001:000ae9f0       __ehhandler$??$_Emplace_reallocate@ABVPPGUI_Command_Frame@PPGUI@@@?$vector@VPPGUI_Command_Frame@PPGUI@@V?$allocator@VPPGUI_Command_Frame@PPGUI@@@std@@@std@@QAEPAVPPGUI_Command_Frame@PPGUI@@QAV23@ABV23@@Z 100af9f0 f   PPGUI.obj
 0001:000aea10       __ehhandler$??$_Insert@AAU?$pair@$$CBITPPGUI_Command_Data@PPGUI_Command_Data_Base@PPGUI@@@std@@V?$_List_unchecked_iterator@V?$_List_val@U?$_List_simple_types@U?$pair@$$CBITPPGUI_Command_Data@PPGUI_Command_Data_Base@PPGUI@@@std@@@std@@@std@@@2@@?$_Hash@V?$_Umap_traits@ITPPGUI_Command_Data@PPGUI_Command_Data_Base@PPGUI@@V?$_Uhash_compare@IU?$hash@I@std@@U?$equal_to@I@2@@std@@V?$allocator@U?$pair@$$CBITPPGUI_Command_Data@PPGUI_Command_Data_Base@PPGUI@@@std@@@5@$0A@@std@@@std@@IAE?AU?$pair@V?$_List_iterator@V?$_List_val@U?$_List_simple_types@U?$pair@$$CBITPPGUI_Command_Data@PPGUI_Command_Data_Base@PPGUI@@@std@@@std@@@std@@@std@@_N@1@AAU?$pair@$$CBITPPGUI_Command_Data@PPGUI_Command_Data_Base@PPGUI@@@1@V?$_List_unchecked_iterator@V?$_List_val@U?$_List_simple_types@U?$pair@$$CBITPPGUI_Command_Data@PPGUI_Command_Data_Base@PPGUI@@@std@@@std@@@std@@@1@@Z 100afa10 f   PPGUI.obj
 0001:000aea30       __unwindfunclet$??0PPGUI_Command_Frame@PPGUI@@QAE@PAVPPGUI_Command@1@H@Z$0 100afa30 f   PPGUI.obj
 0001:000aea3b       __ehhandler$??0PPGUI_Command_Frame@PPGUI@@QAE@PAVPPGUI_Command@1@H@Z 100afa3b f   PPGUI.obj
 0001:000aea60       __unwindfunclet$?EndFrame@PPGUI_Framework@PPGUI@@QAEXXZ$0 100afa60 f   PPGUI.obj
 0001:000aea68       __ehhandler$?EndFrame@PPGUI_Framework@PPGUI@@QAEXXZ 100afa68 f   PPGUI.obj
 0001:000aea90       __unwindfunclet$?PPGUI_BeginGroupbox@PPGUI@@YAXPBDHH_N@Z$0 100afa90 f   PPGUI.obj
 0001:000aeaa2       __unwindfunclet$?PPGUI_BeginGroupbox@PPGUI@@YAXPBDHH_N@Z$1 100afaa2 f   PPGUI.obj
 0001:000aeaaa       __ehhandler$?PPGUI_BeginGroupbox@PPGUI@@YAXPBDHH_N@Z 100afaaa f   PPGUI.obj
 0001:000aead0       __unwindfunclet$?PPGUI_BeginWindow@PPGUI@@YAXPBDVPPGUI_Vector2D@HELPERS@1@1H@Z$0 100afad0 f   PPGUI.obj
 0001:000aeae2       __unwindfunclet$?PPGUI_BeginWindow@PPGUI@@YAXPBDVPPGUI_Vector2D@HELPERS@1@1H@Z$1 100afae2 f   PPGUI.obj
 0001:000aeaea       __ehhandler$?PPGUI_BeginWindow@PPGUI@@YAXPBDVPPGUI_Vector2D@HELPERS@1@1H@Z 100afaea f   PPGUI.obj
 0001:000aeb10       __unwindfunclet$?PPGUI_Button@PPGUI@@YA_NPBD_N@Z$0 100afb10 f   PPGUI.obj
 0001:000aeb22       __ehhandler$?PPGUI_Button@PPGUI@@YA_NPBD_N@Z 100afb22 f   PPGUI.obj
 0001:000aeb40       __unwindfunclet$?PPGUI_TextInput@PPGUI@@YAPBDPBDPAD_N@Z$0 100afb40 f   PPGUI.obj
 0001:000aeb40       __unwindfunclet$?PPGUI_Checkbox@PPGUI@@YA_NPBDAA_N_N@Z$0 100afb40 f   PPGUI.obj
 0001:000aeb52       __ehhandler$?PPGUI_Checkbox@PPGUI@@YA_NPBDAA_N_N@Z 100afb52 f   PPGUI.obj
 0001:000aeb52       __ehhandler$?PPGUI_TextInput@PPGUI@@YAPBDPBDPAD_N@Z 100afb52 f   PPGUI.obj
 0001:000aeb70       __unwindfunclet$?PPGUI_ColorPicker@PPGUI@@YAXPBDAAE111_N@Z$0 100afb70 f   PPGUI.obj
 0001:000aeb82       __ehhandler$?PPGUI_ColorPicker@PPGUI@@YAXPBDAAE111_N@Z 100afb82 f   PPGUI.obj
 0001:000aeba0       __unwindfunclet$?PPGUI_Combobox@PPGUI@@YAHPBDHPAY0BAA@DAAH_N@Z$0 100afba0 f   PPGUI.obj
 0001:000aebb2       __ehhandler$?PPGUI_Combobox@PPGUI@@YAHPBDHPAY0BAA@DAAH_N@Z 100afbb2 f   PPGUI.obj
 0001:000aebd0       __unwindfunclet$?PPGUI_EndWindow@PPGUI@@YAXXZ$0 100afbd0 f   PPGUI.obj
 0001:000aebd8       __ehhandler$?PPGUI_EndWindow@PPGUI@@YAXXZ 100afbd8 f   PPGUI.obj
 0001:000aec00       __unwindfunclet$?PPGUI_Keybind@PPGUI@@YAHPBDAAH_N@Z$0 100afc00 f   PPGUI.obj
 0001:000aec12       __ehhandler$?PPGUI_Keybind@PPGUI@@YAHPBDAAH_N@Z 100afc12 f   PPGUI.obj
 0001:000aec30       __unwindfunclet$?PPGUI_MultiselectCombobox@PPGUI@@YAXPBDHPAY0BAA@DPA_N_N@Z$0 100afc30 f   PPGUI.obj
 0001:000aec42       __ehhandler$?PPGUI_MultiselectCombobox@PPGUI@@YAXPBDHPAY0BAA@DPA_N_N@Z 100afc42 f   PPGUI.obj
 0001:000aec60       __unwindfunclet$?PPGUI_Separator@PPGUI@@YAXPBD_N@Z$0 100afc60 f   PPGUI.obj
 0001:000aec72       __ehhandler$?PPGUI_Separator@PPGUI@@YAXPBD_N@Z 100afc72 f   PPGUI.obj
 0001:000aec90       __unwindfunclet$?PPGUI_Slider@PPGUI@@YAMPBD0MMAAMH_N@Z$0 100afc90 f   PPGUI.obj
 0001:000aeca2       __ehhandler$?PPGUI_Slider@PPGUI@@YAMPBD0MMAAMH_N@Z 100afca2 f   PPGUI.obj
 0001:000aecc0       __unwindfunclet$?PPGUI_Tab@PPGUI@@YAHHPAY0BAA@DAAH_N@Z$0 100afcc0 f   PPGUI.obj
 0001:000aecd2       __ehhandler$?PPGUI_Tab@PPGUI@@YAHHPAY0BAA@DAAH_N@Z 100afcd2 f   PPGUI.obj
 0001:000aecf0       __unwindfunclet$?PPGUI_ToolTip@PPGUI@@YAXPBDHVPPGUI_Vector2D@HELPERS@1@@Z$0 100afcf0 f   PPGUI.obj
 0001:000aed02       __ehhandler$?PPGUI_ToolTip@PPGUI@@YAXPBDHVPPGUI_Vector2D@HELPERS@1@@Z 100afd02 f   PPGUI.obj
 0001:000aed20       __unwindfunclet$??$use_facet@V?$numpunct@D@std@@@std@@YAABV?$numpunct@D@0@ABVlocale@0@@Z$0 100afd20 f   PPGUI_Commands.obj
 0001:000aed28       __unwindfunclet$??$use_facet@V?$numpunct@D@std@@@std@@YAABV?$numpunct@D@0@ABVlocale@0@@Z$3 100afd28 f   PPGUI_Commands.obj
 0001:000aed37       __unwindfunclet$??$use_facet@V?$numpunct@D@std@@@std@@YAABV?$numpunct@D@0@ABVlocale@0@@Z$4 100afd37 f   PPGUI_Commands.obj
 0001:000aed50       __unwindfunclet$??$use_facet@V?$numpunct@D@std@@@std@@YAABV?$numpunct@D@0@ABVlocale@0@@Z$5 100afd50 f   PPGUI_Commands.obj
 0001:000aed58       __unwindfunclet$??$use_facet@V?$numpunct@D@std@@@std@@YAABV?$numpunct@D@0@ABVlocale@0@@Z$1 100afd58 f   PPGUI_Commands.obj
 0001:000aed60       __ehhandler$??$use_facet@V?$numpunct@D@std@@@std@@YAABV?$numpunct@D@0@ABVlocale@0@@Z 100afd60 f   PPGUI_Commands.obj
 0001:000aed80       __unwindfunclet$??0PPGUI_Keybind_Command@PPGUI@@QAE@PBDAAHVPPGUI_Vector2D@HELPERS@1@2_N@Z$0 100afd80 f   PPGUI_Commands.obj
 0001:000aed80       __unwindfunclet$??0PPGUI_Separator_Command@PPGUI@@QAE@PBDVPPGUI_Vector2D@HELPERS@1@1_N@Z$0 100afd80 f   PPGUI_Commands.obj
 0001:000aed80       __unwindfunclet$??0PPGUI_Text_Input_Command@PPGUI@@QAE@PBDVPPGUI_Vector2D@HELPERS@1@1PAD_N@Z$0 100afd80 f   PPGUI_Commands.obj
 0001:000aed80       __unwindfunclet$??0PPGUI_Button_Command@PPGUI@@QAE@PBDVPPGUI_Vector2D@HELPERS@1@1_N@Z$0 100afd80 f   PPGUI_Commands.obj
 0001:000aed80       __unwindfunclet$??0PPGUI_Multiselect_Combobox_Command@PPGUI@@QAE@PBDVPPGUI_Vector2D@HELPERS@1@1PAY0BAA@DPA_NH_N@Z$0 100afd80 f   PPGUI_Commands.obj
 0001:000aed80       __unwindfunclet$??0PPGUI_Checkbox_Command@PPGUI@@QAE@PBDAA_NVPPGUI_Vector2D@HELPERS@1@2_N@Z$0 100afd80 f   PPGUI_Commands.obj
 0001:000aed80       __unwindfunclet$??0PPGUI_Color_Picker_Command@PPGUI@@QAE@PBDVPPGUI_Vector2D@HELPERS@1@1AAE222_N@Z$0 100afd80 f   PPGUI_Commands.obj
 0001:000aed80       __unwindfunclet$??0PPGUI_Groupbox_Command@PPGUI@@QAE@PBDVPPGUI_Vector2D@HELPERS@1@1_N@Z$0 100afd80 f   PPGUI_Commands.obj
 0001:000aed88       __ehhandler$??0PPGUI_Text_Input_Command@PPGUI@@QAE@PBDVPPGUI_Vector2D@HELPERS@1@1PAD_N@Z 100afd88 f   PPGUI_Commands.obj
 0001:000aed88       __ehhandler$??0PPGUI_Checkbox_Command@PPGUI@@QAE@PBDAA_NVPPGUI_Vector2D@HELPERS@1@2_N@Z 100afd88 f   PPGUI_Commands.obj
 0001:000aed88       __ehhandler$??0PPGUI_Color_Picker_Command@PPGUI@@QAE@PBDVPPGUI_Vector2D@HELPERS@1@1AAE222_N@Z 100afd88 f   PPGUI_Commands.obj
 0001:000aed88       __ehhandler$??0PPGUI_Separator_Command@PPGUI@@QAE@PBDVPPGUI_Vector2D@HELPERS@1@1_N@Z 100afd88 f   PPGUI_Commands.obj
 0001:000aed88       __ehhandler$??0PPGUI_Button_Command@PPGUI@@QAE@PBDVPPGUI_Vector2D@HELPERS@1@1_N@Z 100afd88 f   PPGUI_Commands.obj
 0001:000aed88       __ehhandler$??0PPGUI_Multiselect_Combobox_Command@PPGUI@@QAE@PBDVPPGUI_Vector2D@HELPERS@1@1PAY0BAA@DPA_NH_N@Z 100afd88 f   PPGUI_Commands.obj
 0001:000aed88       __ehhandler$??0PPGUI_Groupbox_Command@PPGUI@@QAE@PBDVPPGUI_Vector2D@HELPERS@1@1_N@Z 100afd88 f   PPGUI_Commands.obj
 0001:000aed88       __ehhandler$??0PPGUI_Keybind_Command@PPGUI@@QAE@PBDAAHVPPGUI_Vector2D@HELPERS@1@2_N@Z 100afd88 f   PPGUI_Commands.obj
 0001:000aedb0       __unwindfunclet$??0PPGUI_Combobox_Command@PPGUI@@QAE@PBDVPPGUI_Vector2D@HELPERS@1@1PAY0BAA@DHAAH_N@Z$0 100afdb0 f   PPGUI_Commands.obj
 0001:000aedb0       __unwindfunclet$??0PPGUI_Window_Command@PPGUI@@QAE@PBDVPPGUI_Vector2D@HELPERS@1@1@Z$0 100afdb0 f   PPGUI_Commands.obj
 0001:000aedb0       __unwindfunclet$??0PPGUI_Tab_Command@PPGUI@@QAE@VPPGUI_Vector2D@HELPERS@1@0AAHPAY0BAA@DH_N@Z$0 100afdb0 f   PPGUI_Commands.obj
 0001:000aedb8       __ehhandler$??0PPGUI_Tab_Command@PPGUI@@QAE@VPPGUI_Vector2D@HELPERS@1@0AAHPAY0BAA@DH_N@Z 100afdb8 f   PPGUI_Commands.obj
 0001:000aedb8       __ehhandler$??0PPGUI_Combobox_Command@PPGUI@@QAE@PBDVPPGUI_Vector2D@HELPERS@1@1PAY0BAA@DHAAH_N@Z 100afdb8 f   PPGUI_Commands.obj
 0001:000aedb8       __ehhandler$??0PPGUI_Window_Command@PPGUI@@QAE@PBDVPPGUI_Vector2D@HELPERS@1@1@Z 100afdb8 f   PPGUI_Commands.obj
 0001:000aede0       __unwindfunclet$??0PPGUI_Slider_Command@PPGUI@@QAE@PBD0MMAAMH_NVPPGUI_Vector2D@HELPERS@1@3@Z$0 100afde0 f   PPGUI_Commands.obj
 0001:000aede8       __ehhandler$??0PPGUI_Slider_Command@PPGUI@@QAE@PBD0MMAAMH_NVPPGUI_Vector2D@HELPERS@1@3@Z 100afde8 f   PPGUI_Commands.obj
 0001:000aee10       __unwindfunclet$??0PPGUI_Tool_Tip_Command@PPGUI@@QAE@PBDHVPPGUI_Vector2D@HELPERS@1@PAVPPGUI_Command@1@@Z$0 100afe10 f   PPGUI_Commands.obj
 0001:000aee18       __ehhandler$??0PPGUI_Tool_Tip_Command@PPGUI@@QAE@PBDHVPPGUI_Vector2D@HELPERS@1@PAVPPGUI_Command@1@@Z 100afe18 f   PPGUI_Commands.obj
 0001:000aee40       __unwindfunclet$??6?$basic_ostream@DU?$char_traits@D@std@@@std@@QAEAAV01@M@Z$2 100afe40 f   PPGUI_Commands.obj
 0001:000aee48       __unwindfunclet$??6?$basic_ostream@DU?$char_traits@D@std@@@std@@QAEAAV01@M@Z$3 100afe48 f   PPGUI_Commands.obj
 0001:000aee50       __unwindfunclet$??6?$basic_ostream@DU?$char_traits@D@std@@@std@@QAEAAV01@M@Z$6 100afe50 f   PPGUI_Commands.obj
 0001:000aee58       __unwindfunclet$??6?$basic_ostream@DU?$char_traits@D@std@@@std@@QAEAAV01@M@Z$9 100afe58 f   PPGUI_Commands.obj
 0001:000aee67       __unwindfunclet$??6?$basic_ostream@DU?$char_traits@D@std@@@std@@QAEAAV01@M@Z$7 100afe67 f   PPGUI_Commands.obj
 0001:000aee6f       __ehhandler$??6?$basic_ostream@DU?$char_traits@D@std@@@std@@QAEAAV01@M@Z 100afe6f f   PPGUI_Commands.obj
 0001:000aee90       __unwindfunclet$??R<lambda_07e8e09b926849ee5c09d399f814ef9d>@@QBE?AV?$basic_string@DU?$char_traits@D@std@@V?$allocator@D@2@@std@@MH@Z$2 100afe90 f   PPGUI_Commands.obj
 0001:000aeea9       __unwindfunclet$??R<lambda_07e8e09b926849ee5c09d399f814ef9d>@@QBE?AV?$basic_string@DU?$char_traits@D@std@@V?$allocator@D@2@@std@@MH@Z$3 100afea9 f   PPGUI_Commands.obj
 0001:000aeeb4       __unwindfunclet$??R<lambda_07e8e09b926849ee5c09d399f814ef9d>@@QBE?AV?$basic_string@DU?$char_traits@D@std@@V?$allocator@D@2@@std@@MH@Z$0 100afeb4 f   PPGUI_Commands.obj
 0001:000aeebf       __unwindfunclet$??R<lambda_07e8e09b926849ee5c09d399f814ef9d>@@QBE?AV?$basic_string@DU?$char_traits@D@std@@V?$allocator@D@2@@std@@MH@Z$8 100afebf f   PPGUI_Commands.obj
 0001:000aeedb       __ehhandler$??R<lambda_07e8e09b926849ee5c09d399f814ef9d>@@QBE?AV?$basic_string@DU?$char_traits@D@std@@V?$allocator@D@2@@std@@MH@Z 100afedb f   PPGUI_Commands.obj
 0001:000aef00       __unwindfunclet$?Draw@PPGUI_Window_Command@PPGUI@@UAEXXZ$1 100aff00 f   PPGUI_Commands.obj
 0001:000aef0c       __ehhandler$?Draw@PPGUI_Window_Command@PPGUI@@UAEXXZ 100aff0c f   PPGUI_Commands.obj
 0001:000aef40       __unwindfunclet$?_Fput@?$num_put@DV?$ostreambuf_iterator@DU?$char_traits@D@std@@@std@@@std@@ABA?AV?$ostreambuf_iterator@DU?$char_traits@D@std@@@2@V32@AAVios_base@2@DPBDI@Z$0 100aff40 f   PPGUI_Commands.obj
 0001:000aef48       __unwindfunclet$?_Fput@?$num_put@DV?$ostreambuf_iterator@DU?$char_traits@D@std@@@std@@@std@@ABA?AV?$ostreambuf_iterator@DU?$char_traits@D@std@@@2@V32@AAVios_base@2@DPBDI@Z$1 100aff48 f   PPGUI_Commands.obj
 0001:000aef50       __unwindfunclet$?_Fput@?$num_put@DV?$ostreambuf_iterator@DU?$char_traits@D@std@@@std@@@std@@ABA?AV?$ostreambuf_iterator@DU?$char_traits@D@std@@@2@V32@AAVios_base@2@DPBDI@Z$2 100aff50 f   PPGUI_Commands.obj
 0001:000aef58       __unwindfunclet$?_Fput@?$num_put@DV?$ostreambuf_iterator@DU?$char_traits@D@std@@@std@@@std@@ABA?AV?$ostreambuf_iterator@DU?$char_traits@D@std@@@2@V32@AAVios_base@2@DPBDI@Z$3 100aff58 f   PPGUI_Commands.obj
 0001:000aef60       __ehhandler$?_Fput@?$num_put@DV?$ostreambuf_iterator@DU?$char_traits@D@std@@@std@@@std@@ABA?AV?$ostreambuf_iterator@DU?$char_traits@D@std@@@2@V32@AAVios_base@2@DPBDI@Z 100aff60 f   PPGUI_Commands.obj
 0001:000aef90       __ehhandler$?_Init@?$numpunct@D@std@@IAEXABV_Locinfo@2@_N@Z 100aff90 f   PPGUI_Commands.obj
 0001:000aefb0       __unwindfunclet$?_Iput@?$num_put@DV?$ostreambuf_iterator@DU?$char_traits@D@std@@@std@@@std@@ABA?AV?$ostreambuf_iterator@DU?$char_traits@D@std@@@2@V32@AAVios_base@2@DPADI@Z$0 100affb0 f   PPGUI_Commands.obj
 0001:000aefb8       __unwindfunclet$?_Iput@?$num_put@DV?$ostreambuf_iterator@DU?$char_traits@D@std@@@std@@@std@@ABA?AV?$ostreambuf_iterator@DU?$char_traits@D@std@@@2@V32@AAVios_base@2@DPADI@Z$1 100affb8 f   PPGUI_Commands.obj
 0001:000aefc0       __unwindfunclet$?_Iput@?$num_put@DV?$ostreambuf_iterator@DU?$char_traits@D@std@@@std@@@std@@ABA?AV?$ostreambuf_iterator@DU?$char_traits@D@std@@@2@V32@AAVios_base@2@DPADI@Z$2 100affc0 f   PPGUI_Commands.obj
 0001:000aefc8       __unwindfunclet$?_Iput@?$num_put@DV?$ostreambuf_iterator@DU?$char_traits@D@std@@@std@@@std@@ABA?AV?$ostreambuf_iterator@DU?$char_traits@D@std@@@2@V32@AAVios_base@2@DPADI@Z$3 100affc8 f   PPGUI_Commands.obj
 0001:000aefd0       __ehhandler$?_Iput@?$num_put@DV?$ostreambuf_iterator@DU?$char_traits@D@std@@@std@@@std@@ABA?AV?$ostreambuf_iterator@DU?$char_traits@D@std@@@2@V32@AAVios_base@2@DPADI@Z 100affd0 f   PPGUI_Commands.obj
 0001:000af000       __unwindfunclet$?do_put@?$num_put@DV?$ostreambuf_iterator@DU?$char_traits@D@std@@@std@@@std@@MBE?AV?$ostreambuf_iterator@DU?$char_traits@D@std@@@2@V32@AAVios_base@2@DO@Z$0 100b0000 f   PPGUI_Commands.obj
 0001:000af000       __unwindfunclet$?do_put@?$num_put@DV?$ostreambuf_iterator@DU?$char_traits@D@std@@@std@@@std@@MBE?AV?$ostreambuf_iterator@DU?$char_traits@D@std@@@2@V32@AAVios_base@2@DN@Z$0 100b0000 f   PPGUI_Commands.obj
 0001:000af008       __ehhandler$?do_put@?$num_put@DV?$ostreambuf_iterator@DU?$char_traits@D@std@@@std@@@std@@MBE?AV?$ostreambuf_iterator@DU?$char_traits@D@std@@@2@V32@AAVios_base@2@DO@Z 100b0008 f   PPGUI_Commands.obj
 0001:000af008       __ehhandler$?do_put@?$num_put@DV?$ostreambuf_iterator@DU?$char_traits@D@std@@@std@@@std@@MBE?AV?$ostreambuf_iterator@DU?$char_traits@D@std@@@2@V32@AAVios_base@2@DN@Z 100b0008 f   PPGUI_Commands.obj
 0001:000af030       __unwindfunclet$?do_put@?$num_put@DV?$ostreambuf_iterator@DU?$char_traits@D@std@@@std@@@std@@MBE?AV?$ostreambuf_iterator@DU?$char_traits@D@std@@@2@V32@AAVios_base@2@D_N@Z$0 100b0030 f   PPGUI_Commands.obj
 0001:000af038       __unwindfunclet$?do_put@?$num_put@DV?$ostreambuf_iterator@DU?$char_traits@D@std@@@std@@@std@@MBE?AV?$ostreambuf_iterator@DU?$char_traits@D@std@@@2@V32@AAVios_base@2@D_N@Z$1 100b0038 f   PPGUI_Commands.obj
 0001:000af040       __ehhandler$?do_put@?$num_put@DV?$ostreambuf_iterator@DU?$char_traits@D@std@@@std@@@std@@MBE?AV?$ostreambuf_iterator@DU?$char_traits@D@std@@@2@V32@AAVios_base@2@D_N@Z 100b0040 f   PPGUI_Commands.obj
 0001:000af070       __unwindfunclet$??__Eppgui_command_data_base@PPGUI@@YAXXZ$2 100b0070 f   PPGUI_Defines.obj
 0001:000af07b       __unwindfunclet$??__Eppgui_command_data_base@PPGUI@@YAXXZ$3 100b007b f   PPGUI_Defines.obj
 0001:000af086       __ehhandler$??__Eppgui_command_data_base@PPGUI@@YAXXZ 100b0086 f   PPGUI_Defines.obj
 0001:000af0b0       __unwindfunclet$??$_Insert_string@DU?$char_traits@D@std@@I@std@@YAAAV?$basic_ostream@DU?$char_traits@D@std@@@0@AAV10@QBDI@Z$3 100b00b0 f   Debugger.obj
 0001:000af0b8       __unwindfunclet$??$_Insert_string@DU?$char_traits@D@std@@I@std@@YAAAV?$basic_ostream@DU?$char_traits@D@std@@@0@AAV10@QBDI@Z$2 100b00b8 f   Debugger.obj
 0001:000af0c0       __ehhandler$??$_Insert_string@DU?$char_traits@D@std@@I@std@@YAAAV?$basic_ostream@DU?$char_traits@D@std@@@0@AAV10@QBDI@Z 100b00c0 f   Debugger.obj
 0001:000af0e0       __unwindfunclet$?HookedPaintTraverse@HOOKS@@YGXH_N0@Z$0 100b00e0 f   hooks.obj
 0001:000af0e8       __ehhandler$?HookedPaintTraverse@HOOKS@@YGXH_N0@Z 100b00e8 f   hooks.obj
 0001:000af110       __unwindfunclet$?HookedSceneEnd@HOOKS@@YIXPAX0@Z$0 100b0110 f   hooks.obj
 0001:000af118       __unwindfunclet$?HookedSceneEnd@HOOKS@@YIXPAX0@Z$1 100b0118 f   hooks.obj
 0001:000af120       __ehhandler$?HookedSceneEnd@HOOKS@@YIXPAX0@Z 100b0120 f   hooks.obj
 0001:000af150       __unwindfunclet$?InitHooks@HOOKS@@YAXXZ$0 100b0150 f   hooks.obj
 0001:000af158       __unwindfunclet$?InitHooks@HOOKS@@YAXXZ$2 100b0158 f   hooks.obj
 0001:000af160       __unwindfunclet$?InitHooks@HOOKS@@YAXXZ$4 100b0160 f   hooks.obj
 0001:000af168       __unwindfunclet$?InitHooks@HOOKS@@YAXXZ$6 100b0168 f   hooks.obj
 0001:000af170       __unwindfunclet$?InitHooks@HOOKS@@YAXXZ$8 100b0170 f   hooks.obj
 0001:000af178       __unwindfunclet$?InitHooks@HOOKS@@YAXXZ$10 100b0178 f   hooks.obj
 0001:000af180       __unwindfunclet$?InitHooks@HOOKS@@YAXXZ$12 100b0180 f   hooks.obj
 0001:000af188       __ehhandler$?InitHooks@HOOKS@@YAXXZ 100b0188 f   hooks.obj
 0001:000af1b0       __unwindfunclet$?InitNetvarHooks@HOOKS@@YAXXZ$0 100b01b0 f   hooks.obj
 0001:000af1b8       __unwindfunclet$?InitNetvarHooks@HOOKS@@YAXXZ$2 100b01b8 f   hooks.obj
 0001:000af1c0       __unwindfunclet$?InitNetvarHooks@HOOKS@@YAXXZ$4 100b01c0 f   hooks.obj
 0001:000af1c8       __ehhandler$?InitNetvarHooks@HOOKS@@YAXXZ 100b01c8 f   hooks.obj
 0001:000af1f0       __unwindfunclet$??6?$basic_ostream@DU?$char_traits@D@std@@@std@@QAEAAV01@PBX@Z$4 100b01f0 f   interfaces.obj
 0001:000af1f8       __unwindfunclet$??6?$basic_ostream@DU?$char_traits@D@std@@@std@@QAEAAV01@PBX@Z$2 100b01f8 f   interfaces.obj
 0001:000af200       __unwindfunclet$??6?$basic_ostream@DU?$char_traits@D@std@@@std@@QAEAAV01@PBX@Z$3 100b0200 f   interfaces.obj
 0001:000af208       __unwindfunclet$??6?$basic_ostream@DU?$char_traits@D@std@@@std@@QAEAAV01@PBX@Z$7 100b0208 f   interfaces.obj
 0001:000af210       __unwindfunclet$??6?$basic_ostream@DU?$char_traits@D@std@@@std@@QAEAAV01@PBX@Z$10 100b0210 f   interfaces.obj
 0001:000af21f       __unwindfunclet$??6?$basic_ostream@DU?$char_traits@D@std@@@std@@QAEAAV01@PBX@Z$8 100b021f f   interfaces.obj
 0001:000af227       __ehhandler$??6?$basic_ostream@DU?$char_traits@D@std@@@std@@QAEAAV01@PBX@Z 100b0227 f   interfaces.obj
 0001:000af250       __unwindfunclet$?FindInterface@INTERFACES@@YAPAXPBD0@Z$1 100b0250 f   interfaces.obj
 0001:000af25b       __unwindfunclet$?FindInterface@INTERFACES@@YAPAXPBD0@Z$3 100b025b f   interfaces.obj
 0001:000af266       __ehhandler$?FindInterface@INTERFACES@@YAPAXPBD0@Z 100b0266 f   interfaces.obj
 0001:000af290       __unwindfunclet$?InitInterfaces@INTERFACES@@YAXXZ$0 100b0290 f   interfaces.obj
 0001:000af298       __unwindfunclet$?InitInterfaces@INTERFACES@@YAXXZ$1 100b0298 f   interfaces.obj
 0001:000af2a0       __unwindfunclet$?InitInterfaces@INTERFACES@@YAXXZ$2 100b02a0 f   interfaces.obj
 0001:000af2a8       __unwindfunclet$?InitInterfaces@INTERFACES@@YAXXZ$3 100b02a8 f   interfaces.obj
 0001:000af2b0       __unwindfunclet$?InitInterfaces@INTERFACES@@YAXXZ$4 100b02b0 f   interfaces.obj
 0001:000af2b8       __unwindfunclet$?InitInterfaces@INTERFACES@@YAXXZ$5 100b02b8 f   interfaces.obj
 0001:000af2c0       __unwindfunclet$?InitInterfaces@INTERFACES@@YAXXZ$6 100b02c0 f   interfaces.obj
 0001:000af2c8       __unwindfunclet$?InitInterfaces@INTERFACES@@YAXXZ$7 100b02c8 f   interfaces.obj
 0001:000af2d0       __unwindfunclet$?InitInterfaces@INTERFACES@@YAXXZ$8 100b02d0 f   interfaces.obj
 0001:000af2d8       __unwindfunclet$?InitInterfaces@INTERFACES@@YAXXZ$9 100b02d8 f   interfaces.obj
 0001:000af2e0       __unwindfunclet$?InitInterfaces@INTERFACES@@YAXXZ$10 100b02e0 f   interfaces.obj
 0001:000af2e8       __unwindfunclet$?InitInterfaces@INTERFACES@@YAXXZ$11 100b02e8 f   interfaces.obj
 0001:000af2f0       __unwindfunclet$?InitInterfaces@INTERFACES@@YAXXZ$12 100b02f0 f   interfaces.obj
 0001:000af2f8       __unwindfunclet$?InitInterfaces@INTERFACES@@YAXXZ$13 100b02f8 f   interfaces.obj
 0001:000af300       __unwindfunclet$?InitInterfaces@INTERFACES@@YAXXZ$14 100b0300 f   interfaces.obj
 0001:000af308       __unwindfunclet$?InitInterfaces@INTERFACES@@YAXXZ$15 100b0308 f   interfaces.obj
 0001:000af310       __unwindfunclet$?InitInterfaces@INTERFACES@@YAXXZ$16 100b0310 f   interfaces.obj
 0001:000af318       __unwindfunclet$?InitInterfaces@INTERFACES@@YAXXZ$17 100b0318 f   interfaces.obj
 0001:000af320       __unwindfunclet$?InitInterfaces@INTERFACES@@YAXXZ$18 100b0320 f   interfaces.obj
 0001:000af328       __unwindfunclet$?InitInterfaces@INTERFACES@@YAXXZ$19 100b0328 f   interfaces.obj
 0001:000af330       __unwindfunclet$?InitInterfaces@INTERFACES@@YAXXZ$20 100b0330 f   interfaces.obj
 0001:000af338       __unwindfunclet$?InitInterfaces@INTERFACES@@YAXXZ$21 100b0338 f   interfaces.obj
 0001:000af340       __unwindfunclet$?InitInterfaces@INTERFACES@@YAXXZ$22 100b0340 f   interfaces.obj
 0001:000af348       __unwindfunclet$?InitInterfaces@INTERFACES@@YAXXZ$23 100b0348 f   interfaces.obj
 0001:000af350       __unwindfunclet$?InitInterfaces@INTERFACES@@YAXXZ$24 100b0350 f   interfaces.obj
 0001:000af358       __unwindfunclet$?InitInterfaces@INTERFACES@@YAXXZ$25 100b0358 f   interfaces.obj
 0001:000af360       __unwindfunclet$?InitInterfaces@INTERFACES@@YAXXZ$26 100b0360 f   interfaces.obj
 0001:000af368       __unwindfunclet$?InitInterfaces@INTERFACES@@YAXXZ$27 100b0368 f   interfaces.obj
 0001:000af370       __unwindfunclet$?InitInterfaces@INTERFACES@@YAXXZ$28 100b0370 f   interfaces.obj
 0001:000af378       __unwindfunclet$?InitInterfaces@INTERFACES@@YAXXZ$29 100b0378 f   interfaces.obj
 0001:000af380       __unwindfunclet$?InitInterfaces@INTERFACES@@YAXXZ$30 100b0380 f   interfaces.obj
 0001:000af388       __unwindfunclet$?InitInterfaces@INTERFACES@@YAXXZ$31 100b0388 f   interfaces.obj
 0001:000af390       __unwindfunclet$?InitInterfaces@INTERFACES@@YAXXZ$32 100b0390 f   interfaces.obj
 0001:000af398       __unwindfunclet$?InitInterfaces@INTERFACES@@YAXXZ$33 100b0398 f   interfaces.obj
 0001:000af3a0       __ehhandler$?InitInterfaces@INTERFACES@@YAXXZ 100b03a0 f   interfaces.obj
 0001:000af3d0       __unwindfunclet$??0?$basic_fstream@DU?$char_traits@D@std@@@std@@QAE@XZ$0 100b03d0 f   logging.obj
 0001:000af3ec       __unwindfunclet$??0?$basic_fstream@DU?$char_traits@D@std@@@std@@QAE@XZ$4 100b03ec f   logging.obj
 0001:000af3f7       __unwindfunclet$??0?$basic_fstream@DU?$char_traits@D@std@@@std@@QAE@XZ$1 100b03f7 f   logging.obj
 0001:000af402       __ehhandler$??0?$basic_fstream@DU?$char_traits@D@std@@@std@@QAE@XZ 100b0402 f   logging.obj
 0001:000af420       __unwindfunclet$?Log@UTILS@@YAXV?$basic_string@DU?$char_traits@D@std@@V?$allocator@D@2@@std@@@Z$0 100b0420 f   logging.obj
 0001:000af428       __unwindfunclet$?Log@UTILS@@YAXV?$basic_string@DU?$char_traits@D@std@@V?$allocator@D@2@@std@@@Z$1 100b0428 f   logging.obj
 0001:000af433       __ehhandler$?Log@UTILS@@YAXV?$basic_string@DU?$char_traits@D@std@@V?$allocator@D@2@@std@@@Z 100b0433 f   logging.obj
 0001:000af460       __unwindfunclet$?open@?$basic_fstream@DU?$char_traits@D@std@@@std@@QAEXPBDHH@Z$0 100b0460 f   logging.obj
 0001:000af468       __ehhandler$?open@?$basic_fstream@DU?$char_traits@D@std@@@std@@QAEXPBDHH@Z 100b0468 f   logging.obj
 0001:000af490       __unwindfunclet$?GetOffset@CNetvarManager@UTILS@@QAEIV?$basic_string@DU?$char_traits@D@std@@V?$allocator@D@2@@std@@0@Z$0 100b0490 f   NetvarManager.obj
 0001:000af498       __unwindfunclet$?GetOffset@CNetvarManager@UTILS@@QAEIV?$basic_string@DU?$char_traits@D@std@@V?$allocator@D@2@@std@@0@Z$1 100b0498 f   NetvarManager.obj
 0001:000af4a0       __unwindfunclet$?GetOffset@CNetvarManager@UTILS@@QAEIV?$basic_string@DU?$char_traits@D@std@@V?$allocator@D@2@@std@@0@Z$2 100b04a0 f   NetvarManager.obj
 0001:000af4a8       __ehhandler$?GetOffset@CNetvarManager@UTILS@@QAEIV?$basic_string@DU?$char_traits@D@std@@V?$allocator@D@2@@std@@0@Z 100b04a8 f   NetvarManager.obj
 0001:000af4d0       __unwindfunclet$?Hook@CNetvarManager@UTILS@@QAEPAXV?$basic_string@DU?$char_traits@D@std@@V?$allocator@D@2@@std@@0P6AXPBVCRecvProxyData@SDK@@PAX2@Z@Z$0 100b04d0 f   NetvarManager.obj
 0001:000af4d8       __unwindfunclet$?Hook@CNetvarManager@UTILS@@QAEPAXV?$basic_string@DU?$char_traits@D@std@@V?$allocator@D@2@@std@@0P6AXPBVCRecvProxyData@SDK@@PAX2@Z@Z$1 100b04d8 f   NetvarManager.obj
 0001:000af4e0       __unwindfunclet$?Hook@CNetvarManager@UTILS@@QAEPAXV?$basic_string@DU?$char_traits@D@std@@V?$allocator@D@2@@std@@0P6AXPBVCRecvProxyData@SDK@@PAX2@Z@Z$2 100b04e0 f   NetvarManager.obj
 0001:000af4e8       __unwindfunclet$?Hook@CNetvarManager@UTILS@@QAEPAXV?$basic_string@DU?$char_traits@D@std@@V?$allocator@D@2@@std@@0P6AXPBVCRecvProxyData@SDK@@PAX2@Z@Z$3 100b04e8 f   NetvarManager.obj
 0001:000af4f0       __ehhandler$?Hook@CNetvarManager@UTILS@@QAEPAXV?$basic_string@DU?$char_traits@D@std@@V?$allocator@D@2@@std@@0P6AXPBVCRecvProxyData@SDK@@PAX2@Z@Z 100b04f0 f   NetvarManager.obj
 0001:000af520       __unwindfunclet$?RecursivelyFindOffset@CNetvarManager@UTILS@@AAEIPAURecvTable@SDK@@V?$basic_string@DU?$char_traits@D@std@@V?$allocator@D@2@@std@@1@Z$0 100b0520 f   NetvarManager.obj
 0001:000af528       __unwindfunclet$?RecursivelyFindOffset@CNetvarManager@UTILS@@AAEIPAURecvTable@SDK@@V?$basic_string@DU?$char_traits@D@std@@V?$allocator@D@2@@std@@1@Z$1 100b0528 f   NetvarManager.obj
 0001:000af530       __unwindfunclet$?RecursivelyFindOffset@CNetvarManager@UTILS@@AAEIPAURecvTable@SDK@@V?$basic_string@DU?$char_traits@D@std@@V?$allocator@D@2@@std@@1@Z$6 100b0530 f   NetvarManager.obj
 0001:000af538       __unwindfunclet$?RecursivelyFindOffset@CNetvarManager@UTILS@@AAEIPAURecvTable@SDK@@V?$basic_string@DU?$char_traits@D@std@@V?$allocator@D@2@@std@@1@Z$2 100b0538 f   NetvarManager.obj
 0001:000af540       __unwindfunclet$?RecursivelyFindOffset@CNetvarManager@UTILS@@AAEIPAURecvTable@SDK@@V?$basic_string@DU?$char_traits@D@std@@V?$allocator@D@2@@std@@1@Z$3 100b0540 f   NetvarManager.obj
 0001:000af548       __unwindfunclet$?RecursivelyFindOffset@CNetvarManager@UTILS@@AAEIPAURecvTable@SDK@@V?$basic_string@DU?$char_traits@D@std@@V?$allocator@D@2@@std@@1@Z$4 100b0548 f   NetvarManager.obj
 0001:000af550       __ehhandler$?RecursivelyFindOffset@CNetvarManager@UTILS@@AAEIPAURecvTable@SDK@@V?$basic_string@DU?$char_traits@D@std@@V?$allocator@D@2@@std@@1@Z 100b0550 f   NetvarManager.obj
 0001:000af580       __unwindfunclet$?InitOffsets@OFFSETS@@YAXXZ$0 100b0580 f   offsets.obj
 0001:000af588       __unwindfunclet$?InitOffsets@OFFSETS@@YAXXZ$1 100b0588 f   offsets.obj
 0001:000af593       __unwindfunclet$?InitOffsets@OFFSETS@@YAXXZ$2 100b0593 f   offsets.obj
 0001:000af59b       __unwindfunclet$?InitOffsets@OFFSETS@@YAXXZ$4 100b059b f   offsets.obj
 0001:000af5a3       __unwindfunclet$?InitOffsets@OFFSETS@@YAXXZ$5 100b05a3 f   offsets.obj
 0001:000af5ae       __unwindfunclet$?InitOffsets@OFFSETS@@YAXXZ$6 100b05ae f   offsets.obj
 0001:000af5b6       __unwindfunclet$?InitOffsets@OFFSETS@@YAXXZ$8 100b05b6 f   offsets.obj
 0001:000af5be       __unwindfunclet$?InitOffsets@OFFSETS@@YAXXZ$9 100b05be f   offsets.obj
 0001:000af5c9       __unwindfunclet$?InitOffsets@OFFSETS@@YAXXZ$10 100b05c9 f   offsets.obj
 0001:000af5d1       __unwindfunclet$?InitOffsets@OFFSETS@@YAXXZ$12 100b05d1 f   offsets.obj
 0001:000af5d9       __unwindfunclet$?InitOffsets@OFFSETS@@YAXXZ$13 100b05d9 f   offsets.obj
 0001:000af5e4       __unwindfunclet$?InitOffsets@OFFSETS@@YAXXZ$14 100b05e4 f   offsets.obj
 0001:000af5ec       __unwindfunclet$?InitOffsets@OFFSETS@@YAXXZ$16 100b05ec f   offsets.obj
 0001:000af5f4       __unwindfunclet$?InitOffsets@OFFSETS@@YAXXZ$17 100b05f4 f   offsets.obj
 0001:000af5ff       __unwindfunclet$?InitOffsets@OFFSETS@@YAXXZ$18 100b05ff f   offsets.obj
 0001:000af607       __unwindfunclet$?InitOffsets@OFFSETS@@YAXXZ$20 100b0607 f   offsets.obj
 0001:000af60f       __unwindfunclet$?InitOffsets@OFFSETS@@YAXXZ$21 100b060f f   offsets.obj
 0001:000af61a       __unwindfunclet$?InitOffsets@OFFSETS@@YAXXZ$22 100b061a f   offsets.obj
 0001:000af622       __unwindfunclet$?InitOffsets@OFFSETS@@YAXXZ$24 100b0622 f   offsets.obj
 0001:000af62a       __unwindfunclet$?InitOffsets@OFFSETS@@YAXXZ$25 100b062a f   offsets.obj
 0001:000af635       __unwindfunclet$?InitOffsets@OFFSETS@@YAXXZ$26 100b0635 f   offsets.obj
 0001:000af63d       __unwindfunclet$?InitOffsets@OFFSETS@@YAXXZ$28 100b063d f   offsets.obj
 0001:000af645       __unwindfunclet$?InitOffsets@OFFSETS@@YAXXZ$29 100b0645 f   offsets.obj
 0001:000af650       __unwindfunclet$?InitOffsets@OFFSETS@@YAXXZ$30 100b0650 f   offsets.obj
 0001:000af658       __unwindfunclet$?InitOffsets@OFFSETS@@YAXXZ$32 100b0658 f   offsets.obj
 0001:000af660       __unwindfunclet$?InitOffsets@OFFSETS@@YAXXZ$33 100b0660 f   offsets.obj
 0001:000af66b       __unwindfunclet$?InitOffsets@OFFSETS@@YAXXZ$34 100b066b f   offsets.obj
 0001:000af673       __unwindfunclet$?InitOffsets@OFFSETS@@YAXXZ$36 100b0673 f   offsets.obj
 0001:000af67b       __unwindfunclet$?InitOffsets@OFFSETS@@YAXXZ$37 100b067b f   offsets.obj
 0001:000af686       __unwindfunclet$?InitOffsets@OFFSETS@@YAXXZ$38 100b0686 f   offsets.obj
 0001:000af68e       __unwindfunclet$?InitOffsets@OFFSETS@@YAXXZ$40 100b068e f   offsets.obj
 0001:000af696       __unwindfunclet$?InitOffsets@OFFSETS@@YAXXZ$41 100b0696 f   offsets.obj
 0001:000af6a1       __unwindfunclet$?InitOffsets@OFFSETS@@YAXXZ$42 100b06a1 f   offsets.obj
 0001:000af6a9       __unwindfunclet$?InitOffsets@OFFSETS@@YAXXZ$44 100b06a9 f   offsets.obj
 0001:000af6b1       __unwindfunclet$?InitOffsets@OFFSETS@@YAXXZ$45 100b06b1 f   offsets.obj
 0001:000af6bc       __unwindfunclet$?InitOffsets@OFFSETS@@YAXXZ$46 100b06bc f   offsets.obj
 0001:000af6c4       __unwindfunclet$?InitOffsets@OFFSETS@@YAXXZ$48 100b06c4 f   offsets.obj
 0001:000af6cc       __unwindfunclet$?InitOffsets@OFFSETS@@YAXXZ$49 100b06cc f   offsets.obj
 0001:000af6d7       __unwindfunclet$?InitOffsets@OFFSETS@@YAXXZ$50 100b06d7 f   offsets.obj
 0001:000af6df       __unwindfunclet$?InitOffsets@OFFSETS@@YAXXZ$52 100b06df f   offsets.obj
 0001:000af6e7       __unwindfunclet$?InitOffsets@OFFSETS@@YAXXZ$53 100b06e7 f   offsets.obj
 0001:000af6f2       __unwindfunclet$?InitOffsets@OFFSETS@@YAXXZ$54 100b06f2 f   offsets.obj
 0001:000af6fa       __unwindfunclet$?InitOffsets@OFFSETS@@YAXXZ$56 100b06fa f   offsets.obj
 0001:000af702       __unwindfunclet$?InitOffsets@OFFSETS@@YAXXZ$57 100b0702 f   offsets.obj
 0001:000af70d       __unwindfunclet$?InitOffsets@OFFSETS@@YAXXZ$58 100b070d f   offsets.obj
 0001:000af715       __unwindfunclet$?InitOffsets@OFFSETS@@YAXXZ$60 100b0715 f   offsets.obj
 0001:000af71d       __unwindfunclet$?InitOffsets@OFFSETS@@YAXXZ$61 100b071d f   offsets.obj
 0001:000af728       __unwindfunclet$?InitOffsets@OFFSETS@@YAXXZ$62 100b0728 f   offsets.obj
 0001:000af730       __unwindfunclet$?InitOffsets@OFFSETS@@YAXXZ$64 100b0730 f   offsets.obj
 0001:000af738       __unwindfunclet$?InitOffsets@OFFSETS@@YAXXZ$65 100b0738 f   offsets.obj
 0001:000af743       __unwindfunclet$?InitOffsets@OFFSETS@@YAXXZ$66 100b0743 f   offsets.obj
 0001:000af74b       __unwindfunclet$?InitOffsets@OFFSETS@@YAXXZ$68 100b074b f   offsets.obj
 0001:000af753       __unwindfunclet$?InitOffsets@OFFSETS@@YAXXZ$69 100b0753 f   offsets.obj
 0001:000af75e       __unwindfunclet$?InitOffsets@OFFSETS@@YAXXZ$70 100b075e f   offsets.obj
 0001:000af766       __unwindfunclet$?InitOffsets@OFFSETS@@YAXXZ$72 100b0766 f   offsets.obj
 0001:000af76e       __unwindfunclet$?InitOffsets@OFFSETS@@YAXXZ$73 100b076e f   offsets.obj
 0001:000af779       __unwindfunclet$?InitOffsets@OFFSETS@@YAXXZ$74 100b0779 f   offsets.obj
 0001:000af781       __unwindfunclet$?InitOffsets@OFFSETS@@YAXXZ$76 100b0781 f   offsets.obj
 0001:000af789       __unwindfunclet$?InitOffsets@OFFSETS@@YAXXZ$77 100b0789 f   offsets.obj
 0001:000af794       __unwindfunclet$?InitOffsets@OFFSETS@@YAXXZ$78 100b0794 f   offsets.obj
 0001:000af79c       __unwindfunclet$?InitOffsets@OFFSETS@@YAXXZ$80 100b079c f   offsets.obj
 0001:000af7a4       __unwindfunclet$?InitOffsets@OFFSETS@@YAXXZ$81 100b07a4 f   offsets.obj
 0001:000af7af       __unwindfunclet$?InitOffsets@OFFSETS@@YAXXZ$82 100b07af f   offsets.obj
 0001:000af7b7       __unwindfunclet$?InitOffsets@OFFSETS@@YAXXZ$84 100b07b7 f   offsets.obj
 0001:000af7bf       __unwindfunclet$?InitOffsets@OFFSETS@@YAXXZ$85 100b07bf f   offsets.obj
 0001:000af7ca       __unwindfunclet$?InitOffsets@OFFSETS@@YAXXZ$86 100b07ca f   offsets.obj
 0001:000af7d2       __unwindfunclet$?InitOffsets@OFFSETS@@YAXXZ$88 100b07d2 f   offsets.obj
 0001:000af7da       __unwindfunclet$?InitOffsets@OFFSETS@@YAXXZ$89 100b07da f   offsets.obj
 0001:000af7e5       __unwindfunclet$?InitOffsets@OFFSETS@@YAXXZ$90 100b07e5 f   offsets.obj
 0001:000af7ed       __unwindfunclet$?InitOffsets@OFFSETS@@YAXXZ$92 100b07ed f   offsets.obj
 0001:000af7f5       __unwindfunclet$?InitOffsets@OFFSETS@@YAXXZ$93 100b07f5 f   offsets.obj
 0001:000af800       __unwindfunclet$?InitOffsets@OFFSETS@@YAXXZ$94 100b0800 f   offsets.obj
 0001:000af808       __unwindfunclet$?InitOffsets@OFFSETS@@YAXXZ$96 100b0808 f   offsets.obj
 0001:000af810       __unwindfunclet$?InitOffsets@OFFSETS@@YAXXZ$97 100b0810 f   offsets.obj
 0001:000af81b       __unwindfunclet$?InitOffsets@OFFSETS@@YAXXZ$98 100b081b f   offsets.obj
 0001:000af823       __unwindfunclet$?InitOffsets@OFFSETS@@YAXXZ$100 100b0823 f   offsets.obj
 0001:000af82b       __unwindfunclet$?InitOffsets@OFFSETS@@YAXXZ$101 100b082b f   offsets.obj
 0001:000af836       __unwindfunclet$?InitOffsets@OFFSETS@@YAXXZ$102 100b0836 f   offsets.obj
 0001:000af83e       __unwindfunclet$?InitOffsets@OFFSETS@@YAXXZ$104 100b083e f   offsets.obj
 0001:000af849       __unwindfunclet$?InitOffsets@OFFSETS@@YAXXZ$105 100b0849 f   offsets.obj
 0001:000af854       __unwindfunclet$?InitOffsets@OFFSETS@@YAXXZ$106 100b0854 f   offsets.obj
 0001:000af85c       __unwindfunclet$?InitOffsets@OFFSETS@@YAXXZ$108 100b085c f   offsets.obj
 0001:000af867       __unwindfunclet$?InitOffsets@OFFSETS@@YAXXZ$109 100b0867 f   offsets.obj
 0001:000af872       __unwindfunclet$?InitOffsets@OFFSETS@@YAXXZ$110 100b0872 f   offsets.obj
 0001:000af87d       __unwindfunclet$?InitOffsets@OFFSETS@@YAXXZ$112 100b087d f   offsets.obj
 0001:000af888       __unwindfunclet$?InitOffsets@OFFSETS@@YAXXZ$113 100b0888 f   offsets.obj
 0001:000af893       __unwindfunclet$?InitOffsets@OFFSETS@@YAXXZ$114 100b0893 f   offsets.obj
 0001:000af89e       __unwindfunclet$?InitOffsets@OFFSETS@@YAXXZ$116 100b089e f   offsets.obj
 0001:000af8a9       __unwindfunclet$?InitOffsets@OFFSETS@@YAXXZ$117 100b08a9 f   offsets.obj
 0001:000af8b4       __unwindfunclet$?InitOffsets@OFFSETS@@YAXXZ$118 100b08b4 f   offsets.obj
 0001:000af8bf       __unwindfunclet$?InitOffsets@OFFSETS@@YAXXZ$120 100b08bf f   offsets.obj
 0001:000af8ca       __unwindfunclet$?InitOffsets@OFFSETS@@YAXXZ$121 100b08ca f   offsets.obj
 0001:000af8d5       __unwindfunclet$?InitOffsets@OFFSETS@@YAXXZ$122 100b08d5 f   offsets.obj
 0001:000af8e0       __unwindfunclet$?InitOffsets@OFFSETS@@YAXXZ$124 100b08e0 f   offsets.obj
 0001:000af8eb       __unwindfunclet$?InitOffsets@OFFSETS@@YAXXZ$125 100b08eb f   offsets.obj
 0001:000af8f6       __unwindfunclet$?InitOffsets@OFFSETS@@YAXXZ$126 100b08f6 f   offsets.obj
 0001:000af901       __unwindfunclet$?InitOffsets@OFFSETS@@YAXXZ$128 100b0901 f   offsets.obj
 0001:000af90c       __unwindfunclet$?InitOffsets@OFFSETS@@YAXXZ$129 100b090c f   offsets.obj
 0001:000af917       __unwindfunclet$?InitOffsets@OFFSETS@@YAXXZ$130 100b0917 f   offsets.obj
 0001:000af922       __unwindfunclet$?InitOffsets@OFFSETS@@YAXXZ$132 100b0922 f   offsets.obj
 0001:000af92d       __unwindfunclet$?InitOffsets@OFFSETS@@YAXXZ$133 100b092d f   offsets.obj
 0001:000af938       __unwindfunclet$?InitOffsets@OFFSETS@@YAXXZ$134 100b0938 f   offsets.obj
 0001:000af943       __unwindfunclet$?InitOffsets@OFFSETS@@YAXXZ$136 100b0943 f   offsets.obj
 0001:000af94e       __unwindfunclet$?InitOffsets@OFFSETS@@YAXXZ$137 100b094e f   offsets.obj
 0001:000af959       __unwindfunclet$?InitOffsets@OFFSETS@@YAXXZ$138 100b0959 f   offsets.obj
 0001:000af964       __unwindfunclet$?InitOffsets@OFFSETS@@YAXXZ$140 100b0964 f   offsets.obj
 0001:000af96f       __unwindfunclet$?InitOffsets@OFFSETS@@YAXXZ$141 100b096f f   offsets.obj
 0001:000af97a       __unwindfunclet$?InitOffsets@OFFSETS@@YAXXZ$142 100b097a f   offsets.obj
 0001:000af985       __unwindfunclet$?InitOffsets@OFFSETS@@YAXXZ$144 100b0985 f   offsets.obj
 0001:000af990       __unwindfunclet$?InitOffsets@OFFSETS@@YAXXZ$145 100b0990 f   offsets.obj
 0001:000af99b       __unwindfunclet$?InitOffsets@OFFSETS@@YAXXZ$146 100b099b f   offsets.obj
 0001:000af9a6       __unwindfunclet$?InitOffsets@OFFSETS@@YAXXZ$148 100b09a6 f   offsets.obj
 0001:000af9b1       __unwindfunclet$?InitOffsets@OFFSETS@@YAXXZ$149 100b09b1 f   offsets.obj
 0001:000af9bc       __unwindfunclet$?InitOffsets@OFFSETS@@YAXXZ$150 100b09bc f   offsets.obj
 0001:000af9c7       __unwindfunclet$?InitOffsets@OFFSETS@@YAXXZ$152 100b09c7 f   offsets.obj
 0001:000af9d2       __unwindfunclet$?InitOffsets@OFFSETS@@YAXXZ$153 100b09d2 f   offsets.obj
 0001:000af9dd       __unwindfunclet$?InitOffsets@OFFSETS@@YAXXZ$154 100b09dd f   offsets.obj
 0001:000af9e8       __unwindfunclet$?InitOffsets@OFFSETS@@YAXXZ$156 100b09e8 f   offsets.obj
 0001:000af9f3       __unwindfunclet$?InitOffsets@OFFSETS@@YAXXZ$157 100b09f3 f   offsets.obj
 0001:000af9fe       __unwindfunclet$?InitOffsets@OFFSETS@@YAXXZ$158 100b09fe f   offsets.obj
 0001:000afa09       __unwindfunclet$?InitOffsets@OFFSETS@@YAXXZ$160 100b0a09 f   offsets.obj
 0001:000afa14       __unwindfunclet$?InitOffsets@OFFSETS@@YAXXZ$161 100b0a14 f   offsets.obj
 0001:000afa1f       __unwindfunclet$?InitOffsets@OFFSETS@@YAXXZ$162 100b0a1f f   offsets.obj
 0001:000afa2a       __unwindfunclet$?InitOffsets@OFFSETS@@YAXXZ$164 100b0a2a f   offsets.obj
 0001:000afa35       __unwindfunclet$?InitOffsets@OFFSETS@@YAXXZ$165 100b0a35 f   offsets.obj
 0001:000afa40       __unwindfunclet$?InitOffsets@OFFSETS@@YAXXZ$166 100b0a40 f   offsets.obj
 0001:000afa4b       __unwindfunclet$?InitOffsets@OFFSETS@@YAXXZ$168 100b0a4b f   offsets.obj
 0001:000afa56       __unwindfunclet$?InitOffsets@OFFSETS@@YAXXZ$169 100b0a56 f   offsets.obj
 0001:000afa61       __unwindfunclet$?InitOffsets@OFFSETS@@YAXXZ$170 100b0a61 f   offsets.obj
 0001:000afa6c       __unwindfunclet$?InitOffsets@OFFSETS@@YAXXZ$172 100b0a6c f   offsets.obj
 0001:000afa77       __unwindfunclet$?InitOffsets@OFFSETS@@YAXXZ$173 100b0a77 f   offsets.obj
 0001:000afa82       __unwindfunclet$?InitOffsets@OFFSETS@@YAXXZ$174 100b0a82 f   offsets.obj
 0001:000afa8d       __unwindfunclet$?InitOffsets@OFFSETS@@YAXXZ$176 100b0a8d f   offsets.obj
 0001:000afa98       __unwindfunclet$?InitOffsets@OFFSETS@@YAXXZ$177 100b0a98 f   offsets.obj
 0001:000afaa3       __unwindfunclet$?InitOffsets@OFFSETS@@YAXXZ$178 100b0aa3 f   offsets.obj
 0001:000afaae       __unwindfunclet$?InitOffsets@OFFSETS@@YAXXZ$180 100b0aae f   offsets.obj
 0001:000afab9       __unwindfunclet$?InitOffsets@OFFSETS@@YAXXZ$181 100b0ab9 f   offsets.obj
 0001:000afac4       __unwindfunclet$?InitOffsets@OFFSETS@@YAXXZ$182 100b0ac4 f   offsets.obj
 0001:000afacf       __ehhandler$?InitOffsets@OFFSETS@@YAXXZ 100b0acf f   offsets.obj
 0001:000afb00       __unwindfunclet$?DrawF@RENDER@@YAXHHI_N0VCColor@@V?$basic_string@DU?$char_traits@D@std@@V?$allocator@D@2@@std@@@Z$0 100b0b00 f   render.obj
 0001:000afb08       __unwindfunclet$?DrawF@RENDER@@YAXHHI_N0VCColor@@V?$basic_string@DU?$char_traits@D@std@@V?$allocator@D@2@@std@@@Z$1 100b0b08 f   render.obj
 0001:000afb10       __ehhandler$?DrawF@RENDER@@YAXHHI_N0VCColor@@V?$basic_string@DU?$char_traits@D@std@@V?$allocator@D@2@@std@@@Z 100b0b10 f   render.obj
 0001:000afb30       __unwindfunclet$?DrawFilledCircle@RENDER@@YAXHHHHVCColor@@@Z$0 100b0b30 f   render.obj
 0001:000afb38       __unwindfunclet$?DrawFilledCircle@RENDER@@YAXHHHHVCColor@@@Z$2 100b0b38 f   render.obj
 0001:000afb40       __unwindfunclet$?DrawFilledCircle@RENDER@@YAXHHHHVCColor@@@Z$3 100b0b40 f   render.obj
 0001:000afb4c       __ehhandler$?DrawFilledCircle@RENDER@@YAXHHHHVCColor@@@Z 100b0b4c f   render.obj
 0001:000afb70       __unwindfunclet$?GetTextSize@RENDER@@YA?AVVector2D@@IV?$basic_string@DU?$char_traits@D@std@@V?$allocator@D@2@@std@@@Z$0 100b0b70 f   render.obj
 0001:000afb78       __unwindfunclet$?GetTextSize@RENDER@@YA?AVVector2D@@IV?$basic_string@DU?$char_traits@D@std@@V?$allocator@D@2@@std@@@Z$1 100b0b78 f   render.obj
 0001:000afb80       __ehhandler$?GetTextSize@RENDER@@YA?AVVector2D@@IV?$basic_string@DU?$char_traits@D@std@@V?$allocator@D@2@@std@@@Z 100b0b80 f   render.obj
 0001:000afba0       __unwindfunclet$?TexturedPolygon@RENDER@@YAXHV?$vector@UVertex_t@SDK@@V?$allocator@UVertex_t@SDK@@@std@@@std@@VCColor@@@Z$0 100b0ba0 f   render.obj
 0001:000afba8       __unwindfunclet$?TexturedPolygon@RENDER@@YAXHV?$vector@UVertex_t@SDK@@V?$allocator@UVertex_t@SDK@@@std@@@std@@VCColor@@@Z$1 100b0ba8 f   render.obj
 0001:000afbb4       __ehhandler$?TexturedPolygon@RENDER@@YAXHV?$vector@UVertex_t@SDK@@V?$allocator@UVertex_t@SDK@@@std@@@std@@VCColor@@@Z 100b0bb4 f   render.obj
 0001:000afbd0       __unwindfunclet$?InitFonts@FONTS@@YAXXZ$0 100b0bd0 f   variables.obj
 0001:000afbd8       __unwindfunclet$?InitFonts@FONTS@@YAXXZ$3 100b0bd8 f   variables.obj
 0001:000afbe0       __ehhandler$?InitFonts@FONTS@@YAXXZ 100b0be0 f   variables.obj
 0001:000afc10       __ehhandler$?clear@?$_Tree@V?$_Tmap_traits@HPAXU?$less@H@std@@V?$allocator@U?$pair@$$CBHPAX@std@@@2@$0A@@std@@@std@@QAEXXZ 100b0c10 f   vmt.obj
 0001:000afc2b       __ehhandler$??1_Fac_node@std@@QAE@XZ 100b0c2b f   libcpmt:locale0.obj
 0001:000afc46       __unwindfunclet$?_Init@locale@std@@CAPAV_Locimp@12@_N@Z$0 100b0c46 f   libcpmt:locale0.obj
 0001:000afc4e       __ehhandler$?_Init@locale@std@@CAPAV_Locimp@12@_N@Z 100b0c4e f   libcpmt:locale0.obj
 0001:000afc69       __unwindfunclet$?_Locimp_dtor@_Locimp@locale@std@@CAXPAV123@@Z$0 100b0c69 f   libcpmt:locale0.obj
 0001:000afc71       __ehhandler$?_Locimp_dtor@_Locimp@locale@std@@CAXPAV123@@Z 100b0c71 f   libcpmt:locale0.obj
 0001:000afc8c       __unwindfunclet$??0?$basic_ostream@DU?$char_traits@D@std@@@std@@QAE@PAV?$basic_streambuf@DU?$char_traits@D@std@@@1@_N@Z$0 100b0c8c f   libcpmt:cout.obj
 0001:000afca8       __ehhandler$??0?$basic_ostream@DU?$char_traits@D@std@@@std@@QAE@PAV?$basic_streambuf@DU?$char_traits@D@std@@@1@_N@Z 100b0ca8 f   libcpmt:cout.obj
 0001:000afcc3       __ehhandler$??0?$basic_streambuf@DU?$char_traits@D@std@@@std@@IAE@XZ 100b0cc3 f   libcpmt:cout.obj
 0001:000afcc3       __ehhandler$?_Init@ios_base@std@@IAEXXZ 100b0cc3 f   libcpmt:cout.obj
 0001:000afcde       __ehhandler$?__scrt_initialize_thread_safe_statics_platform_specific@@YAXXZ 100b0cde f   LIBCMT:thread_safe_statics.obj
 0001:000afcf9       __ehhandler$?CallUnexpected@@YAXPBU_s_ESTypeList@@@Z 100b0cf9 f   libvcruntime:frame.obj
 0001:000afd14       __unwindfunclet$?_wcstombs_l_helper@@YAIPADPB_WIPAU__crt_locale_pointers@@@Z$0 100b0d14 f   libucrt:wcstombs.obj
 0001:000afd1c       __ehhandler$?_wcstombs_l_helper@@YAIPADPB_WIPAU__crt_locale_pointers@@@Z 100b0d1c f   libucrt:wcstombs.obj
 0001:000afd50       ??__Fbacktracking@RAGEBOT@FEATURES@@YAXXZ 100b0d50 f   Backtracking.obj
 0001:000afdb0       ??__Fbullet_impact_listener@MISC@FEATURES@@YAXXZ 100b0db0 f   EventListeners.obj
 0001:000afe10       ??__Fitem_purchase_listener@MISC@FEATURES@@YAXXZ 100b0e10 f   EventListeners.obj
 0001:000afe70       ??__Fplayer_hurt_listener@MISC@FEATURES@@YAXXZ 100b0e70 f   EventListeners.obj
 0001:000afed0       ??__Fweapon_fire_listener@MISC@FEATURES@@YAXXZ 100b0ed0 f   EventListeners.obj
 0001:000aff30       ??__Fin_game_logger@MISC@FEATURES@@YAXXZ 100b0f30 f   InGameLogger.obj
 0001:000aff40       ??__Fbullet_tracers@MISC@FEATURES@@YAXXZ 100b0f40 f   Misc.obj
 0001:000affa0       ??__Fhitmarkers@MISC@FEATURES@@YAXXZ 100b0fa0 f   Misc.obj
 0001:000b0000       ??__Fmuted@?7??DrawMisc@MISC@FEATURES@@YAXXZ@YAXXZ 100b1000 f   Misc.obj
 0001:000b0060       ??__Fradio_info@?7??DrawMisc@MISC@FEATURES@@YAXXZ@YAXXZ 100b1060 f   Misc.obj
 0001:000b00c0       ??__Fresolver@RAGEBOT@FEATURES@@YAXXZ 100b10c0 f   Resolver.obj
 0001:000b00e0       ??__Fanim@?1??tab@ImGui@@YA_NPBD_N@Z@YAXXZ 100b10e0 f   imgui_widgets.obj
 0001:000b00f0       ??__Fchannels@?1??playback_loop@@YAXXZ@YAXXZ 100b10f0 f   sounds.obj
 0001:000b0110       ??__Fmenu@PPGUI@@YAXXZ     100b1110 f   PPGUI.obj
 0001:000b0180       ??__Fppgui_command_data_base@PPGUI@@YAXXZ 100b1180 f   PPGUI_Defines.obj
 0001:000b0190       ??__Fdebugger@DEBUGGER@UTILS@@YAXXZ 100b1190 f   Debugger.obj
 0001:000b01f0       ??__Fclient_mode_hook_manager@HOOKS@@YAXXZ 100b11f0 f   hooks.obj
 0001:000b0200       ??__Ficlient_hook_manager@HOOKS@@YAXXZ 100b1200 f   hooks.obj
 0001:000b0210       ??__Fmodel_render_hook_manager@HOOKS@@YAXXZ 100b1210 f   hooks.obj
 0001:000b0220       ??__Fnet_channel_hook_manager@HOOKS@@YAXXZ 100b1220 f   hooks.obj
 0001:000b0230       ??__Fpanel_hook_manager@HOOKS@@YAXXZ 100b1230 f   hooks.obj
 0001:000b0240       ??__Frender_view_hook_manager@HOOKS@@YAXXZ 100b1240 f   hooks.obj
 0001:000b0250       ??__Fsetup_bones_hook_manager@HOOKS@@YAXXZ 100b1250 f   hooks.obj
 0001:000b0260       ??__Ftrace_hook_manager@HOOKS@@YAXXZ 100b1260 f   hooks.obj
 0001:000b0270       ??__Finput_handler@INPUT@UTILS@@YAXXZ 100b1270 f   input_handler.obj
 0001:000b02d0       ??__Frender_queue@RENDER@@YAXXZ 100b12d0 f   render.obj
 0001:000b02da       ??__Finitlocks@std@@YAXXZ  100b12da f   libcpmt:xlock.obj
 0001:000b02e4       ??__F_Fac_tidy_reg@std@@YAXXZ 100b12e4 f   libcpmt:locale0.obj
 0001:000b02ee       ??__Fclassic_locale@std@@YAXXZ 100b12ee f   libcpmt:locale0.obj
 0001:000b02f8       ??__Fcout@std@@YAXXZ       100b12f8 f   libcpmt:cout.obj
 0001:000b0302       ??__Ffout@std@@YAXXZ       100b1302 f   libcpmt:cout.obj
 0001:000b030c       ??__Finitlocks@@YAXXZ      100b130c f   libcpmt:cout.obj
 0001:000b0316       ??__Finit_atexit@@YAXXZ    100b1316 f   libcpmt:iosptrs.obj
 0001:000b0320       ??__Finitlocks@std@@YAXXZ  100b1320 f   libcpmt:iosptrs.obj
 0001:000b0330       ??__FvtMissing@@YAXXZ      100b1330 f   comsuppw:comutil.obj
 0001:000b033c       ??__Fs_defaultWaiterPool@platform@details@Concurrency@@YAXXZ 100b133c f   libconcrt:Platform.obj
 0002:00000280       ?initlocks$initializer$@std@@3P6AXXZA 100b2280     libcpmt:xlock.obj
 0002:00000284       ?initlocks$initializer$@@3P6AXXZA 100b2284     libcpmt:cout.obj
 0002:00000288       ?fout$initializer$@std@@3P6AXXZA 100b2288     libcpmt:cout.obj
 0002:0000028c       ?cout$initializer$@std@@3P6AXXZA 100b228c     libcpmt:cout.obj
 0002:00000290       ?init_cout$initializer$@std@@3P6AXXZA 100b2290     libcpmt:cout.obj
 0002:00000294       ?initlocks$initializer$@std@@3P6AXXZA 100b2294     libcpmt:iosptrs.obj
 0002:00000298       ?init_atexit$initializer$@@3P6AXXZA 100b2298     libcpmt:iosptrs.obj
 0002:0000029c       ??s_cookie$initializer$@Security@details@Concurrency@@2P6AXXZA@@3P6AXXZA 100b229c     libconcrt:staticinits.obj
 0002:000002a0       ??s_subAllocatorFreePool$initializer$@SchedulerBase@details@Concurrency@@0P6AXXZA@@3P6AXXZA 100b22a0     libconcrt:staticinits.obj
 0002:000002a4       ?_Fac_tidy_reg$initializer$@std@@3P6AXXZA 100b22a4     libcpmt:locale0.obj
 0002:000002a8       ?classic_locale$initializer$@std@@3P6AXXZA 100b22a8     libcpmt:locale0.obj
 0002:000002ac       ?aimbot$initializer$@RAGEBOT@FEATURES@@3P6AXXZA 100b22ac     Aimbot.obj
 0002:000002b0       ?backtracking$initializer$@RAGEBOT@FEATURES@@3P6AXXZA 100b22b0     Backtracking.obj
 0002:000002b4       ?item_purchase_listener$initializer$@MISC@FEATURES@@3P6AXXZA 100b22b4     EventListeners.obj
 0002:000002b8       ?player_hurt_listener$initializer$@MISC@FEATURES@@3P6AXXZA 100b22b8     EventListeners.obj
 0002:000002bc       ?bullet_impact_listener$initializer$@MISC@FEATURES@@3P6AXXZA 100b22bc     EventListeners.obj
 0002:000002c0       ?weapon_fire_listener$initializer$@MISC@FEATURES@@3P6AXXZA 100b22c0     EventListeners.obj
 0002:000002c4       ?in_game_logger$initializer$@MISC@FEATURES@@3P6AXXZA 100b22c4     InGameLogger.obj
 0002:000002c8       ?bullet_tracers$initializer$@MISC@FEATURES@@3P6AXXZA 100b22c8     Misc.obj
 0002:000002cc       ?hitmarkers$initializer$@MISC@FEATURES@@3P6AXXZA 100b22cc     Misc.obj
 0002:000002d0       ?resolver$initializer$@RAGEBOT@FEATURES@@3P6AXXZA 100b22d0     Resolver.obj
 0002:000002d4       ?skin_configs$initializer$@SETTINGS@@3P6AXXZA 100b22d4     Configurations.obj
 0002:000002d8       ?main_configs$initializer$@SETTINGS@@3P6AXXZA 100b22d8     Configurations.obj
 0002:000002dc       ?skin_changer$initializer$@MISC@FEATURES@@3P6AXXZA 100b22dc     SkinChanger.obj
 0002:000002e0       ?world_textures$initializer$@VISUALS@FEATURES@@3P6AXXZA 100b22e0     World Textures.obj
 0002:000002e4       ?FONT_ATLAS_DEFAULT_TEX_CURSOR_DATA$initializer$@@3P6AXXZA 100b22e4     imgui_draw.obj
 0002:000002e8       ?menu$initializer$@PPGUI@@3P6AXXZA 100b22e8     PPGUI.obj
 0002:000002ec       ?ppgui_colors$initializer$@PPGUI@@3P6AXXZA 100b22ec     PPGUI_Defines.obj
 0002:000002f0       ?ppgui_command_data_base$initializer$@PPGUI@@3P6AXXZA 100b22f0     PPGUI_Defines.obj
 0002:000002f4       ?debugger$initializer$@DEBUGGER@UTILS@@3P6AXXZA 100b22f4     Debugger.obj
 0002:000002f8       ?linegoesthrusmoke$initializer$@@3P6AXXZA 100b22f8     hooks.obj
 0002:000002fc       ?iclient_hook_manager$initializer$@HOOKS@@3P6AXXZA 100b22fc     hooks.obj
 0002:00000300       ?panel_hook_manager$initializer$@HOOKS@@3P6AXXZA 100b2300     hooks.obj
 0002:00000304       ?model_render_hook_manager$initializer$@HOOKS@@3P6AXXZA 100b2304     hooks.obj
 0002:00000308       ?render_view_hook_manager$initializer$@HOOKS@@3P6AXXZA 100b2308     hooks.obj
 0002:0000030c       ?trace_hook_manager$initializer$@HOOKS@@3P6AXXZA 100b230c     hooks.obj
 0002:00000310       ?net_channel_hook_manager$initializer$@HOOKS@@3P6AXXZA 100b2310     hooks.obj
 0002:00000314       ?client_mode_hook_manager$initializer$@HOOKS@@3P6AXXZA 100b2314     hooks.obj
 0002:00000318       ?setup_bones_hook_manager$initializer$@HOOKS@@3P6AXXZA 100b2318     hooks.obj
 0002:0000031c       ?input_handler$initializer$@INPUT@UTILS@@3P6AXXZA 100b231c     input_handler.obj
 0002:00000320       ?render_queue$initializer$@RENDER@@3P6AXXZA 100b2320     render.obj
 0002:00000324       ?csgo_hwnd$initializer$@GLOBAL@@3P6AXXZA 100b2324     variables.obj
 0002:00000328       ?vtMissing$initializer$@@3P6AXXZA 100b2328     comsuppw:comutil.obj
 0002:0000032c       ?s_defaultWaiterPool$initializer$@platform@details@Concurrency@@3P6AXXZA 100b232c     libconcrt:Platform.obj
 0002:00000330       ?g_DebugOutFilePtr$initializer$@details@Concurrency@@3P6AXXZA 100b2330     libconcrt:utils.obj
 0002:0000033c       ?pinit@@3P6AHXZA           100b233c     libcpmt:winapisupp.obj
 0002:00000340       ?__scrt_initialize_tss_var@@3P6AHXZA 100b2340     LIBCMT:thread_safe_statics.obj
 0002:00000364       ?pterm@@3P6AXXZA           100b2364     libconcrt:utils.obj
 0002:00000968       ?tmp@?1??CreateMaterial@CChams@VISUALS@FEATURES@@QAEPAVIMaterial@SDK@@_N00@Z@4QBDB 100b2968     Chams.obj
 0002:00000c30       ?file_path@?1??LoadUserConfig@MISC@FEATURES@@YAXXZ@4QBDB 100b2c30     Misc.obj
 0002:00002fd0       ?GCrc32LookupTable@@3QBIB  100b4fd0     imgui.obj
 0002:000033d0       ?GStyleVarInfo@@3QBUImGuiStyleVarInfo@@B 100b53d0     imgui.obj
 0002:000036f8       ?lengths@?1??ImTextCharFromUtf8@@YAHPAIPBD1@Z@4QBDB 100b56f8     imgui.obj
 0002:00003718       ?masks@?1??ImTextCharFromUtf8@@YAHPAIPBD1@Z@4QBHB 100b5718     imgui.obj
 0002:0000372c       ?mins@?1??ImTextCharFromUtf8@@YAHPAIPBD1@Z@4QBIB 100b572c     imgui.obj
 0002:00003740       ?shiftc@?1??ImTextCharFromUtf8@@YAHPAIPBD1@Z@4QBHB 100b5740     imgui.obj
 0002:00003754       ?shifte@?1??ImTextCharFromUtf8@@YAHPAIPBD1@Z@4QBHB 100b5754     imgui.obj
 0002:000068d0       ?proggy_clean_ttf_compressed_data_base85@@3QBDB 100b88d0     imgui_draw.obj
 0002:000097a0       ?FONT_ATLAS_DEFAULT_TEX_DATA_PIXELS@@3QBDB 100bb7a0     imgui_draw.obj
 0002:0000b71c       ?ranges@?1??GetGlyphRangesDefault@ImFontAtlas@@QAEPBGXZ@4QBGB 100bd71c     imgui_draw.obj
 0002:0000b728       ?accumulative_offsets_from_0x4E00@?1??GetGlyphRangesJapanese@ImFontAtlas@@QAEPBGXZ@4QBFB 100bd728     imgui_draw.obj
 0002:0000d968       ?GDataTypeInfo@@3QBUImGuiDataTypeInfo@@B 100bf968     imgui_widgets.obj
 0002:00012538       ?_Sys_errtab@std@@3QBU_Sys_errtab_t@1@B 100c4538     libcpmt:syserror.obj
 0002:000127a8       ?_Win_errtab@std@@3QBU_Win_errtab_t@1@B 100c47a8     libcpmt:syserror.obj
 0002:00013040       ?mods@?1??_Xfsopen@std@@YAPAU_iobuf@@PBDHH@Z@4QBQBDB 100c5040     libcpmt:fiopen.obj
 0002:00013490       ?LcidToLocaleNameTable@@3QBULcidToLocaleName@@B 100c5490     libcpmt:winapinls.obj
 0002:00013bb0       ?LocaleNameToIndexTable@@3QBULocaleNameIndex@@B 100c5bb0     libcpmt:winapinls.obj
 0002:00015548       _digits                    100c7548     libcpmt:xstoul.obj
 0002:00015570       _ndigs                     100c7570     libcpmt:xstoul.obj
 0002:00015598       _digits                    100c7598     libcpmt:xstoull.obj
 0002:000155c0       _ndigs                     100c75c0     libcpmt:xstoull.obj
 0002:00015634       _GS_ExceptionPointers      100c7634     LIBCMT:gs_report.obj
 0002:00015640       _Int32ToUInt32             100c7640     LIBCMT:ftol3.obj
 0002:00015648       _DP2to32                   100c7648     LIBCMT:ftol3.obj
 0002:00015650       _MantissaMask              100c7650     LIBCMT:ftol3.obj
 0002:00015658       _IntegerBit                100c7658     LIBCMT:ftol3.obj
 0002:00015660       _SignBit64                 100c7660     LIBCMT:ftol3.obj
 0002:00015668       _MinFP64                   100c7668     LIBCMT:ftol3.obj
 0002:00015670       _MinInt64                  100c7670     LIBCMT:ftol3.obj
 0002:00015678       _MaxInt64                  100c7678     LIBCMT:ftol3.obj
 0002:00015680       _MaxUInt64                 100c7680     LIBCMT:ftol3.obj
 0002:00015688       _MaxFP32                   100c7688     LIBCMT:ftol3.obj
 0002:00015690       _MinFP32                   100c7690     LIBCMT:ftol3.obj
 0002:00015698       _MinSubInexact             100c7698     LIBCMT:ftol3.obj
 0002:000156a0       _FpExcptTable              100c76a0     LIBCMT:ftol3.obj
 0002:000156b0       _i1075                     100c76b0     LIBCMT:ftol3.obj
 0002:000156b4       _i1087                     100c76b4     LIBCMT:ftol3.obj
 0002:000156b8       _x0800                     100c76b8     LIBCMT:ftol3.obj
 0002:000156bc       _x17FF                     100c76bc     LIBCMT:ftol3.obj
 0002:000156c0       _CWMask                    100c76c0     LIBCMT:ftol3.obj
 0002:00015a34       ?ExceptionTemplate@?1??_CxxThrowException@@9@8@4UEHExceptionRecord@@B 100c7a34     libvcruntime:throw.obj
 0002:00015a70       ?module_names@?A0xa2817912@@3QBQB_WB 100c7a70     libvcruntime:winapi_downlevel.obj
 0002:00015b28       ?candidate_modules@?1??try_get_FlsAlloc@@YAP6GKP6GXPAX@Z@ZXZ@4QBW4module_id@?A0xa2817912@@B 100c7b28     libvcruntime:winapi_downlevel.obj
 0002:00015b30       ?candidate_modules@?1??try_get_FlsFree@@YAP6GHK@ZXZ@4QBW4module_id@?A0xa2817912@@B 100c7b30     libvcruntime:winapi_downlevel.obj
 0002:00015b38       ?candidate_modules@?1??try_get_FlsGetValue@@YAP6GPAXK@ZXZ@4QBW4module_id@?A0xa2817912@@B 100c7b38     libvcruntime:winapi_downlevel.obj
 0002:00015b40       ?candidate_modules@?1??try_get_FlsSetValue@@YAP6GHKPAX@ZXZ@4QBW4module_id@?A0xa2817912@@B 100c7b40     libvcruntime:winapi_downlevel.obj
 0002:00015b48       ?candidate_modules@?1??try_get_InitializeCriticalSectionEx@@YAP6GHPAU_RTL_CRITICAL_SECTION@@KK@ZXZ@4QBW4module_id@?A0xa2817912@@B 100c7b48     libvcruntime:winapi_downlevel.obj
 0002:00015b50       ?tokenTable@@3QBQBDB       100c7b50     libvcruntime:undname.obj
 0002:00015b90       ?nameTable@@3QBQBDB        100c7b90     libvcruntime:undname.obj
 0002:00015cd8       ?rttiTable@@3QBQBDB        100c7cd8     libvcruntime:undname.obj
 0002:000162c0       SC_1                       100c82c0     libucrt:cos_sse2_precise.obj
 0002:000162d0       SC_2                       100c82d0     libucrt:cos_sse2_precise.obj
 0002:000162e0       SC_3                       100c82e0     libucrt:cos_sse2_precise.obj
 0002:000162f0       SC_4                       100c82f0     libucrt:cos_sse2_precise.obj
 0002:00016300       PI32INV                    100c8300     libucrt:cos_sse2_precise.obj
 0002:00016308       SHIFTER                    100c8308     libucrt:cos_sse2_precise.obj
 0002:00016310       P_2                        100c8310     libucrt:cos_sse2_precise.obj
 0002:00016320       P_1                        100c8320     libucrt:cos_sse2_precise.obj
 0002:00016328       P_3                        100c8328     libucrt:cos_sse2_precise.obj
 0002:00016330       TWO_POW_55                 100c8330     libucrt:cos_sse2_precise.obj
 0002:00016338       TWO_POW_M55                100c8338     libucrt:cos_sse2_precise.obj
 0002:00016340       ALL_ONES                   100c8340     libucrt:cos_sse2_precise.obj
 0002:00016348       NEG_ZERO                   100c8348     libucrt:cos_sse2_precise.obj
 0002:00016350       ONE                        100c8350     libucrt:cos_sse2_precise.obj
 0002:00016360       SIGN_MASK                  100c8360     libucrt:cos_sse2_precise.obj
 0002:00016370       SC_1                       100c8370     libucrt:sin_sse2_precise.obj
 0002:00016380       SC_2                       100c8380     libucrt:sin_sse2_precise.obj
 0002:00016390       SC_3                       100c8390     libucrt:sin_sse2_precise.obj
 0002:000163a0       SC_4                       100c83a0     libucrt:sin_sse2_precise.obj
 0002:000163b0       PI32INV                    100c83b0     libucrt:sin_sse2_precise.obj
 0002:000163b8       SHIFTER                    100c83b8     libucrt:sin_sse2_precise.obj
 0002:000163c0       P_2                        100c83c0     libucrt:sin_sse2_precise.obj
 0002:000163d0       P_1                        100c83d0     libucrt:sin_sse2_precise.obj
 0002:000163d8       P_3                        100c83d8     libucrt:sin_sse2_precise.obj
 0002:000163e0       TWO_POW_55                 100c83e0     libucrt:sin_sse2_precise.obj
 0002:000163e8       TWO_POW_M55                100c83e8     libucrt:sin_sse2_precise.obj
 0002:000163f0       ALL_ONES                   100c83f0     libucrt:sin_sse2_precise.obj
 0002:000163f8       NEG_ZERO                   100c83f8     libucrt:sin_sse2_precise.obj
 0002:00016400       ONE                        100c8400     libucrt:sin_sse2_precise.obj
 0002:00016410       _One                       100c8410     libucrt:floor_pentium4.obj
 0002:00016420       _Bns                       100c8420     libucrt:floor_pentium4.obj
 0002:00016430       _NegOne                    100c8430     libucrt:floor_pentium4.obj
 0002:00016440       _NegZero                   100c8440     libucrt:floor_pentium4.obj
 0002:00016450       _S                         100c8450     libucrt:floor_pentium4.obj
 0002:000164d0       _One                       100c84d0     libucrt:ceil_pentium4.obj
 0002:000164e0       _Bns                       100c84e0     libucrt:ceil_pentium4.obj
 0002:000164f0       _Zero                      100c84f0     libucrt:ceil_pentium4.obj
 0002:00016500       _S                         100c8500     libucrt:ceil_pentium4.obj
 0002:00016510       _NegZero                   100c8510     libucrt:ceil_pentium4.obj
 0002:00016520       Shifter                    100c8520     libucrt:asin_sse2_precise.obj
 0002:00016530       PI_BY_2                    100c8530     libucrt:asin_sse2_precise.obj
 0002:00016540       SIGNMASK                   100c8540     libucrt:asin_sse2_precise.obj
 0002:00016550       HALFMASK                   100c8550     libucrt:asin_sse2_precise.obj
 0002:00016560       HALFMASK2                  100c8560     libucrt:asin_sse2_precise.obj
 0002:00016568       cv                         100c8568     libucrt:asin_sse2_precise.obj
 0002:00016580       cv2                        100c8580     libucrt:asin_sse2_precise.obj
 0002:000165c0       ABSVALMASK                 100c85c0     libucrt:asin_sse2_precise.obj
 0002:000165c8       TMASK                      100c85c8     libucrt:asin_sse2_precise.obj
 0002:000165d0       ONEMASK                    100c85d0     libucrt:asin_sse2_precise.obj
 0002:000165d8       EMIN                       100c85d8     libucrt:asin_sse2_precise.obj
 0002:000165e0       MAX_ARG                    100c85e0     libucrt:asin_sse2_precise.obj
 0002:000165e8       MIN_ARG                    100c85e8     libucrt:asin_sse2_precise.obj
 0002:000165f0       INF                        100c85f0     libucrt:asin_sse2_precise.obj
 0002:000165f8       ZERO                       100c85f8     libucrt:asin_sse2_precise.obj
 0002:00016600       Shifter                    100c8600     libucrt:pow_sse2_precise.obj
 0002:00016610       SIGMASK                    100c8610     libucrt:pow_sse2_precise.obj
 0002:00016620       ONEMASK                    100c8620     libucrt:pow_sse2_precise.obj
 0002:00016630       ABSVALMASK                 100c8630     libucrt:pow_sse2_precise.obj
 0002:00016640       cev                        100c8640     libucrt:pow_sse2_precise.obj
 0002:00016668       HALFSIG                    100c8668     libucrt:pow_sse2_precise.obj
 0002:00016670       LHN                        100c8670     libucrt:pow_sse2_precise.obj
 0002:00016678       sNaN                       100c8678     libucrt:pow_sse2_precise.obj
 0002:00016680       INF                        100c8680     libucrt:pow_sse2_precise.obj
 0002:00016688       NEG_INF                    100c8688     libucrt:pow_sse2_precise.obj
 0002:00016690       NEG_ZERO                   100c8690     libucrt:pow_sse2_precise.obj
 0002:00016698       NEG_BIG                    100c8698     libucrt:pow_sse2_precise.obj
 0002:000166a0       POS_BIG                    100c86a0     libucrt:pow_sse2_precise.obj
 0002:000166a8       EMIN                       100c86a8     libucrt:pow_sse2_precise.obj
 0002:000166b0       QIND                       100c86b0     libucrt:pow_sse2_precise.obj
 0002:000166c0       ?errtable@@3QBUerrentry@?A0x31fdb9ec@@B 100c86c0     libucrt:errno.obj
 0002:00017510       ?large_power_indices@?1??multiply_by_power_of_ten@__crt_strtox@@YA_NAAUbig_integer@2@I@Z@4QBUunpack_index@?1??12@YA_N0I@Z@B 100c9510     libucrt:input.obj
 0002:000177e0       Shifter                    100c97e0     libucrt:acos_sse2_precise.obj
 0002:000177f0       PI_BY_2                    100c97f0     libucrt:acos_sse2_precise.obj
 0002:00017800       NEG_PI                     100c9800     libucrt:acos_sse2_precise.obj
 0002:00017810       PI                         100c9810     libucrt:acos_sse2_precise.obj
 0002:00017820       SIGNMASK                   100c9820     libucrt:acos_sse2_precise.obj
 0002:00017830       HALFMASK                   100c9830     libucrt:acos_sse2_precise.obj
 0002:00017840       HALFMASK2                  100c9840     libucrt:acos_sse2_precise.obj
 0002:00017850       cv                         100c9850     libucrt:acos_sse2_precise.obj
 0002:00017870       cv2                        100c9870     libucrt:acos_sse2_precise.obj
 0002:000178b0       ABSVALMASK                 100c98b0     libucrt:acos_sse2_precise.obj
 0002:000178b8       TMASK                      100c98b8     libucrt:acos_sse2_precise.obj
 0002:000178c0       ONEMASK                    100c98c0     libucrt:acos_sse2_precise.obj
 0002:000178c8       ONE_BY_2                   100c98c8     libucrt:acos_sse2_precise.obj
 0002:000178d0       EMIN                       100c98d0     libucrt:acos_sse2_precise.obj
 0002:000178d8       MAX_ARG                    100c98d8     libucrt:acos_sse2_precise.obj
 0002:000178e0       MIN_ARG                    100c98e0     libucrt:acos_sse2_precise.obj
 0002:000178e8       INF                        100c98e8     libucrt:acos_sse2_precise.obj
 0002:000178f0       ZERO                       100c98f0     libucrt:acos_sse2_precise.obj
 0002:000178f8       ALPHA                      100c98f8     libucrt:acos_sse2_precise.obj
 0002:00017940       emask                      100c9940     libucrt:log_sse2_precise.obj
 0002:00017950       Magic                      100c9950     libucrt:log_sse2_precise.obj
 0002:00017960       hi_mask                    100c9960     libucrt:log_sse2_precise.obj
 0002:00017970       LOG_2                      100c9970     libucrt:log_sse2_precise.obj
 0002:00017980       place_L                    100c9980     libucrt:log_sse2_precise.obj
 0002:000179a0       One                        100c99a0     libucrt:log_sse2_precise.obj
 0002:000179b0       Zero                       100c99b0     libucrt:log_sse2_precise.obj
 0002:000179c0       Two52                      100c99c0     libucrt:log_sse2_precise.obj
 0002:000179d0       Infs                       100c99d0     libucrt:log_sse2_precise.obj
 0002:000179e0       NaN                        100c99e0     libucrt:log_sse2_precise.obj
 0002:000179f0       coeff                      100c99f0     libucrt:log_sse2_precise.obj
 0002:00017a28       ?mask@?P@??_fd_int@@9@4QBGB 100c9a28     libucrt:_test.obj
 0002:00017a48       ?sub@?P@??_fd_int@@9@4QBIB 100c9a48     libucrt:_test.obj
 0002:00018260       POW_name                   100ca260     libucrt:pow_impl.obj
 0002:00018360       ___acrt_initializers       100ca360     libucrt:initialization.obj
 0002:000183e0       ?_names@?1??_get_fname@@9@9 100ca3e0     libucrt:fpexcept.obj
 0002:00018590       _NAME_                     100ca590     libucrt:sqrt_impl.obj
 0002:00018598       __first_127char            100ca598     libucrt:wsetlocale.obj
 0002:00018bc0       ?module_names@?A0x391cf84c@@3QBQB_WB 100cabc0     libucrt:winapi_thunks.obj
 0002:00019028       ?candidate_modules@?1??try_get_AreFileApisANSI@@YAP6GHXZXZ@4QBW4module_id@?A0x391cf84c@@B 100cb028     libucrt:winapi_thunks.obj
 0002:0001903c       ?candidate_modules@?1??try_get_CompareStringEx@@YAP6GHPB_WK0H0HPAU_nlsversioninfo@@PAXJ@ZXZ@4QBW4module_id@?A0x391cf84c@@B 100cb03c     libucrt:winapi_thunks.obj
 0002:00019044       ?candidate_modules@?1??try_get_EnumSystemLocalesEx@@YAP6GHP6GHPA_WKJ@ZKJPAX@ZXZ@4QBW4module_id@?A0x391cf84c@@B 100cb044     libucrt:winapi_thunks.obj
 0002:00019060       ?candidate_modules@?1??try_get_FlsAlloc@@YAP6GKP6GXPAX@Z@ZXZ@4QBW4module_id@?A0x391cf84c@@B 100cb060     libucrt:winapi_thunks.obj
 0002:00019068       ?candidate_modules@?1??try_get_FlsFree@@YAP6GHK@ZXZ@4QBW4module_id@?A0x391cf84c@@B 100cb068     libucrt:winapi_thunks.obj
 0002:00019070       ?candidate_modules@?1??try_get_FlsGetValue@@YAP6GPAXK@ZXZ@4QBW4module_id@?A0x391cf84c@@B 100cb070     libucrt:winapi_thunks.obj
 0002:00019078       ?candidate_modules@?1??try_get_FlsSetValue@@YAP6GHKPAX@ZXZ@4QBW4module_id@?A0x391cf84c@@B 100cb078     libucrt:winapi_thunks.obj
 0002:00019080       ?candidate_modules@?1??try_get_GetActiveWindow@@YAP6GPAUHWND__@@XZXZ@4QBW4module_id@?A0x391cf84c@@B 100cb080     libucrt:winapi_thunks.obj
 0002:00019098       ?candidate_modules@?1??try_get_GetDateFormatEx@@YAP6GHPB_WKPBU_SYSTEMTIME@@0PA_WH0@ZXZ@4QBW4module_id@?A0x391cf84c@@B 100cb098     libucrt:winapi_thunks.obj
 0002:000190b0       ?candidate_modules@?1??try_get_GetLastActivePopup@@YAP6GPAUHWND__@@PAU2@@ZXZ@4QBW4module_id@?A0x391cf84c@@B 100cb0b0     libucrt:winapi_thunks.obj
 0002:000190cc       ?candidate_modules@?1??try_get_GetLocaleInfoEx@@YAP6GHPB_WKPA_WH@ZXZ@4QBW4module_id@?A0x391cf84c@@B 100cb0cc     libucrt:winapi_thunks.obj
 0002:000190d4       ?candidate_modules@?1??try_get_GetProcessWindowStation@@YAP6GPAUHWINSTA__@@XZXZ@4QBW4module_id@?A0x391cf84c@@B 100cb0d4     libucrt:winapi_thunks.obj
 0002:000190f4       ?candidate_modules@?1??try_get_GetTimeFormatEx@@YAP6GHPB_WKPBU_SYSTEMTIME@@0PA_WH@ZXZ@4QBW4module_id@?A0x391cf84c@@B 100cb0f4     libucrt:winapi_thunks.obj
 0002:0001910c       ?candidate_modules@?1??try_get_GetUserDefaultLocaleName@@YAP6GHPA_WH@ZXZ@4QBW4module_id@?A0x391cf84c@@B 100cb10c     libucrt:winapi_thunks.obj
 0002:00019130       ?candidate_modules@?1??try_get_GetUserObjectInformationW@@YAP6GHPAXH0KPAK@ZXZ@4QBW4module_id@?A0x391cf84c@@B 100cb130     libucrt:winapi_thunks.obj
 0002:00019154       ?candidate_modules@?1??try_get_InitializeCriticalSectionEx@@YAP6GHPAU_RTL_CRITICAL_SECTION@@KK@ZXZ@4QBW4module_id@?A0x391cf84c@@B 100cb154     libucrt:winapi_thunks.obj
 0002:0001915c       ?candidate_modules@?1??try_get_IsValidLocaleName@@YAP6GHPB_W@ZXZ@4QBW4module_id@?A0x391cf84c@@B 100cb15c     libucrt:winapi_thunks.obj
 0002:00019178       ?candidate_modules@?1??try_get_LCMapStringEx@@YAP6GHPB_WK0HPA_WHPAU_nlsversioninfo@@PAXJ@ZXZ@4QBW4module_id@?A0x391cf84c@@B 100cb178     libucrt:winapi_thunks.obj
 0002:00019180       ?candidate_modules@?1??try_get_LCIDToLocaleName@@YAP6GHKPA_WHK@ZXZ@4QBW4module_id@?A0x391cf84c@@B 100cb180     libucrt:winapi_thunks.obj
 0002:0001919c       ?candidate_modules@?1??try_get_LocaleNameToLCID@@YAP6GKPB_WK@ZXZ@4QBW4module_id@?A0x391cf84c@@B 100cb19c     libucrt:winapi_thunks.obj
 0002:000191b8       ?candidate_modules@?1??try_get_MessageBoxA@@YAP6GHPAUHWND__@@PBD1I@ZXZ@4QBW4module_id@?A0x391cf84c@@B 100cb1b8     libucrt:winapi_thunks.obj
 0002:000191cc       ?candidate_modules@?1??try_get_MessageBoxW@@YAP6GHPAUHWND__@@PB_W1I@ZXZ@4QBW4module_id@?A0x391cf84c@@B 100cb1cc     libucrt:winapi_thunks.obj
 0002:000191e0       ?candidate_modules@?1??try_get_AppPolicyGetProcessTerminationMethod@@YAP6GJPAXPAW4AppPolicyProcessTerminationMethod@@@ZXZ@4QBW4module_id@?A0x391cf84c@@B 100cb1e0     libucrt:winapi_thunks.obj
 0002:0001920c       ?candidate_modules@?1??try_get_AppPolicyGetShowDeveloperDiagnostic@@YAP6GJPAXPAW4AppPolicyShowDeveloperDiagnostic@@@ZXZ@4QBW4module_id@?A0x391cf84c@@B 100cb20c     libucrt:winapi_thunks.obj
 0002:00019234       ?candidate_modules@?1??try_get_AppPolicyGetWindowingModel@@YAP6GJPAXPAW4AppPolicyWindowingModel@@@ZXZ@4QBW4module_id@?A0x391cf84c@@B 100cb234     libucrt:winapi_thunks.obj
 0002:00019254       ?candidate_modules@?1??try_get_SystemFunction036@@YAP6GEPAXK@ZXZ@4QBW4module_id@?A0x391cf84c@@B 100cb254     libucrt:winapi_thunks.obj
 0002:00019270       _NAME_                     100cb270     libucrt:cos_impl.obj
 0002:00019a80       _NAME_                     100cba80     libucrt:sin_impl.obj
 0002:00019af0       DblMax                     100cbaf0     libucrt:87cdisp.obj
 0002:00019af8       DblMin                     100cbaf8     libucrt:87cdisp.obj
 0002:00019b00       IeeeAdjO                   100cbb00     libucrt:87cdisp.obj
 0002:00019b08       IeeeAdjU                   100cbb08     libucrt:87cdisp.obj
 0002:00019b10       _infinity                  100cbb10     libucrt:87cdisp.obj
 0002:00019b18       _zero                      100cbb18     libucrt:87cdisp.obj
 0002:00019b20       _NAME_                     100cbb20     libucrt:asin_impl.obj
 0002:0001eab0       ?strings@?1??fp_format_nan_or_infinity@@YAHW4__acrt_fp_class@@_NPADI1@Z@4QAY03QBDA 100d0ab0     libucrt:cvt.obj
 0002:0001eb5e       One                        100d0b5e     libucrt:87disp.obj
 0002:0001eb66       Three                      100d0b66     libucrt:87disp.obj
 0002:0001eb6e       XAMtoTagTab                100d0b6e     libucrt:87disp.obj
 0002:0001ebd0       _NAME_                     100d0bd0     libucrt:acos_impl.obj
 0002:0001ebe0       LOG_name                   100d0be0     libucrt:log_impl.obj
 0002:0001f428       _over                      100d1428     libucrt:fpctrl.obj
 0002:0001f434       _under                     100d1434     libucrt:fpctrl.obj
 0002:0001f450       Shifter                    100d1450     libucrt:pow_pentium4.obj
 0002:0001f460       SIGMASK                    100d1460     libucrt:pow_pentium4.obj
 0002:0001f470       ONEMASK                    100d1470     libucrt:pow_pentium4.obj
 0002:0001f480       ABSVALMASK                 100d1480     libucrt:pow_pentium4.obj
 0002:0001f490       cev                        100d1490     libucrt:pow_pentium4.obj
 0002:0001f4b8       HALFSIG                    100d14b8     libucrt:pow_pentium4.obj
 0002:0001f4c0       LHN                        100d14c0     libucrt:pow_pentium4.obj
 0002:0001f4c8       sNaN                       100d14c8     libucrt:pow_pentium4.obj
 0002:0001f4d0       INF                        100d14d0     libucrt:pow_pentium4.obj
 0002:0001f4d8       NEG_INF                    100d14d8     libucrt:pow_pentium4.obj
 0002:0001f4e0       NEG_ZERO                   100d14e0     libucrt:pow_pentium4.obj
 0002:0001f4e8       NEG_BIG                    100d14e8     libucrt:pow_pentium4.obj
 0002:0001f4f0       POS_BIG                    100d14f0     libucrt:pow_pentium4.obj
 0002:0001f4f8       EMIN                       100d14f8     libucrt:pow_pentium4.obj
 0002:0001f500       QIND                       100d1500     libucrt:pow_pentium4.obj
 0002:0001f52e       _log2max                   100d152e     libucrt:87tran.obj
 0002:0001f538       _smallarg                  100d1538     libucrt:87tran.obj
 0002:0001f542       _half                      100d1542     libucrt:87tran.obj
 0002:0001f570       One                        100d1570     libucrt:common.obj
 0002:0001f584       DblMax                     100d1584     libucrt:common.obj
 0002:0001f58c       DblMin                     100d158c     libucrt:common.obj
 0002:0001f594       IeeeAdjO                   100d1594     libucrt:common.obj
 0002:0001f59c       IeeeAdjU                   100d159c     libucrt:common.obj
 0002:0001f5a4       _infinity                  100d15a4     libucrt:common.obj
 0002:0001f5ac       _zero                      100d15ac     libucrt:common.obj
 0002:0001f5b4       ?_mb_locale_names@@3QBQB_WB 100d15b4     libucrt:mbctype.obj
 0002:0001f5d0       smask                      100d15d0     libucrt:exp_pentium4.obj
 0002:0001f5e0       emask                      100d15e0     libucrt:exp_pentium4.obj
 0002:0001f5f0       mmask                      100d15f0     libucrt:exp_pentium4.obj
 0002:0001f600       bias                       100d1600     libucrt:exp_pentium4.obj
 0002:0001f610       Shifter                    100d1610     libucrt:exp_pentium4.obj
 0002:0001f620       twom60                     100d1620     libucrt:exp_pentium4.obj
 0002:0001f630       cv                         100d1630     libucrt:exp_pentium4.obj
 0002:0001f680       ONE_val                    100d1680     libucrt:exp_pentium4.obj
 0002:0001f688       EMIN                       100d1688     libucrt:exp_pentium4.obj
 0002:0001f690       MAX_ARG                    100d1690     libucrt:exp_pentium4.obj
 0002:0001f698       MIN_ARG                    100d1698     libucrt:exp_pentium4.obj
 0002:0001f6a0       INF                        100d16a0     libucrt:exp_pentium4.obj
 0002:0001f6a8       ZERO                       100d16a8     libucrt:exp_pentium4.obj
 0002:0001f6b0       XMAX                       100d16b0     libucrt:exp_pentium4.obj
 0002:0001f6b8       XMIN                       100d16b8     libucrt:exp_pentium4.obj
 0002:0001f6c0       Sm_Thres                   100d16c0     libucrt:exp_pentium4.obj
 0002:0001f6c8       Del_Thres                  100d16c8     libucrt:exp_pentium4.obj
 0002:00020498       ?LcidToLocaleNameTable@?A0x881e4c05@@3QBULcidToLocaleName@1@B 100d2498     libucrt:lcidtoname_downlevel.obj
 0002:00020bb8       ?LocaleNameToIndexTable@?A0x881e4c05@@3QBULocaleNameIndex@1@B 100d2bb8     libucrt:lcidtoname_downlevel.obj
 0002:000212e0       SC_1                       100d32e0     libucrt:cos_pentium4.obj
 0002:000212f0       SC_2                       100d32f0     libucrt:cos_pentium4.obj
 0002:00021300       SC_3                       100d3300     libucrt:cos_pentium4.obj
 0002:00021310       SC_4                       100d3310     libucrt:cos_pentium4.obj
 0002:00021320       PI32INV                    100d3320     libucrt:cos_pentium4.obj
 0002:00021328       SHIFTER                    100d3328     libucrt:cos_pentium4.obj
 0002:00021330       P_2                        100d3330     libucrt:cos_pentium4.obj
 0002:00021340       P_1                        100d3340     libucrt:cos_pentium4.obj
 0002:00021348       P_3                        100d3348     libucrt:cos_pentium4.obj
 0002:00021350       TWO_POW_55                 100d3350     libucrt:cos_pentium4.obj
 0002:00021358       TWO_POW_M55                100d3358     libucrt:cos_pentium4.obj
 0002:00021360       ALL_ONES                   100d3360     libucrt:cos_pentium4.obj
 0002:00021368       NEG_ZERO                   100d3368     libucrt:cos_pentium4.obj
 0002:00021370       ONE                        100d3370     libucrt:cos_pentium4.obj
 0002:00021380       SIGN_MASK                  100d3380     libucrt:cos_pentium4.obj
 0002:00021390       SC_1                       100d3390     libucrt:sin_pentium4.obj
 0002:000213a0       SC_2                       100d33a0     libucrt:sin_pentium4.obj
 0002:000213b0       SC_3                       100d33b0     libucrt:sin_pentium4.obj
 0002:000213c0       SC_4                       100d33c0     libucrt:sin_pentium4.obj
 0002:000213d0       PI32INV                    100d33d0     libucrt:sin_pentium4.obj
 0002:000213d8       SHIFTER                    100d33d8     libucrt:sin_pentium4.obj
 0002:000213e0       P_2                        100d33e0     libucrt:sin_pentium4.obj
 0002:000213f0       P_1                        100d33f0     libucrt:sin_pentium4.obj
 0002:000213f8       P_3                        100d33f8     libucrt:sin_pentium4.obj
 0002:00021400       TWO_POW_55                 100d3400     libucrt:sin_pentium4.obj
 0002:00021408       TWO_POW_M55                100d3408     libucrt:sin_pentium4.obj
 0002:00021410       ALL_ONES                   100d3410     libucrt:sin_pentium4.obj
 0002:00021418       NEG_ZERO                   100d3418     libucrt:sin_pentium4.obj
 0002:00021420       ONE                        100d3420     libucrt:sin_pentium4.obj
 0002:00021430       Shifter                    100d3430     libucrt:asin_pentium4.obj
 0002:00021440       PI_BY_2                    100d3440     libucrt:asin_pentium4.obj
 0002:00021450       SIGNMASK                   100d3450     libucrt:asin_pentium4.obj
 0002:00021460       HALFMASK                   100d3460     libucrt:asin_pentium4.obj
 0002:00021470       HALFMASK2                  100d3470     libucrt:asin_pentium4.obj
 0002:00021478       cv                         100d3478     libucrt:asin_pentium4.obj
 0002:00021490       cv2                        100d3490     libucrt:asin_pentium4.obj
 0002:000214d0       ABSVALMASK                 100d34d0     libucrt:asin_pentium4.obj
 0002:000214d8       TMASK                      100d34d8     libucrt:asin_pentium4.obj
 0002:000214e0       ONEMASK                    100d34e0     libucrt:asin_pentium4.obj
 0002:000214e8       EMIN                       100d34e8     libucrt:asin_pentium4.obj
 0002:000214f0       MAX_ARG                    100d34f0     libucrt:asin_pentium4.obj
 0002:000214f8       MIN_ARG                    100d34f8     libucrt:asin_pentium4.obj
 0002:00021500       INF                        100d3500     libucrt:asin_pentium4.obj
 0002:00021508       ZERO                       100d3508     libucrt:asin_pentium4.obj
 0002:00021510       ?large_power_indices@?1??multiply_by_power_of_ten@__crt_strtox@@YA_NAAUbig_integer@2@I@Z@4QBUunpack_index@?1??12@YA_N0I@Z@B 100d3510     libucrt:cfout.obj
 0002:000215d0       Shifter                    100d35d0     libucrt:acos_pentium4.obj
 0002:000215e0       PI_BY_2                    100d35e0     libucrt:acos_pentium4.obj
 0002:000215f0       NEG_PI                     100d35f0     libucrt:acos_pentium4.obj
 0002:00021600       PI                         100d3600     libucrt:acos_pentium4.obj
 0002:00021610       SIGNMASK                   100d3610     libucrt:acos_pentium4.obj
 0002:00021620       HALFMASK                   100d3620     libucrt:acos_pentium4.obj
 0002:00021630       HALFMASK2                  100d3630     libucrt:acos_pentium4.obj
 0002:00021640       cv                         100d3640     libucrt:acos_pentium4.obj
 0002:00021660       cv2                        100d3660     libucrt:acos_pentium4.obj
 0002:000216a0       ABSVALMASK                 100d36a0     libucrt:acos_pentium4.obj
 0002:000216a8       TMASK                      100d36a8     libucrt:acos_pentium4.obj
 0002:000216b0       ONEMASK                    100d36b0     libucrt:acos_pentium4.obj
 0002:000216b8       ONE_BY_2                   100d36b8     libucrt:acos_pentium4.obj
 0002:000216c0       EMIN                       100d36c0     libucrt:acos_pentium4.obj
 0002:000216c8       MAX_ARG                    100d36c8     libucrt:acos_pentium4.obj
 0002:000216d0       MIN_ARG                    100d36d0     libucrt:acos_pentium4.obj
 0002:000216d8       INF                        100d36d8     libucrt:acos_pentium4.obj
 0002:000216e0       ZERO                       100d36e0     libucrt:acos_pentium4.obj
 0002:000216e8       ALPHA                      100d36e8     libucrt:acos_pentium4.obj
 0002:000216f0       emask                      100d36f0     libucrt:log_pentium4.obj
 0002:00021700       Magic                      100d3700     libucrt:log_pentium4.obj
 0002:00021710       hi_mask                    100d3710     libucrt:log_pentium4.obj
 0002:00021720       LOG_2                      100d3720     libucrt:log_pentium4.obj
 0002:00021730       place_L                    100d3730     libucrt:log_pentium4.obj
 0002:00021750       One                        100d3750     libucrt:log_pentium4.obj
 0002:00021760       Zero                       100d3760     libucrt:log_pentium4.obj
 0002:00021770       Two52                      100d3770     libucrt:log_pentium4.obj
 0002:00021780       Infs                       100d3780     libucrt:log_pentium4.obj
 0002:00021790       NaN                        100d3790     libucrt:log_pentium4.obj
 0002:000217a0       coeff                      100d37a0     libucrt:log_pentium4.obj
 0002:00021c50       LOG_name                   100d3c50     libucrt:log10_impl.obj
 0002:00021c60       emask                      100d3c60     libucrt:log10_pentium4.obj
 0002:00021c70       CC                         100d3c70     libucrt:log10_pentium4.obj
 0002:00021c80       Magic                      100d3c80     libucrt:log10_pentium4.obj
 0002:00021c90       hi_mask                    100d3c90     libucrt:log10_pentium4.obj
 0002:00021ca0       LOG10_2                    100d3ca0     libucrt:log10_pentium4.obj
 0002:00021cb0       place_L                    100d3cb0     libucrt:log10_pentium4.obj
 0002:00021cd0       One                        100d3cd0     libucrt:log10_pentium4.obj
 0002:00021ce0       Zero                       100d3ce0     libucrt:log10_pentium4.obj
 0002:00021cf0       Two52                      100d3cf0     libucrt:log10_pentium4.obj
 0002:00021d00       Infs                       100d3d00     libucrt:log10_pentium4.obj
 0002:00021d10       NaN                        100d3d10     libucrt:log10_pentium4.obj
 0002:00021d20       coeff                      100d3d20     libucrt:log10_pentium4.obj
 0002:00022580       ?msgs@@3QBQBDB             100d4580     libcpmt:thread0.obj
 0002:0002259c       ?codes@@3QBHB              100d459c     libcpmt:thread0.obj
 0002:00023d60       __ehfuncinfo$??0_Locinfo@std@@QAE@PBD@Z 100d5d60     dll.obj
 0002:00023d84       __unwindtable$??0_Locinfo@std@@QAE@PBD@Z 100d5d84     dll.obj
 0002:00023dbc       __ehfuncinfo$??1?$ImVector@PAUImFont@@@@QAE@XZ 100d5dbc     imgui.obj
 0002:00023dbc       __ehfuncinfo$?clear@?$_Tree@V?$_Tmap_traits@HPAXU?$less@H@std@@V?$allocator@U?$pair@$$CBHPAX@std@@@2@$0A@@std@@@std@@QAEXXZ 100d5dbc     vmt.obj
 0002:00023dbc       __ehfuncinfo$??1_Init_atexit@@QAE@XZ 100d5dbc     libcpmt:iosptrs.obj
 0002:00023dbc       __ehfuncinfo$?__scrt_initialize_thread_safe_statics_platform_specific@@YAXXZ 100d5dbc     LIBCMT:thread_safe_statics.obj
 0002:00023dbc       __ehfuncinfo$??1?$ImVector@PAUImDrawList@@@@QAE@XZ 100d5dbc     imgui.obj
 0002:00023dbc       __ehfuncinfo$??1?$ImVector@UImGuiColorMod@@@@QAE@XZ 100d5dbc     imgui.obj
 0002:00023dbc       __ehfuncinfo$??1?$ImVector@UImGuiStyleMod@@@@QAE@XZ 100d5dbc     imgui.obj
 0002:00023dbc       __ehfuncinfo$??1_Sentry_base@?$basic_istream@DU?$char_traits@D@std@@@std@@QAE@XZ 100d5dbc     dll.obj
 0002:00023dbc       __ehfuncinfo$??1?$ImVector@M@@QAE@XZ 100d5dbc     imgui.obj
 0002:00023dbc       __ehfuncinfo$??1_Sentry_base@?$basic_ostream@DU?$char_traits@D@std@@@std@@QAE@XZ 100d5dbc     dll.obj
 0002:00023dbc       __ehfuncinfo$??1?$ImVector@UImFontBuildSrcData@@@@QAE@XZ 100d5dbc     imgui_draw.obj
 0002:00023dbc       __ehfuncinfo$??1?$ImVector@UImFontBuildDstData@@@@QAE@XZ 100d5dbc     imgui_draw.obj
 0002:00023dbc       __ehfuncinfo$??1?$ImVector@Ustbrp_rect@@@@QAE@XZ 100d5dbc     imgui_draw.obj
 0002:00023dbc       __ehfuncinfo$??1?$ImVector@UImGuiOldColumns@@@@QAE@XZ 100d5dbc     imgui.obj
 0002:00023dbc       __ehfuncinfo$??1_Fac_node@std@@QAE@XZ 100d5dbc     libcpmt:locale0.obj
 0002:00023dbc       __ehfuncinfo$??1_Locimp@locale@std@@MAE@XZ 100d5dbc     libcpmt:locale0.obj
 0002:00023dbc       __ehfuncinfo$??1?$ImVector@UImDrawChannel@@@@QAE@XZ 100d5dbc     imgui.obj
 0002:00023dbc       __ehfuncinfo$??1?$ImVector@D@@QAE@XZ 100d5dbc     imgui.obj
 0002:00023dbc       __ehfuncinfo$??1?$ImVector@UImGuiContextHook@@@@QAE@XZ 100d5dbc     imgui.obj
 0002:00023dbc       __ehfuncinfo$??1?$ImVector@H@@QAE@XZ 100d5dbc     imgui.obj
 0002:00023dbc       __ehfuncinfo$??1?$ImVector@UImGuiGroupData@@@@QAE@XZ 100d5dbc     imgui.obj
 0002:00023dbc       __ehfuncinfo$??1?$ImVector@UImGuiPopupData@@@@QAE@XZ 100d5dbc     imgui.obj
 0002:00023dbc       __ehfuncinfo$??1?$ImVector@PAUImGuiViewportP@@@@QAE@XZ 100d5dbc     imgui.obj
 0002:00023dbc       __ehfuncinfo$??1?$ImVector@UImGuiSettingsHandler@@@@QAE@XZ 100d5dbc     imgui.obj
 0002:00023dbc       __ehfuncinfo$??1?$ImVector@UImGuiShrinkWidthItem@@@@QAE@XZ 100d5dbc     imgui.obj
 0002:00023dbc       __ehfuncinfo$??1?$ImVector@G@@QAE@XZ 100d5dbc     imgui.obj
 0002:00023dbc       __ehfuncinfo$??1?$ImVector@I@@QAE@XZ 100d5dbc     imgui.obj
 0002:00023dbc       __ehfuncinfo$??1?$ImVector@Ustbtt_packedchar@@@@QAE@XZ 100d5dbc     imgui_draw.obj
 0002:00023dbc       __ehfuncinfo$??1locale@std@@QAE@XZ 100d5dbc     dll.obj
 0002:00023dbc       __ehfuncinfo$??1?$ImVector@UImGuiPtrOrIndex@@@@QAE@XZ 100d5dbc     imgui.obj
 0002:00023dbc       __ehfuncinfo$??1?$ImVector@PAUImGuiWindow@@@@QAE@XZ 100d5dbc     imgui.obj
 0002:00023dbc       __ehfuncinfo$??1_Locinfo@std@@QAE@XZ 100d5dbc     dll.obj
 0002:00023dbc       __ehfuncinfo$??1?$ImVector@UImFontConfig@@@@QAE@XZ 100d5dbc     imgui_draw.obj
 0002:00023dbc       __ehfuncinfo$??1?$ImVector@UImFontAtlasCustomRect@@@@QAE@XZ 100d5dbc     imgui_draw.obj
 0002:00023dbc       __ehfuncinfo$??1?$ImVector@E@@QAE@XZ 100d5dbc     imgui.obj
 0002:00023de0       __unwindtable$??$use_facet@V?$ctype@D@std@@@std@@YAABV?$ctype@D@0@ABVlocale@0@@Z 100d5de0     dll.obj
 0002:00023df8       __ehfuncinfo$??$use_facet@V?$ctype@D@std@@@std@@YAABV?$ctype@D@0@ABVlocale@0@@Z 100d5df8     dll.obj
 0002:00023e1c       __unwindtable$??0_System_error@std@@IAE@Verror_code@1@ABV?$basic_string@DU?$char_traits@D@std@@V?$allocator@D@2@@1@@Z 100d5e1c     dll.obj
 0002:00023e2c       __ehfuncinfo$??0_System_error@std@@IAE@Verror_code@1@ABV?$basic_string@DU?$char_traits@D@std@@V?$allocator@D@2@@1@@Z 100d5e2c     dll.obj
 0002:00023e50       __unwindtable$??0failure@ios_base@std@@QAE@PBDABVerror_code@2@@Z 100d5e50     dll.obj
 0002:00023e58       __ehfuncinfo$??0failure@ios_base@std@@QAE@PBDABVerror_code@2@@Z 100d5e58     dll.obj
 0002:00023e7c       __unwindtable$??1?$ImChunkStream@UImGuiWindowSettings@@@@QAE@XZ 100d5e7c     imgui.obj
 0002:00023e7c       __unwindtable$??1?$basic_stringbuf@DU?$char_traits@D@std@@V?$allocator@D@2@@std@@UAE@XZ 100d5e7c     PPGUI_Commands.obj
 0002:00023e7c       __unwindtable$??1?$basic_filebuf@DU?$char_traits@D@std@@@std@@UAE@XZ 100d5e7c     dll.obj
 0002:00023e7c       __unwindtable$??1?$ImChunkStream@UImGuiTableSettings@@@@QAE@XZ 100d5e7c     imgui.obj
 0002:00023e7c       __unwindtable$??_D?$basic_stringstream@DU?$char_traits@D@std@@V?$allocator@D@2@@std@@QAEXXZ 100d5e7c     PPGUI_Commands.obj
 0002:00023e7c       __unwindtable$??_Gios_base@std@@UAEPAXI@Z 100d5e7c     dll.obj
 0002:00023e7c       __unwindtable$??_D?$basic_fstream@DU?$char_traits@D@std@@@std@@QAEXXZ 100d5e7c     dll.obj
 0002:00023e7c       __unwindtable$??_GWeaponFireListener@MISC@FEATURES@@UAEPAXI@Z 100d5e7c     EventListeners.obj
 0002:00023e7c       __unwindtable$??_GBulletImpactListener@MISC@FEATURES@@UAEPAXI@Z 100d5e7c     EventListeners.obj
 0002:00023e7c       __unwindtable$??1?$basic_ios@DU?$char_traits@D@std@@@std@@UAE@XZ 100d5e7c     dll.obj
 0002:00023e7c       __unwindtable$??_GPlayerHurtListener@MISC@FEATURES@@UAEPAXI@Z 100d5e7c     EventListeners.obj
 0002:00023e7c       __unwindtable$??_G?$basic_ios@DU?$char_traits@D@std@@@std@@UAEPAXI@Z 100d5e7c     dll.obj
 0002:00023e7c       __unwindtable$??1ImGuiStorage@@QAE@XZ 100d5e7c     imgui.obj
 0002:00023e7c       __unwindtable$??_G?$basic_iostream@DU?$char_traits@D@std@@@std@@UAEPAXI@Z 100d5e7c     dll.obj
 0002:00023e7c       __unwindtable$??1ImGuiTextBuffer@@QAE@XZ 100d5e7c     imgui.obj
 0002:00023e7c       __unwindtable$??_GItemPurchaseListener@MISC@FEATURES@@UAEPAXI@Z 100d5e7c     EventListeners.obj
 0002:00023e7c       __unwindtable$??1sentry@?$basic_istream@DU?$char_traits@D@std@@@std@@QAE@XZ 100d5e7c     dll.obj
 0002:00023e7c       __unwindtable$??1ImGuiIO@@QAE@XZ 100d5e7c     imgui.obj
 0002:00023e7c       __unwindtable$??_G?$basic_istream@DU?$char_traits@D@std@@@std@@UAEPAXI@Z 100d5e7c     dll.obj
 0002:00023e7c       __unwindtable$??1?$_Tree@V?$_Tmap_traits@IUtab_anim@@U?$less@I@std@@V?$allocator@U?$pair@$$CBIUtab_anim@@@std@@@3@$0A@@std@@@std@@QAE@XZ 100d5e7c     imgui_widgets.obj
 0002:00023e7c       __unwindtable$??_G?$basic_ostream@DU?$char_traits@D@std@@@std@@UAEPAXI@Z 100d5e7c     dll.obj
 0002:00023e7c       __unwindtable$??_D?$basic_ostream@DU?$char_traits@D@std@@@std@@QAEXXZ 100d5e7c     libcpmt:cout.obj
 0002:00023e7c       __unwindtable$??1sentry@?$basic_ostream@DU?$char_traits@D@std@@@std@@QAE@XZ 100d5e7c     dll.obj
 0002:00023e7c       __unwindtable$??_G?$basic_streambuf@DU?$char_traits@D@std@@@std@@UAEPAXI@Z 100d5e7c     dll.obj
 0002:00023e84       __ehfuncinfo$??_G?$basic_streambuf@DU?$char_traits@D@std@@@std@@UAEPAXI@Z 100d5e84     dll.obj
 0002:00023e84       __ehfuncinfo$??1?$basic_filebuf@DU?$char_traits@D@std@@@std@@UAE@XZ 100d5e84     dll.obj
 0002:00023e84       __ehfuncinfo$??1sentry@?$basic_ostream@DU?$char_traits@D@std@@@std@@QAE@XZ 100d5e84     dll.obj
 0002:00023e84       __ehfuncinfo$??_G?$basic_istream@DU?$char_traits@D@std@@@std@@UAEPAXI@Z 100d5e84     dll.obj
 0002:00023e84       __ehfuncinfo$??1ImGuiIO@@QAE@XZ 100d5e84     imgui.obj
 0002:00023e84       __ehfuncinfo$??_GItemPurchaseListener@MISC@FEATURES@@UAEPAXI@Z 100d5e84     EventListeners.obj
 0002:00023e84       __ehfuncinfo$??1ImGuiTextBuffer@@QAE@XZ 100d5e84     imgui.obj
 0002:00023e84       __ehfuncinfo$??1?$_Tree@V?$_Tmap_traits@IUtab_anim@@U?$less@I@std@@V?$allocator@U?$pair@$$CBIUtab_anim@@@std@@@3@$0A@@std@@@std@@QAE@XZ 100d5e84     imgui_widgets.obj
 0002:00023e84       __ehfuncinfo$??1ImGuiStorage@@QAE@XZ 100d5e84     imgui.obj
 0002:00023e84       __ehfuncinfo$??_GPlayerHurtListener@MISC@FEATURES@@UAEPAXI@Z 100d5e84     EventListeners.obj
 0002:00023e84       __ehfuncinfo$??_G?$basic_ios@DU?$char_traits@D@std@@@std@@UAEPAXI@Z 100d5e84     dll.obj
 0002:00023e84       __ehfuncinfo$??_GBulletImpactListener@MISC@FEATURES@@UAEPAXI@Z 100d5e84     EventListeners.obj
 0002:00023e84       __ehfuncinfo$??1?$basic_ios@DU?$char_traits@D@std@@@std@@UAE@XZ 100d5e84     dll.obj
 0002:00023e84       __ehfuncinfo$??_GWeaponFireListener@MISC@FEATURES@@UAEPAXI@Z 100d5e84     EventListeners.obj
 0002:00023e84       __ehfuncinfo$??_D?$basic_fstream@DU?$char_traits@D@std@@@std@@QAEXXZ 100d5e84     dll.obj
 0002:00023e84       __ehfuncinfo$??_G?$basic_iostream@DU?$char_traits@D@std@@@std@@UAEPAXI@Z 100d5e84     dll.obj
 0002:00023e84       __ehfuncinfo$??_Gios_base@std@@UAEPAXI@Z 100d5e84     dll.obj
 0002:00023e84       __ehfuncinfo$??1?$basic_stringbuf@DU?$char_traits@D@std@@V?$allocator@D@2@@std@@UAE@XZ 100d5e84     PPGUI_Commands.obj
 0002:00023e84       __ehfuncinfo$??_D?$basic_ostream@DU?$char_traits@D@std@@@std@@QAEXXZ 100d5e84     libcpmt:cout.obj
 0002:00023e84       __ehfuncinfo$??1?$ImChunkStream@UImGuiTableSettings@@@@QAE@XZ 100d5e84     imgui.obj
 0002:00023e84       __ehfuncinfo$??_G?$basic_ostream@DU?$char_traits@D@std@@@std@@UAEPAXI@Z 100d5e84     dll.obj
 0002:00023e84       __ehfuncinfo$??1?$ImChunkStream@UImGuiWindowSettings@@@@QAE@XZ 100d5e84     imgui.obj
 0002:00023e84       __ehfuncinfo$??_D?$basic_stringstream@DU?$char_traits@D@std@@V?$allocator@D@2@@std@@QAEXXZ 100d5e84     PPGUI_Commands.obj
 0002:00023e84       __ehfuncinfo$??1sentry@?$basic_istream@DU?$char_traits@D@std@@@std@@QAE@XZ 100d5e84     dll.obj
 0002:00023ea8       __ehfuncinfo$?LoadFromFile@CLoad@@QAEPAXPBD@Z 100d5ea8     dll.obj
 0002:00023ecc       __unwindtable$?LoadFromFile@CLoad@@QAEPAXPBD@Z 100d5ecc     dll.obj
 0002:00023f0c       __catchsym$?_Ipfx@?$basic_istream@DU?$char_traits@D@std@@@std@@QAE_N_N@Z$6 100d5f0c     dll.obj
 0002:00023f1c       __tryblocktable$?_Ipfx@?$basic_istream@DU?$char_traits@D@std@@@std@@QAE_N_N@Z 100d5f1c     dll.obj
 0002:00023f30       __ehfuncinfo$?_Ipfx@?$basic_istream@DU?$char_traits@D@std@@@std@@QAE_N_N@Z 100d5f30     dll.obj
 0002:00023f54       __unwindtable$?_Ipfx@?$basic_istream@DU?$char_traits@D@std@@@std@@QAE_N_N@Z 100d5f54     dll.obj
 0002:00023f7c       __catchsym$?read@?$basic_istream@DU?$char_traits@D@std@@@std@@QAEAAV12@PAD_J@Z$6 100d5f7c     dll.obj
 0002:00023f8c       __tryblocktable$?read@?$basic_istream@DU?$char_traits@D@std@@@std@@QAEAAV12@PAD_J@Z 100d5f8c     dll.obj
 0002:00023fa0       __ehfuncinfo$?read@?$basic_istream@DU?$char_traits@D@std@@@std@@QAEAAV12@PAD_J@Z 100d5fa0     dll.obj
 0002:00023fc4       __unwindtable$?read@?$basic_istream@DU?$char_traits@D@std@@@std@@QAEAAV12@PAD_J@Z 100d5fc4     dll.obj
 0002:00023fec       __catchsym$?_Osfx@?$basic_ostream@DU?$char_traits@D@std@@@std@@QAEXXZ$2 100d5fec     dll.obj
 0002:00023ffc       __unwindtable$?_Osfx@?$basic_ostream@DU?$char_traits@D@std@@@std@@QAEXXZ 100d5ffc     dll.obj
 0002:0002400c       __tryblocktable$?_Osfx@?$basic_ostream@DU?$char_traits@D@std@@@std@@QAEXXZ 100d600c     dll.obj
 0002:00024020       __ehfuncinfo$?_Osfx@?$basic_ostream@DU?$char_traits@D@std@@@std@@QAEXXZ 100d6020     dll.obj
 0002:00024044       __unwindtable$?flush@?$basic_ostream@DU?$char_traits@D@std@@@std@@QAEAAV12@XZ 100d6044     dll.obj
 0002:00024064       __ehfuncinfo$?flush@?$basic_ostream@DU?$char_traits@D@std@@@std@@QAEAAV12@XZ 100d6064     dll.obj
 0002:00024088       __ehfuncinfo$??0?$basic_iostream@DU?$char_traits@D@std@@@std@@QAE@PAV?$basic_streambuf@DU?$char_traits@D@std@@@1@@Z 100d6088     dll.obj
 0002:000240ac       __unwindtable$??0?$basic_iostream@DU?$char_traits@D@std@@@std@@QAE@PAV?$basic_streambuf@DU?$char_traits@D@std@@@1@@Z 100d60ac     dll.obj
 0002:000240ec       __ehfuncinfo$??0?$basic_fstream@DU?$char_traits@D@std@@@std@@QAE@PBDHH@Z 100d60ec     dll.obj
 0002:00024110       __unwindtable$??0?$basic_fstream@DU?$char_traits@D@std@@@std@@QAE@PBDHH@Z 100d6110     dll.obj
 0002:00024148       __unwindtable$?uflow@?$basic_filebuf@DU?$char_traits@D@std@@@std@@MAEHXZ 100d6148     dll.obj
 0002:00024150       __ehfuncinfo$?uflow@?$basic_filebuf@DU?$char_traits@D@std@@@std@@MAEHXZ 100d6150     dll.obj
 0002:00024174       __unwindtable$??$use_facet@V?$codecvt@DDU_Mbstatet@@@std@@@std@@YAABV?$codecvt@DDU_Mbstatet@@@0@ABVlocale@0@@Z 100d6174     dll.obj
 0002:0002418c       __ehfuncinfo$??$use_facet@V?$codecvt@DDU_Mbstatet@@@std@@@std@@YAABV?$codecvt@DDU_Mbstatet@@@0@ABVlocale@0@@Z 100d618c     dll.obj
 0002:00024280       __unwindtable$?Do@Aimbot@RAGEBOT@FEATURES@@QAEXPAVCUserCmd@SDK@@@Z 100d6280     Aimbot.obj
 0002:00024288       __ehfuncinfo$?Do@Aimbot@RAGEBOT@FEATURES@@QAEXPAVCUserCmd@SDK@@@Z 100d6288     Aimbot.obj
 0002:000242ac       __ehfuncinfo$?DoHitscan@Aimbot@RAGEBOT@FEATURES@@AAE_NPAVCBaseEntity@SDK@@ABUBacktracking_Record@23@AAVVector@@AAH@Z 100d62ac     Aimbot.obj
 0002:000242d0       __unwindtable$?DoHitscan@Aimbot@RAGEBOT@FEATURES@@AAE_NPAVCBaseEntity@SDK@@ABUBacktracking_Record@23@AAVVector@@AAH@Z 100d62d0     Aimbot.obj
 0002:000242f8       __unwindtable$??R<lambda_115b1d6c016fdc4669f69dce8f4024be>@@QBE?AV?$vector@U?$pair@VVector@@H@std@@V?$allocator@U?$pair@VVector@@H@std@@@2@@std@@_N@Z 100d62f8     Aimbot.obj
 0002:00024300       __ehfuncinfo$??R<lambda_115b1d6c016fdc4669f69dce8f4024be>@@QBE?AV?$vector@U?$pair@VVector@@H@std@@V?$allocator@U?$pair@VVector@@H@std@@@2@@std@@_N@Z 100d6300     Aimbot.obj
 0002:00024324       __unwindtable$?RandomNumber@MATH@@YAMMM@Z 100d6324     Antiaim.obj
 0002:0002432c       __ehfuncinfo$?RandomNumber@MATH@@YAMMM@Z 100d632c     Antiaim.obj
 0002:00024350       __unwindtable$??R<lambda_658b4d7811d43194f49751d86a719d93>@@QBE_NAAM0@Z 100d6350     Antiaim.obj
 0002:00024360       __ehfuncinfo$??R<lambda_658b4d7811d43194f49751d86a719d93>@@QBE_NAAM0@Z 100d6360     Antiaim.obj
 0002:00024384       __unwindtable$?CalculateDamage@Autowall@RAGEBOT@FEATURES@@QAE?AUAutowall_Return_Info@123@VVector@@0PAVCBaseEntity@SDK@@1H@Z 100d6384     Autowall.obj
 0002:0002438c       __ehfuncinfo$?CalculateDamage@Autowall@RAGEBOT@FEATURES@@QAE?AUAutowall_Return_Info@123@VVector@@0PAVCBaseEntity@SDK@@1H@Z 100d638c     Autowall.obj
 0002:000243b0       __unwindtable$?CanPenetrate@Autowall@RAGEBOT@FEATURES@@AAE_NPAVCBaseEntity@SDK@@AAUAutowall_Info@123@PAUWeapon_Info@5@@Z 100d63b0     Autowall.obj
 0002:000243c0       __ehfuncinfo$?CanPenetrate@Autowall@RAGEBOT@FEATURES@@AAE_NPAVCBaseEntity@SDK@@AAUAutowall_Info@123@PAUWeapon_Info@5@@Z 100d63c0     Autowall.obj
 0002:00024400       __unwindtable$?ApplyRestore@CBacktracking@RAGEBOT@FEATURES@@QAEXPAVCBaseEntity@SDK@@M@Z 100d6400     Backtracking.obj
 0002:00024408       __ehfuncinfo$?ApplyRestore@CBacktracking@RAGEBOT@FEATURES@@QAEXPAVCBaseEntity@SDK@@M@Z 100d6408     Backtracking.obj
 0002:0002442c       __unwindtable$?GetPriorityRecords@CBacktracking@RAGEBOT@FEATURES@@QAE?AV?$vector@UBacktracking_Record@RAGEBOT@FEATURES@@V?$allocator@UBacktracking_Record@RAGEBOT@FEATURES@@@std@@@std@@PAVCBaseEntity@SDK@@@Z 100d642c     Backtracking.obj
 0002:0002443c       __ehfuncinfo$?GetPriorityRecords@CBacktracking@RAGEBOT@FEATURES@@QAE?AV?$vector@UBacktracking_Record@RAGEBOT@FEATURES@@V?$allocator@UBacktracking_Record@RAGEBOT@FEATURES@@@std@@@std@@PAVCBaseEntity@SDK@@@Z 100d643c     Backtracking.obj
 0002:00024460       __unwindtable$?GetValidRecords@CBacktracking@RAGEBOT@FEATURES@@QAE?AV?$vector@UBacktracking_Record@RAGEBOT@FEATURES@@V?$allocator@UBacktracking_Record@RAGEBOT@FEATURES@@@std@@@std@@PAVCBaseEntity@SDK@@@Z 100d6460     Backtracking.obj
 0002:00024468       __ehfuncinfo$?GetValidRecords@CBacktracking@RAGEBOT@FEATURES@@QAE?AV?$vector@UBacktracking_Record@RAGEBOT@FEATURES@@V?$allocator@UBacktracking_Record@RAGEBOT@FEATURES@@@std@@@std@@PAVCBaseEntity@SDK@@@Z 100d6468     Backtracking.obj
 0002:0002448c       __unwindtable$?GetLerpTicks@CBacktracking@RAGEBOT@FEATURES@@SAHXZ 100d648c     Backtracking.obj
 0002:000244a4       __ehfuncinfo$?GetLerpTicks@CBacktracking@RAGEBOT@FEATURES@@SAHXZ 100d64a4     Backtracking.obj
 0002:000244c8       __unwindtable$??__Ebacktracking@RAGEBOT@FEATURES@@YAXXZ 100d64c8     Backtracking.obj
 0002:000244d0       __ehfuncinfo$??__Ebacktracking@RAGEBOT@FEATURES@@YAXXZ 100d64d0     Backtracking.obj
 0002:000244f4       __unwindtable$??0?$basic_streambuf@DU?$char_traits@D@std@@@std@@IAE@XZ 100d64f4     libcpmt:cout.obj
 0002:000244f4       __unwindtable$??__Fbacktracking@RAGEBOT@FEATURES@@YAXXZ 100d64f4     Backtracking.obj
 0002:000244f4       __unwindtable$??__Fbullet_impact_listener@MISC@FEATURES@@YAXXZ 100d64f4     EventListeners.obj
 0002:000244f4       __unwindtable$??__Fitem_purchase_listener@MISC@FEATURES@@YAXXZ 100d64f4     EventListeners.obj
 0002:000244f4       __unwindtable$?_Init@ios_base@std@@IAEXXZ 100d64f4     libcpmt:cout.obj
 0002:000244f4       __unwindtable$??__Fplayer_hurt_listener@MISC@FEATURES@@YAXXZ 100d64f4     EventListeners.obj
 0002:000244f4       __unwindtable$??__Fweapon_fire_listener@MISC@FEATURES@@YAXXZ 100d64f4     EventListeners.obj
 0002:000244fc       __ehfuncinfo$??__Fplayer_hurt_listener@MISC@FEATURES@@YAXXZ 100d64fc     EventListeners.obj
 0002:000244fc       __ehfuncinfo$??0?$basic_streambuf@DU?$char_traits@D@std@@@std@@IAE@XZ 100d64fc     libcpmt:cout.obj
 0002:000244fc       __ehfuncinfo$??__Fitem_purchase_listener@MISC@FEATURES@@YAXXZ 100d64fc     EventListeners.obj
 0002:000244fc       __ehfuncinfo$??__Fweapon_fire_listener@MISC@FEATURES@@YAXXZ 100d64fc     EventListeners.obj
 0002:000244fc       __ehfuncinfo$??__Fbacktracking@RAGEBOT@FEATURES@@YAXXZ 100d64fc     Backtracking.obj
 0002:000244fc       __ehfuncinfo$?_Init@ios_base@std@@IAEXXZ 100d64fc     libcpmt:cout.obj
 0002:000244fc       __ehfuncinfo$??__Fbullet_impact_listener@MISC@FEATURES@@YAXXZ 100d64fc     EventListeners.obj
 0002:00024520       __unwindtable$?DrawBoxInfo@CBoxESP@VISUALS@FEATURES@@AAEXPAVCBaseEntity@SDK@@VCColor@@PAVVector@@_N33@Z 100d6520     BoxESP.obj
 0002:00024540       __ehfuncinfo$?DrawBoxInfo@CBoxESP@VISUALS@FEATURES@@AAEXPAVCBaseEntity@SDK@@VCColor@@PAVVector@@_N33@Z 100d6540     BoxESP.obj
 0002:00024564       __unwindtable$?DrawHealthBar@CBoxESP@VISUALS@FEATURES@@AAEXPAVCBaseEntity@SDK@@PAVVector@@H@Z 100d6564     BoxESP.obj
 0002:00024574       __ehfuncinfo$?DrawHealthBar@CBoxESP@VISUALS@FEATURES@@AAEXPAVCBaseEntity@SDK@@PAVVector@@H@Z 100d6574     BoxESP.obj
 0002:00024598       __catchsym$??$_Emplace_reallocate@AAY0N@$$CBDVCColor@@@?$vector@U?$pair@V?$basic_string@DU?$char_traits@D@std@@V?$allocator@D@2@@std@@VCColor@@@std@@V?$allocator@U?$pair@V?$basic_string@DU?$char_traits@D@std@@V?$allocator@D@2@@std@@VCColor@@@std@@@2@@std@@QAEPAU?$pair@V?$basic_string@DU?$char_traits@D@std@@V?$allocator@D@2@@std@@VCColor@@@1@QAU21@AAY0N@$$CBD$$QAVCColor@@@Z$3 100d6598     BoxESP.obj
 0002:000245a8       __unwindtable$??$_Emplace_reallocate@AAY0N@$$CBDVCColor@@@?$vector@U?$pair@V?$basic_string@DU?$char_traits@D@std@@V?$allocator@D@2@@std@@VCColor@@@std@@V?$allocator@U?$pair@V?$basic_string@DU?$char_traits@D@std@@V?$allocator@D@2@@std@@VCColor@@@std@@@2@@std@@QAEPAU?$pair@V?$basic_string@DU?$char_traits@D@std@@V?$allocator@D@2@@std@@VCColor@@@1@QAU21@AAY0N@$$CBD$$QAVCColor@@@Z 100d65a8     BoxESP.obj
 0002:000245b8       __tryblocktable$??$_Emplace_reallocate@AAY0N@$$CBDVCColor@@@?$vector@U?$pair@V?$basic_string@DU?$char_traits@D@std@@V?$allocator@D@2@@std@@VCColor@@@std@@V?$allocator@U?$pair@V?$basic_string@DU?$char_traits@D@std@@V?$allocator@D@2@@std@@VCColor@@@std@@@2@@std@@QAEPAU?$pair@V?$basic_string@DU?$char_traits@D@std@@V?$allocator@D@2@@std@@VCColor@@@1@QAU21@AAY0N@$$CBD$$QAVCColor@@@Z 100d65b8     BoxESP.obj
 0002:000245cc       __ehfuncinfo$??$_Emplace_reallocate@AAY0N@$$CBDVCColor@@@?$vector@U?$pair@V?$basic_string@DU?$char_traits@D@std@@V?$allocator@D@2@@std@@VCColor@@@std@@V?$allocator@U?$pair@V?$basic_string@DU?$char_traits@D@std@@V?$allocator@D@2@@std@@VCColor@@@std@@@2@@std@@QAEPAU?$pair@V?$basic_string@DU?$char_traits@D@std@@V?$allocator@D@2@@std@@VCColor@@@1@QAU21@AAY0N@$$CBD$$QAVCColor@@@Z 100d65cc     BoxESP.obj
 0002:000245f0       __ehfuncinfo$?CreateMaterial@CChams@VISUALS@FEATURES@@QAEPAVIMaterial@SDK@@_N00@Z 100d65f0     Chams.obj
 0002:00024614       __unwindtable$?CreateMaterial@CChams@VISUALS@FEATURES@@QAEPAVIMaterial@SDK@@_N00@Z 100d6614     Chams.obj
 0002:00024644       __unwindtable$?DrawBacktrackPlayer@CChams@VISUALS@FEATURES@@AAEXPAVCBaseEntity@SDK@@@Z 100d6644     Chams.obj
 0002:0002464c       __ehfuncinfo$?DrawBacktrackPlayer@CChams@VISUALS@FEATURES@@AAEXPAVCBaseEntity@SDK@@@Z 100d664c     Chams.obj
 0002:00024670       __unwindtable$?CreateF@RENDER@@YAIV?$basic_string@DU?$char_traits@D@std@@V?$allocator@D@2@@std@@HHHHH@Z 100d6670     render.obj
 0002:00024670       __unwindtable$?PushBack@ColorLine@MISC@FEATURES@@QAEXV?$basic_string@DU?$char_traits@D@std@@V?$allocator@D@2@@std@@VCColor@@@Z 100d6670     EventListeners.obj
 0002:00024678       __ehfuncinfo$?CreateF@RENDER@@YAIV?$basic_string@DU?$char_traits@D@std@@V?$allocator@D@2@@std@@HHHHH@Z 100d6678     render.obj
 0002:00024678       __ehfuncinfo$?PushBack@ColorLine@MISC@FEATURES@@QAEXV?$basic_string@DU?$char_traits@D@std@@V?$allocator@D@2@@std@@VCColor@@@Z 100d6678     EventListeners.obj
 0002:0002469c       __catchsym$??0?$vector@V?$basic_string@DU?$char_traits@D@std@@V?$allocator@D@2@@std@@V?$allocator@V?$basic_string@DU?$char_traits@D@std@@V?$allocator@D@2@@std@@@2@@std@@QAE@ABV01@@Z$3 100d669c     EventListeners.obj
 0002:000246ac       __tryblocktable$??0?$vector@V?$basic_string@DU?$char_traits@D@std@@V?$allocator@D@2@@std@@V?$allocator@V?$basic_string@DU?$char_traits@D@std@@V?$allocator@D@2@@std@@@2@@std@@QAE@ABV01@@Z 100d66ac     EventListeners.obj
 0002:000246c0       __unwindtable$??0?$vector@V?$basic_string@DU?$char_traits@D@std@@V?$allocator@D@2@@std@@V?$allocator@V?$basic_string@DU?$char_traits@D@std@@V?$allocator@D@2@@std@@@2@@std@@QAE@ABV01@@Z 100d66c0     EventListeners.obj
 0002:000246d8       __ehfuncinfo$??0?$vector@V?$basic_string@DU?$char_traits@D@std@@V?$allocator@D@2@@std@@V?$allocator@V?$basic_string@DU?$char_traits@D@std@@V?$allocator@D@2@@std@@@2@@std@@QAE@ABV01@@Z 100d66d8     EventListeners.obj
 0002:000246fc       __unwindtable$??0Log@InGameLogger@MISC@FEATURES@@QAE@XZ 100d66fc     EventListeners.obj
 0002:00024704       __ehfuncinfo$??0Log@InGameLogger@MISC@FEATURES@@QAE@XZ 100d6704     EventListeners.obj
 0002:00024728       __unwindtable$??0Log@InGameLogger@MISC@FEATURES@@QAE@ABU0123@@Z 100d6728     EventListeners.obj
 0002:00024730       __ehfuncinfo$??0Log@InGameLogger@MISC@FEATURES@@QAE@ABU0123@@Z 100d6730     EventListeners.obj
 0002:00024754       __unwindtable$?AddLog@InGameLogger@MISC@FEATURES@@QAEXULog@123@@Z 100d6754     EventListeners.obj
 0002:0002475c       __ehfuncinfo$?AddLog@InGameLogger@MISC@FEATURES@@QAEXULog@123@@Z 100d675c     EventListeners.obj
 0002:00024780       __unwindtable$?InitializeEventListeners@MISC@FEATURES@@YAXXZ 100d6780     EventListeners.obj
 0002:000247a0       __ehfuncinfo$?InitializeEventListeners@MISC@FEATURES@@YAXXZ 100d67a0     EventListeners.obj
 0002:000247c4       __unwindtable$?FireGameEvent@ItemPurchaseListener@MISC@FEATURES@@UAEXPAVIGameEvent@SDK@@@Z 100d67c4     EventListeners.obj
 0002:000247cc       __ehfuncinfo$?FireGameEvent@ItemPurchaseListener@MISC@FEATURES@@UAEXPAVIGameEvent@SDK@@@Z 100d67cc     EventListeners.obj
 0002:000247f0       __unwindtable$?FireGameEvent@PlayerHurtListener@MISC@FEATURES@@UAEXPAVIGameEvent@SDK@@@Z 100d67f0     EventListeners.obj
 0002:00024800       __ehfuncinfo$?FireGameEvent@PlayerHurtListener@MISC@FEATURES@@UAEXPAVIGameEvent@SDK@@@Z 100d6800     EventListeners.obj
 0002:00024824       __unwindtable$??$emplace@ABULog@InGameLogger@MISC@FEATURES@@@?$vector@ULog@InGameLogger@MISC@FEATURES@@V?$allocator@ULog@InGameLogger@MISC@FEATURES@@@std@@@std@@QAE?AV?$_Vector_iterator@V?$_Vector_val@U?$_Simple_types@ULog@InGameLogger@MISC@FEATURES@@@std@@@std@@@1@V?$_Vector_const_iterator@V?$_Vector_val@U?$_Simple_types@ULog@InGameLogger@MISC@FEATURES@@@std@@@std@@@1@ABULog@InGameLogger@MISC@FEATURES@@@Z 100d6824     EventListeners.obj
 0002:00024834       __ehfuncinfo$??$emplace@ABULog@InGameLogger@MISC@FEATURES@@@?$vector@ULog@InGameLogger@MISC@FEATURES@@V?$allocator@ULog@InGameLogger@MISC@FEATURES@@@std@@@std@@QAE?AV?$_Vector_iterator@V?$_Vector_val@U?$_Simple_types@ULog@InGameLogger@MISC@FEATURES@@@std@@@std@@@1@V?$_Vector_const_iterator@V?$_Vector_val@U?$_Simple_types@ULog@InGameLogger@MISC@FEATURES@@@std@@@std@@@1@ABULog@InGameLogger@MISC@FEATURES@@@Z 100d6834     EventListeners.obj
 0002:00024858       __catchsym$??$_Emplace_reallocate@ABV?$basic_string@DU?$char_traits@D@std@@V?$allocator@D@2@@std@@@?$vector@V?$basic_string@DU?$char_traits@D@std@@V?$allocator@D@2@@std@@V?$allocator@V?$basic_string@DU?$char_traits@D@std@@V?$allocator@D@2@@std@@@2@@std@@QAEPAV?$basic_string@DU?$char_traits@D@std@@V?$allocator@D@2@@1@QAV21@ABV21@@Z$2 100d6858     EventListeners.obj
 0002:00024868       __unwindtable$??$_Emplace_reallocate@ABV?$basic_string@DU?$char_traits@D@std@@V?$allocator@D@2@@std@@@?$vector@V?$basic_string@DU?$char_traits@D@std@@V?$allocator@D@2@@std@@V?$allocator@V?$basic_string@DU?$char_traits@D@std@@V?$allocator@D@2@@std@@@2@@std@@QAEPAV?$basic_string@DU?$char_traits@D@std@@V?$allocator@D@2@@1@QAV21@ABV21@@Z 100d6868     EventListeners.obj
 0002:00024878       __tryblocktable$??$_Emplace_reallocate@ABV?$basic_string@DU?$char_traits@D@std@@V?$allocator@D@2@@std@@@?$vector@V?$basic_string@DU?$char_traits@D@std@@V?$allocator@D@2@@std@@V?$allocator@V?$basic_string@DU?$char_traits@D@std@@V?$allocator@D@2@@std@@@2@@std@@QAEPAV?$basic_string@DU?$char_traits@D@std@@V?$allocator@D@2@@1@QAV21@ABV21@@Z 100d6878     EventListeners.obj
 0002:0002488c       __ehfuncinfo$??$_Emplace_reallocate@ABV?$basic_string@DU?$char_traits@D@std@@V?$allocator@D@2@@std@@@?$vector@V?$basic_string@DU?$char_traits@D@std@@V?$allocator@D@2@@std@@V?$allocator@V?$basic_string@DU?$char_traits@D@std@@V?$allocator@D@2@@std@@@2@@std@@QAEPAV?$basic_string@DU?$char_traits@D@std@@V?$allocator@D@2@@1@QAV21@ABV21@@Z 100d688c     EventListeners.obj
 0002:000248b0       __catchsym$??$_Emplace_reallocate@ABULog@InGameLogger@MISC@FEATURES@@@?$vector@ULog@InGameLogger@MISC@FEATURES@@V?$allocator@ULog@InGameLogger@MISC@FEATURES@@@std@@@std@@QAEPAULog@InGameLogger@MISC@FEATURES@@QAU2345@ABU2345@@Z$7 100d68b0     EventListeners.obj
 0002:000248c0       __tryblocktable$??$_Emplace_reallocate@ABULog@InGameLogger@MISC@FEATURES@@@?$vector@ULog@InGameLogger@MISC@FEATURES@@V?$allocator@ULog@InGameLogger@MISC@FEATURES@@@std@@@std@@QAEPAULog@InGameLogger@MISC@FEATURES@@QAU2345@ABU2345@@Z 100d68c0     EventListeners.obj
 0002:000248d4       __unwindtable$??$_Emplace_reallocate@ABULog@InGameLogger@MISC@FEATURES@@@?$vector@ULog@InGameLogger@MISC@FEATURES@@V?$allocator@ULog@InGameLogger@MISC@FEATURES@@@std@@@std@@QAEPAULog@InGameLogger@MISC@FEATURES@@QAU2345@ABU2345@@Z 100d68d4     EventListeners.obj
 0002:000248ec       __ehfuncinfo$??$_Emplace_reallocate@ABULog@InGameLogger@MISC@FEATURES@@@?$vector@ULog@InGameLogger@MISC@FEATURES@@V?$allocator@ULog@InGameLogger@MISC@FEATURES@@@std@@@std@@QAEPAULog@InGameLogger@MISC@FEATURES@@QAU2345@ABU2345@@Z 100d68ec     EventListeners.obj
 0002:00024910       __unwindtable$?Do@InGameLogger@MISC@FEATURES@@QAEXXZ 100d6910     InGameLogger.obj
 0002:00024920       __ehfuncinfo$?Do@InGameLogger@MISC@FEATURES@@QAEXXZ 100d6920     InGameLogger.obj
 0002:00024944       __unwindtable$?ClantagChanger@MISC@FEATURES@@YAXXZ 100d6944     Misc.obj
 0002:00024954       __ehfuncinfo$?ClantagChanger@MISC@FEATURES@@YAXXZ 100d6954     Misc.obj
 0002:00024978       __ehfuncinfo$?LoadUserConfig@MISC@FEATURES@@YAXXZ 100d6978     Misc.obj
 0002:0002499c       __unwindtable$?LoadUserConfig@MISC@FEATURES@@YAXXZ 100d699c     Misc.obj
 0002:000249cc       __unwindtable$?DrawMisc@MISC@FEATURES@@YAXXZ 100d69cc     Misc.obj
 0002:000249dc       __ehfuncinfo$?DrawMisc@MISC@FEATURES@@YAXXZ 100d69dc     Misc.obj
 0002:00024a00       __unwindtable$??R<lambda_a6669d928a94ba27917059d5a85f90cd>@@QBE@PBD0@Z 100d6a00     Misc.obj
 0002:00024a20       __ehfuncinfo$??R<lambda_a6669d928a94ba27917059d5a85f90cd>@@QBE@PBD0@Z 100d6a20     Misc.obj
 0002:00024a44       __unwindtable$?widen@?$basic_ios@DU?$char_traits@D@std@@@std@@QBEDD@Z 100d6a44     Misc.obj
 0002:00024a5c       __ehfuncinfo$?widen@?$basic_ios@DU?$char_traits@D@std@@@std@@QBEDD@Z 100d6a5c     Misc.obj
 0002:00024a80       __catchsym$?put@?$basic_ostream@DU?$char_traits@D@std@@@std@@QAEAAV12@D@Z$6 100d6a80     Misc.obj
 0002:00024a90       __tryblocktable$?put@?$basic_ostream@DU?$char_traits@D@std@@@std@@QAEAAV12@D@Z 100d6a90     Misc.obj
 0002:00024aa4       __ehfuncinfo$?put@?$basic_ostream@DU?$char_traits@D@std@@@std@@QAEAAV12@D@Z 100d6aa4     Misc.obj
 0002:00024ac8       __unwindtable$?put@?$basic_ostream@DU?$char_traits@D@std@@@std@@QAEAAV12@D@Z 100d6ac8     Misc.obj
 0002:00024af8       __catchsym$??$?6U?$char_traits@D@std@@@std@@YAAAV?$basic_ostream@DU?$char_traits@D@std@@@0@AAV10@PBD@Z$6 100d6af8     Misc.obj
 0002:00024b08       __tryblocktable$??$?6U?$char_traits@D@std@@@std@@YAAAV?$basic_ostream@DU?$char_traits@D@std@@@0@AAV10@PBD@Z 100d6b08     Misc.obj
 0002:00024b1c       __ehfuncinfo$??$?6U?$char_traits@D@std@@@std@@YAAAV?$basic_ostream@DU?$char_traits@D@std@@@0@AAV10@PBD@Z 100d6b1c     Misc.obj
 0002:00024b40       __unwindtable$??$?6U?$char_traits@D@std@@@std@@YAAAV?$basic_ostream@DU?$char_traits@D@std@@@0@AAV10@PBD@Z 100d6b40     Misc.obj
 0002:00024b70       __unwindtable$??R<lambda_7411d79f4ee59d52de45b16a5109c3cd>@@QBE?AV?$vector@V?$vector@V?$basic_string@DU?$char_traits@D@std@@V?$allocator@D@2@@std@@V?$allocator@V?$basic_string@DU?$char_traits@D@std@@V?$allocator@D@2@@std@@@2@@std@@V?$allocator@V?$vector@V?$basic_string@DU?$char_traits@D@std@@V?$allocator@D@2@@std@@V?$allocator@V?$basic_string@DU?$char_traits@D@std@@V?$allocator@D@2@@std@@@2@@std@@@2@@std@@XZ 100d6b70     Misc.obj
 0002:00024b88       __ehfuncinfo$??R<lambda_7411d79f4ee59d52de45b16a5109c3cd>@@QBE?AV?$vector@V?$vector@V?$basic_string@DU?$char_traits@D@std@@V?$allocator@D@2@@std@@V?$allocator@V?$basic_string@DU?$char_traits@D@std@@V?$allocator@D@2@@std@@@2@@std@@V?$allocator@V?$vector@V?$basic_string@DU?$char_traits@D@std@@V?$allocator@D@2@@std@@V?$allocator@V?$basic_string@DU?$char_traits@D@std@@V?$allocator@D@2@@std@@@2@@std@@@2@@std@@XZ 100d6b88     Misc.obj
 0002:00024bac       __unwindtable$??R<lambda_b58585d07ca0d6147613ae0d72d6a7d6>@@QBE?AV?$vector@V?$basic_string@DU?$char_traits@D@std@@V?$allocator@D@2@@std@@V?$allocator@V?$basic_string@DU?$char_traits@D@std@@V?$allocator@D@2@@std@@@2@@std@@V?$basic_string@DU?$char_traits@D@std@@V?$allocator@D@2@@2@@Z 100d6bac     Misc.obj
 0002:00024bcc       __ehfuncinfo$??R<lambda_b58585d07ca0d6147613ae0d72d6a7d6>@@QBE?AV?$vector@V?$basic_string@DU?$char_traits@D@std@@V?$allocator@D@2@@std@@V?$allocator@V?$basic_string@DU?$char_traits@D@std@@V?$allocator@D@2@@std@@@2@@std@@V?$basic_string@DU?$char_traits@D@std@@V?$allocator@D@2@@2@@Z 100d6bcc     Misc.obj
 0002:00024bf0       __unwindtable$??R<lambda_fd5eead23b1c8bddaf702e8e75d246a3>@@QBE?AU?$pair@V?$basic_string@DU?$char_traits@D@std@@V?$allocator@D@2@@std@@D@std@@XZ 100d6bf0     Misc.obj
 0002:00024bf8       __ehfuncinfo$??R<lambda_fd5eead23b1c8bddaf702e8e75d246a3>@@QBE?AU?$pair@V?$basic_string@DU?$char_traits@D@std@@V?$allocator@D@2@@std@@D@std@@XZ 100d6bf8     Misc.obj
 0002:00024c1c       __unwindtable$??R<lambda_904ef878f4742172dfbc63f88a754c38>@@QBE?AU?$pair@V?$basic_string@DU?$char_traits@D@std@@V?$allocator@D@2@@std@@D@std@@XZ 100d6c1c     Misc.obj
 0002:00024c24       __ehfuncinfo$??R<lambda_904ef878f4742172dfbc63f88a754c38>@@QBE?AU?$pair@V?$basic_string@DU?$char_traits@D@std@@V?$allocator@D@2@@std@@D@std@@XZ 100d6c24     Misc.obj
 0002:00024c48       __catchsym$??$_Emplace_reallocate@ABV?$vector@V?$basic_string@DU?$char_traits@D@std@@V?$allocator@D@2@@std@@V?$allocator@V?$basic_string@DU?$char_traits@D@std@@V?$allocator@D@2@@std@@@2@@std@@@?$vector@V?$vector@V?$basic_string@DU?$char_traits@D@std@@V?$allocator@D@2@@std@@V?$allocator@V?$basic_string@DU?$char_traits@D@std@@V?$allocator@D@2@@std@@@2@@std@@V?$allocator@V?$vector@V?$basic_string@DU?$char_traits@D@std@@V?$allocator@D@2@@std@@V?$allocator@V?$basic_string@DU?$char_traits@D@std@@V?$allocator@D@2@@std@@@2@@std@@@2@@std@@QAEPAV?$vector@V?$basic_string@DU?$char_traits@D@std@@V?$allocator@D@2@@std@@V?$allocator@V?$basic_string@DU?$char_traits@D@std@@V?$allocator@D@2@@std@@@2@@1@QAV21@ABV21@@Z$2 100d6c48     Misc.obj
 0002:00024c58       __unwindtable$??$_Emplace_reallocate@ABV?$vector@V?$basic_string@DU?$char_traits@D@std@@V?$allocator@D@2@@std@@V?$allocator@V?$basic_string@DU?$char_traits@D@std@@V?$allocator@D@2@@std@@@2@@std@@@?$vector@V?$vector@V?$basic_string@DU?$char_traits@D@std@@V?$allocator@D@2@@std@@V?$allocator@V?$basic_string@DU?$char_traits@D@std@@V?$allocator@D@2@@std@@@2@@std@@V?$allocator@V?$vector@V?$basic_string@DU?$char_traits@D@std@@V?$allocator@D@2@@std@@V?$allocator@V?$basic_string@DU?$char_traits@D@std@@V?$allocator@D@2@@std@@@2@@std@@@2@@std@@QAEPAV?$vector@V?$basic_string@DU?$char_traits@D@std@@V?$allocator@D@2@@std@@V?$allocator@V?$basic_string@DU?$char_traits@D@std@@V?$allocator@D@2@@std@@@2@@1@QAV21@ABV21@@Z 100d6c58     Misc.obj
 0002:00024c68       __tryblocktable$??$_Emplace_reallocate@ABV?$vector@V?$basic_string@DU?$char_traits@D@std@@V?$allocator@D@2@@std@@V?$allocator@V?$basic_string@DU?$char_traits@D@std@@V?$allocator@D@2@@std@@@2@@std@@@?$vector@V?$vector@V?$basic_string@DU?$char_traits@D@std@@V?$allocator@D@2@@std@@V?$allocator@V?$basic_string@DU?$char_traits@D@std@@V?$allocator@D@2@@std@@@2@@std@@V?$allocator@V?$vector@V?$basic_string@DU?$char_traits@D@std@@V?$allocator@D@2@@std@@V?$allocator@V?$basic_string@DU?$char_traits@D@std@@V?$allocator@D@2@@std@@@2@@std@@@2@@std@@QAEPAV?$vector@V?$basic_string@DU?$char_traits@D@std@@V?$allocator@D@2@@std@@V?$allocator@V?$basic_string@DU?$char_traits@D@std@@V?$allocator@D@2@@std@@@2@@1@QAV21@ABV21@@Z 100d6c68     Misc.obj
 0002:00024c7c       __ehfuncinfo$??$_Emplace_reallocate@ABV?$vector@V?$basic_string@DU?$char_traits@D@std@@V?$allocator@D@2@@std@@V?$allocator@V?$basic_string@DU?$char_traits@D@std@@V?$allocator@D@2@@std@@@2@@std@@@?$vector@V?$vector@V?$basic_string@DU?$char_traits@D@std@@V?$allocator@D@2@@std@@V?$allocator@V?$basic_string@DU?$char_traits@D@std@@V?$allocator@D@2@@std@@@2@@std@@V?$allocator@V?$vector@V?$basic_string@DU?$char_traits@D@std@@V?$allocator@D@2@@std@@V?$allocator@V?$basic_string@DU?$char_traits@D@std@@V?$allocator@D@2@@std@@@2@@std@@@2@@std@@QAEPAV?$vector@V?$basic_string@DU?$char_traits@D@std@@V?$allocator@D@2@@std@@V?$allocator@V?$basic_string@DU?$char_traits@D@std@@V?$allocator@D@2@@std@@@2@@1@QAV21@ABV21@@Z 100d6c7c     Misc.obj
 0002:00024ca0       __unwindtable$??0sentry@?$basic_ostream@DU?$char_traits@D@std@@@std@@QAE@AAV12@@Z 100d6ca0     Misc.obj
 0002:00024ca8       __ehfuncinfo$??0sentry@?$basic_ostream@DU?$char_traits@D@std@@@std@@QAE@AAV12@@Z 100d6ca8     Misc.obj
 0002:00024ccc       __catchsym$??$getline@DU?$char_traits@D@std@@V?$allocator@D@2@@std@@YAAAV?$basic_istream@DU?$char_traits@D@std@@@0@$$QAV10@AAV?$basic_string@DU?$char_traits@D@std@@V?$allocator@D@2@@0@D@Z$6 100d6ccc     Misc.obj
 0002:00024cdc       __tryblocktable$??$getline@DU?$char_traits@D@std@@V?$allocator@D@2@@std@@YAAAV?$basic_istream@DU?$char_traits@D@std@@@0@$$QAV10@AAV?$basic_string@DU?$char_traits@D@std@@V?$allocator@D@2@@0@D@Z 100d6cdc     Misc.obj
 0002:00024cf0       __ehfuncinfo$??$getline@DU?$char_traits@D@std@@V?$allocator@D@2@@std@@YAAAV?$basic_istream@DU?$char_traits@D@std@@@0@$$QAV10@AAV?$basic_string@DU?$char_traits@D@std@@V?$allocator@D@2@@0@D@Z 100d6cf0     Misc.obj
 0002:00024d14       __unwindtable$??$getline@DU?$char_traits@D@std@@V?$allocator@D@2@@std@@YAAAV?$basic_istream@DU?$char_traits@D@std@@@0@$$QAV10@AAV?$basic_string@DU?$char_traits@D@std@@V?$allocator@D@2@@0@D@Z 100d6d14     Misc.obj
 0002:00024d3c       __catchsym$??$_Insert_hint@AAU?$pair@$$CBHPAX@std@@PAU?$_Tree_node@U?$pair@$$CBHPAX@std@@PAX@2@@?$_Tree@V?$_Tmap_traits@HPAXU?$less@H@std@@V?$allocator@U?$pair@$$CBHPAX@std@@@2@$0A@@std@@@std@@IAE?AV?$_Tree_iterator@V?$_Tree_val@U?$_Tree_simple_types@U?$pair@$$CBHPAX@std@@@std@@@std@@@1@V?$_Tree_const_iterator@V?$_Tree_val@U?$_Tree_simple_types@U?$pair@$$CBHPAX@std@@@std@@@std@@@1@AAU?$pair@$$CBHPAX@1@PAU?$_Tree_node@U?$pair@$$CBHPAX@std@@PAX@1@@Z$2 100d6d3c     Misc.obj
 0002:00024d4c       __unwindtable$??$_Insert_hint@AAU?$pair@$$CBHPAX@std@@PAU?$_Tree_node@U?$pair@$$CBHPAX@std@@PAX@2@@?$_Tree@V?$_Tmap_traits@HPAXU?$less@H@std@@V?$allocator@U?$pair@$$CBHPAX@std@@@2@$0A@@std@@@std@@IAE?AV?$_Tree_iterator@V?$_Tree_val@U?$_Tree_simple_types@U?$pair@$$CBHPAX@std@@@std@@@std@@@1@V?$_Tree_const_iterator@V?$_Tree_val@U?$_Tree_simple_types@U?$pair@$$CBHPAX@std@@@std@@@std@@@1@AAU?$pair@$$CBHPAX@1@PAU?$_Tree_node@U?$pair@$$CBHPAX@std@@PAX@1@@Z 100d6d4c     Misc.obj
 0002:00024d5c       __tryblocktable$??$_Insert_hint@AAU?$pair@$$CBHPAX@std@@PAU?$_Tree_node@U?$pair@$$CBHPAX@std@@PAX@2@@?$_Tree@V?$_Tmap_traits@HPAXU?$less@H@std@@V?$allocator@U?$pair@$$CBHPAX@std@@@2@$0A@@std@@@std@@IAE?AV?$_Tree_iterator@V?$_Tree_val@U?$_Tree_simple_types@U?$pair@$$CBHPAX@std@@@std@@@std@@@1@V?$_Tree_const_iterator@V?$_Tree_val@U?$_Tree_simple_types@U?$pair@$$CBHPAX@std@@@std@@@std@@@1@AAU?$pair@$$CBHPAX@1@PAU?$_Tree_node@U?$pair@$$CBHPAX@std@@PAX@1@@Z 100d6d5c     Misc.obj
 0002:00024d70       __ehfuncinfo$??$_Insert_hint@AAU?$pair@$$CBHPAX@std@@PAU?$_Tree_node@U?$pair@$$CBHPAX@std@@PAX@2@@?$_Tree@V?$_Tmap_traits@HPAXU?$less@H@std@@V?$allocator@U?$pair@$$CBHPAX@std@@@2@$0A@@std@@@std@@IAE?AV?$_Tree_iterator@V?$_Tree_val@U?$_Tree_simple_types@U?$pair@$$CBHPAX@std@@@std@@@std@@@1@V?$_Tree_const_iterator@V?$_Tree_val@U?$_Tree_simple_types@U?$pair@$$CBHPAX@std@@@std@@@std@@@1@AAU?$pair@$$CBHPAX@1@PAU?$_Tree_node@U?$pair@$$CBHPAX@std@@PAX@1@@Z 100d6d70     Misc.obj
 0002:00024d94       __catchsym$??$_Insert_nohint@AAU?$pair@$$CBHPAX@std@@PAU?$_Tree_node@U?$pair@$$CBHPAX@std@@PAX@2@@?$_Tree@V?$_Tmap_traits@HPAXU?$less@H@std@@V?$allocator@U?$pair@$$CBHPAX@std@@@2@$0A@@std@@@std@@IAE?AU?$pair@V?$_Tree_iterator@V?$_Tree_val@U?$_Tree_simple_types@U?$pair@$$CBHPAX@std@@@std@@@std@@@std@@_N@1@_NAAU?$pair@$$CBHPAX@1@PAU?$_Tree_node@U?$pair@$$CBHPAX@std@@PAX@1@@Z$2 100d6d94     Misc.obj
 0002:00024da4       __unwindtable$??$_Insert_nohint@AAU?$pair@$$CBHPAX@std@@PAU?$_Tree_node@U?$pair@$$CBHPAX@std@@PAX@2@@?$_Tree@V?$_Tmap_traits@HPAXU?$less@H@std@@V?$allocator@U?$pair@$$CBHPAX@std@@@2@$0A@@std@@@std@@IAE?AU?$pair@V?$_Tree_iterator@V?$_Tree_val@U?$_Tree_simple_types@U?$pair@$$CBHPAX@std@@@std@@@std@@@std@@_N@1@_NAAU?$pair@$$CBHPAX@1@PAU?$_Tree_node@U?$pair@$$CBHPAX@std@@PAX@1@@Z 100d6da4     Misc.obj
 0002:00024db4       __tryblocktable$??$_Insert_nohint@AAU?$pair@$$CBHPAX@std@@PAU?$_Tree_node@U?$pair@$$CBHPAX@std@@PAX@2@@?$_Tree@V?$_Tmap_traits@HPAXU?$less@H@std@@V?$allocator@U?$pair@$$CBHPAX@std@@@2@$0A@@std@@@std@@IAE?AU?$pair@V?$_Tree_iterator@V?$_Tree_val@U?$_Tree_simple_types@U?$pair@$$CBHPAX@std@@@std@@@std@@@std@@_N@1@_NAAU?$pair@$$CBHPAX@1@PAU?$_Tree_node@U?$pair@$$CBHPAX@std@@PAX@1@@Z 100d6db4     Misc.obj
 0002:00024dc8       __ehfuncinfo$??$_Insert_nohint@AAU?$pair@$$CBHPAX@std@@PAU?$_Tree_node@U?$pair@$$CBHPAX@std@@PAX@2@@?$_Tree@V?$_Tmap_traits@HPAXU?$less@H@std@@V?$allocator@U?$pair@$$CBHPAX@std@@@2@$0A@@std@@@std@@IAE?AU?$pair@V?$_Tree_iterator@V?$_Tree_val@U?$_Tree_simple_types@U?$pair@$$CBHPAX@std@@@std@@@std@@@std@@_N@1@_NAAU?$pair@$$CBHPAX@1@PAU?$_Tree_node@U?$pair@$$CBHPAX@std@@PAX@1@@Z 100d6dc8     Misc.obj
 0002:00024dec       __ehfuncinfo$?TranslateResolveRecord@Resolver@RAGEBOT@FEATURES@@QAE?AV?$basic_string@DU?$char_traits@D@std@@V?$allocator@D@2@@std@@G@Z 100d6dec     Resolver.obj
 0002:00024e10       __unwindtable$?TranslateResolveRecord@Resolver@RAGEBOT@FEATURES@@QAE?AV?$basic_string@DU?$char_traits@D@std@@V?$allocator@D@2@@std@@G@Z 100d6e10     Resolver.obj
 0002:00024e78       __unwindtable$?EventCallback@Resolver@RAGEBOT@FEATURES@@QAEXPAVIGameEvent@SDK@@@Z 100d6e78     Resolver.obj
 0002:00024e90       __ehfuncinfo$?EventCallback@Resolver@RAGEBOT@FEATURES@@QAEXPAVIGameEvent@SDK@@@Z 100d6e90     Resolver.obj
 0002:00024eb4       __unwindtable$?ProcessSnapShots@Resolver@RAGEBOT@FEATURES@@AAEXXZ 100d6eb4     Resolver.obj
 0002:00024ec4       __ehfuncinfo$?ProcessSnapShots@Resolver@RAGEBOT@FEATURES@@AAEXXZ 100d6ec4     Resolver.obj
 0002:00024ee8       __unwindtable$?UpdateResolveRecord@Resolver@RAGEBOT@FEATURES@@AAEXPAVCBaseEntity@SDK@@@Z 100d6ee8     Resolver.obj
 0002:00024ef0       __ehfuncinfo$?UpdateResolveRecord@Resolver@RAGEBOT@FEATURES@@AAEXPAVCBaseEntity@SDK@@@Z 100d6ef0     Resolver.obj
 0002:00024f14       __unwindtable$?ResolveYaw@Resolver@RAGEBOT@FEATURES@@AAEXPAVCBaseEntity@SDK@@@Z 100d6f14     Resolver.obj
 0002:00024f1c       __ehfuncinfo$?ResolveYaw@Resolver@RAGEBOT@FEATURES@@AAEXPAVCBaseEntity@SDK@@@Z 100d6f1c     Resolver.obj
 0002:00024f40       __ehfuncinfo$??0Log@InGameLogger@MISC@FEATURES@@QAE@V?$basic_string@DU?$char_traits@D@std@@V?$allocator@D@2@@std@@VCColor@@@Z 100d6f40     Resolver.obj
 0002:00024f64       __unwindtable$??0Log@InGameLogger@MISC@FEATURES@@QAE@V?$basic_string@DU?$char_traits@D@std@@V?$allocator@D@2@@std@@VCColor@@@Z 100d6f64     Resolver.obj
 0002:00024f8c       __unwindtable$??$?HDU?$char_traits@D@std@@V?$allocator@D@1@@std@@YA?AV?$basic_string@DU?$char_traits@D@std@@V?$allocator@D@2@@0@QBDABV10@@Z 100d6f8c     Resolver.obj
 0002:00024f94       __ehfuncinfo$??$?HDU?$char_traits@D@std@@V?$allocator@D@1@@std@@YA?AV?$basic_string@DU?$char_traits@D@std@@V?$allocator@D@2@@0@QBDABV10@@Z 100d6f94     Resolver.obj
 0002:00024fb8       __unwindtable$?Save@Configuration@SETTINGS@@QAE_NPBDI@Z 100d6fb8     Configurations.obj
 0002:00024fc0       __ehfuncinfo$?Save@Configuration@SETTINGS@@QAE_NPBDI@Z 100d6fc0     Configurations.obj
 0002:00024fe4       __unwindtable$?Load@Configuration@SETTINGS@@QAE_NPBDI@Z 100d6fe4     Configurations.obj
 0002:00024ff4       __ehfuncinfo$?Load@Configuration@SETTINGS@@QAE_NPBDI@Z 100d6ff4     Configurations.obj
 0002:00025018       __unwindtable$?CreateConfig@Configuration@SETTINGS@@SA_NPBD0@Z 100d7018     Configurations.obj
 0002:00025020       __ehfuncinfo$?CreateConfig@Configuration@SETTINGS@@SA_NPBD0@Z 100d7020     Configurations.obj
 0002:00025044       __catchsym$?Do@SkinChanger@MISC@FEATURES@@QAEXXZ$4 100d7044     SkinChanger.obj
 0002:00025054       __tryblocktable$?Do@SkinChanger@MISC@FEATURES@@QAEXXZ 100d7054     SkinChanger.obj
 0002:00025068       __unwindtable$?Do@SkinChanger@MISC@FEATURES@@QAEXXZ 100d7068     SkinChanger.obj
 0002:00025080       __ehfuncinfo$?Do@SkinChanger@MISC@FEATURES@@QAEXXZ 100d7080     SkinChanger.obj
 0002:000250bc       __unwindtable$?Do@VisualizeBacktrack@VISUALS@FEATURES@@QAEXXZ 100d70bc     VisualizeBacktrack.obj
 0002:000250c4       __ehfuncinfo$?Do@VisualizeBacktrack@VISUALS@FEATURES@@QAEXXZ 100d70c4     VisualizeBacktrack.obj
 0002:000250e8       __unwindtable$?DrawGrenadePrediction@VisualsMisc@VISUALS@FEATURES@@AAEXXZ 100d70e8     VisualsMisc.obj
 0002:00025100       __ehfuncinfo$?DrawGrenadePrediction@VisualsMisc@VISUALS@FEATURES@@AAEXXZ 100d7100     VisualsMisc.obj
 0002:00025124       __unwindtable$?DoFSN@WorldTextures@VISUALS@FEATURES@@QAEXXZ 100d7124     World Textures.obj
 0002:0002512c       __ehfuncinfo$?DoFSN@WorldTextures@VISUALS@FEATURES@@QAEXXZ 100d712c     World Textures.obj
 0002:00025150       __unwindtable$?CreateContext@ImGui@@YAPAUImGuiContext@@PAUImFontAtlas@@@Z 100d7150     imgui.obj
 0002:00025158       __ehfuncinfo$?CreateContext@ImGui@@YAPAUImGuiContext@@PAUImFontAtlas@@@Z 100d7158     imgui.obj
 0002:0002517c       __ehfuncinfo$??1ImDrawList@@QAE@XZ 100d717c     imgui.obj
 0002:000251a0       __unwindtable$??1ImDrawList@@QAE@XZ 100d71a0     imgui.obj
 0002:000251e0       __unwindtable$?ImFileOpen@@YAPAU_iobuf@@PBD0@Z 100d71e0     imgui.obj
 0002:000251f0       __ehfuncinfo$?ImFileOpen@@YAPAU_iobuf@@PBD0@Z 100d71f0     imgui.obj
 0002:00025214       __unwindtable$??1ImFont@@QAE@XZ 100d7214     imgui_draw.obj
 0002:00025214       __unwindtable$??1ImGuiInputTextState@@QAE@XZ 100d7214     imgui.obj
 0002:00025214       __unwindtable$??1ImGuiWindowTempData@@QAE@XZ 100d7214     imgui.obj
 0002:0002522c       __ehfuncinfo$??1ImFont@@QAE@XZ 100d722c     imgui_draw.obj
 0002:0002522c       __ehfuncinfo$??1ImGuiWindowTempData@@QAE@XZ 100d722c     imgui.obj
 0002:0002522c       __ehfuncinfo$??1ImGuiInputTextState@@QAE@XZ 100d722c     imgui.obj
 0002:00025250       __unwindtable$??1?$ImPool@UImGuiTable@@@@QAE@XZ 100d7250     imgui.obj
 0002:00025250       __unwindtable$??1?$ImPool@UImGuiTabBar@@@@QAE@XZ 100d7250     imgui.obj
 0002:00025260       __ehfuncinfo$??1?$ImPool@UImGuiTable@@@@QAE@XZ 100d7260     imgui.obj
 0002:00025260       __ehfuncinfo$??1?$ImPool@UImGuiTabBar@@@@QAE@XZ 100d7260     imgui.obj
 0002:00025284       __ehfuncinfo$?Clear@?$ImPool@UImGuiTable@@@@QAEXXZ 100d7284     imgui.obj
 0002:000252a8       __unwindtable$?Clear@?$ImPool@UImGuiTable@@@@QAEXXZ 100d72a8     imgui.obj
 0002:000252d0       __unwindtable$?Clear@?$ImPool@UImGuiTabBar@@@@QAEXXZ 100d72d0     imgui.obj
 0002:000252e0       __ehfuncinfo$?Clear@?$ImPool@UImGuiTabBar@@@@QAEXXZ 100d72e0     imgui.obj
 0002:00025304       __ehfuncinfo$??0ImGuiContext@@QAE@PAUImFontAtlas@@@Z 100d7304     imgui.obj
 0002:00025328       __unwindtable$??0ImGuiContext@@QAE@PAUImFontAtlas@@@Z 100d7328     imgui.obj
 0002:00025438       __ehfuncinfo$??0ImGuiWindow@@QAE@PAUImGuiContext@@PBD@Z 100d7438     imgui.obj
 0002:0002545c       __unwindtable$??0ImGuiWindow@@QAE@PAUImGuiContext@@PBD@Z 100d745c     imgui.obj
 0002:00025484       __unwindtable$?Initialize@ImGui@@YAXPAUImGuiContext@@@Z 100d7484     imgui.obj
 0002:0002548c       __ehfuncinfo$?Initialize@ImGui@@YAXPAUImGuiContext@@@Z 100d748c     imgui.obj
 0002:000254b0       __unwindtable$?CreateNewWindow@@YAPAUImGuiWindow@@PBDH@Z 100d74b0     imgui.obj
 0002:000254b8       __ehfuncinfo$?CreateNewWindow@@YAPAUImGuiWindow@@PBDH@Z 100d74b8     imgui.obj
 0002:000254dc       __unwindtable$??0ImFontAtlas@@QAE@XZ 100d74dc     imgui_draw.obj
 0002:000254f4       __ehfuncinfo$??0ImFontAtlas@@QAE@XZ 100d74f4     imgui_draw.obj
 0002:00025518       __unwindtable$?ImFontAtlasBuildPackCustomRects@@YAXPAUImFontAtlas@@PAX@Z 100d7518     imgui_draw.obj
 0002:00025528       __ehfuncinfo$?ImFontAtlasBuildPackCustomRects@@YAXPAUImFontAtlas@@PAX@Z 100d7528     imgui_draw.obj
 0002:0002554c       __ehfuncinfo$?ImFontAtlasBuildWithStbTruetype@@YA_NPAUImFontAtlas@@@Z 100d754c     imgui_draw.obj
 0002:00025570       __unwindtable$?ImFontAtlasBuildWithStbTruetype@@YA_NPAUImFontAtlas@@@Z 100d7570     imgui_draw.obj
 0002:000255e0       __unwindtable$?TableGcCompactSettings@ImGui@@YAXXZ 100d75e0     imgui_tables.obj
 0002:000255f0       __ehfuncinfo$?TableGcCompactSettings@ImGui@@YAXXZ 100d75f0     imgui_tables.obj
 0002:00025614       __unwindtable$?tab@ImGui@@YA_NPBD_N@Z 100d7614     imgui_widgets.obj
 0002:0002561c       __ehfuncinfo$?tab@ImGui@@YA_NPBD_N@Z 100d761c     imgui_widgets.obj
 0002:00025640       __unwindtable$?InputTextEx@ImGui@@YA_NPBD0PADHABUImVec2@@HP6AHPAUImGuiInputTextCallbackData@@@ZPAX@Z 100d7640     imgui_widgets.obj
 0002:00025650       __ehfuncinfo$?InputTextEx@ImGui@@YA_NPBD0PADHABUImVec2@@HP6AHPAUImGuiInputTextCallbackData@@@ZPAX@Z 100d7650     imgui_widgets.obj
 0002:00025674       __catchsym$??$_Insert_nohint@U?$pair@$$CBIUtab_anim@@@std@@U_Not_a_node_tag@2@@?$_Tree@V?$_Tmap_traits@IUtab_anim@@U?$less@I@std@@V?$allocator@U?$pair@$$CBIUtab_anim@@@std@@@3@$0A@@std@@@std@@IAE?AU?$pair@V?$_Tree_iterator@V?$_Tree_val@U?$_Tree_simple_types@U?$pair@$$CBIUtab_anim@@@std@@@std@@@std@@@std@@_N@1@_N$$QAU?$pair@$$CBIUtab_anim@@@1@U_Not_a_node_tag@1@@Z$2 100d7674     imgui_widgets.obj
 0002:00025684       __unwindtable$??$_Insert_nohint@U?$pair@$$CBIUtab_anim@@@std@@U_Not_a_node_tag@2@@?$_Tree@V?$_Tmap_traits@IUtab_anim@@U?$less@I@std@@V?$allocator@U?$pair@$$CBIUtab_anim@@@std@@@3@$0A@@std@@@std@@IAE?AU?$pair@V?$_Tree_iterator@V?$_Tree_val@U?$_Tree_simple_types@U?$pair@$$CBIUtab_anim@@@std@@@std@@@std@@@std@@_N@1@_N$$QAU?$pair@$$CBIUtab_anim@@@1@U_Not_a_node_tag@1@@Z 100d7684     imgui_widgets.obj
 0002:00025694       __tryblocktable$??$_Insert_nohint@U?$pair@$$CBIUtab_anim@@@std@@U_Not_a_node_tag@2@@?$_Tree@V?$_Tmap_traits@IUtab_anim@@U?$less@I@std@@V?$allocator@U?$pair@$$CBIUtab_anim@@@std@@@3@$0A@@std@@@std@@IAE?AU?$pair@V?$_Tree_iterator@V?$_Tree_val@U?$_Tree_simple_types@U?$pair@$$CBIUtab_anim@@@std@@@std@@@std@@@std@@_N@1@_N$$QAU?$pair@$$CBIUtab_anim@@@1@U_Not_a_node_tag@1@@Z 100d7694     imgui_widgets.obj
 0002:000256a8       __ehfuncinfo$??$_Insert_nohint@U?$pair@$$CBIUtab_anim@@@std@@U_Not_a_node_tag@2@@?$_Tree@V?$_Tmap_traits@IUtab_anim@@U?$less@I@std@@V?$allocator@U?$pair@$$CBIUtab_anim@@@std@@@3@$0A@@std@@@std@@IAE?AU?$pair@V?$_Tree_iterator@V?$_Tree_val@U?$_Tree_simple_types@U?$pair@$$CBIUtab_anim@@@std@@@std@@@std@@@std@@_N@1@_N$$QAU?$pair@$$CBIUtab_anim@@@1@U_Not_a_node_tag@1@@Z 100d76a8     imgui_widgets.obj
 0002:000256cc       __ehfuncinfo$?playback_loop@@YAXXZ 100d76cc     sounds.obj
 0002:000256f0       __unwindtable$?playback_loop@@YAXXZ 100d76f0     sounds.obj
 0002:00025730       __unwindtable$?BASS_PLAY_STREAM@@YAXXZ 100d7730     sounds.obj
 0002:00025740       __ehfuncinfo$?BASS_PLAY_STREAM@@YAXXZ 100d7740     sounds.obj
 0002:00025764       __unwindtable$??R<lambda_3a2a330ef8b115903a5fa13fdc6361de>@@QBE?AU?$pair@V?$basic_string@DU?$char_traits@D@std@@V?$allocator@D@2@@std@@D@std@@XZ 100d7764     sounds.obj
 0002:0002576c       __ehfuncinfo$??R<lambda_3a2a330ef8b115903a5fa13fdc6361de>@@QBE?AU?$pair@V?$basic_string@DU?$char_traits@D@std@@V?$allocator@D@2@@std@@D@std@@XZ 100d776c     sounds.obj
 0002:00025790       __unwindtable$??R<lambda_1b42ed014eadee93338dfbcf771adaec>@@QBE?AU?$pair@V?$basic_string@DU?$char_traits@D@std@@V?$allocator@D@2@@std@@D@std@@XZ 100d7790     sounds.obj
 0002:00025798       __ehfuncinfo$??R<lambda_1b42ed014eadee93338dfbcf771adaec>@@QBE?AU?$pair@V?$basic_string@DU?$char_traits@D@std@@V?$allocator@D@2@@std@@D@std@@XZ 100d7798     sounds.obj
 0002:000257bc       __unwindtable$??R<lambda_3934ae6e7282b96cfd76c89236ff33c2>@@QBE?AU?$pair@V?$basic_string@DU?$char_traits@D@std@@V?$allocator@D@2@@std@@D@std@@XZ 100d77bc     sounds.obj
 0002:000257c4       __ehfuncinfo$??R<lambda_3934ae6e7282b96cfd76c89236ff33c2>@@QBE?AU?$pair@V?$basic_string@DU?$char_traits@D@std@@V?$allocator@D@2@@std@@D@std@@XZ 100d77c4     sounds.obj
 0002:000257e8       __unwindtable$??R<lambda_12a4f081ec775bf65f134e9967dcab6f>@@QBE?AU?$pair@V?$basic_string@DU?$char_traits@D@std@@V?$allocator@D@2@@std@@D@std@@XZ 100d77e8     sounds.obj
 0002:000257e8       __unwindtable$??R<lambda_ac2bcd9f408d054b6975ceef76fa07a9>@@QBE?AU?$pair@V?$basic_string@DU?$char_traits@D@std@@V?$allocator@D@2@@std@@D@std@@XZ 100d77e8     sounds.obj
 0002:000257e8       __unwindtable$??R<lambda_b89d977b1c6e664be5b5cd5de43189ba>@@QBE?AU?$pair@V?$basic_string@DU?$char_traits@D@std@@V?$allocator@D@2@@std@@D@std@@XZ 100d77e8     sounds.obj
 0002:000257e8       __unwindtable$??R<lambda_113d2a1038a9c0984f2531d6b9537186>@@QBE?AU?$pair@V?$basic_string@DU?$char_traits@D@std@@V?$allocator@D@2@@std@@D@std@@XZ 100d77e8     sounds.obj
 0002:000257f0       __ehfuncinfo$??R<lambda_113d2a1038a9c0984f2531d6b9537186>@@QBE?AU?$pair@V?$basic_string@DU?$char_traits@D@std@@V?$allocator@D@2@@std@@D@std@@XZ 100d77f0     sounds.obj
 0002:000257f0       __ehfuncinfo$??R<lambda_12a4f081ec775bf65f134e9967dcab6f>@@QBE?AU?$pair@V?$basic_string@DU?$char_traits@D@std@@V?$allocator@D@2@@std@@D@std@@XZ 100d77f0     sounds.obj
 0002:000257f0       __ehfuncinfo$??R<lambda_b89d977b1c6e664be5b5cd5de43189ba>@@QBE?AU?$pair@V?$basic_string@DU?$char_traits@D@std@@V?$allocator@D@2@@std@@D@std@@XZ 100d77f0     sounds.obj
 0002:000257f0       __ehfuncinfo$??R<lambda_ac2bcd9f408d054b6975ceef76fa07a9>@@QBE?AU?$pair@V?$basic_string@DU?$char_traits@D@std@@V?$allocator@D@2@@std@@D@std@@XZ 100d77f0     sounds.obj
 0002:00025814       __unwindtable$??R<lambda_c8436459d727ac7b7cd1ecc5aa07f0fc>@@QBE?AU?$pair@V?$basic_string@DU?$char_traits@D@std@@V?$allocator@D@2@@std@@D@std@@XZ 100d7814     sounds.obj
 0002:0002581c       __ehfuncinfo$??R<lambda_c8436459d727ac7b7cd1ecc5aa07f0fc>@@QBE?AU?$pair@V?$basic_string@DU?$char_traits@D@std@@V?$allocator@D@2@@std@@D@std@@XZ 100d781c     sounds.obj
 0002:00025840       __unwindtable$??0PPGUI_Command_Frame@PPGUI@@QAE@PAVPPGUI_Command@1@H@Z 100d7840     PPGUI.obj
 0002:00025848       __ehfuncinfo$??0PPGUI_Command_Frame@PPGUI@@QAE@PAVPPGUI_Command@1@H@Z 100d7848     PPGUI.obj
 0002:0002586c       __unwindtable$?EndFrame@PPGUI_Framework@PPGUI@@QAEXXZ 100d786c     PPGUI.obj
 0002:00025874       __ehfuncinfo$?EndFrame@PPGUI_Framework@PPGUI@@QAEXXZ 100d7874     PPGUI.obj
 0002:00025898       __unwindtable$?PPGUI_BeginWindow@PPGUI@@YAXPBDVPPGUI_Vector2D@HELPERS@1@1H@Z 100d7898     PPGUI.obj
 0002:000258a8       __ehfuncinfo$?PPGUI_BeginWindow@PPGUI@@YAXPBDVPPGUI_Vector2D@HELPERS@1@1H@Z 100d78a8     PPGUI.obj
 0002:000258cc       __unwindtable$?PPGUI_EndWindow@PPGUI@@YAXXZ 100d78cc     PPGUI.obj
 0002:000258d4       __ehfuncinfo$?PPGUI_EndWindow@PPGUI@@YAXXZ 100d78d4     PPGUI.obj
 0002:000258f8       __unwindtable$?PPGUI_TextInput@PPGUI@@YAPBDPBDPAD_N@Z 100d78f8     PPGUI.obj
 0002:000258f8       __unwindtable$?PPGUI_Checkbox@PPGUI@@YA_NPBDAA_N_N@Z 100d78f8     PPGUI.obj
 0002:00025900       __ehfuncinfo$?PPGUI_TextInput@PPGUI@@YAPBDPBDPAD_N@Z 100d7900     PPGUI.obj
 0002:00025900       __ehfuncinfo$?PPGUI_Checkbox@PPGUI@@YA_NPBDAA_N_N@Z 100d7900     PPGUI.obj
 0002:00025924       __unwindtable$?PPGUI_Button@PPGUI@@YA_NPBD_N@Z 100d7924     PPGUI.obj
 0002:0002592c       __ehfuncinfo$?PPGUI_Button@PPGUI@@YA_NPBD_N@Z 100d792c     PPGUI.obj
 0002:00025950       __unwindtable$?PPGUI_BeginGroupbox@PPGUI@@YAXPBDHH_N@Z 100d7950     PPGUI.obj
 0002:00025960       __ehfuncinfo$?PPGUI_BeginGroupbox@PPGUI@@YAXPBDHH_N@Z 100d7960     PPGUI.obj
 0002:00025984       __unwindtable$?PPGUI_Slider@PPGUI@@YAMPBD0MMAAMH_N@Z 100d7984     PPGUI.obj
 0002:0002598c       __ehfuncinfo$?PPGUI_Slider@PPGUI@@YAMPBD0MMAAMH_N@Z 100d798c     PPGUI.obj
 0002:000259b0       __unwindtable$?PPGUI_Separator@PPGUI@@YAXPBD_N@Z 100d79b0     PPGUI.obj
 0002:000259b8       __ehfuncinfo$?PPGUI_Separator@PPGUI@@YAXPBD_N@Z 100d79b8     PPGUI.obj
 0002:000259dc       __unwindtable$?PPGUI_Keybind@PPGUI@@YAHPBDAAH_N@Z 100d79dc     PPGUI.obj
 0002:000259e4       __ehfuncinfo$?PPGUI_Keybind@PPGUI@@YAHPBDAAH_N@Z 100d79e4     PPGUI.obj
 0002:00025a08       __unwindtable$?PPGUI_Combobox@PPGUI@@YAHPBDHPAY0BAA@DAAH_N@Z 100d7a08     PPGUI.obj
 0002:00025a10       __ehfuncinfo$?PPGUI_Combobox@PPGUI@@YAHPBDHPAY0BAA@DAAH_N@Z 100d7a10     PPGUI.obj
 0002:00025a34       __unwindtable$?PPGUI_MultiselectCombobox@PPGUI@@YAXPBDHPAY0BAA@DPA_N_N@Z 100d7a34     PPGUI.obj
 0002:00025a3c       __ehfuncinfo$?PPGUI_MultiselectCombobox@PPGUI@@YAXPBDHPAY0BAA@DPA_N_N@Z 100d7a3c     PPGUI.obj
 0002:00025a60       __unwindtable$?PPGUI_ColorPicker@PPGUI@@YAXPBDAAE111_N@Z 100d7a60     PPGUI.obj
 0002:00025a68       __ehfuncinfo$?PPGUI_ColorPicker@PPGUI@@YAXPBDAAE111_N@Z 100d7a68     PPGUI.obj
 0002:00025a8c       __unwindtable$?PPGUI_Tab@PPGUI@@YAHHPAY0BAA@DAAH_N@Z 100d7a8c     PPGUI.obj
 0002:00025a94       __ehfuncinfo$?PPGUI_Tab@PPGUI@@YAHHPAY0BAA@DAAH_N@Z 100d7a94     PPGUI.obj
 0002:00025ab8       __unwindtable$?PPGUI_ToolTip@PPGUI@@YAXPBDHVPPGUI_Vector2D@HELPERS@1@@Z 100d7ab8     PPGUI.obj
 0002:00025ac0       __ehfuncinfo$?PPGUI_ToolTip@PPGUI@@YAXPBDHVPPGUI_Vector2D@HELPERS@1@@Z 100d7ac0     PPGUI.obj
 0002:00025ae4       __catchsym$??$_Emplace_reallocate@ABVPPGUI_Command_Frame@PPGUI@@@?$vector@VPPGUI_Command_Frame@PPGUI@@V?$allocator@VPPGUI_Command_Frame@PPGUI@@@std@@@std@@QAEPAVPPGUI_Command_Frame@PPGUI@@QAV23@ABV23@@Z$4 100d7ae4     PPGUI.obj
 0002:00025af4       __unwindtable$??$_Emplace_reallocate@ABVPPGUI_Command_Frame@PPGUI@@@?$vector@VPPGUI_Command_Frame@PPGUI@@V?$allocator@VPPGUI_Command_Frame@PPGUI@@@std@@@std@@QAEPAVPPGUI_Command_Frame@PPGUI@@QAV23@ABV23@@Z 100d7af4     PPGUI.obj
 0002:00025b04       __tryblocktable$??$_Emplace_reallocate@ABVPPGUI_Command_Frame@PPGUI@@@?$vector@VPPGUI_Command_Frame@PPGUI@@V?$allocator@VPPGUI_Command_Frame@PPGUI@@@std@@@std@@QAEPAVPPGUI_Command_Frame@PPGUI@@QAV23@ABV23@@Z 100d7b04     PPGUI.obj
 0002:00025b18       __ehfuncinfo$??$_Emplace_reallocate@ABVPPGUI_Command_Frame@PPGUI@@@?$vector@VPPGUI_Command_Frame@PPGUI@@V?$allocator@VPPGUI_Command_Frame@PPGUI@@@std@@@std@@QAEPAVPPGUI_Command_Frame@PPGUI@@QAV23@ABV23@@Z 100d7b18     PPGUI.obj
 0002:00025b3c       __catchsym$??$_Insert@AAU?$pair@$$CBITPPGUI_Command_Data@PPGUI_Command_Data_Base@PPGUI@@@std@@V?$_List_unchecked_iterator@V?$_List_val@U?$_List_simple_types@U?$pair@$$CBITPPGUI_Command_Data@PPGUI_Command_Data_Base@PPGUI@@@std@@@std@@@std@@@2@@?$_Hash@V?$_Umap_traits@ITPPGUI_Command_Data@PPGUI_Command_Data_Base@PPGUI@@V?$_Uhash_compare@IU?$hash@I@std@@U?$equal_to@I@2@@std@@V?$allocator@U?$pair@$$CBITPPGUI_Command_Data@PPGUI_Command_Data_Base@PPGUI@@@std@@@5@$0A@@std@@@std@@IAE?AU?$pair@V?$_List_iterator@V?$_List_val@U?$_List_simple_types@U?$pair@$$CBITPPGUI_Command_Data@PPGUI_Command_Data_Base@PPGUI@@@std@@@std@@@std@@@std@@_N@1@AAU?$pair@$$CBITPPGUI_Command_Data@PPGUI_Command_Data_Base@PPGUI@@@1@V?$_List_unchecked_iterator@V?$_List_val@U?$_List_simple_types@U?$pair@$$CBITPPGUI_Command_Data@PPGUI_Command_Data_Base@PPGUI@@@std@@@std@@@std@@@1@@Z$4 100d7b3c     PPGUI.obj
 0002:00025b4c       __tryblocktable$??$_Insert@AAU?$pair@$$CBITPPGUI_Command_Data@PPGUI_Command_Data_Base@PPGUI@@@std@@V?$_List_unchecked_iterator@V?$_List_val@U?$_List_simple_types@U?$pair@$$CBITPPGUI_Command_Data@PPGUI_Command_Data_Base@PPGUI@@@std@@@std@@@std@@@2@@?$_Hash@V?$_Umap_traits@ITPPGUI_Command_Data@PPGUI_Command_Data_Base@PPGUI@@V?$_Uhash_compare@IU?$hash@I@std@@U?$equal_to@I@2@@std@@V?$allocator@U?$pair@$$CBITPPGUI_Command_Data@PPGUI_Command_Data_Base@PPGUI@@@std@@@5@$0A@@std@@@std@@IAE?AU?$pair@V?$_List_iterator@V?$_List_val@U?$_List_simple_types@U?$pair@$$CBITPPGUI_Command_Data@PPGUI_Command_Data_Base@PPGUI@@@std@@@std@@@std@@@std@@_N@1@AAU?$pair@$$CBITPPGUI_Command_Data@PPGUI_Command_Data_Base@PPGUI@@@1@V?$_List_unchecked_iterator@V?$_List_val@U?$_List_simple_types@U?$pair@$$CBITPPGUI_Command_Data@PPGUI_Command_Data_Base@PPGUI@@@std@@@std@@@std@@@1@@Z 100d7b4c     PPGUI.obj
 0002:00025b60       __unwindtable$??$_Insert@AAU?$pair@$$CBITPPGUI_Command_Data@PPGUI_Command_Data_Base@PPGUI@@@std@@V?$_List_unchecked_iterator@V?$_List_val@U?$_List_simple_types@U?$pair@$$CBITPPGUI_Command_Data@PPGUI_Command_Data_Base@PPGUI@@@std@@@std@@@std@@@2@@?$_Hash@V?$_Umap_traits@ITPPGUI_Command_Data@PPGUI_Command_Data_Base@PPGUI@@V?$_Uhash_compare@IU?$hash@I@std@@U?$equal_to@I@2@@std@@V?$allocator@U?$pair@$$CBITPPGUI_Command_Data@PPGUI_Command_Data_Base@PPGUI@@@std@@@5@$0A@@std@@@std@@IAE?AU?$pair@V?$_List_iterator@V?$_List_val@U?$_List_simple_types@U?$pair@$$CBITPPGUI_Command_Data@PPGUI_Command_Data_Base@PPGUI@@@std@@@std@@@std@@@std@@_N@1@AAU?$pair@$$CBITPPGUI_Command_Data@PPGUI_Command_Data_Base@PPGUI@@@1@V?$_List_unchecked_iterator@V?$_List_val@U?$_List_simple_types@U?$pair@$$CBITPPGUI_Command_Data@PPGUI_Command_Data_Base@PPGUI@@@std@@@std@@@std@@@1@@Z 100d7b60     PPGUI.obj
 0002:00025b80       __ehfuncinfo$??$_Insert@AAU?$pair@$$CBITPPGUI_Command_Data@PPGUI_Command_Data_Base@PPGUI@@@std@@V?$_List_unchecked_iterator@V?$_List_val@U?$_List_simple_types@U?$pair@$$CBITPPGUI_Command_Data@PPGUI_Command_Data_Base@PPGUI@@@std@@@std@@@std@@@2@@?$_Hash@V?$_Umap_traits@ITPPGUI_Command_Data@PPGUI_Command_Data_Base@PPGUI@@V?$_Uhash_compare@IU?$hash@I@std@@U?$equal_to@I@2@@std@@V?$allocator@U?$pair@$$CBITPPGUI_Command_Data@PPGUI_Command_Data_Base@PPGUI@@@std@@@5@$0A@@std@@@std@@IAE?AU?$pair@V?$_List_iterator@V?$_List_val@U?$_List_simple_types@U?$pair@$$CBITPPGUI_Command_Data@PPGUI_Command_Data_Base@PPGUI@@@std@@@std@@@std@@@std@@_N@1@AAU?$pair@$$CBITPPGUI_Command_Data@PPGUI_Command_Data_Base@PPGUI@@@1@V?$_List_unchecked_iterator@V?$_List_val@U?$_List_simple_types@U?$pair@$$CBITPPGUI_Command_Data@PPGUI_Command_Data_Base@PPGUI@@@std@@@std@@@std@@@1@@Z 100d7b80     PPGUI.obj
 0002:00025ba4       __unwindtable$??0PPGUI_Combobox_Command@PPGUI@@QAE@PBDVPPGUI_Vector2D@HELPERS@1@1PAY0BAA@DHAAH_N@Z 100d7ba4     PPGUI_Commands.obj
 0002:00025ba4       __unwindtable$??0PPGUI_Window_Command@PPGUI@@QAE@PBDVPPGUI_Vector2D@HELPERS@1@1@Z 100d7ba4     PPGUI_Commands.obj
 0002:00025ba4       __unwindtable$??0PPGUI_Tab_Command@PPGUI@@QAE@VPPGUI_Vector2D@HELPERS@1@0AAHPAY0BAA@DH_N@Z 100d7ba4     PPGUI_Commands.obj
 0002:00025bac       __ehfuncinfo$??0PPGUI_Tab_Command@PPGUI@@QAE@VPPGUI_Vector2D@HELPERS@1@0AAHPAY0BAA@DH_N@Z 100d7bac     PPGUI_Commands.obj
 0002:00025bac       __ehfuncinfo$??0PPGUI_Window_Command@PPGUI@@QAE@PBDVPPGUI_Vector2D@HELPERS@1@1@Z 100d7bac     PPGUI_Commands.obj
 0002:00025bac       __ehfuncinfo$??0PPGUI_Combobox_Command@PPGUI@@QAE@PBDVPPGUI_Vector2D@HELPERS@1@1PAY0BAA@DHAAH_N@Z 100d7bac     PPGUI_Commands.obj
 0002:00025bd0       __unwindtable$?Draw@PPGUI_Window_Command@PPGUI@@UAEXXZ 100d7bd0     PPGUI_Commands.obj
 0002:00025bd8       __ehfuncinfo$?Draw@PPGUI_Window_Command@PPGUI@@UAEXXZ 100d7bd8     PPGUI_Commands.obj
 0002:00025bfc       __unwindtable$??0PPGUI_Checkbox_Command@PPGUI@@QAE@PBDAA_NVPPGUI_Vector2D@HELPERS@1@2_N@Z 100d7bfc     PPGUI_Commands.obj
 0002:00025bfc       __unwindtable$??0PPGUI_Color_Picker_Command@PPGUI@@QAE@PBDVPPGUI_Vector2D@HELPERS@1@1AAE222_N@Z 100d7bfc     PPGUI_Commands.obj
 0002:00025bfc       __unwindtable$??0PPGUI_Multiselect_Combobox_Command@PPGUI@@QAE@PBDVPPGUI_Vector2D@HELPERS@1@1PAY0BAA@DPA_NH_N@Z 100d7bfc     PPGUI_Commands.obj
 0002:00025bfc       __unwindtable$??0PPGUI_Groupbox_Command@PPGUI@@QAE@PBDVPPGUI_Vector2D@HELPERS@1@1_N@Z 100d7bfc     PPGUI_Commands.obj
 0002:00025bfc       __unwindtable$??0PPGUI_Text_Input_Command@PPGUI@@QAE@PBDVPPGUI_Vector2D@HELPERS@1@1PAD_N@Z 100d7bfc     PPGUI_Commands.obj
 0002:00025bfc       __unwindtable$??0PPGUI_Button_Command@PPGUI@@QAE@PBDVPPGUI_Vector2D@HELPERS@1@1_N@Z 100d7bfc     PPGUI_Commands.obj
 0002:00025bfc       __unwindtable$??0PPGUI_Separator_Command@PPGUI@@QAE@PBDVPPGUI_Vector2D@HELPERS@1@1_N@Z 100d7bfc     PPGUI_Commands.obj
 0002:00025bfc       __unwindtable$??0PPGUI_Keybind_Command@PPGUI@@QAE@PBDAAHVPPGUI_Vector2D@HELPERS@1@2_N@Z 100d7bfc     PPGUI_Commands.obj
 0002:00025c04       __ehfuncinfo$??0PPGUI_Keybind_Command@PPGUI@@QAE@PBDAAHVPPGUI_Vector2D@HELPERS@1@2_N@Z 100d7c04     PPGUI_Commands.obj
 0002:00025c04       __ehfuncinfo$??0PPGUI_Groupbox_Command@PPGUI@@QAE@PBDVPPGUI_Vector2D@HELPERS@1@1_N@Z 100d7c04     PPGUI_Commands.obj
 0002:00025c04       __ehfuncinfo$??0PPGUI_Button_Command@PPGUI@@QAE@PBDVPPGUI_Vector2D@HELPERS@1@1_N@Z 100d7c04     PPGUI_Commands.obj
 0002:00025c04       __ehfuncinfo$??0PPGUI_Multiselect_Combobox_Command@PPGUI@@QAE@PBDVPPGUI_Vector2D@HELPERS@1@1PAY0BAA@DPA_NH_N@Z 100d7c04     PPGUI_Commands.obj
 0002:00025c04       __ehfuncinfo$??0PPGUI_Color_Picker_Command@PPGUI@@QAE@PBDVPPGUI_Vector2D@HELPERS@1@1AAE222_N@Z 100d7c04     PPGUI_Commands.obj
 0002:00025c04       __ehfuncinfo$??0PPGUI_Separator_Command@PPGUI@@QAE@PBDVPPGUI_Vector2D@HELPERS@1@1_N@Z 100d7c04     PPGUI_Commands.obj
 0002:00025c04       __ehfuncinfo$??0PPGUI_Text_Input_Command@PPGUI@@QAE@PBDVPPGUI_Vector2D@HELPERS@1@1PAD_N@Z 100d7c04     PPGUI_Commands.obj
 0002:00025c04       __ehfuncinfo$??0PPGUI_Checkbox_Command@PPGUI@@QAE@PBDAA_NVPPGUI_Vector2D@HELPERS@1@2_N@Z 100d7c04     PPGUI_Commands.obj
 0002:00025c28       __unwindtable$??0PPGUI_Slider_Command@PPGUI@@QAE@PBD0MMAAMH_NVPPGUI_Vector2D@HELPERS@1@3@Z 100d7c28     PPGUI_Commands.obj
 0002:00025c30       __ehfuncinfo$??0PPGUI_Slider_Command@PPGUI@@QAE@PBD0MMAAMH_NVPPGUI_Vector2D@HELPERS@1@3@Z 100d7c30     PPGUI_Commands.obj
 0002:00025c54       __unwindtable$??0PPGUI_Tool_Tip_Command@PPGUI@@QAE@PBDHVPPGUI_Vector2D@HELPERS@1@PAVPPGUI_Command@1@@Z 100d7c54     PPGUI_Commands.obj
 0002:00025c5c       __ehfuncinfo$??0PPGUI_Tool_Tip_Command@PPGUI@@QAE@PBDHVPPGUI_Vector2D@HELPERS@1@PAVPPGUI_Command@1@@Z 100d7c5c     PPGUI_Commands.obj
 0002:00025c80       __catchsym$??6?$basic_ostream@DU?$char_traits@D@std@@@std@@QAEAAV01@M@Z$14 100d7c80     PPGUI_Commands.obj
 0002:00025c90       __tryblocktable$??6?$basic_ostream@DU?$char_traits@D@std@@@std@@QAEAAV01@M@Z 100d7c90     PPGUI_Commands.obj
 0002:00025ca4       __ehfuncinfo$??6?$basic_ostream@DU?$char_traits@D@std@@@std@@QAEAAV01@M@Z 100d7ca4     PPGUI_Commands.obj
 0002:00025cc8       __unwindtable$??6?$basic_ostream@DU?$char_traits@D@std@@@std@@QAEAAV01@M@Z 100d7cc8     PPGUI_Commands.obj
 0002:00025d20       __ehfuncinfo$??R<lambda_07e8e09b926849ee5c09d399f814ef9d>@@QBE?AV?$basic_string@DU?$char_traits@D@std@@V?$allocator@D@2@@std@@MH@Z 100d7d20     PPGUI_Commands.obj
 0002:00025d44       __unwindtable$??R<lambda_07e8e09b926849ee5c09d399f814ef9d>@@QBE?AV?$basic_string@DU?$char_traits@D@std@@V?$allocator@D@2@@std@@MH@Z 100d7d44     PPGUI_Commands.obj
 0002:00025d6c       __unwindtable$?do_put@?$num_put@DV?$ostreambuf_iterator@DU?$char_traits@D@std@@@std@@@std@@MBE?AV?$ostreambuf_iterator@DU?$char_traits@D@std@@@2@V32@AAVios_base@2@D_N@Z 100d7d6c     PPGUI_Commands.obj
 0002:00025d8c       __ehfuncinfo$?do_put@?$num_put@DV?$ostreambuf_iterator@DU?$char_traits@D@std@@@std@@@std@@MBE?AV?$ostreambuf_iterator@DU?$char_traits@D@std@@@2@V32@AAVios_base@2@D_N@Z 100d7d8c     PPGUI_Commands.obj
 0002:00025db0       __unwindtable$?do_put@?$num_put@DV?$ostreambuf_iterator@DU?$char_traits@D@std@@@std@@@std@@MBE?AV?$ostreambuf_iterator@DU?$char_traits@D@std@@@2@V32@AAVios_base@2@DO@Z 100d7db0     PPGUI_Commands.obj
 0002:00025db0       __unwindtable$?do_put@?$num_put@DV?$ostreambuf_iterator@DU?$char_traits@D@std@@@std@@@std@@MBE?AV?$ostreambuf_iterator@DU?$char_traits@D@std@@@2@V32@AAVios_base@2@DN@Z 100d7db0     PPGUI_Commands.obj
 0002:00025db8       __ehfuncinfo$?do_put@?$num_put@DV?$ostreambuf_iterator@DU?$char_traits@D@std@@@std@@@std@@MBE?AV?$ostreambuf_iterator@DU?$char_traits@D@std@@@2@V32@AAVios_base@2@DO@Z 100d7db8     PPGUI_Commands.obj
 0002:00025db8       __ehfuncinfo$?do_put@?$num_put@DV?$ostreambuf_iterator@DU?$char_traits@D@std@@@std@@@std@@MBE?AV?$ostreambuf_iterator@DU?$char_traits@D@std@@@2@V32@AAVios_base@2@DN@Z 100d7db8     PPGUI_Commands.obj
 0002:00025ddc       __ehfuncinfo$?_Fput@?$num_put@DV?$ostreambuf_iterator@DU?$char_traits@D@std@@@std@@@std@@ABA?AV?$ostreambuf_iterator@DU?$char_traits@D@std@@@2@V32@AAVios_base@2@DPBDI@Z 100d7ddc     PPGUI_Commands.obj
 0002:00025e00       __unwindtable$?_Fput@?$num_put@DV?$ostreambuf_iterator@DU?$char_traits@D@std@@@std@@@std@@ABA?AV?$ostreambuf_iterator@DU?$char_traits@D@std@@@2@V32@AAVios_base@2@DPBDI@Z 100d7e00     PPGUI_Commands.obj
 0002:00025e40       __ehfuncinfo$?_Iput@?$num_put@DV?$ostreambuf_iterator@DU?$char_traits@D@std@@@std@@@std@@ABA?AV?$ostreambuf_iterator@DU?$char_traits@D@std@@@2@V32@AAVios_base@2@DPADI@Z 100d7e40     PPGUI_Commands.obj
 0002:00025e64       __unwindtable$?_Iput@?$num_put@DV?$ostreambuf_iterator@DU?$char_traits@D@std@@@std@@@std@@ABA?AV?$ostreambuf_iterator@DU?$char_traits@D@std@@@2@V32@AAVios_base@2@DPADI@Z 100d7e64     PPGUI_Commands.obj
 0002:00025ea4       __ehfuncinfo$??$use_facet@V?$numpunct@D@std@@@std@@YAABV?$numpunct@D@0@ABVlocale@0@@Z 100d7ea4     PPGUI_Commands.obj
 0002:00025ec8       __unwindtable$??$use_facet@V?$numpunct@D@std@@@std@@YAABV?$numpunct@D@0@ABVlocale@0@@Z 100d7ec8     PPGUI_Commands.obj
 0002:00025ef8       __catchsym$?_Init@?$numpunct@D@std@@IAEXABV_Locinfo@2@_N@Z$2 100d7ef8     PPGUI_Commands.obj
 0002:00025f08       __unwindtable$?_Init@?$numpunct@D@std@@IAEXABV_Locinfo@2@_N@Z 100d7f08     PPGUI_Commands.obj
 0002:00025f18       __tryblocktable$?_Init@?$numpunct@D@std@@IAEXABV_Locinfo@2@_N@Z 100d7f18     PPGUI_Commands.obj
 0002:00025f2c       __ehfuncinfo$?_Init@?$numpunct@D@std@@IAEXABV_Locinfo@2@_N@Z 100d7f2c     PPGUI_Commands.obj
 0002:00025f50       __unwindtable$??__Eppgui_command_data_base@PPGUI@@YAXXZ 100d7f50     PPGUI_Defines.obj
 0002:00025f60       __ehfuncinfo$??__Eppgui_command_data_base@PPGUI@@YAXXZ 100d7f60     PPGUI_Defines.obj
 0002:00025f84       __catchsym$??$_Insert_string@DU?$char_traits@D@std@@I@std@@YAAAV?$basic_ostream@DU?$char_traits@D@std@@@0@AAV10@QBDI@Z$6 100d7f84     Debugger.obj
 0002:00025f94       __tryblocktable$??$_Insert_string@DU?$char_traits@D@std@@I@std@@YAAAV?$basic_ostream@DU?$char_traits@D@std@@@0@AAV10@QBDI@Z 100d7f94     Debugger.obj
 0002:00025fa8       __ehfuncinfo$??$_Insert_string@DU?$char_traits@D@std@@I@std@@YAAAV?$basic_ostream@DU?$char_traits@D@std@@@0@AAV10@QBDI@Z 100d7fa8     Debugger.obj
 0002:00025fcc       __unwindtable$??$_Insert_string@DU?$char_traits@D@std@@I@std@@YAAAV?$basic_ostream@DU?$char_traits@D@std@@@0@AAV10@QBDI@Z 100d7fcc     Debugger.obj
 0002:00025ffc       __ehfuncinfo$?InitHooks@HOOKS@@YAXXZ 100d7ffc     hooks.obj
 0002:00026020       __unwindtable$?InitHooks@HOOKS@@YAXXZ 100d8020     hooks.obj
 0002:00026058       __unwindtable$?InitNetvarHooks@HOOKS@@YAXXZ 100d8058     hooks.obj
 0002:00026070       __ehfuncinfo$?InitNetvarHooks@HOOKS@@YAXXZ 100d8070     hooks.obj
 0002:00026094       __unwindtable$?HookedPaintTraverse@HOOKS@@YGXH_N0@Z 100d8094     hooks.obj
 0002:0002609c       __ehfuncinfo$?HookedPaintTraverse@HOOKS@@YGXH_N0@Z 100d809c     hooks.obj
 0002:000260c0       __unwindtable$?HookedSceneEnd@HOOKS@@YIXPAX0@Z 100d80c0     hooks.obj
 0002:000260d0       __ehfuncinfo$?HookedSceneEnd@HOOKS@@YIXPAX0@Z 100d80d0     hooks.obj
 0002:000260f4       __ehfuncinfo$?InitInterfaces@INTERFACES@@YAXXZ 100d80f4     interfaces.obj
 0002:00026118       __unwindtable$?InitInterfaces@INTERFACES@@YAXXZ 100d8118     interfaces.obj
 0002:00026228       __unwindtable$?FindInterface@INTERFACES@@YAPAXPBD0@Z 100d8228     interfaces.obj
 0002:00026238       __ehfuncinfo$?FindInterface@INTERFACES@@YAPAXPBD0@Z 100d8238     interfaces.obj
 0002:0002625c       __catchsym$??6?$basic_ostream@DU?$char_traits@D@std@@@std@@QAEAAV01@PBX@Z$15 100d825c     interfaces.obj
 0002:0002626c       __tryblocktable$??6?$basic_ostream@DU?$char_traits@D@std@@@std@@QAEAAV01@PBX@Z 100d826c     interfaces.obj
 0002:00026280       __ehfuncinfo$??6?$basic_ostream@DU?$char_traits@D@std@@@std@@QAEAAV01@PBX@Z 100d8280     interfaces.obj
 0002:000262a4       __unwindtable$??6?$basic_ostream@DU?$char_traits@D@std@@@std@@QAEAAV01@PBX@Z 100d82a4     interfaces.obj
 0002:00026304       __unwindtable$?Log@UTILS@@YAXV?$basic_string@DU?$char_traits@D@std@@V?$allocator@D@2@@std@@@Z 100d8304     logging.obj
 0002:00026314       __ehfuncinfo$?Log@UTILS@@YAXV?$basic_string@DU?$char_traits@D@std@@V?$allocator@D@2@@std@@@Z 100d8314     logging.obj
 0002:00026338       __ehfuncinfo$??0?$basic_fstream@DU?$char_traits@D@std@@@std@@QAE@XZ 100d8338     logging.obj
 0002:0002635c       __unwindtable$??0?$basic_fstream@DU?$char_traits@D@std@@@std@@QAE@XZ 100d835c     logging.obj
 0002:0002639c       __unwindtable$?open@?$basic_fstream@DU?$char_traits@D@std@@@std@@QAEXPBDHH@Z 100d839c     logging.obj
 0002:000263b4       __ehfuncinfo$?open@?$basic_fstream@DU?$char_traits@D@std@@@std@@QAEXPBDHH@Z 100d83b4     logging.obj
 0002:000263d8       __unwindtable$?Hook@CNetvarManager@UTILS@@QAEPAXV?$basic_string@DU?$char_traits@D@std@@V?$allocator@D@2@@std@@0P6AXPBVCRecvProxyData@SDK@@PAX2@Z@Z 100d83d8     NetvarManager.obj
 0002:000263f8       __ehfuncinfo$?Hook@CNetvarManager@UTILS@@QAEPAXV?$basic_string@DU?$char_traits@D@std@@V?$allocator@D@2@@std@@0P6AXPBVCRecvProxyData@SDK@@PAX2@Z@Z 100d83f8     NetvarManager.obj
 0002:0002641c       __unwindtable$?GetOffset@CNetvarManager@UTILS@@QAEIV?$basic_string@DU?$char_traits@D@std@@V?$allocator@D@2@@std@@0@Z 100d841c     NetvarManager.obj
 0002:00026434       __ehfuncinfo$?GetOffset@CNetvarManager@UTILS@@QAEIV?$basic_string@DU?$char_traits@D@std@@V?$allocator@D@2@@std@@0@Z 100d8434     NetvarManager.obj
 0002:00026458       __ehfuncinfo$?RecursivelyFindOffset@CNetvarManager@UTILS@@AAEIPAURecvTable@SDK@@V?$basic_string@DU?$char_traits@D@std@@V?$allocator@D@2@@std@@1@Z 100d8458     NetvarManager.obj
 0002:0002647c       __unwindtable$?RecursivelyFindOffset@CNetvarManager@UTILS@@AAEIPAURecvTable@SDK@@V?$basic_string@DU?$char_traits@D@std@@V?$allocator@D@2@@std@@1@Z 100d847c     NetvarManager.obj
 0002:000264ac       __ehfuncinfo$?InitOffsets@OFFSETS@@YAXXZ 100d84ac     offsets.obj
 0002:000264d0       __unwindtable$?InitOffsets@OFFSETS@@YAXXZ 100d84d0     offsets.obj
 0002:00026a90       __unwindtable$?DrawF@RENDER@@YAXHHI_N0VCColor@@V?$basic_string@DU?$char_traits@D@std@@V?$allocator@D@2@@std@@@Z 100d8a90     render.obj
 0002:00026aa0       __ehfuncinfo$?DrawF@RENDER@@YAXHHI_N0VCColor@@V?$basic_string@DU?$char_traits@D@std@@V?$allocator@D@2@@std@@@Z 100d8aa0     render.obj
 0002:00026ac4       __unwindtable$?GetTextSize@RENDER@@YA?AVVector2D@@IV?$basic_string@DU?$char_traits@D@std@@V?$allocator@D@2@@std@@@Z 100d8ac4     render.obj
 0002:00026ad4       __ehfuncinfo$?GetTextSize@RENDER@@YA?AVVector2D@@IV?$basic_string@DU?$char_traits@D@std@@V?$allocator@D@2@@std@@@Z 100d8ad4     render.obj
 0002:00026af8       __unwindtable$?DrawFilledCircle@RENDER@@YAXHHHHVCColor@@@Z 100d8af8     render.obj
 0002:00026b10       __ehfuncinfo$?DrawFilledCircle@RENDER@@YAXHHHHVCColor@@@Z 100d8b10     render.obj
 0002:00026b34       __unwindtable$?TexturedPolygon@RENDER@@YAXHV?$vector@UVertex_t@SDK@@V?$allocator@UVertex_t@SDK@@@std@@@std@@VCColor@@@Z 100d8b34     render.obj
 0002:00026b44       __ehfuncinfo$?TexturedPolygon@RENDER@@YAXHV?$vector@UVertex_t@SDK@@V?$allocator@UVertex_t@SDK@@@std@@@std@@VCColor@@@Z 100d8b44     render.obj
 0002:00026b68       __unwindtable$?InitFonts@FONTS@@YAXXZ 100d8b68     variables.obj
 0002:00026b78       __ehfuncinfo$?InitFonts@FONTS@@YAXXZ 100d8b78     variables.obj
 0002:00026c4c       __unwindtable$?_Locimp_dtor@_Locimp@locale@std@@CAXPAV123@@Z 100d8c4c     libcpmt:locale0.obj
 0002:00026c54       __ehfuncinfo$?_Locimp_dtor@_Locimp@locale@std@@CAXPAV123@@Z 100d8c54     libcpmt:locale0.obj
 0002:00026c78       __unwindtable$?_Init@locale@std@@CAPAV_Locimp@12@_N@Z 100d8c78     libcpmt:locale0.obj
 0002:00026c80       __ehfuncinfo$?_Init@locale@std@@CAPAV_Locimp@12@_N@Z 100d8c80     libcpmt:locale0.obj
 0002:00026ca4       __unwindtable$??0?$basic_ostream@DU?$char_traits@D@std@@@std@@QAE@PAV?$basic_streambuf@DU?$char_traits@D@std@@@1@_N@Z 100d8ca4     libcpmt:cout.obj
 0002:00026cac       __ehfuncinfo$??0?$basic_ostream@DU?$char_traits@D@std@@@std@@QAE@PAV?$basic_streambuf@DU?$char_traits@D@std@@@1@_N@Z 100d8cac     libcpmt:cout.obj
 0002:00026cd0       __sehtable$??_L@YGXPAXIIP6EX0@Z1@Z 100d8cd0     LIBCMT:ehvecctr.obj
 0002:00026cf0       __sehtable$??_M@YGXPAXIIP6EX0@Z@Z 100d8cf0     LIBCMT:ehvecdtr.obj
 0002:00026d10       __sehtable$?__ArrayUnwind@@YGXPAXIIP6EX0@Z@Z 100d8d10     LIBCMT:ehvecdtr.obj
 0002:00026d30       __sehtable$___scrt_is_nonwritable_in_current_image 100d8d30     LIBCMT:utility.obj
 0002:00026d50       __sehtable$?dllmain_crt_process_attach@@YAHQAUHINSTANCE__@@QAX@Z 100d8d50     LIBCMT:dll_dllmain.obj
 0002:00026d70       __sehtable$?dllmain_crt_process_detach@@YAH_N@Z 100d8d70     LIBCMT:dll_dllmain.obj
 0002:00026d90       __sehtable$?dllmain_dispatch@@YAHQAUHINSTANCE__@@KQAX@Z 100d8d90     LIBCMT:dll_dllmain.obj
 0002:00026e20       __sehtable$___DestructExceptionObject 100d8e20     libvcruntime:ehhelpers.obj
 0002:00026e40       __sehtable$?FrameUnwindToState@__FrameHandler3@@SAXPAUEHRegistrationNode@@PAXPBU_s_FuncInfo@@H@Z 100d8e40     libvcruntime:frame.obj
 0002:00026e68       __sehtable$?CallCatchBlock@@YAPAXPAUEHExceptionRecord@@PAUEHRegistrationNode@@PAU_CONTEXT@@PBU_s_FuncInfo@@PAXHK@Z 100d8e68     libvcruntime:frame.obj
 0002:00026e90       __catchsym$?CallUnexpected@@YAXPBU_s_ESTypeList@@@Z$2 100d8e90     libvcruntime:frame.obj
 0002:00026ea0       __unwindtable$?CallUnexpected@@YAXPBU_s_ESTypeList@@@Z 100d8ea0     libvcruntime:frame.obj
 0002:00026eb0       __tryblocktable$?CallUnexpected@@YAXPBU_s_ESTypeList@@@Z 100d8eb0     libvcruntime:frame.obj
 0002:00026ec4       __ehfuncinfo$?CallUnexpected@@YAXPBU_s_ESTypeList@@@Z 100d8ec4     libvcruntime:frame.obj
 0002:00026ee8       __sehtable$??$BuildCatchObjectHelperInternal@V__FrameHandler3@@@@YAHPAUEHExceptionRecord@@PAXPBU_s_HandlerType@@PBU_s_CatchableType@@@Z 100d8ee8     libvcruntime:frame.obj
 0002:00026f08       __sehtable$??$BuildCatchObjectInternal@V__FrameHandler3@@@@YAXPAUEHExceptionRecord@@PAXPBU_s_HandlerType@@PBU_s_CatchableType@@@Z 100d8f08     libvcruntime:frame.obj
 0002:00026f60       __sehtable$__ValidateEH3RN 100d8f60     libvcruntime:eh3valid.obj
 0002:00026f80       __sehtable$_fclose         100d8f80     libucrt:fclose.obj
 0002:00026fa0       __sehtable$??$?RV<lambda_2866be3712abc81a800a822484c830d8>@@AAV<lambda_39ca0ed439415581b5b15c265174cece>@@V<lambda_2b24c74d71094a6cd0cb82e44167d71b>@@@?$__crt_seh_guarded_call@X@@QAEX$$QAV<lambda_2866be3712abc81a800a822484c830d8>@@AAV<lambda_39ca0ed439415581b5b15c265174cece>@@$$QAV<lambda_2b24c74d71094a6cd0cb82e44167d71b>@@@Z 100d8fa0     libucrt:fflush.obj
 0002:00026fc0       __sehtable$??$?RV<lambda_2cc53f568c5a2bb6f192f930a45d44ea>@@AAV<lambda_ab61a845afdef5b7c387490eaf3616ee>@@V<lambda_c2ffc0b7726aa6be21d5f0026187e748>@@@?$__crt_seh_guarded_call@X@@QAEX$$QAV<lambda_2cc53f568c5a2bb6f192f930a45d44ea>@@AAV<lambda_ab61a845afdef5b7c387490eaf3616ee>@@$$QAV<lambda_c2ffc0b7726aa6be21d5f0026187e748>@@@Z 100d8fc0     libucrt:fflush.obj
 0002:00026fe0       __sehtable$??$?RV<lambda_6d20deecaf4856105ebacbad442d1079>@@AAV<lambda_9a32fed5bf61b6b509b2d3f6003082a1>@@V<lambda_63ea2239ed67c638ddbae41947fdf875>@@@?$__crt_seh_guarded_call@H@@QAEH$$QAV<lambda_6d20deecaf4856105ebacbad442d1079>@@AAV<lambda_9a32fed5bf61b6b509b2d3f6003082a1>@@$$QAV<lambda_63ea2239ed67c638ddbae41947fdf875>@@@Z 100d8fe0     libucrt:fflush.obj
 0002:00027000       __sehtable$_fgetc          100d9000     libucrt:fgetc.obj
 0002:00027020       __sehtable$_fputc          100d9020     libucrt:fputc.obj
 0002:00027040       __sehtable$_fread_s        100d9040     libucrt:fread.obj
 0002:00027060       __sehtable$?common_fseek@@YAHV__crt_stdio_stream@@_JH@Z 100d9060     libucrt:fseek.obj
 0002:00027080       __sehtable$??$?RV<lambda_4ac01c32aa5b53846f05d0620572872e>@@AAV<lambda_5856287d7ecd2be6c9197bb4007c3f6e>@@V<lambda_e7a9868ed898c75c0f0637692d94351a>@@@?$__crt_seh_guarded_call@I@@QAEI$$QAV<lambda_4ac01c32aa5b53846f05d0620572872e>@@AAV<lambda_5856287d7ecd2be6c9197bb4007c3f6e>@@$$QAV<lambda_e7a9868ed898c75c0f0637692d94351a>@@@Z 100d9080     libucrt:fwrite.obj
 0002:000270a0       __sehtable$??$?RV<lambda_70c0770dcc4f6ec6272bb01dc82d3c91>@@AAV<lambda_ca71763b3c0644891230e4f79ea54fa6>@@V<lambda_ca266f0f09348b8765c113e3a39a2bc1>@@@?$__crt_seh_guarded_call@H@@QAEH$$QAV<lambda_70c0770dcc4f6ec6272bb01dc82d3c91>@@AAV<lambda_ca71763b3c0644891230e4f79ea54fa6>@@$$QAV<lambda_ca266f0f09348b8765c113e3a39a2bc1>@@@Z 100d90a0     libucrt:setvbuf.obj
 0002:000270c0       __sehtable$_ungetc         100d90c0     libucrt:ungetc.obj
 0002:000270e0       __sehtable$_terminate      100d90e0     libucrt:terminate.obj
 0002:00027100       __sehtable$??$?RV<lambda_c29ee0499b841886b80d843682cc403a>@@AAV<lambda_0be4ab1c2a6918fda4e39227d83ea893>@@V<lambda_5a3ed3da325c8ea037a470278c0f2d16>@@@?$__crt_seh_guarded_call@H@@QAEH$$QAV<lambda_c29ee0499b841886b80d843682cc403a>@@AAV<lambda_0be4ab1c2a6918fda4e39227d83ea893>@@$$QAV<lambda_5a3ed3da325c8ea037a470278c0f2d16>@@@Z 100d9100     libucrt:output.obj
 0002:00027120       __sehtable$??$?RV<lambda_9b2bd5c6bb91c5c032542faa5c3cb611>@@AAV<lambda_be68057ced330f874c40fe9612235e36>@@V<lambda_dbd837d1c0b7fc6e2d81c287c81c071b>@@@?$__crt_seh_guarded_call@H@@QAEH$$QAV<lambda_9b2bd5c6bb91c5c032542faa5c3cb611>@@AAV<lambda_be68057ced330f874c40fe9612235e36>@@$$QAV<lambda_dbd837d1c0b7fc6e2d81c287c81c071b>@@@Z 100d9120     libucrt:output.obj
 0002:00027140       __sehtable$??$common_fsopen@D@@YAPAU_iobuf@@QBD0H@Z 100d9140     libucrt:fopen.obj
 0002:00027160       __sehtable$??$common_fsopen@_W@@YAPAU_iobuf@@QB_W0H@Z 100d9160     libucrt:fopen.obj
 0002:00027180       __sehtable$??$common_ftell@J@@YAJV__crt_stdio_stream@@@Z 100d9180     libucrt:ftell.obj
 0002:000271a0       __sehtable$??$common_ftell@_J@@YA_JV__crt_stdio_stream@@@Z 100d91a0     libucrt:ftell.obj
 0002:000271c0       __sehtable$??$common_freopen@D@@YAHQAPAU_iobuf@@QBD1V__crt_stdio_stream@@H@Z 100d91c0     libucrt:freopen.obj
 0002:000271e0       __sehtable$??$?RV<lambda_646e26742ed01d5bc03234f44bb6d3d3>@@AAV<lambda_b37934c380d97b75fd242ea49540127a>@@V<lambda_bbd9d45274666fbb50f81a29ad795c13>@@@?$__crt_seh_guarded_call@PAD@@QAEPAD$$QAV<lambda_646e26742ed01d5bc03234f44bb6d3d3>@@AAV<lambda_b37934c380d97b75fd242ea49540127a>@@$$QAV<lambda_bbd9d45274666fbb50f81a29ad795c13>@@@Z 100d91e0     libucrt:setlocale.obj
 0002:00027200       __sehtable$__query_new_handler 100d9200     libucrt:new_handler.obj
 0002:00027220       __sehtable$??R<lambda_6e4b09c48022b2350581041d5f6b0c4c>@@QBE@XZ 100d9220     libucrt:exit.obj
 0002:00027240       __sehtable$??$?RV<lambda_03b1d95aef87969028cfba75ccab2455>@@AAV<lambda_6e4b09c48022b2350581041d5f6b0c4c>@@V<lambda_22bdf7517842c4b3e53723af5aa32b9e>@@@?$__crt_seh_guarded_call@X@@QAEX$$QAV<lambda_03b1d95aef87969028cfba75ccab2455>@@AAV<lambda_6e4b09c48022b2350581041d5f6b0c4c>@@$$QAV<lambda_22bdf7517842c4b3e53723af5aa32b9e>@@@Z 100d9240     libucrt:exit.obj
 0002:00027260       __sehtable$??$?RV<lambda_8e746cf0007f6ed984d6f78af1fec997>@@AAV<lambda_22ebabd17bc4fa466a2aca6d8deb888d>@@V<lambda_18ed0c0b38a6dc0daf1e7ac6d6adf05e>@@@?$__crt_seh_guarded_call@H@@QAEH$$QAV<lambda_8e746cf0007f6ed984d6f78af1fec997>@@AAV<lambda_22ebabd17bc4fa466a2aca6d8deb888d>@@$$QAV<lambda_18ed0c0b38a6dc0daf1e7ac6d6adf05e>@@@Z 100d9260     libucrt:onexit.obj
 0002:00027280       __sehtable$??$?RV<lambda_69a2805e680e0e292e8ba93315fe43a8>@@AAV<lambda_f03950bc5685219e0bcd2087efbe011e>@@V<lambda_03fcd07e894ec930e3f35da366ca99d6>@@@?$__crt_seh_guarded_call@H@@QAEH$$QAV<lambda_69a2805e680e0e292e8ba93315fe43a8>@@AAV<lambda_f03950bc5685219e0bcd2087efbe011e>@@$$QAV<lambda_03fcd07e894ec930e3f35da366ca99d6>@@@Z 100d9280     libucrt:onexit.obj
 0002:000272a0       __sehtable$??$?RV<lambda_15ade71b0218206bbe3333a0c9b79046>@@AAV<lambda_da44e0f8b0f19ba52fefafb335991732>@@V<lambda_207f2d024fc103971653565357d6cd41>@@@?$__crt_seh_guarded_call@X@@QAEX$$QAV<lambda_15ade71b0218206bbe3333a0c9b79046>@@AAV<lambda_da44e0f8b0f19ba52fefafb335991732>@@$$QAV<lambda_207f2d024fc103971653565357d6cd41>@@@Z 100d92a0     libucrt:per_thread_data.obj
 0002:000272c0       __sehtable$??$?RV<lambda_a7e850c220f1c8d1e6efeecdedd162c6>@@AAV<lambda_46720907175c18b6c9d2717bc0d2d362>@@V<lambda_9048902d66e8d99359bc9897bbb930a8>@@@?$__crt_seh_guarded_call@X@@QAEX$$QAV<lambda_a7e850c220f1c8d1e6efeecdedd162c6>@@AAV<lambda_46720907175c18b6c9d2717bc0d2d362>@@$$QAV<lambda_9048902d66e8d99359bc9897bbb930a8>@@@Z 100d92c0     libucrt:per_thread_data.obj
 0002:000272e0       __sehtable$??$?RV<lambda_38edbb1296d33220d7e4dd0ed76b244a>@@AAV<lambda_5ce1d447e08cb34b2473517608e21441>@@V<lambda_fb385d3da700c9147fc39e65dd577a8c>@@@?$__crt_seh_guarded_call@X@@QAEX$$QAV<lambda_38edbb1296d33220d7e4dd0ed76b244a>@@AAV<lambda_5ce1d447e08cb34b2473517608e21441>@@$$QAV<lambda_fb385d3da700c9147fc39e65dd577a8c>@@@Z 100d92e0     libucrt:per_thread_data.obj
 0002:00027300       __sehtable$??$?RV<lambda_6affb1475c98b40b75cdec977db92e3c>@@AAV<lambda_b8d4b9c228a6ecc3f80208dbb4b4a104>@@V<lambda_608742c3c92a14382c1684fc64f96c88>@@@?$__crt_seh_guarded_call@X@@QAEX$$QAV<lambda_6affb1475c98b40b75cdec977db92e3c>@@AAV<lambda_b8d4b9c228a6ecc3f80208dbb4b4a104>@@$$QAV<lambda_608742c3c92a14382c1684fc64f96c88>@@@Z 100d9300     libucrt:per_thread_data.obj
 0002:00027320       __sehtable$??$?RV<lambda_e5124f882df8998aaf41531e079ba474>@@AAV<lambda_3e16ef9562a7dcce91392c22ab16ea36>@@V<lambda_e25ca0880e6ef98be67edffd8c599615>@@@?$__crt_seh_guarded_call@X@@QAEX$$QAV<lambda_e5124f882df8998aaf41531e079ba474>@@AAV<lambda_3e16ef9562a7dcce91392c22ab16ea36>@@$$QAV<lambda_e25ca0880e6ef98be67edffd8c599615>@@@Z 100d9320     libucrt:wsetlocale.obj
 0002:00027340       __sehtable$??$?RV<lambda_4fdada1b837b2abbf20876fac97688ad>@@AAV<lambda_b57350f2640456a0859d250846f69caf>@@V<lambda_eed5e4f92b5b7d55fa22c48c484aaa54>@@@?$__crt_seh_guarded_call@X@@QAEX$$QAV<lambda_4fdada1b837b2abbf20876fac97688ad>@@AAV<lambda_b57350f2640456a0859d250846f69caf>@@$$QAV<lambda_eed5e4f92b5b7d55fa22c48c484aaa54>@@@Z 100d9340     libucrt:wsetlocale.obj
 0002:00027360       __sehtable$??$?RV<lambda_135d2772fca65dc1248eeaa1b56e886a>@@AAV<lambda_2a444430fde8c29194d880d93eed5e8f>@@AAV<lambda_8dff2cf36a5417162780cd64fa2883ef>@@@?$__crt_seh_guarded_call@X@@QAEX$$QAV<lambda_135d2772fca65dc1248eeaa1b56e886a>@@AAV<lambda_2a444430fde8c29194d880d93eed5e8f>@@AAV<lambda_8dff2cf36a5417162780cd64fa2883ef>@@@Z 100d9360     libucrt:wsetlocale.obj
 0002:00027380       __sehtable$??$?RV<lambda_6b4b7855443974f2b4b77000ea21c99c>@@AAV<lambda_8f7d3b162ab39427f4fa9995c67a7986>@@V<lambda_cc9a5ba8a5d8428b9634eab82665e5dc>@@@?$__crt_seh_guarded_call@H@@QAEH$$QAV<lambda_6b4b7855443974f2b4b77000ea21c99c>@@AAV<lambda_8f7d3b162ab39427f4fa9995c67a7986>@@$$QAV<lambda_cc9a5ba8a5d8428b9634eab82665e5dc>@@@Z 100d9380     libucrt:winapi_thunks.obj
 0002:000273a0       __sehtable$__fcloseall     100d93a0     libucrt:closeall.obj
 0002:000273c0       __sehtable$___acrt_initialize_lowio 100d93c0     libucrt:ioinit.obj
 0002:000273e0       __sehtable$??$?RV<lambda_218ce3db14220d0be481dae8ef3383b6>@@AAV<lambda_628dfdc04ba53c8bfc02c9951375f3f5>@@V<lambda_57dc472bd5c9d5f3b2cbca59b8a843ae>@@@?$__crt_seh_guarded_call@H@@QAEH$$QAV<lambda_218ce3db14220d0be481dae8ef3383b6>@@AAV<lambda_628dfdc04ba53c8bfc02c9951375f3f5>@@$$QAV<lambda_57dc472bd5c9d5f3b2cbca59b8a843ae>@@@Z 100d93e0     libucrt:close.obj
 0002:00027400       __sehtable$?__acrt_stdio_allocate_stream@@YA?AV__crt_stdio_stream@@XZ 100d9400     libucrt:stream.obj
 0002:00027420       __sehtable$??$?RV<lambda_9e9de3de5fa147e2223d7db92bc10aa6>@@AAV<lambda_38ce7e780aa69e748d6df282ebc68efe>@@V<lambda_8ca6da459f0f6780f1cff60fdc3d00e5>@@@?$__crt_seh_guarded_call@H@@QAEH$$QAV<lambda_9e9de3de5fa147e2223d7db92bc10aa6>@@AAV<lambda_38ce7e780aa69e748d6df282ebc68efe>@@$$QAV<lambda_8ca6da459f0f6780f1cff60fdc3d00e5>@@@Z 100d9420     libucrt:commit.obj
 0002:00027440       __sehtable$__write         100d9440     libucrt:write.obj
 0002:00027460       __sehtable$__read          100d9460     libucrt:read.obj
 0002:00027480       __sehtable$??$common_lseek@_J@@YA_JH_JH@Z 100d9480     libucrt:lseek.obj
 0002:000274a0       __sehtable$_raise          100d94a0     libucrt:signal.obj
 0002:000274c0       __sehtable$??$?RV<lambda_cbab9ec6f41b0180b23cc171c22676b0>@@AAV<lambda_44731a7d0e6d81c3e6aa82d741081786>@@V<lambda_4b292cb8dd18144e164572427af410ab>@@@?$__crt_seh_guarded_call@P6AXH@Z@@QAEP6AXH@Z$$QAV<lambda_cbab9ec6f41b0180b23cc171c22676b0>@@AAV<lambda_44731a7d0e6d81c3e6aa82d741081786>@@$$QAV<lambda_4b292cb8dd18144e164572427af410ab>@@@Z 100d94c0     libucrt:signal.obj
 0002:000274e0       __sehtable$__isindst       100d94e0     libucrt:tzset.obj
 0002:00027500       __sehtable$___tzset        100d9500     libucrt:tzset.obj
 0002:0002751c       __unwindtable$?_wcstombs_l_helper@@YAIPADPB_WIPAU__crt_locale_pointers@@@Z 100d951c     libucrt:wcstombs.obj
 0002:00027524       __ehfuncinfo$?_wcstombs_l_helper@@YAIPADPB_WIPAU__crt_locale_pointers@@@Z 100d9524     libucrt:wcstombs.obj
 0002:00027548       __sehtable$?update_thread_multibyte_data_internal@@YAPAU__crt_multibyte_data@@QAU__acrt_ptd@@QAPAU1@@Z 100d9548     libucrt:mbctype.obj
 0002:00027568       __sehtable$??$?RV<lambda_ceb1ee4838e85a9d631eb091e2fbe199>@@AAV<lambda_ae742caa10f662c28703da3d2ea5e57e>@@V<lambda_cd08b5d6af4937fe54fc07d0c9bf6b37>@@@?$__crt_seh_guarded_call@X@@QAEX$$QAV<lambda_ceb1ee4838e85a9d631eb091e2fbe199>@@AAV<lambda_ae742caa10f662c28703da3d2ea5e57e>@@$$QAV<lambda_cd08b5d6af4937fe54fc07d0c9bf6b37>@@@Z 100d9568     libucrt:mbctype.obj
 0002:00027588       __sehtable$___acrt_update_thread_locale_data 100d9588     libucrt:locale_refcounting.obj
 0002:000275a8       __sehtable$__alloc_osfhnd  100d95a8     libucrt:osfinfo.obj
 0002:000275c8       __sehtable$___acrt_lowio_ensure_fh_exists 100d95c8     libucrt:osfinfo.obj
 0002:000275e8       __sehtable$??$common_sopen_dispatch@D@@YAHQBDHHHQAHH@Z 100d95e8     libucrt:open.obj
 0002:00027608       __sehtable$??$common_sopen_dispatch@_W@@YAHQB_WHHHQAHH@Z 100d9608     libucrt:open.obj
 0002:00027628       __sehtable$??$common_getenv_s@D@@YAHQAIQADIQBD@Z 100d9628     libucrt:getenv.obj
 0002:00027648       __sehtable$__IsNonwritableInCurrentImage 100d9648     LIBCMT:pesect.obj
 0002:00027c02       .idata$6                   100d9c02     kernel32:KERNEL32.dll
 0002:00027dd6       .idata$6                   100d9dd6     user32:USER32.dll
 0002:00027df6       .idata$6                   100d9df6     gdi32:GDI32.dll
 0002:00027e00       .idata$6                   100d9e00     oleaut32:OLEAUT32.dll
 0002:00027e24       .idata$6                   100d9e24     urlmon:urlmon.dll
 0002:00027e5e       .idata$6                   100d9e5e     Winmm:WINMM.dll
 0002:00027ea6       .idata$6                   100d9ea6     imm32:IMM32.dll
 0002:00027ec2       .idata$6                   100d9ec2     d3d9:d3d9.dll
 0003:00000000       ?ProtectionFlags@@3PAY111HA 100db000     dll.obj
 0003:00000064       ?material_update_time@?1??UpdateMaterials@CChams@VISUALS@FEATURES@@AAEXXZ@4IA 100db064     Chams.obj
 0003:00000068       ?created@?1??CreateMaterial@CChams@VISUALS@FEATURES@@QAEPAVIMaterial@SDK@@_N00@Z@4HA 100db068     Chams.obj
 0003:0000a4a8       ?GImAllocatorAllocFunc@@3P6APAXIPAX@ZA 100e54a8     imgui.obj
 0003:0000a4ac       ?GImAllocatorFreeFunc@@3P6AXPAX0@ZA 100e54ac     imgui.obj
 0003:0000a4b0       ?resize_grip_def@@3QBUImGuiResizeGripDef@@B 100e54b0     imgui.obj
 0003:0000a510       ?resize_border_def@@3QBUImGuiResizeBorderDef@@B 100e5510     imgui.obj
 0003:0000a580       ?FONT_ATLAS_DEFAULT_TEX_CURSOR_DATA@@3QAY02$$CBUImVec2@@A 100e5580     imgui_draw.obj
 0003:0000a658       ?base_ranges@?1??GetGlyphRangesJapanese@ImFontAtlas@@QAEPBGXZ@4PAGA 100e5658     imgui_draw.obj
 0003:0000a668       ?g_VertexBufferSize@@3HA   100e5668     imgui_impl_dx9.obj
 0003:0000a66c       ?g_IndexBufferSize@@3HA    100e566c     imgui_impl_dx9.obj
 0003:0000a670       ?g_LastMouseCursor@@3HA    100e5670     imgui_impl_win32.obj
 0003:0000a674       ?g_WantUpdateHasGamepad@@3_NA 100e5674     imgui_impl_win32.obj
 0003:0000a678       ?alpha@?1??Checkbox@ImGui@@YA_NPBDPA_N@Z@4HA 100e5678     imgui_widgets.obj
 0003:0000a67c       ?STB_TEXTEDIT_NEWLINE@ImStb@@3GA 100e567c     imgui_widgets.obj
 0003:000143e0       ?stb__window@@3HA          100ef3e0     binary_to_compressed_c.obj
 0003:000143e4       ?stb__hashsize@@3IA        100ef3e4     binary_to_compressed_c.obj
 0003:000143e8       ?main_tabs@?8??Do@MENU@PPGUI@@YAXXZ@4PAY0BAA@DA 100ef3e8     Menu.obj
 0003:000147e8       ?ignore_types@?BA@??Do@MENU@PPGUI@@YAXXZ@4PAY0BAA@DA 100ef7e8     Menu.obj
 0003:00014ce8       ?delay_shot_types@?BA@??Do@MENU@PPGUI@@YAXXZ@4PAY0BAA@DA 100efce8     Menu.obj
 0003:00014ee8       ?fake_latency_types@?BA@??Do@MENU@PPGUI@@YAXXZ@4PAY0BAA@DA 100efee8     Menu.obj
 0003:000150e8       ?accuracy_types@?BA@??Do@MENU@PPGUI@@YAXXZ@4PAY0BAA@DA 100f00e8     Menu.obj
 0003:000153e8       ?hitscan_items@?BA@??Do@MENU@PPGUI@@YAXXZ@4PAY0BAA@DA 100f03e8     Menu.obj
 0003:000158e8       ?antiaim_tabs@?CL@??Do@MENU@PPGUI@@YAXXZ@4PAY0BAA@DA 100f08e8     Menu.obj
 0003:00015ce8       ?antiaim_real_types@?CL@??Do@MENU@PPGUI@@YAXXZ@4PAY0BAA@DA 100f0ce8     Menu.obj
 0003:000161e8       ?antiaim_fake_types@?CL@??Do@MENU@PPGUI@@YAXXZ@4PAY0BAA@DA 100f11e8     Menu.obj
 0003:000167e8       ?antiaim_pitch_types@?CL@??Do@MENU@PPGUI@@YAXXZ@4PAY0BAA@DA 100f17e8     Menu.obj
 0003:00016be8       ?antiaim_edging_types@?ED@??Do@MENU@PPGUI@@YAXXZ@4PAY0BAA@DA 100f1be8     Menu.obj
 0003:00016ee8       ?thirdperson_angles@?EI@??Do@MENU@PPGUI@@YAXXZ@4PAY0BAA@DA 100f1ee8     Menu.obj
 0003:000171e8       ?glow_types@?HO@??Do@MENU@PPGUI@@YAXXZ@4PAY0BAA@DA 100f21e8     Menu.obj
 0003:000175e8       ?channelsz@?NN@??Do@MENU@PPGUI@@YAXXZ@4PAY0BAA@DA 100f25e8     Menu.obj
 0003:000187b0       ?buf@?1??TexturedPolygon@RENDER@@YAXHV?$vector@UVertex_t@SDK@@V?$allocator@UVertex_t@SDK@@@std@@@std@@VCColor@@@Z@4PAEA 100f37b0     render.obj
 0003:000187b8       $SG62434                   100f37b8     detours:detours.obj
 0003:000187c8       $SG62437                   100f37c8     detours:detours.obj
 0003:000187e0       $SG62439                   100f37e0     detours:detours.obj
 0003:000187f0       $SG62441                   100f37f0     detours:detours.obj
 0003:00018800       $SG62443                   100f3800     detours:detours.obj
 0003:00018810       $SG62445                   100f3810     detours:detours.obj
 0003:00018820       $SG62447                   100f3820     detours:detours.obj
 0003:00018834       $SG62449                   100f3834     detours:detours.obj
 0003:00018848       $SG62451                   100f3848     detours:detours.obj
 0003:00018854       $SG62487                   100f3854     detours:detours.obj
 0003:00018858       $SG62605                   100f3858     detours:detours.obj
 0003:00018860       ?init@std@@3JA             100f3860     libcpmt:xlock.obj
 0003:000188bc       ?atcount_cdecl@@3IA        100f38bc     libcpmt:iosptrs.obj
 0003:000188fc       ?g_CommitFrequency@details@Concurrency@@3HA 100f38fc     libconcrt:utils.obj
 0003:00018980       ?__vcrt_flsindex@@3KA      100f3980     libvcruntime:per_thread_data.obj
 0003:00018a40       ?errno_no_memory@@3HA      100f3a40     libucrt:errno.obj
 0003:00018a44       ?doserrno_no_memory@@3KA   100f3a44     libucrt:errno.obj
 0003:00018ac0       ?__acrt_flsindex@@3KA      100f3ac0     libucrt:per_thread_data.obj
 0003:00018ac4       __ctype_loc_style          100f3ac4     libucrt:wsetlocale.obj
 0003:00018cd0       ?tzstd_program@@3PADA      100f3cd0     libucrt:timeset.obj
 0003:00018d10       ?tzdst_program@@3PADA      100f3d10     libucrt:timeset.obj
 0003:00018d50       ?tzname_states@@3PAY01PADA 100f3d50     libucrt:timeset.obj
 0003:00018d58       ?dststart@@3Utransitiondate@?A0x7639d0b4@@A 100f3d58     libucrt:tzset.obj
 0003:00018d64       ?dstend@@3Utransitiondate@?A0x7639d0b4@@A 100f3d64     libucrt:tzset.obj
 0003:00018fa0       __mbctypes                 100f3fa0     libucrt:mbctype.obj
 0003:000190a8       __mbcasemaps               100f40a8     libucrt:mbctype.obj
 0003:000191a8       ?__rgctypeflag@@3PADA      100f41a8     libucrt:mbctype.obj
 0003:000191b0       ?__rgcode_page_info@@3PAUcode_page_info@@A 100f41b0     libucrt:mbctype.obj
 0003:000192a0       ?__dcrt_lowio_console_output_handle@@3PAXA 100f42a0     libucrt:initcon.obj
 0003:000192b0       ?_StaticAllocStorageLeft@@3IA 100f42b0     libcpmt:excptptr.obj
 0003:000c8360       ?duration_spent_aiming@?1??Do@Aimbot@RAGEBOT@FEATURES@@QAEXPAVCUserCmd@SDK@@@Z@4MA 101a3360     Aimbot.obj
 0003:000c9714       ?last_lby@?M@??UpdateLBY@Antiaim@RAGEBOT@FEATURES@@QAEXXZ@4MA 101a4714     Antiaim.obj
 0003:000c9718       ?switch_bool@?6??BreakLBY@Antiaim@RAGEBOT@FEATURES@@AAEMMM_N@Z@4_NA 101a4718     Antiaim.obj
 0003:000c9728       ?HBP@?1??CanPenetrate@Autowall@RAGEBOT@FEATURES@@AAE_NPAVCBaseEntity@SDK@@AAUAutowall_Info@234@PAUWeapon_Info@6@@Z@4P6E_N0PAMPAHPADPAUtrace_t@6@PAVVector@@HMMHHM47HH3@ZA 101a4728     Autowall.obj
 0003:000c972c       ?$TSS0@?1??CanPenetrate@Autowall@RAGEBOT@FEATURES@@AAE_NPAVCBaseEntity@SDK@@AAUAutowall_Info@234@PAUWeapon_Info@6@@Z@4HA 101a472c     Autowall.obj
 0003:000c9a9c       ?InvalidateBoneCache@?1??0CBacktracking@RAGEBOT@FEATURES@@CAXPAVCBaseEntity@SDK@@@Z@4IA 101a4a9c     Backtracking.obj
 0003:000c9aa0       ?$TSS0@?1??InvalidateBoneCache@CBacktracking@RAGEBOT@FEATURES@@CAXPAVCBaseEntity@SDK@@@Z@4HA 101a4aa0     Backtracking.obj
 0003:000c9aa4       ?g_iModelBoneCounter@?1??InvalidateBoneCache@CBacktracking@RAGEBOT@FEATURES@@CAXPAVCBaseEntity@SDK@@@Z@4IA 101a4aa4     Backtracking.obj
 0003:000c9aa8       ?$TSS1@?1??InvalidateBoneCache@CBacktracking@RAGEBOT@FEATURES@@CAXPAVCBaseEntity@SDK@@@Z@4HA 101a4aa8     Backtracking.obj
 0003:000c9aac       ?cl_interp_ratio@?1??GetLerpTicks@CBacktracking@RAGEBOT@FEATURES@@SAHXZ@4QAVConVar@SDK@@A 101a4aac     Backtracking.obj
 0003:000c9ab0       ?$TSS0@?1??GetLerpTicks@CBacktracking@RAGEBOT@FEATURES@@SAHXZ@4HA 101a4ab0     Backtracking.obj
 0003:000c9ab4       ?cl_updaterate@?1??GetLerpTicks@CBacktracking@RAGEBOT@FEATURES@@SAHXZ@4QAVConVar@SDK@@A 101a4ab4     Backtracking.obj
 0003:000c9ab8       ?$TSS1@?1??GetLerpTicks@CBacktracking@RAGEBOT@FEATURES@@SAHXZ@4HA 101a4ab8     Backtracking.obj
 0003:000c9abc       ?cl_interp@?1??GetLerpTicks@CBacktracking@RAGEBOT@FEATURES@@SAHXZ@4QAVConVar@SDK@@A 101a4abc     Backtracking.obj
 0003:000c9ac0       ?$TSS2@?1??GetLerpTicks@CBacktracking@RAGEBOT@FEATURES@@SAHXZ@4HA 101a4ac0     Backtracking.obj
 0003:000c9af0       ?initilized@?1??UpdateMaterials@CChams@VISUALS@FEATURES@@AAEXXZ@4_NA 101a4af0     Chams.obj
 0003:000c9af1       ?last_local_wireframe@?1??UpdateMaterials@CChams@VISUALS@FEATURES@@AAEXXZ@4_NA 101a4af1     Chams.obj
 0003:000c9af2       ?last_enemy_wireframe@?1??UpdateMaterials@CChams@VISUALS@FEATURES@@AAEXXZ@4_NA 101a4af2     Chams.obj
 0003:000c9af3       ?last_team_wireframe@?1??UpdateMaterials@CChams@VISUALS@FEATURES@@AAEXXZ@4_NA 101a4af3     Chams.obj
 0003:000c9af4       ?address@?1??InitKeyValues@CChams@VISUALS@FEATURES@@AAEXPAVKeyValues@SDK@@V?$basic_string@DU?$char_traits@D@std@@V?$allocator@D@2@@std@@@Z@4IA 101a4af4     Chams.obj
 0003:000c9af8       ?$TSS0@?1??InitKeyValues@CChams@VISUALS@FEATURES@@AAEXPAVKeyValues@SDK@@V?$basic_string@DU?$char_traits@D@std@@V?$allocator@D@2@@std@@@Z@4HA 101a4af8     Chams.obj
 0003:000c9afc       ?address@?1??LoadFromBuffer@CChams@VISUALS@FEATURES@@AAEXPAVKeyValues@SDK@@V?$basic_string@DU?$char_traits@D@std@@V?$allocator@D@2@@std@@1@Z@4IA 101a4afc     Chams.obj
 0003:000c9b00       ?$TSS0@?1??LoadFromBuffer@CChams@VISUALS@FEATURES@@AAEXPAVKeyValues@SDK@@V?$basic_string@DU?$char_traits@D@std@@V?$allocator@D@2@@std@@1@Z@4HA 101a4b00     Chams.obj
 0003:000c9b05       ?clock_wise@?1??Do@CircleStrafer@MISC@FEATURES@@QAEXPAVCUserCmd@SDK@@@Z@4_NA 101a4b05     CircleStrafer.obj
 0003:000c9bcc       ?is_initialized@?1??StartPrediction@EnginePrediction@MISC@FEATURES@@QAEXPAVCUserCmd@SDK@@@Z@4_NA 101a4bcc     EnginePrediction.obj
 0003:000c9be4       ?last_networked_origin@?1??HookedSetupBones@MISC@FEATURES@@YI_NPAX0PAUmatrix3x4_t@@HHM@Z@4VVector@@A 101a4be4     Misc.obj
 0003:000c9bf0       ?is_init@?6??Misc@MISC@FEATURES@@YAXXZ@4_NA 101a4bf0     Misc.obj
 0003:000c9bf4       ?delay@?1??AutoRevolver@MISC@FEATURES@@YAXPAVCUserCmd@SDK@@@Z@4MA 101a4bf4     Misc.obj
 0003:000c9c00       ?radio_info@?7??DrawMisc@MISC@FEATURES@@YAXXZ@4U?$pair@V?$basic_string@DU?$char_traits@D@std@@V?$allocator@D@2@@std@@D@std@@B 101a4c00     Misc.obj
 0003:000c9c1c       ?$TSS0@?7??DrawMisc@MISC@FEATURES@@YAXXZ@4HA 101a4c1c     Misc.obj
 0003:000c9c20       ?muted@?7??DrawMisc@MISC@FEATURES@@YAXXZ@4U?$pair@V?$basic_string@DU?$char_traits@D@std@@V?$allocator@D@2@@std@@D@std@@B 101a4c20     Misc.obj
 0003:000c9c3c       ?$TSS1@?7??DrawMisc@MISC@FEATURES@@YAXXZ@4HA 101a4c3c     Misc.obj
 0003:00109b68       ?last_time@?1??Do@VISUALS@FEATURES@@YAXXZ@4IA 101e4b68     Visuals.obj
 0003:00109b7c       ?molotov_throw_detonate_time@?1??DrawGrenadePrediction@VisualsMisc@VISUALS@FEATURES@@AAEXXZ@4PAVConVar@SDK@@A 101e4b7c     VisualsMisc.obj
 0003:00109b80       ?$TSS0@?1??DrawGrenadePrediction@VisualsMisc@VISUALS@FEATURES@@AAEXXZ@4HA 101e4b80     VisualsMisc.obj
 0003:00109b84       ?weapon_molotov_maxdetonateslope@?1??DrawGrenadePrediction@VisualsMisc@VISUALS@FEATURES@@AAEXXZ@4PAVConVar@SDK@@A 101e4b84     VisualsMisc.obj
 0003:00109b88       ?$TSS1@?1??DrawGrenadePrediction@VisualsMisc@VISUALS@FEATURES@@AAEXXZ@4HA 101e4b88     VisualsMisc.obj
 0003:00109b8c       ?sv_gravity@?1??DrawGrenadePrediction@VisualsMisc@VISUALS@FEATURES@@AAEXXZ@4PAVConVar@SDK@@A 101e4b8c     VisualsMisc.obj
 0003:00109b90       ?$TSS2@?1??DrawGrenadePrediction@VisualsMisc@VISUALS@FEATURES@@AAEXXZ@4HA 101e4b90     VisualsMisc.obj
 0003:0010bdac       ?skybox_var@?1??DoFSN@WorldTextures@VISUALS@FEATURES@@QAEXXZ@4PAVConVar@SDK@@A 101e6dac     World Textures.obj
 0003:0010bdb0       ?$TSS0@?1??DoFSN@WorldTextures@VISUALS@FEATURES@@QAEXXZ@4HA 101e6db0     World Textures.obj
 0003:0010bdbc       ?GImAllocatorUserData@@3PAXA 101e6dbc     imgui.obj
 0003:0010bdcc       ?io@?1??ImFontAtlasGetBuilderForStbTruetype@@YAPBUImFontBuilderIO@@XZ@4U2@A 101e6dcc     imgui_draw.obj
 0003:0010bdd0       ?full_ranges@?1??GetGlyphRangesJapanese@ImFontAtlas@@QAEPBGXZ@4PAGA 101e6dd0     imgui_draw.obj
 0003:0010ecc0       ?stb__barrier_out_e@@3PAEA 101e9cc0     imgui_draw.obj
 0003:0010ecc4       ?stb__barrier_out_b@@3PAEA 101e9cc4     imgui_draw.obj
 0003:0010ecc8       ?stb__barrier_in_b@@3PBEB  101e9cc8     imgui_draw.obj
 0003:0010eccc       ?stb__dout@@3PAEA          101e9ccc     imgui_draw.obj
 0003:0010ecd0       ?g_pd3dDevice@@3PAUIDirect3DDevice9@@A 101e9cd0     imgui_impl_dx9.obj
 0003:0010ecd4       ?g_pVB@@3PAUIDirect3DVertexBuffer9@@A 101e9cd4     imgui_impl_dx9.obj
 0003:0010ecd8       ?g_pIB@@3PAUIDirect3DIndexBuffer9@@A 101e9cd8     imgui_impl_dx9.obj
 0003:0010ecdc       ?g_FontTexture@@3PAUIDirect3DTexture9@@A 101e9cdc     imgui_impl_dx9.obj
 0003:0010ece0       ?g_hWnd@@3PAUHWND__@@A     101e9ce0     imgui_impl_win32.obj
 0003:0010ece4       ?g_HasGamepad@@3_NA        101e9ce4     imgui_impl_win32.obj
 0003:0010ece8       ?g_Time@@3_JA              101e9ce8     imgui_impl_win32.obj
 0003:0010ecf0       ?g_TicksPerSecond@@3_JA    101e9cf0     imgui_impl_win32.obj
 0003:0010ecf8       ?g_XInputDLL@@3PAUHINSTANCE__@@A 101e9cf8     imgui_impl_win32.obj
 0003:0010ecfc       ?g_XInputGetCapabilities@@3P6GKKKPAU_XINPUT_CAPABILITIES@@@ZA 101e9cfc     imgui_impl_win32.obj
 0003:0010ed00       ?g_XInputGetState@@3P6GKKPAU_XINPUT_STATE@@@ZA 101e9d00     imgui_impl_win32.obj
 0003:0010ed04       ?anim@?1??tab@ImGui@@YA_NPBD_N@Z@4V?$map@IUtab_anim@@U?$less@I@std@@V?$allocator@U?$pair@$$CBIUtab_anim@@@std@@@3@@std@@A 101e9d04     imgui_widgets.obj
 0003:0010ed0c       ?$TSS0@?1??tab@ImGui@@YA_NPBD_N@Z@4HA 101e9d0c     imgui_widgets.obj
 0003:0010ed14       ?open@BASS@@3_NA           101e9d14     sounds.obj
 0003:0010ed15       ?bass_needs_reinit@?1??playback_loop@@YAXXZ@4_NA 101e9d15     sounds.obj
 0003:0010ed18       ?channels@?1??playback_loop@@YAXXZ@4PAU?$pair@V?$basic_string@DU?$char_traits@D@std@@V?$allocator@D@2@@std@@D@std@@A 101e9d18     sounds.obj
 0003:0010edf8       ?$TSS0@?1??playback_loop@@YAXXZ@4HA 101e9df8     sounds.obj
 0003:0010edfc       ?current_channel@?8??playback_loop@@YAXXZ@4HA 101e9dfc     sounds.obj
 0003:0010ee11       ?open@BASS@@3_NA           101e9e11     main.obj
 0003:0010ee14       ?window@@3PAUHWND__@@A     101e9e14     main.obj
 0003:0010ee18       ?tab@@3HA                  101e9e18     main.obj
 0003:0010ee1c       ?tester@?1??hookedEndScene@@YGJPAUIDirect3DDevice9@@@Z@4_NA 101e9e1c     main.obj
 0003:0010ee20       ?stb__out@@3PAEA           101e9e20     binary_to_compressed_c.obj
 0003:0010ee24       ?stb__outfile@@3PAU_iobuf@@A 101e9e24     binary_to_compressed_c.obj
 0003:0010ee28       ?stb__outbytes@@3IA        101e9e28     binary_to_compressed_c.obj
 0003:0010ee2c       ?stb__running_adler@@3IA   101e9e2c     binary_to_compressed_c.obj
 0003:0010ee30       ?menu_open@MENU@PPGUI@@3_NA 101e9e30     Menu.obj
 0003:0010ee31       ?open@BASS@@3_NA           101e9e31     Menu.obj
 0003:0010ee34       ?selected_main_tab@?8??Do@MENU@PPGUI@@YAXXZ@4HA 101e9e34     Menu.obj
 0003:0010ee38       ?selected_antiaim_tab@?CL@??Do@MENU@PPGUI@@YAXXZ@4HA 101e9e38     Menu.obj
 0003:0010ee3c       ?test_bool_1@?EF@??Do@MENU@PPGUI@@YAXXZ@4_NA 101e9e3c     Menu.obj
 0003:0010ee40       ?ragebot_configs@?KI@??Do@MENU@PPGUI@@YAXXZ@4PAY0BAA@DA 101e9e40     Menu.obj
 0003:00110240       ?selected_ragebot_config@?KI@??Do@MENU@PPGUI@@YAXXZ@4HA 101eb240     Menu.obj
 0003:00110248       ?new_config_name@?KL@??Do@MENU@PPGUI@@YAXXZ@4PADA 101eb248     Menu.obj
 0003:00110348       ?new_config_name@?LC@??Do@MENU@PPGUI@@YAXXZ@4PADA 101eb348     Menu.obj
 0003:00110448       ?main_configs@?LO@??Do@MENU@PPGUI@@YAXXZ@4PAY0BAA@DA 101eb448     Menu.obj
 0003:00111848       ?selected_main_config@?LO@??Do@MENU@PPGUI@@YAXXZ@4HA 101ec848     Menu.obj
 0003:00111850       ?new_config_name@?MB@??Do@MENU@PPGUI@@YAXXZ@4PADA 101ec850     Menu.obj
 0003:00111950       ?new_config_name@?MI@??Do@MENU@PPGUI@@YAXXZ@4PADA 101ec950     Menu.obj
 0003:00111a50       ?random_num@?2??Draw@PPGUI_Window_Command@PPGUI@@UAEXXZ@4PAMA 101eca50     PPGUI_Commands.obj
 0003:00111ab4       ?is_init@?3??Draw@PPGUI_Window_Command@PPGUI@@UAEXXZ@4_NA 101ecab4     PPGUI_Commands.obj
 0003:00111d08       ?linegoesthrusmoke@@3IA    101ecd08     hooks.obj
 0003:00111d70       ?smokecout@?4??HookedSceneEnd@HOOKS@@YIXPAX0@Z@4KA 101ecd70     hooks.obj
 0003:00111d74       ?$TSS2@?4??HookedSceneEnd@HOOKS@@YIXPAX0@Z@4HA 101ecd74     hooks.obj
 0003:001125f8       ?file_path@?1??Log@UTILS@@YAXV?$basic_string@DU?$char_traits@D@std@@V?$allocator@D@2@@std@@@Z@4PADA 101ed5f8     logging.obj
 0003:001126fc       ?is_init@?2??Log@UTILS@@YAXV?$basic_string@DU?$char_traits@D@std@@V?$allocator@D@2@@std@@@Z@4_NA 101ed6fc     logging.obj
 0003:001127ec       ?texture_id@?1??TexturedPolygon@RENDER@@YAXHV?$vector@UVertex_t@SDK@@V?$allocator@UVertex_t@SDK@@@std@@@std@@VCColor@@@Z@4HA 101ed7ec     render.obj
 0003:001127f0       ?$TSS0@?1??TexturedPolygon@RENDER@@YAXHV?$vector@UVertex_t@SDK@@V?$allocator@UVertex_t@SDK@@@std@@@std@@VCColor@@@Z@4HA 101ed7f0     render.obj
 0003:001128a0       ?old_width@?1??ShouldReloadFonts@FONTS@@YA_NXZ@4HA 101ed8a0     variables.obj
 0003:001128a4       ?old_height@?1??ShouldReloadFonts@FONTS@@YA_NXZ@4HA 101ed8a4     variables.obj
 0003:001128a8       ?is_init@?1??InitFonts@FONTS@@YAXXZ@4_NA 101ed8a8     variables.obj
 0003:001128b0       ?initlocks@std@@3V_Init_locks@1@A 101ed8b0     libcpmt:xlock.obj
 0003:001128b8       ?mtx@std@@3PAU_RTL_CRITICAL_SECTION@@A 101ed8b8     libcpmt:xlock.obj
 0003:00112994       ?classic_locale@std@@3Vlocale@1@A 101ed994     libcpmt:locale0.obj
 0003:0011299c       ?_Fac_tidy_reg@std@@3U_Fac_tidy_reg_t@1@B 101ed99c     libcpmt:locale0.obj
 0003:001129a0       ?_Fac_head@std@@3PAU_Fac_node@1@A 101ed9a0     libcpmt:locale0.obj
 0003:001129a4       _global_locale             101ed9a4     libcpmt:locale0.obj
 0003:001129a8       ?registered@?1??_Setgloballocale@locale@std@@CAXPAX@Z@4_NA 101ed9a8     libcpmt:locale0.obj
 0003:001129b0       ?stdstr@std@@3PAPAVios_base@1@A 101ed9b0     libcpmt:ios.obj
 0003:001129d8       ?stdopens@std@@3PADA       101ed9d8     libcpmt:ios.obj
 0003:001129e8       ?initlocks@@3V_Init_locks@std@@A 101ed9e8     libcpmt:cout.obj
 0003:001129e9       ?init_cout@std@@3U_Init_cout@1@A 101ed9e9     libcpmt:cout.obj
 0003:00112a40       ?fout@std@@3V?$basic_filebuf@DU?$char_traits@D@std@@@1@A 101eda40     libcpmt:cout.obj
 0003:00112abc       ?initlocks@std@@3V_Init_locks@1@A 101edabc     libcpmt:iosptrs.obj
 0003:00112abd       ?init_atexit@@3U_Init_atexit@@A 101edabd     libcpmt:iosptrs.obj
 0003:00112ac0       ?atfuns_cdecl@@3PAP6AXXZA  101edac0     libcpmt:iosptrs.obj
 0003:00112b90       _thread_exit_data          101edb90     libcpmt:xnotify.obj
 0003:00112da0       ?_Tss_mutex@@3U_RTL_CRITICAL_SECTION@@A 101edda0     LIBCMT:thread_safe_statics.obj
 0003:00112db8       ?_Tss_cv@@3U_RTL_CONDITION_VARIABLE@@A 101eddb8     LIBCMT:thread_safe_statics.obj
 0003:00112dbc       ?_Tss_event@@3PAXA         101eddbc     LIBCMT:thread_safe_statics.obj
 0003:00112dc0       ?encoded_sleep_condition_variable_cs@@3P6GHPAU_RTL_CONDITION_VARIABLE@@PAU_RTL_CRITICAL_SECTION@@K@ZA 101eddc0     LIBCMT:thread_safe_statics.obj
 0003:00112dc4       ?encoded_wake_all_condition_variable@@3P6GXPAU_RTL_CONDITION_VARIABLE@@@ZA 101eddc4     LIBCMT:thread_safe_statics.obj
 0003:00112dd4       ?is_initialized_as_dll@@3_NA 101eddd4     LIBCMT:utility.obj
 0003:00112dd5       ?module_local_atexit_table_initialized@@3_NA 101eddd5     LIBCMT:utility.obj
 0003:00112dd8       ?module_local_atexit_table@@3U_onexit_table_t@@A 101eddd8     LIBCMT:utility.obj
 0003:00112de4       ?module_local_at_quick_exit_table@@3U_onexit_table_t@@A 101edde4     LIBCMT:utility.obj
 0003:00112df0       _GS_ExceptionRecord        101eddf0     LIBCMT:gs_report.obj
 0003:00112e40       _GS_ContextRecord          101ede40     LIBCMT:gs_report.obj
 0003:0011310c       ?__proc_attached@@3HA      101ee10c     LIBCMT:dll_dllmain.obj
 0003:00113130       ?s_defaultWaiterPool@platform@details@Concurrency@@3VDefaultWaiterPool@123@A 101ee130     libconcrt:Platform.obj
 0003:00113134       ?s_pfnGetCurrentProcessorNumberEx@platform@details@Concurrency@@3P6GXPAU_PROCESSOR_NUMBER@@@ZA 101ee134     libconcrt:Platform.obj
 0003:00113138       ?s_pfnSetThreadGroupAffinity@platform@details@Concurrency@@3P6GHPAXPBU_GROUP_AFFINITY@@PAU4@@ZA 101ee138     libconcrt:Platform.obj
 0003:0011313c       ?s_pfnGetThreadGroupAffinity@platform@details@Concurrency@@3P6GHPAXPAU_GROUP_AFFINITY@@@ZA 101ee13c     libconcrt:Platform.obj
 0003:00113140       ?s_waiterPool@platform@details@Concurrency@@3PAVWaiterThreadPool@123@A 101ee140     libconcrt:Platform.obj
 0003:00113150       ?g_DebugOutFilePtr@details@Concurrency@@3PAU_iobuf@@A 101ee150     libconcrt:utils.obj
 0003:00113154       ?g_DesiredTraceLevel@details@Concurrency@@3HA 101ee154     libconcrt:utils.obj
 0003:00113158       ?g_TraceCount@details@Concurrency@@3_KA 101ee158     libconcrt:utils.obj
 0003:0011324c       ?__vcrt_startup_thread_ptd@@3U__vcrt_ptd@@A 101ee24c     libvcruntime:per_thread_data.obj
 0003:00113278       _rgValidPages              101ee278     libvcruntime:eh3valid.obj
 0003:001132f8       _nValidPages               101ee2f8     libvcruntime:eh3valid.obj
 0003:001132fc       _lModifying                101ee2fc     libvcruntime:eh3valid.obj
 0003:00113300       ___vcrt_lock_table         101ee300     libvcruntime:locks.obj
 0003:00113318       ___vcrt_locks_initialized  101ee318     libvcruntime:locks.obj
 0003:0011331c       ?module_handles@@3PAPAUHINSTANCE__@@A 101ee31c     libvcruntime:winapi_downlevel.obj
 0003:00113328       ?encoded_function_pointers@@3PAPAXA 101ee328     libvcruntime:winapi_downlevel.obj
 0003:00113364       ?heap@@3V_HeapManager@@A   101ee364     libvcruntime:undname.obj
 0003:00113378       ?__acrt_invalid_parameter_handler@@3V?$dual_state_global@P6AXPB_W00II@Z@__crt_state_management@@A 101ee378     libucrt:invalid_parameter.obj
 0003:00113390       ?__acrt_lock_table@@3PAU_RTL_CRITICAL_SECTION@@A 101ee390     libucrt:locks.obj
 0003:001134e0       ?__acrt_locks_initialized@@3IA 101ee4e0     libucrt:locks.obj
 0003:001134e4       ?__acrt_new_handler@@3V?$dual_state_global@P6AHI@Z@__crt_state_management@@A 101ee4e4     libucrt:new_handler.obj
 0003:001134e8       ?c_termination_complete@@3JA 101ee4e8     libucrt:exit.obj
 0003:001134ec       ?thread_local_exit_callback_func@@3P6GXPAXK0@ZA 101ee4ec     libucrt:exit.obj
 0003:001134f8       ?program_name@?1???$common_configure_argv@D@@YAHW4_crt_argv_mode@@@Z@4PADA 101ee4f8     libucrt:argv_parsing.obj
 0003:00113630       ?module_handles@@3PAPAUHINSTANCE__@@A 101ee630     libucrt:winapi_thunks.obj
 0003:00113680       ?encoded_function_pointers@@3PAPAXA 101ee680     libucrt:winapi_thunks.obj
 0003:00113708       ?static_enum_proc@?1??enum_system_locales_ex_nolock@@YAHQ6GHPA_WKJ@Z@Z@4P6GH0KJ@ZA 101ee708     libucrt:winapi_thunks.obj
 0003:0011391c       __pmatherr_set             101ee91c     libucrt:libm_error.obj
 0003:00113920       ?internal_state@?1??_mbtowc_l@@9@4U_Mbstatet@@A 101ee920     libucrt:mbtowc.obj
 0003:00113928       ?enable_percent_n@@3IA     101ee928     libucrt:printf_count_output.obj
 0003:0011392c       ?__acrt_app_type@@3W4_crt_app_type@@A 101ee92c     libucrt:report_runtime_error.obj
 0003:00113930       ___acrt_error_mode         101ee930     libucrt:set_error_mode.obj
 0003:00113934       ?ctrlc_action@@3V?$dual_state_global@P6AXH@Z@__crt_state_management@@A 101ee934     libucrt:signal.obj
 0003:00113938       ?ctrlbreak_action@@3V?$dual_state_global@P6AXH@Z@__crt_state_management@@A 101ee938     libucrt:signal.obj
 0003:0011393c       ?abort_action@@3V?$dual_state_global@P6AXH@Z@__crt_state_management@@A 101ee93c     libucrt:signal.obj
 0003:00113940       ?term_action@@3V?$dual_state_global@P6AXH@Z@__crt_state_management@@A 101ee940     libucrt:signal.obj
 0003:00113950       ?_tzname@@3V?$dual_state_global@PAPAD@__crt_state_management@@A 101ee950     libucrt:timeset.obj
 0003:00113954       ?last_tz@@3PADA            101ee954     libucrt:tzset.obj
 0003:00113958       ?tz_api_used@@3HA          101ee958     libucrt:tzset.obj
 0003:00113960       ?tz_info@@3U_TIME_ZONE_INFORMATION@@A 101ee960     libucrt:tzset.obj
 0003:00113a0c       ?first_time@?1??__tzset@@9@4JA 101eea0c     libucrt:tzset.obj
 0003:00113a10       ?state_cache@?1???$get_cached_win_policy@Udeveloper_information_policy_properties@?1??__acrt_get_developer_information_policy@@YA?AW4developer_information_policy@@XZ@@@YA?AW4developer_information_policy@@W4AppPolicyShowDeveloperDiagnostic@@@Z@4JA 101eea10     libucrt:win_policies.obj
 0003:00113a14       ?state_cache@?1???$get_cached_win_policy@Uwindowing_model_policy_properties@?1??__acrt_get_windowing_model_policy@@YA?AW4windowing_model_policy@@XZ@@@YA?AW4windowing_model_policy@@W4AppPolicyWindowingModel@@@Z@4JA 101eea14     libucrt:win_policies.obj
 0003:00113a28       ?fSystemSet@@3HA           101eea28     libucrt:mbctype.obj
 0003:00113a2c       ?initialized@?1??__acrt_initialize_multibyte@@9@4_NA 101eea2c     libucrt:mbctype.obj
 0003:00113a4c       ?user_matherr@@3V?$dual_state_global@P6AHPAU_exception@@@Z@__crt_state_management@@A 101eea4c     libucrt:matherr.obj
 0003:00113a50       ?__acrt_global_new_mode@@3V?$dual_state_global@J@__crt_state_management@@A 101eea50     libucrt:new_mode.obj
 0003:00113a58       ?internal_pst@?1??__mbrtoc32_utf8@__crt_mbstring@@YAIPA_UPBDIPAU_Mbstatet@@@Z@4U3@A 101eea58     libucrt:mbrtoc32.obj
 0003:00113a64       ?internal_pst@?1??__c16rtomb_utf8@__crt_mbstring@@YAIPAD_SPAU_Mbstatet@@@Z@4U3@A 101eea64     libucrt:c16rtomb.obj
 0003:00113a70       ?s_asyncId@platform@details@Concurrency@@3IA 101eea70     libcpmt:ppltasks.obj
 0003:00113a78       ?_StaticAllocStorage@@3PADA 101eea78     libcpmt:excptptr.obj
 0004:00000060       $R000000                   101ef060     * linker generated manifest res *

 Exports

  ordinal    name

