 Bameware Legacy

 Timestamp is 63a8d8fb (Mon Dec 26 01:12:59 2022)

 Preferred load address is 10000000

 Start         Length     Name                   Class
 0001:00000000 00000560H .text$di                CODE
 0001:00000560 0006b840H .text$mn                CODE
 0001:0006bda0 000024b0H .text$x                 CODE
 0001:0006e250 0000055cH .text$yd                CODE
 0002:00000000 000001d8H .idata$5                DATA
 0002:000001d8 00000004H .00cfg                  DATA
 0002:000001dc 00000004H .CRT$XCA                DATA
 0002:000001e0 0000001cH .CRT$XCC                DATA
 0002:000001fc 00000008H .CRT$XCL                DATA
 0002:00000204 0000007cH .CRT$XCU                DATA
 0002:00000280 00000004H .CRT$XCZ                DATA
 0002:00000284 00000004H .CRT$XIA                DATA
 0002:00000288 00000018H .CRT$XIC                DATA
 0002:000002a0 00000004H .CRT$XIZ                DATA
 0002:000002a4 00000004H .CRT$XLA                DATA
 0002:000002a8 00000004H .CRT$XLZ                DATA
 0002:000002ac 00000004H .CRT$XPA                DATA
 0002:000002b0 00000008H .CRT$XPX                DATA
 0002:000002b8 00000004H .CRT$XPXA               DATA
 0002:000002bc 00000004H .CRT$XPZ                DATA
 0002:000002c0 00000004H .CRT$XTA                DATA
 0002:000002c4 0000000cH .CRT$XTZ                DATA
 0002:000002c8 00000000H .gfids$y                DATA
 0002:000002d0 000139a8H .rdata                  DATA
 0002:00013c78 00000018H .rdata$T                DATA
 0002:00013c90 00001290H .rdata$r                DATA
 0002:00014f20 0000022cH .rdata$sxdata           DATA
 0002:0001514c 000003dcH .rdata$zzzdbg           DATA
 0002:00015528 00000004H .rtc$IAA                DATA
 0002:0001552c 00000004H .rtc$IZZ                DATA
 0002:00015530 00000004H .rtc$TAA                DATA
 0002:00015534 00000004H .rtc$TZZ                DATA
 0002:00015538 00000004H .tls                    DATA
 0002:0001553c 00000004H .tls$                   DATA
 0002:00015540 00000008H .tls$ZZZ                DATA
 0002:00015548 000030a4H .xdata$x                DATA
 0002:000185ec 00000000H .edata                  DATA
 0002:000185ec 00000078H .idata$2                DATA
 0002:00018664 00000014H .idata$3                DATA
 0002:00018678 000001d8H .idata$4                DATA
 0002:00018850 0000081eH .idata$6                DATA
 0003:00000000 0000ee50H .data                   DATA
 0003:0000ee50 00000a28H .data$r                 DATA
 0003:0000f878 000f675cH .bss                    DATA
 0004:00000000 00000060H .rsrc$01                DATA
 0004:00000060 00000180H .rsrc$02                DATA

  Address         Publics by Value              Rva+Base       Lib:Object

 0000:00000000       ___guard_iat_count         00000000     <absolute>
 0000:00000000       ___guard_longjmp_count     00000000     <absolute>
 0000:00000000       __except_list              00000000     <absolute>
 0000:00000000       ___hybrid_code_map_count   00000000     <absolute>
 0000:00000000       ___guard_fids_table        00000000     <absolute>
 0000:00000000       ___hybrid_auxiliary_iat    00000000     <absolute>
 0000:00000000       ___guard_longjmp_table     00000000     <absolute>
 0000:00000000       ___guard_iat_table         00000000     <absolute>
 0000:00000000       ___guard_fids_count        00000000     <absolute>
 0000:00000000       ___dynamic_value_reloc_table 00000000     <absolute>
 0000:00000000       ___volatile_metadata       00000000     <absolute>
 0000:00000000       ___enclave_config          00000000     <absolute>
 0000:00000000       ___hybrid_code_map         00000000     <absolute>
 0000:0000002c       __tls_array                0000002c     <absolute>
 0000:0000008b       ___safe_se_handler_count   0000008b     <absolute>
 0000:00000100       ___guard_flags             00000100     <absolute>
 0000:00000000       ___ImageBase               10000000     <linker-defined>
 0001:00000560       ??$_Emplace_reallocate@AAVVector@@AAH@?$vector@U?$pair@VVector@@H@std@@V?$allocator@U?$pair@VVector@@H@std@@@2@@std@@QAEPAU?$pair@VVector@@H@1@QAU21@AAVVector@@AAH@Z 10001560 f i Aimbot.obj
 0001:00000560       ??$_Emplace_reallocate@VVector@@H@?$vector@U?$pair@VVector@@H@std@@V?$allocator@U?$pair@VVector@@H@std@@@2@@std@@QAEPAU?$pair@VVector@@H@1@QAU21@$$QAVVector@@$$QAH@Z 10001560 f i Aimbot.obj
 0001:00000670       ??$_Emplace_reallocate@UDrawCircleQueue@RenderQueue@RENDER@@@?$vector@UDrawCircleQueue@RenderQueue@RENDER@@V?$allocator@UDrawCircleQueue@RenderQueue@RENDER@@@std@@@std@@QAEPAUDrawCircleQueue@RenderQueue@RENDER@@QAU234@$$QAU234@@Z 10001670 f i Aimbot.obj
 0001:000007c0       ??$emplace_back@VVector@@H@?$vector@U?$pair@VVector@@H@std@@V?$allocator@U?$pair@VVector@@H@std@@@2@@std@@QAEAAU?$pair@VVector@@H@1@$$QAVVector@@$$QAH@Z 100017c0 f i Aimbot.obj
 0001:00000810       ??0Backtracking_Record@RAGEBOT@FEATURES@@QAE@XZ 10001810 f i Aimbot.obj
 0001:00000a30       ??0PlayerAimbotInfo@Aimbot@RAGEBOT@FEATURES@@QAE@XZ 10001a30 f i Aimbot.obj
 0001:00000a80       ??0Ray_t@SDK@@QAE@XZ       10001a80 f i Aimbot.obj
 0001:00000ae0       ??0Vector@@QAE@XZ          10001ae0 f i Aimbot.obj
 0001:00000ae0       ??0?$vector@UBacktracking_Record@RAGEBOT@FEATURES@@V?$allocator@UBacktracking_Record@RAGEBOT@FEATURES@@@std@@@std@@QAE@XZ 10001ae0 f i Backtracking.obj
 0001:00000b00       ??0matrix3x4_t@@QAE@XZ     10001b00 f i Aimbot.obj
 0001:00000b10       ??0trace_t@SDK@@QAE@XZ     10001b10 f i Aimbot.obj
 0001:00000b60       ??1?$vector@UVertex_t@SDK@@V?$allocator@UVertex_t@SDK@@@std@@@std@@QAE@XZ 10001b60 f i BoxESP.obj
 0001:00000b60       ??1?$vector@U?$pair@VVector@@H@std@@V?$allocator@U?$pair@VVector@@H@std@@@2@@std@@QAE@XZ 10001b60 f i Aimbot.obj
 0001:00000bc0       ?_Tidy@?$vector@UBacktracking_Record@RAGEBOT@FEATURES@@V?$allocator@UBacktracking_Record@RAGEBOT@FEATURES@@@std@@@std@@AAEXXZ 10001bc0 f i Backtracking.obj
 0001:00000bc0       ??1?$vector@UBacktracking_Record@RAGEBOT@FEATURES@@V?$allocator@UBacktracking_Record@RAGEBOT@FEATURES@@@std@@@std@@QAE@XZ 10001bc0 f i Aimbot.obj
 0001:00000c30       ??4Backtracking_Record@RAGEBOT@FEATURES@@QAEAAU012@$$QAU012@@Z 10001c30 f i Backtracking.obj
 0001:00000c30       ??4Backtracking_Record@RAGEBOT@FEATURES@@QAEAAU012@ABU012@@Z 10001c30 f i Aimbot.obj
 0001:00000e40       ??4matrix3x4_t@@QAEAAU0@ABU0@@Z 10001e40 f i Aimbot.obj
 0001:00000eb0       ??AVector@@QAEAAMH@Z       10001eb0 f i Aimbot.obj
 0001:00001650       ?AddDrawCircle@RenderQueue@RENDER@@QAEXVVector@@HHVCColor@@M@Z 10002650 f i Aimbot.obj
 0001:00001860       ?CalcAngle@MATH@@YA?AVVector@@ABV2@0@Z 10002860 f i Aimbot.obj
 0001:000018d0       ?Do@Aimbot@RAGEBOT@FEATURES@@QAEXPAVCUserCmd@SDK@@@Z 100028d0 f   Aimbot.obj
 0001:000029d0       ?DoHeadAim@Aimbot@RAGEBOT@FEATURES@@AAE_NPAVCBaseEntity@SDK@@ABUBacktracking_Record@23@AAVVector@@AAH@Z 100039d0 f   Aimbot.obj
 0001:00002ce0       ?DoHitscan@Aimbot@RAGEBOT@FEATURES@@AAE_NPAVCBaseEntity@SDK@@ABUBacktracking_Record@23@AAVVector@@AAH@Z 10003ce0 f   Aimbot.obj
 0001:00003590       ?DoKnifebot@Aimbot@RAGEBOT@FEATURES@@AAE_NPAVCBaseEntity@SDK@@ABUBacktracking_Record@23@AAVVector@@@Z 10004590 f   Aimbot.obj
 0001:00003850       ?GetEyePosition@CBaseEntity@SDK@@QAE?AVVector@@XZ 10004850 f i Aimbot.obj
 0001:000038b0       ?GetHitbox@Aimbot@RAGEBOT@FEATURES@@CAPAUmstudiobbox_t@SDK@@PAVCBaseEntity@5@H@Z 100048b0 f   Aimbot.obj
 0001:00003920       ?GetHitboxPosition@Aimbot@RAGEBOT@FEATURES@@ABE?AVVector@@PAVCBaseEntity@SDK@@ABUBacktracking_Record@23@H@Z 10004920 f   Aimbot.obj
 0001:00003a60       ?GetMultipointPositions@Aimbot@RAGEBOT@FEATURES@@AAE_NPAVCBaseEntity@SDK@@ABUBacktracking_Record@23@PAVVector@@HM@Z 10004a60 f   Aimbot.obj
 0001:00003eb0       ?GetTraceType@CTraceFilterOneEntity2@SDK@@UBE?AW4TraceType_t@2@XZ 10004eb0 f i Aimbot.obj
 0001:00003ec0       ?sync@?$basic_streambuf@DU?$char_traits@D@std@@@std@@MAEHXZ 10004ec0 f i Misc.obj
 0001:00003ec0       ?GetTraceType@CTraceWorldOnly@SDK@@UBE?AW4TraceType_t@2@XZ 10004ec0 f i Antiaim.obj
 0001:00003ec0       ?GetTraceType@CTraceFilterOneEntity@SDK@@UBE?AW4TraceType_t@2@XZ 10004ec0 f i Aimbot.obj
 0001:00003ec0       ?GetTraceType@CTraceFilter@SDK@@UBE?AW4TraceType_t@2@XZ 10004ec0 f i Antiaim.obj
 0001:00003ec0       ?GetScrollAmount@PPGUI_Command@PPGUI@@UAEHXZ 10004ec0 f i PPGUI_Commands.obj
 0001:00003ed0       ?Init@Ray_t@SDK@@QAEXABVVector@@0@Z 10004ed0 f i Aimbot.obj
 0001:00003f80       ?IsAccurate@Aimbot@RAGEBOT@FEATURES@@ABE_NPAVCBaseEntity@SDK@@VVector@@@Z 10004f80 f   Aimbot.obj
 0001:00004720       ?NormalizeAngle@MATH@@YA?AVVector@@V2@@Z 10005720 f i Aimbot.obj
 0001:000047e0       ?ShouldHitEntity@CTraceFilterOneEntity2@SDK@@UAE_NPAXH@Z 100057e0 f i Aimbot.obj
 0001:000047e0       ?ShouldHitEntity@CTraceFilterOneEntity@SDK@@UAE_NPAXH@Z 100057e0 f i Aimbot.obj
 0001:000047f0       ?_Change_array@?$vector@U?$pair@VVector@@H@std@@V?$allocator@U?$pair@VVector@@H@std@@@2@@std@@AAEXQAU?$pair@VVector@@H@2@II@Z 100057f0 f i Aimbot.obj
 0001:00004850       ?_Change_array@?$vector@UDrawCircleQueue@RenderQueue@RENDER@@V?$allocator@UDrawCircleQueue@RenderQueue@RENDER@@@std@@@std@@AAEXQAUDrawCircleQueue@RenderQueue@RENDER@@II@Z 10005850 f i Aimbot.obj
 0001:000048d0       ?_Xlength@?$vector@U?$pair@V?$basic_string@DU?$char_traits@D@std@@V?$allocator@D@2@@std@@VCColor@@@std@@V?$allocator@U?$pair@V?$basic_string@DU?$char_traits@D@std@@V?$allocator@D@2@@std@@VCColor@@@std@@@2@@std@@CAXXZ 100058d0 f i BoxESP.obj
 0001:000048d0       ?_Xlength@?$vector@VVector@@V?$allocator@VVector@@@std@@@std@@CAXXZ 100058d0 f i Resolver.obj
 0001:000048d0       ?_Xlength@?$vector@V?$basic_string@DU?$char_traits@D@std@@V?$allocator@D@2@@std@@V?$allocator@V?$basic_string@DU?$char_traits@D@std@@V?$allocator@D@2@@std@@@2@@std@@CAXXZ 100058d0 f i EventListeners.obj
 0001:000048d0       ?_Xlength@?$vector@VPPGUI_Command_Frame@PPGUI@@V?$allocator@VPPGUI_Command_Frame@PPGUI@@@std@@@std@@CAXXZ 100058d0 f i PPGUI.obj
 0001:000048d0       ?_Xlength@?$vector@UBulletTracer@BulletTracers@MISC@FEATURES@@V?$allocator@UBulletTracer@BulletTracers@MISC@FEATURES@@@std@@@std@@CAXXZ 100058d0 f i EventListeners.obj
 0001:000048d0       ?_Xlength@?$vector@UShotSnapshot@Resolver@RAGEBOT@FEATURES@@V?$allocator@UShotSnapshot@Resolver@RAGEBOT@FEATURES@@@std@@@std@@CAXXZ 100058d0 f i Resolver.obj
 0001:000048d0       ?_Xlength@?$vector@UBacktracking_Record@RAGEBOT@FEATURES@@V?$allocator@UBacktracking_Record@RAGEBOT@FEATURES@@@std@@@std@@CAXXZ 100058d0 f i Backtracking.obj
 0001:000048d0       ?_Xlength@?$vector@PAVCBaseEntity@SDK@@V?$allocator@PAVCBaseEntity@SDK@@@std@@@std@@CAXXZ 100058d0 f i Antiaim.obj
 0001:000048d0       ?_Xlength@?$vector@V?$vector@V?$basic_string@DU?$char_traits@D@std@@V?$allocator@D@2@@std@@V?$allocator@V?$basic_string@DU?$char_traits@D@std@@V?$allocator@D@2@@std@@@2@@std@@V?$allocator@V?$vector@V?$basic_string@DU?$char_traits@D@std@@V?$allocator@D@2@@std@@V?$allocator@V?$basic_string@DU?$char_traits@D@std@@V?$allocator@D@2@@std@@@2@@std@@@2@@std@@CAXXZ 100058d0 f i Misc.obj
 0001:000048d0       ?_Xlength@?$vector@UPPGUI_Column@PPGUI_Command_Frame@PPGUI@@V?$allocator@UPPGUI_Column@PPGUI_Command_Frame@PPGUI@@@std@@@std@@CAXXZ 100058d0 f i PPGUI.obj
 0001:000048d0       ?_Xlength@?$vector@PBDV?$allocator@PBD@std@@@std@@CAXXZ 100058d0 f i hooks.obj
 0001:000048d0       ?_Xlength@?$vector@UDrawCircleQueue@RenderQueue@RENDER@@V?$allocator@UDrawCircleQueue@RenderQueue@RENDER@@@std@@@std@@CAXXZ 100058d0 f i Aimbot.obj
 0001:000048d0       ?_Xlength@?$vector@UHitmarker@Hitmarkers@MISC@FEATURES@@V?$allocator@UHitmarker@Hitmarkers@MISC@FEATURES@@@std@@@std@@CAXXZ 100058d0 f i Misc.obj
 0001:000048d0       ?_Xlength@?$vector@HV?$allocator@H@std@@@std@@CAXXZ 100058d0 f i input_handler.obj
 0001:000048d0       ?_Xlength@?$vector@U?$pair@VVector@@H@std@@V?$allocator@U?$pair@VVector@@H@std@@@2@@std@@CAXXZ 100058d0 f i Aimbot.obj
 0001:000048d0       ?_Xlength@?$vector@ULog@InGameLogger@MISC@FEATURES@@V?$allocator@ULog@InGameLogger@MISC@FEATURES@@@std@@@std@@CAXXZ 100058d0 f i EventListeners.obj
 0001:000048d0       ?_Xlength@?$vector@VCColor@@V?$allocator@VCColor@@@std@@@std@@CAXXZ 100058d0 f i EventListeners.obj
 0001:000048d0       ?_Xlength@?$vector@UVertex_t@SDK@@V?$allocator@UVertex_t@SDK@@@std@@@std@@CAXXZ 100058d0 f i BoxESP.obj
 0001:000048d0       ?_Xlength@?$vector@PAVPPGUI_Command@PPGUI@@V?$allocator@PAVPPGUI_Command@PPGUI@@@std@@@std@@CAXXZ 100058d0 f i PPGUI.obj
 0001:000048d0       ?_Xlength@?$vector@V?$_List_unchecked_iterator@V?$_List_val@U?$_List_simple_types@U?$pair@$$CBITPPGUI_Command_Data@PPGUI_Command_Data_Base@PPGUI@@@std@@@std@@@std@@@std@@V?$allocator@V?$_List_unchecked_iterator@V?$_List_val@U?$_List_simple_types@U?$pair@$$CBITPPGUI_Command_Data@PPGUI_Command_Data_Base@PPGUI@@@std@@@std@@@std@@@std@@@2@@std@@CAXXZ 100058d0 f i PPGUI.obj
 0001:000048e0       ?allocate@?$allocator@UVertex_t@SDK@@@std@@QAEPAUVertex_t@SDK@@I@Z 100058e0 f i BoxESP.obj
 0001:000048e0       ?allocate@?$allocator@U?$pair@VVector@@H@std@@@std@@QAEPAU?$pair@VVector@@H@2@I@Z 100058e0 f i Aimbot.obj
 0001:00004950       ?allocate@?$allocator@UDrawCircleQueue@RenderQueue@RENDER@@@std@@QAEPAUDrawCircleQueue@RenderQueue@RENDER@@I@Z 10005950 f i Aimbot.obj
 0001:00004950       ?allocate@?$allocator@V?$basic_string@DU?$char_traits@D@std@@V?$allocator@D@2@@std@@@std@@QAEPAV?$basic_string@DU?$char_traits@D@std@@V?$allocator@D@2@@2@I@Z 10005950 f i EventListeners.obj
 0001:000049c0       ??$_Emplace_reallocate@ABQAVPPGUI_Command@PPGUI@@@?$vector@PAVPPGUI_Command@PPGUI@@V?$allocator@PAVPPGUI_Command@PPGUI@@@std@@@std@@QAEPAPAVPPGUI_Command@PPGUI@@QAPAV23@ABQAV23@@Z 100059c0 f i PPGUI.obj
 0001:000049c0       ??$_Emplace_reallocate@ABQAVCBaseEntity@SDK@@@?$vector@PAVCBaseEntity@SDK@@V?$allocator@PAVCBaseEntity@SDK@@@std@@@std@@QAEPAPAVCBaseEntity@SDK@@QAPAV23@ABQAV23@@Z 100059c0 f i Antiaim.obj
 0001:00004b10       ??$_Ptr_move_cat@VVector@@V1@@std@@YA?AU_Trivially_copyable_ptr_iterator_tag@0@ABQAVVector@@0@Z 10005b10 f i Resolver.obj
 0001:00004b10       ??$_Ptr_copy_cat@PAVPPGUI_Command@PPGUI@@PAV12@@std@@YA?AU_Really_trivial_ptr_iterator_tag@0@ABQAPAVPPGUI_Command@PPGUI@@0@Z 10005b10 f i PPGUI.obj
 0001:00004b10       ??$_Ptr_move_cat@UShotSnapshot@Resolver@RAGEBOT@FEATURES@@U1234@@std@@YA?AU_Trivially_copyable_ptr_iterator_tag@0@ABQAUShotSnapshot@Resolver@RAGEBOT@FEATURES@@0@Z 10005b10 f i Resolver.obj
 0001:00004b10       ??$_Ptr_move_cat@UHitmarker@Hitmarkers@MISC@FEATURES@@U1234@@std@@YA?AU_Trivially_copyable_ptr_iterator_tag@0@ABQAUHitmarker@Hitmarkers@MISC@FEATURES@@0@Z 10005b10 f i Misc.obj
 0001:00004b10       ??$_Ptr_copy_cat@PAUIncoming_Sequence_Record@RAGEBOT@FEATURES@@PAU123@@std@@YA?AU_Really_trivial_ptr_iterator_tag@0@ABQAPAUIncoming_Sequence_Record@RAGEBOT@FEATURES@@0@Z 10005b10 f i Backtracking.obj
 0001:00004b10       ??$_Ptr_copy_cat@PAVCBaseEntity@SDK@@PAV12@@std@@YA?AU_Really_trivial_ptr_iterator_tag@0@ABQAPAVCBaseEntity@SDK@@0@Z 10005b10 f i Antiaim.obj
 0001:00004b10       ??$_Ptr_move_cat@UDrawCircleQueue@RenderQueue@RENDER@@U123@@std@@YA?AU_Trivially_copyable_ptr_iterator_tag@0@ABQAUDrawCircleQueue@RenderQueue@RENDER@@0@Z 10005b10 f i render.obj
 0001:00004b10       ??$_Ptr_move_cat@PAVPPGUI_Command@PPGUI@@PAV12@@std@@YA?AU_Really_trivial_ptr_iterator_tag@0@ABQAPAVPPGUI_Command@PPGUI@@0@Z 10005b10 f i PPGUI.obj
 0001:00004b10       ??$_Ptr_move_cat@PAVCBaseEntity@SDK@@PAV12@@std@@YA?AU_Really_trivial_ptr_iterator_tag@0@ABQAPAVCBaseEntity@SDK@@0@Z 10005b10 f i Antiaim.obj
 0001:00004b10       ??$_Ptr_copy_cat@QBDPBD@std@@YA?AU_Really_trivial_ptr_iterator_tag@0@ABQBQBDABQAPBD@Z 10005b10 f i hooks.obj
 0001:00004b10       ??$_Ptr_move_cat@HH@std@@YA?AU_Really_trivial_ptr_iterator_tag@0@ABQAH0@Z 10005b10 f i input_handler.obj
 0001:00004b10       ??$_Ptr_move_cat@UBulletTracer@BulletTracers@MISC@FEATURES@@U1234@@std@@YA?AU_Trivially_copyable_ptr_iterator_tag@0@ABQAUBulletTracer@BulletTracers@MISC@FEATURES@@0@Z 10005b10 f i EventListeners.obj
 0001:00004b20       ??0?$vector@PAVPPGUI_Command@PPGUI@@V?$allocator@PAVPPGUI_Command@PPGUI@@@std@@@std@@QAE@ABV01@@Z 10005b20 f i PPGUI.obj
 0001:00004b20       ??0?$vector@PAVCBaseEntity@SDK@@V?$allocator@PAVCBaseEntity@SDK@@@std@@@std@@QAE@ABV01@@Z 10005b20 f i Antiaim.obj
 0001:00004c10       ??1?$vector@VCColor@@V?$allocator@VCColor@@@std@@@std@@QAE@XZ 10005c10 f i Resolver.obj
 0001:00004c10       ??1?$vector@PAVCBaseEntity@SDK@@V?$allocator@PAVCBaseEntity@SDK@@@std@@@std@@QAE@XZ 10005c10 f i Antiaim.obj
 0001:00004c10       ??1?$vector@PBDV?$allocator@PBD@std@@@std@@QAE@XZ 10005c10 f i hooks.obj
 0001:00004c10       ?_Tidy@?$vector@VCColor@@V?$allocator@VCColor@@@std@@@std@@AAEXXZ 10005c10 f i EventListeners.obj
 0001:00004c10       ??1?$vector@V?$_List_unchecked_iterator@V?$_List_val@U?$_List_simple_types@U?$pair@$$CBITPPGUI_Command_Data@PPGUI_Command_Data_Base@PPGUI@@@std@@@std@@@std@@@std@@V?$allocator@V?$_List_unchecked_iterator@V?$_List_val@U?$_List_simple_types@U?$pair@$$CBITPPGUI_Command_Data@PPGUI_Command_Data_Base@PPGUI@@@std@@@std@@@std@@@std@@@2@@std@@QAE@XZ 10005c10 f i PPGUI_Defines.obj
 0001:00004c10       ??1?$vector@PAVPPGUI_Command@PPGUI@@V?$allocator@PAVPPGUI_Command@PPGUI@@@std@@@std@@QAE@XZ 10005c10 f i PPGUI.obj
 0001:000071e0       ??R?$mersenne_twister@I$0CA@$0CHA@$0BIN@$0BP@$0JJAILANP@$0L@$06$0JNCMFGIA@$0P@$0OPMGAAAA@$0BC@@std@@QAEIXZ 100081e0 f i Antiaim.obj
 0001:00007370       ?BreakLBY@Antiaim@RAGEBOT@FEATURES@@AAEMMM_N@Z 10008370 f   Antiaim.obj
 0001:00007670       ?Do@Antiaim@RAGEBOT@FEATURES@@QAEXPAVCUserCmd@SDK@@@Z 10008670 f   Antiaim.obj
 0001:000079e0       ?DoEdging@Antiaim@RAGEBOT@FEATURES@@AAE_NAAM0@Z 100089e0 f   Antiaim.obj
 0001:00007b70       ?NormalizeYaw@MATH@@YAMM@Z 10008b70 f i Antiaim.obj
 0001:00007bc0       ?RandomNumber@MATH@@YAMMM@Z 10008bc0 f i Antiaim.obj
 0001:00007d60       ?ShouldHitEntity@CTraceFilter@SDK@@UAE_NPAXH@Z 10008d60 f i Antiaim.obj
 0001:00007d70       ?ShouldHitEntity@CTraceWorldOnly@SDK@@UAE_NPAXH@Z 10008d70 f i Antiaim.obj
 0001:00007d80       ?UpdateLBY@Antiaim@RAGEBOT@FEATURES@@QAEXXZ 10008d80 f   Antiaim.obj
 0001:00007f10       ?allocate@?$allocator@H@std@@QAEPAHI@Z 10008f10 f i input_handler.obj
 0001:00007f10       ?allocate@?$allocator@VCColor@@@std@@QAEPAVCColor@@I@Z 10008f10 f i EventListeners.obj
 0001:00007f10       ?allocate@?$allocator@V?$_List_unchecked_iterator@V?$_List_val@U?$_List_simple_types@U?$pair@$$CBITPPGUI_Command_Data@PPGUI_Command_Data_Base@PPGUI@@@std@@@std@@@std@@@std@@@std@@QAEPAV?$_List_unchecked_iterator@V?$_List_val@U?$_List_simple_types@U?$pair@$$CBITPPGUI_Command_Data@PPGUI_Command_Data_Base@PPGUI@@@std@@@std@@@std@@@2@I@Z 10008f10 f i PPGUI.obj
 0001:00007f10       ?allocate@?$allocator@PAVPPGUI_Command@PPGUI@@@std@@QAEPAPAVPPGUI_Command@PPGUI@@I@Z 10008f10 f i PPGUI.obj
 0001:00007f10       ?allocate@?$allocator@PAVCBaseEntity@SDK@@@std@@QAEPAPAVCBaseEntity@SDK@@I@Z 10008f10 f i Antiaim.obj
 0001:00007f80       ?Strafe@Autostrafer@MISC@FEATURES@@QAEXPAVCUserCmd@SDK@@@Z 10008f80 f   Autostrafer.obj
 0001:00008360       ??0exception@std@@QAE@ABV01@@Z 10009360 f i Autowall.obj
 0001:00008390       ??0logic_error@std@@QAE@ABV01@@Z 10009390 f i Autowall.obj
 0001:000083d0       ?_Tidy_deallocate@?$basic_string@DU?$char_traits@D@std@@V?$allocator@D@2@@std@@QAEXXZ 100093d0 f i Misc.obj
 0001:000083d0       ??1?$basic_string@DU?$char_traits@D@std@@V?$allocator@D@2@@std@@QAE@XZ 100093d0 f i Autowall.obj
 0001:00008420       ??1bad_alloc@std@@UAE@XZ   10009420 f i libcpmt:xthrow.obj
 0001:00008420       ??1bad_array_new_length@std@@UAE@XZ 10009420 f i LIBCMT:throw_bad_alloc.obj
 0001:00008420       ??1runtime_error@std@@UAE@XZ 10009420 f i Misc.obj
 0001:00008420       ??1out_of_range@std@@UAE@XZ 10009420 f i libcpmt:xthrow.obj
 0001:00008420       ??1length_error@std@@UAE@XZ 10009420 f i libcpmt:xthrow.obj
 0001:00008420       ??1exception@std@@UAE@XZ   10009420 f i Autowall.obj
 0001:00008420       ??1failure@ios_base@std@@UAE@XZ 10009420 f i Misc.obj
 0001:00008420       ??1bad_exception@std@@UAE@XZ 10009420 f i libvcruntime:frame.obj
 0001:00008440       ??_Eexception@std@@UAEPAXI@Z 10009440 f i Autowall.obj
 0001:00008440       ??_Elogic_error@std@@UAEPAXI@Z 10009440 f i Autowall.obj
 0001:00008440       ??_Gruntime_error@std@@UAEPAXI@Z 10009440 f i Misc.obj
 0001:00008440       ??_Eruntime_error@std@@UAEPAXI@Z 10009440 f i Misc.obj
 0001:00008440       ??_Glogic_error@std@@UAEPAXI@Z 10009440 f i Autowall.obj
 0001:00008440       ??_Gexception@std@@UAEPAXI@Z 10009440 f i Autowall.obj
 0001:00008470       ?CalculateDamage@Autowall@RAGEBOT@FEATURES@@QAE?AUAutowall_Return_Info@123@VVector@@0PAVCBaseEntity@SDK@@1H@Z 10009470 f   Autowall.obj
 0001:00008ad0       ?CanPenetrate@Autowall@RAGEBOT@FEATURES@@AAE_NPAVCBaseEntity@SDK@@AAUAutowall_Info@123@PAUWeapon_Info@5@@Z 10009ad0 f   Autowall.obj
 0001:00008cf0       ?ScaleDamage@Autowall@RAGEBOT@FEATURES@@AAEXPAVCBaseEntity@SDK@@PAUWeapon_Info@5@HAAM@Z 10009cf0 f   Autowall.obj
 0001:00008de0       ?UTIL_TraceLine@Autowall@RAGEBOT@FEATURES@@AAEXAAVVector@@0IPAVCBaseEntity@SDK@@PAUtrace_t@6@@Z 10009de0 f i Autowall.obj
 0001:00008ed0       ?_Xlen@?$basic_string@DU?$char_traits@D@std@@V?$allocator@D@2@@std@@SAXXZ 10009ed0 f i Autowall.obj
 0001:00008ee0       ?allocate@?$allocator@D@std@@QAEPADI@Z 10009ee0 f i Autowall.obj
 0001:00008f40       ?assign@?$basic_string@DU?$char_traits@D@std@@V?$allocator@D@2@@std@@QAEAAV12@QBDI@Z 10009f40 f i Autowall.obj
 0001:00009030       ?what@exception@std@@UBEPBDXZ 1000a030 f i Autowall.obj
 0001:00009040       ??$_Emplace_reallocate@UBacktracking_Record@RAGEBOT@FEATURES@@@?$vector@UBacktracking_Record@RAGEBOT@FEATURES@@V?$allocator@UBacktracking_Record@RAGEBOT@FEATURES@@@std@@@std@@QAEPAUBacktracking_Record@RAGEBOT@FEATURES@@QAU234@$$QAU234@@Z 1000a040 f i Backtracking.obj
 0001:00009040       ??$_Emplace_reallocate@ABUBacktracking_Record@RAGEBOT@FEATURES@@@?$vector@UBacktracking_Record@RAGEBOT@FEATURES@@V?$allocator@UBacktracking_Record@RAGEBOT@FEATURES@@@std@@@std@@QAEPAUBacktracking_Record@RAGEBOT@FEATURES@@QAU234@ABU234@@Z 1000a040 f i Backtracking.obj
 0001:00009180       ??$_Move_backward_unchecked1@PAUBacktracking_Record@RAGEBOT@FEATURES@@PAU123@@std@@YAPAUBacktracking_Record@RAGEBOT@FEATURES@@PAU123@00U_General_ptr_iterator_tag@0@@Z 1000a180 f i Backtracking.obj
 0001:000093d0       ??$emplace@ABUBacktracking_Record@RAGEBOT@FEATURES@@@?$vector@UBacktracking_Record@RAGEBOT@FEATURES@@V?$allocator@UBacktracking_Record@RAGEBOT@FEATURES@@@std@@@std@@QAE?AV?$_Vector_iterator@V?$_Vector_val@U?$_Simple_types@UBacktracking_Record@RAGEBOT@FEATURES@@@std@@@std@@@1@V?$_Vector_const_iterator@V?$_Vector_val@U?$_Simple_types@UBacktracking_Record@RAGEBOT@FEATURES@@@std@@@std@@@1@ABUBacktracking_Record@RAGEBOT@FEATURES@@@Z 1000a3d0 f i Backtracking.obj
 0001:000093d0       ??$emplace@UBacktracking_Record@RAGEBOT@FEATURES@@@?$vector@UBacktracking_Record@RAGEBOT@FEATURES@@V?$allocator@UBacktracking_Record@RAGEBOT@FEATURES@@@std@@@std@@QAE?AV?$_Vector_iterator@V?$_Vector_val@U?$_Simple_types@UBacktracking_Record@RAGEBOT@FEATURES@@@std@@@std@@@1@V?$_Vector_const_iterator@V?$_Vector_val@U?$_Simple_types@UBacktracking_Record@RAGEBOT@FEATURES@@@std@@@std@@@1@$$QAUBacktracking_Record@RAGEBOT@FEATURES@@@Z 1000a3d0 f i Backtracking.obj
 0001:000094b0       ??0?$vector@UBacktracking_Record@RAGEBOT@FEATURES@@V?$allocator@UBacktracking_Record@RAGEBOT@FEATURES@@@std@@@std@@QAE@ABV01@@Z 1000a4b0 f i Backtracking.obj
 0001:00009560       ??0Backtracking_Record@RAGEBOT@FEATURES@@QAE@PAVCBaseEntity@SDK@@@Z 1000a560 f   Backtracking.obj
 0001:00009970       ??0PlayerResolveRecord@Resolver@RAGEBOT@FEATURES@@QAE@XZ 1000a970 f i Backtracking.obj
 0001:00009ac0       ??1?$deque@UIncoming_Sequence_Record@RAGEBOT@FEATURES@@V?$allocator@UIncoming_Sequence_Record@RAGEBOT@FEATURES@@@std@@@std@@QAE@XZ 1000aac0 f i Backtracking.obj
 0001:00009b70       ?ApplyRestore@CBacktracking@RAGEBOT@FEATURES@@QAEXPAVCBaseEntity@SDK@@M@Z 1000ab70 f   Backtracking.obj
 0001:00009cd0       ?GetDeltaTime@CBacktracking@RAGEBOT@FEATURES@@SAMUBacktracking_Record@23@@Z 1000acd0 f   Backtracking.obj
 0001:00009dc0       ?GetLerpTicks@CBacktracking@RAGEBOT@FEATURES@@SAHXZ 1000adc0 f   Backtracking.obj
 0001:00009fa0       ?GetPriorityRecords@CBacktracking@RAGEBOT@FEATURES@@QAE?AV?$vector@UBacktracking_Record@RAGEBOT@FEATURES@@V?$allocator@UBacktracking_Record@RAGEBOT@FEATURES@@@std@@@std@@PAVCBaseEntity@SDK@@@Z 1000afa0 f   Backtracking.obj
 0001:0000a950       ?GetRecords@CBacktracking@RAGEBOT@FEATURES@@QAE?AV?$vector@UBacktracking_Record@RAGEBOT@FEATURES@@V?$allocator@UBacktracking_Record@RAGEBOT@FEATURES@@@std@@@std@@PAVCBaseEntity@SDK@@@Z 1000b950 f   Backtracking.obj
 0001:0000a980       ?GetTickCount@CBacktracking@RAGEBOT@FEATURES@@SAHUBacktracking_Record@23@@Z 1000b980 f   Backtracking.obj
 0001:0000a9b0       ?GetValidRecords@CBacktracking@RAGEBOT@FEATURES@@QAE?AV?$vector@UBacktracking_Record@RAGEBOT@FEATURES@@V?$allocator@UBacktracking_Record@RAGEBOT@FEATURES@@@std@@@std@@PAVCBaseEntity@SDK@@@Z 1000b9b0 f   Backtracking.obj
 0001:0000aab0       ?Restore@CBacktracking@RAGEBOT@FEATURES@@QAEXPAVCBaseEntity@SDK@@UBacktracking_Record@23@H@Z 1000bab0 f   Backtracking.obj
 0001:0000aec0       ?RestoreAllToCurrentRecord@CBacktracking@RAGEBOT@FEATURES@@QAEXXZ 1000bec0 f   Backtracking.obj
 0001:0000b040       ?RestoreToCurrentRecord@CBacktracking@RAGEBOT@FEATURES@@QAEXPAVCBaseEntity@SDK@@@Z 1000c040 f   Backtracking.obj
 0001:0000b100       ?Store@CBacktracking@RAGEBOT@FEATURES@@QAEXXZ 1000c100 f   Backtracking.obj
 0001:0000b2e0       ?UpdateIncomingSequences@CBacktracking@RAGEBOT@FEATURES@@QAEXXZ 1000c2e0 f   Backtracking.obj
 0001:0000b3c0       ?_Change_array@?$vector@UBacktracking_Record@RAGEBOT@FEATURES@@V?$allocator@UBacktracking_Record@RAGEBOT@FEATURES@@@std@@@std@@AAEXQAUBacktracking_Record@RAGEBOT@FEATURES@@II@Z 1000c3c0 f i Backtracking.obj
 0001:0000b440       ?_Growmap@?$deque@UIncoming_Sequence_Record@RAGEBOT@FEATURES@@V?$allocator@UIncoming_Sequence_Record@RAGEBOT@FEATURES@@@std@@@std@@IAEXI@Z 1000c440 f i Backtracking.obj
 0001:0000b630       ?_Umove@?$vector@UBacktracking_Record@RAGEBOT@FEATURES@@V?$allocator@UBacktracking_Record@RAGEBOT@FEATURES@@@std@@@std@@AAEPAUBacktracking_Record@RAGEBOT@FEATURES@@PAU345@00@Z 1000c630 f i Backtracking.obj
 0001:0000b670       ?_Xlen@?$deque@UIncoming_Sequence_Record@RAGEBOT@FEATURES@@V?$allocator@UIncoming_Sequence_Record@RAGEBOT@FEATURES@@@std@@@std@@IBEXXZ 1000c670 f i Backtracking.obj
 0001:0000b680       ?allocate@?$allocator@UBacktracking_Record@RAGEBOT@FEATURES@@@std@@QAEPAUBacktracking_Record@RAGEBOT@FEATURES@@I@Z 1000c680 f i Backtracking.obj
 0001:0000b6f0       ??$_Destroy_range@V?$allocator@U?$pair@V?$basic_string@DU?$char_traits@D@std@@V?$allocator@D@2@@std@@VCColor@@@std@@@std@@@std@@YAXPAU?$pair@V?$basic_string@DU?$char_traits@D@std@@V?$allocator@D@2@@std@@VCColor@@@0@0AAV?$allocator@U?$pair@V?$basic_string@DU?$char_traits@D@std@@V?$allocator@D@2@@std@@VCColor@@@std@@@0@@Z 1000c6f0 f i BoxESP.obj
 0001:0000b760       ??$_Emplace_reallocate@AAY0N@$$CBDVCColor@@@?$vector@U?$pair@V?$basic_string@DU?$char_traits@D@std@@V?$allocator@D@2@@std@@VCColor@@@std@@V?$allocator@U?$pair@V?$basic_string@DU?$char_traits@D@std@@V?$allocator@D@2@@std@@VCColor@@@std@@@2@@std@@QAEPAU?$pair@V?$basic_string@DU?$char_traits@D@std@@V?$allocator@D@2@@std@@VCColor@@@1@QAU21@AAY0N@$$CBD$$QAVCColor@@@Z 1000c760 f i BoxESP.obj
 0001:0000b910       ??$_Emplace_reallocate@UVertex_t@SDK@@@?$vector@UVertex_t@SDK@@V?$allocator@UVertex_t@SDK@@@std@@@std@@QAEPAUVertex_t@SDK@@QAU23@$$QAU23@@Z 1000c910 f i BoxESP.obj
 0001:0000ba60       ??$_Emplace_reallocate@V?$basic_string@DU?$char_traits@D@std@@V?$allocator@D@2@@std@@VCColor@@@?$vector@U?$pair@V?$basic_string@DU?$char_traits@D@std@@V?$allocator@D@2@@std@@VCColor@@@std@@V?$allocator@U?$pair@V?$basic_string@DU?$char_traits@D@std@@V?$allocator@D@2@@std@@VCColor@@@std@@@2@@std@@QAEPAU?$pair@V?$basic_string@DU?$char_traits@D@std@@V?$allocator@D@2@@std@@VCColor@@@1@QAU21@$$QAV?$basic_string@DU?$char_traits@D@std@@V?$allocator@D@2@@1@$$QAVCColor@@@Z 1000ca60 f i BoxESP.obj
 0001:0000bb90       ??$_UIntegral_to_buff@DI@std@@YAPADPADI@Z 1000cb90 f i BoxESP.obj
 0001:0000bbd0       ??$_Uninitialized_move@PAU?$pair@V?$basic_string@DU?$char_traits@D@std@@V?$allocator@D@2@@std@@VCColor@@@std@@PAU12@V?$allocator@U?$pair@V?$basic_string@DU?$char_traits@D@std@@V?$allocator@D@2@@std@@VCColor@@@std@@@2@@std@@YAPAU?$pair@V?$basic_string@DU?$char_traits@D@std@@V?$allocator@D@2@@std@@VCColor@@@0@QAU10@0PAU10@AAV?$allocator@U?$pair@V?$basic_string@DU?$char_traits@D@std@@V?$allocator@D@2@@std@@VCColor@@@std@@@0@@Z 1000cbd0 f i BoxESP.obj
 0001:0000bc50       ??$emplace_back@V?$basic_string@DU?$char_traits@D@std@@V?$allocator@D@2@@std@@VCColor@@@?$vector@U?$pair@V?$basic_string@DU?$char_traits@D@std@@V?$allocator@D@2@@std@@VCColor@@@std@@V?$allocator@U?$pair@V?$basic_string@DU?$char_traits@D@std@@V?$allocator@D@2@@std@@VCColor@@@std@@@2@@std@@QAEAAU?$pair@V?$basic_string@DU?$char_traits@D@std@@V?$allocator@D@2@@std@@VCColor@@@1@$$QAV?$basic_string@DU?$char_traits@D@std@@V?$allocator@D@2@@1@$$QAVCColor@@@Z 1000cc50 f i BoxESP.obj
 0001:0000bcc0       ??0?$basic_string@DU?$char_traits@D@std@@V?$allocator@D@2@@std@@QAE@ABV01@@Z 1000ccc0 f i BoxESP.obj
 0001:0000bd50       ??0?$basic_string@DU?$char_traits@D@std@@V?$allocator@D@2@@std@@QAE@ID@Z 1000cd50 f i BoxESP.obj
 0001:0000be60       ??0?$vector@UVertex_t@SDK@@V?$allocator@UVertex_t@SDK@@@std@@@std@@QAE@ABV01@@Z 1000ce60 f i BoxESP.obj
 0001:0000bee0       ??1?$vector@U?$pair@V?$basic_string@DU?$char_traits@D@std@@V?$allocator@D@2@@std@@VCColor@@@std@@V?$allocator@U?$pair@V?$basic_string@DU?$char_traits@D@std@@V?$allocator@D@2@@std@@VCColor@@@std@@@2@@std@@QAE@XZ 1000cee0 f i BoxESP.obj
 0001:0000c2d0       ?Do@CBoxESP@VISUALS@FEATURES@@QAEXXZ 1000d2d0 f   BoxESP.obj
 0001:0000c410       ?DrawBox@CBoxESP@VISUALS@FEATURES@@AAEXPAVCBaseEntity@SDK@@VCColor@@1_N2222@Z 1000d410 f   BoxESP.obj
 0001:0000cd10       ?DrawBoxInfo@CBoxESP@VISUALS@FEATURES@@AAEXPAVCBaseEntity@SDK@@VCColor@@PAVVector@@_N33@Z 1000dd10 f   BoxESP.obj
 0001:0000d3d0       ?DrawHealthBar@CBoxESP@VISUALS@FEATURES@@AAEXPAVCBaseEntity@SDK@@PAVVector@@H@Z 1000e3d0 f   BoxESP.obj
 0001:0000d9c0       ?_Change_array@?$vector@U?$pair@V?$basic_string@DU?$char_traits@D@std@@V?$allocator@D@2@@std@@VCColor@@@std@@V?$allocator@U?$pair@V?$basic_string@DU?$char_traits@D@std@@V?$allocator@D@2@@std@@VCColor@@@std@@@2@@std@@AAEXQAU?$pair@V?$basic_string@DU?$char_traits@D@std@@V?$allocator@D@2@@std@@VCColor@@@2@II@Z 1000e9c0 f i BoxESP.obj
 0001:0000da60       ?_Destroy@?$vector@U?$pair@V?$basic_string@DU?$char_traits@D@std@@V?$allocator@D@2@@std@@VCColor@@@std@@V?$allocator@U?$pair@V?$basic_string@DU?$char_traits@D@std@@V?$allocator@D@2@@std@@VCColor@@@std@@@2@@std@@AAEXPAU?$pair@V?$basic_string@DU?$char_traits@D@std@@V?$allocator@D@2@@std@@VCColor@@@2@0@Z 1000ea60 f i BoxESP.obj
 0001:0000da80       ?_Xran@?$_String_val@U?$_Simple_types@D@std@@@std@@SAXXZ 1000ea80 f i BoxESP.obj
 0001:0000da90       ?allocate@?$allocator@U?$pair@V?$basic_string@DU?$char_traits@D@std@@V?$allocator@D@2@@std@@VCColor@@@std@@@std@@QAEPAU?$pair@V?$basic_string@DU?$char_traits@D@std@@V?$allocator@D@2@@std@@VCColor@@@2@I@Z 1000ea90 f i BoxESP.obj
 0001:0000db00       ?deallocate@?$allocator@U?$pair@V?$basic_string@DU?$char_traits@D@std@@V?$allocator@D@2@@std@@VCColor@@@std@@@std@@QAEXQAU?$pair@V?$basic_string@DU?$char_traits@D@std@@V?$allocator@D@2@@std@@VCColor@@@2@I@Z 1000eb00 f i BoxESP.obj
 0001:0000db00       ?deallocate@?$allocator@ULog@InGameLogger@MISC@FEATURES@@@std@@QAEXQAULog@InGameLogger@MISC@FEATURES@@I@Z 1000eb00 f i EventListeners.obj
 0001:0000db50       ?insert@?$basic_string@DU?$char_traits@D@std@@V?$allocator@D@2@@std@@QAEAAV12@IQBDI@Z 1000eb50 f i BoxESP.obj
 0001:0000dd30       ?to_string@std@@YA?AV?$basic_string@DU?$char_traits@D@std@@V?$allocator@D@2@@1@H@Z 1000ed30 f i BoxESP.obj
 0001:0000ddb0       ___local_stdio_printf_options 1000edb0 f i BoxESP.obj
 0001:0000ddc0       __scprintf                 1000edc0 f i BoxESP.obj
 0001:0000ddf0       _sprintf                   1000edf0 f i BoxESP.obj
 0001:0000de30       _sprintf_s                 1000ee30 f i BoxESP.obj
 0001:0000de60       ?CreateMaterial@CChams@VISUALS@FEATURES@@QAEPAVIMaterial@SDK@@_N00@Z 1000ee60 f   Chams.obj
 0001:0000e470       ?DoSceneEnd@CChams@VISUALS@FEATURES@@QAEXXZ 1000f470 f   Chams.obj
 0001:0000e4f0       ?DrawBacktrackPlayer@CChams@VISUALS@FEATURES@@AAEXPAVCBaseEntity@SDK@@@Z 1000f4f0 f   Chams.obj
 0001:0000e680       ?DrawPlayer@CChams@VISUALS@FEATURES@@AAEXPAVCBaseEntity@SDK@@@Z 1000f680 f   Chams.obj
 0001:0000e870       ?UpdateMaterials@CChams@VISUALS@FEATURES@@AAEXXZ 1000f870 f   Chams.obj
 0001:0000ed00       ?append@?$basic_string@DU?$char_traits@D@std@@V?$allocator@D@2@@std@@QAEAAV12@QBDI@Z 1000fd00 f i Chams.obj
 0001:0000f2b0       ?Do@CircleStrafer@MISC@FEATURES@@QAEXPAVCUserCmd@SDK@@@Z 100102b0 f   CircleStrafer.obj
 0001:0000f4b0       ?VerifyRotation@CircleStrafer@MISC@FEATURES@@AAEMM@Z 100104b0 f   CircleStrafer.obj
 0001:0000fa70       ?EndPrediction@EnginePrediction@MISC@FEATURES@@QBEXXZ 10010a70 f   EnginePrediction.obj
 0001:0000fad0       ?StartPrediction@EnginePrediction@MISC@FEATURES@@QAEXPAVCUserCmd@SDK@@@Z 10010ad0 f   EnginePrediction.obj
 0001:0000fbe0       ?GetEventDebugID@IGameEventListener@SDK@@UAEHXZ 10010be0 f i EventListeners.obj
 0001:0000fbf0       ??_GIGameEventListener@SDK@@UAEPAXI@Z 10010bf0 f i EventListeners.obj
 0001:0000fbf0       ??_EIGameEventListener@SDK@@UAEPAXI@Z 10010bf0 f i EventListeners.obj
 0001:0000fc20       ?FireGameEvent@ItemPurchaseListener@MISC@FEATURES@@UAEXPAVIGameEvent@SDK@@@Z 10010c20 f   EventListeners.obj
 0001:0000fe10       ??_EItemPurchaseListener@MISC@FEATURES@@UAEPAXI@Z 10010e10 f i EventListeners.obj
 0001:0000fe10       ??_GItemPurchaseListener@MISC@FEATURES@@UAEPAXI@Z 10010e10 f i EventListeners.obj
 0001:0000fe80       ?FireGameEvent@PlayerHurtListener@MISC@FEATURES@@UAEXPAVIGameEvent@SDK@@@Z 10010e80 f   EventListeners.obj
 0001:00010210       ??_GPlayerHurtListener@MISC@FEATURES@@UAEPAXI@Z 10011210 f i EventListeners.obj
 0001:00010210       ??_EPlayerHurtListener@MISC@FEATURES@@UAEPAXI@Z 10011210 f i EventListeners.obj
 0001:00010280       ?FireGameEvent@BulletImpactListener@MISC@FEATURES@@UAEXPAVIGameEvent@SDK@@@Z 10011280 f   EventListeners.obj
 0001:000104f0       ??_EBulletImpactListener@MISC@FEATURES@@UAEPAXI@Z 100114f0 f i EventListeners.obj
 0001:000104f0       ??_GBulletImpactListener@MISC@FEATURES@@UAEPAXI@Z 100114f0 f i EventListeners.obj
 0001:00010560       ?FireGameEvent@WeaponFireListener@MISC@FEATURES@@UAEXPAVIGameEvent@SDK@@@Z 10011560 f   EventListeners.obj
 0001:00010580       ??_EWeaponFireListener@MISC@FEATURES@@UAEPAXI@Z 10011580 f i EventListeners.obj
 0001:00010580       ??_GWeaponFireListener@MISC@FEATURES@@UAEPAXI@Z 10011580 f i EventListeners.obj
 0001:000105f0       ??$_Destroy_range@V?$allocator@V?$basic_string@DU?$char_traits@D@std@@V?$allocator@D@2@@std@@@std@@@std@@YAXPAV?$basic_string@DU?$char_traits@D@std@@V?$allocator@D@2@@0@0AAV?$allocator@V?$basic_string@DU?$char_traits@D@std@@V?$allocator@D@2@@std@@@0@@Z 100115f0 f i EventListeners.obj
 0001:00010660       ??$_Emplace_reallocate@ABUBulletTracer@BulletTracers@MISC@FEATURES@@@?$vector@UBulletTracer@BulletTracers@MISC@FEATURES@@V?$allocator@UBulletTracer@BulletTracers@MISC@FEATURES@@@std@@@std@@QAEPAUBulletTracer@BulletTracers@MISC@FEATURES@@QAU2345@ABU2345@@Z 10011660 f i EventListeners.obj
 0001:00010810       ??$_Emplace_reallocate@ABULog@InGameLogger@MISC@FEATURES@@@?$vector@ULog@InGameLogger@MISC@FEATURES@@V?$allocator@ULog@InGameLogger@MISC@FEATURES@@@std@@@std@@QAEPAULog@InGameLogger@MISC@FEATURES@@QAU2345@ABU2345@@Z 10011810 f i EventListeners.obj
 0001:00010a90       ??$_Emplace_reallocate@ABV?$basic_string@DU?$char_traits@D@std@@V?$allocator@D@2@@std@@@?$vector@V?$basic_string@DU?$char_traits@D@std@@V?$allocator@D@2@@std@@V?$allocator@V?$basic_string@DU?$char_traits@D@std@@V?$allocator@D@2@@std@@@2@@std@@QAEPAV?$basic_string@DU?$char_traits@D@std@@V?$allocator@D@2@@1@QAV21@ABV21@@Z 10011a90 f i EventListeners.obj
 0001:00010c60       ??$_Emplace_reallocate@ABVCColor@@@?$vector@VCColor@@V?$allocator@VCColor@@@std@@@std@@QAEPAVCColor@@QAV2@ABV2@@Z 10011c60 f i EventListeners.obj
 0001:00010dd0       ??$_Uninitialized_move@PAV?$basic_string@DU?$char_traits@D@std@@V?$allocator@D@2@@std@@PAV12@V?$allocator@V?$basic_string@DU?$char_traits@D@std@@V?$allocator@D@2@@std@@@2@@std@@YAPAV?$basic_string@DU?$char_traits@D@std@@V?$allocator@D@2@@0@QAV10@0PAV10@AAV?$allocator@V?$basic_string@DU?$char_traits@D@std@@V?$allocator@D@2@@std@@@0@@Z 10011dd0 f i EventListeners.obj
 0001:00010e40       ??$construct@ULog@InGameLogger@MISC@FEATURES@@U1234@@?$_Default_allocator_traits@V?$allocator@ULog@InGameLogger@MISC@FEATURES@@@std@@@std@@SAXAAV?$allocator@ULog@InGameLogger@MISC@FEATURES@@@1@QAULog@InGameLogger@MISC@FEATURES@@$$QAU3456@@Z 10011e40 f i EventListeners.obj
 0001:00010ed0       ??$emplace@ABULog@InGameLogger@MISC@FEATURES@@@?$vector@ULog@InGameLogger@MISC@FEATURES@@V?$allocator@ULog@InGameLogger@MISC@FEATURES@@@std@@@std@@QAE?AV?$_Vector_iterator@V?$_Vector_val@U?$_Simple_types@ULog@InGameLogger@MISC@FEATURES@@@std@@@std@@@1@V?$_Vector_const_iterator@V?$_Vector_val@U?$_Simple_types@ULog@InGameLogger@MISC@FEATURES@@@std@@@std@@@1@ABULog@InGameLogger@MISC@FEATURES@@@Z 10011ed0 f i EventListeners.obj
 0001:000110c0       ??0?$basic_string@DU?$char_traits@D@std@@V?$allocator@D@2@@std@@QAE@QBD@Z 100120c0 f i EventListeners.obj
 0001:00011100       ??0?$vector@V?$basic_string@DU?$char_traits@D@std@@V?$allocator@D@2@@std@@V?$allocator@V?$basic_string@DU?$char_traits@D@std@@V?$allocator@D@2@@std@@@2@@std@@QAE@ABV01@@Z 10012100 f i EventListeners.obj
 0001:00011200       ??0?$vector@VCColor@@V?$allocator@VCColor@@@std@@@std@@QAE@ABV01@@Z 10012200 f i EventListeners.obj
 0001:00011290       ??0Log@InGameLogger@MISC@FEATURES@@QAE@ABU0123@@Z 10012290 f i EventListeners.obj
 0001:00011300       ??0Log@InGameLogger@MISC@FEATURES@@QAE@XZ 10012300 f i EventListeners.obj
 0001:00011380       ??1?$_Uninitialized_backout_al@PAV?$basic_string@DU?$char_traits@D@std@@V?$allocator@D@2@@std@@V?$allocator@V?$basic_string@DU?$char_traits@D@std@@V?$allocator@D@2@@std@@@2@@std@@QAE@XZ 10012380 f i EventListeners.obj
 0001:000113a0       ??1?$vector@V?$basic_string@DU?$char_traits@D@std@@V?$allocator@D@2@@std@@V?$allocator@V?$basic_string@DU?$char_traits@D@std@@V?$allocator@D@2@@std@@@2@@std@@QAE@XZ 100123a0 f i EventListeners.obj
 0001:000113b0       ??1ColorLine@MISC@FEATURES@@QAE@XZ 100123b0 f i EventListeners.obj
 0001:00011410       ??1Log@InGameLogger@MISC@FEATURES@@QAE@XZ 10012410 f i EventListeners.obj
 0001:00011420       ??4Log@InGameLogger@MISC@FEATURES@@QAEAAU0123@$$QAU0123@@Z 10012420 f i EventListeners.obj
 0001:000114a0       ?AddLog@InGameLogger@MISC@FEATURES@@QAEXULog@123@@Z 100124a0 f i EventListeners.obj
 0001:00011500       ?InitializeEventListeners@MISC@FEATURES@@YAXXZ 10012500 f   EventListeners.obj
 0001:00011770       ?PushBack@ColorLine@MISC@FEATURES@@QAEXV?$basic_string@DU?$char_traits@D@std@@V?$allocator@D@2@@std@@VCColor@@@Z 10012770 f i EventListeners.obj
 0001:00011830       ?RemoveEventListeners@MISC@FEATURES@@YAXXZ 10012830 f   EventListeners.obj
 0001:00011880       ?_Destroy@?$vector@ULog@InGameLogger@MISC@FEATURES@@V?$allocator@ULog@InGameLogger@MISC@FEATURES@@@std@@@std@@AAEXPAULog@InGameLogger@MISC@FEATURES@@0@Z 10012880 f i EventListeners.obj
 0001:000118b0       ?_Destroy@?$vector@V?$basic_string@DU?$char_traits@D@std@@V?$allocator@D@2@@std@@V?$allocator@V?$basic_string@DU?$char_traits@D@std@@V?$allocator@D@2@@std@@@2@@std@@AAEXPAV?$basic_string@DU?$char_traits@D@std@@V?$allocator@D@2@@2@0@Z 100128b0 f i EventListeners.obj
 0001:000118d0       ?_Tidy@?$vector@V?$basic_string@DU?$char_traits@D@std@@V?$allocator@D@2@@std@@V?$allocator@V?$basic_string@DU?$char_traits@D@std@@V?$allocator@D@2@@std@@@2@@std@@AAEXXZ 100128d0 f i EventListeners.obj
 0001:00011950       ?_Umove@?$vector@ULog@InGameLogger@MISC@FEATURES@@V?$allocator@ULog@InGameLogger@MISC@FEATURES@@@std@@@std@@AAEPAULog@InGameLogger@MISC@FEATURES@@PAU3456@00@Z 10012950 f i EventListeners.obj
 0001:000119a0       ?deallocate@?$allocator@V?$basic_string@DU?$char_traits@D@std@@V?$allocator@D@2@@std@@@std@@QAEXQAV?$basic_string@DU?$char_traits@D@std@@V?$allocator@D@2@@2@I@Z 100129a0 f i EventListeners.obj
 0001:000119e0       ?Do@Fakewalk@RAGEBOT@FEATURES@@QAEXPAVCUserCmd@SDK@@@Z 100129e0 f   Fakewalk.obj
 0001:00011be0       ??$_Move_unchecked@PAULog@InGameLogger@MISC@FEATURES@@PAU1234@@std@@YAPAULog@InGameLogger@MISC@FEATURES@@PAU1234@00@Z 10012be0 f i InGameLogger.obj
 0001:00011ce0       ??1?$vector@ULog@InGameLogger@MISC@FEATURES@@V?$allocator@ULog@InGameLogger@MISC@FEATURES@@@std@@@std@@QAE@XZ 10012ce0 f i InGameLogger.obj
 0001:00011d70       ?Do@InGameLogger@MISC@FEATURES@@QAEXXZ 10012d70 f   InGameLogger.obj
 0001:00012070       ?Draw@ColorLine@MISC@FEATURES@@QAEXHHI@Z 10013070 f   InGameLogger.obj
 0001:00012290       ?Do@LegitAimbot@LEGITBOT@FEATURES@@QAEXPAVCUserCmd@SDK@@@Z 10013290 f   Legitbot.obj
 0001:00012390       ??$?6U?$char_traits@D@std@@@std@@YAAAV?$basic_ostream@DU?$char_traits@D@std@@@0@AAV10@PBD@Z 10013390 f i Misc.obj
 0001:00012640       ??$?8DU?$char_traits@D@std@@V?$allocator@D@1@@std@@YA_NABV?$basic_string@DU?$char_traits@D@std@@V?$allocator@D@2@@0@QBD@Z 10013640 f i Misc.obj
 0001:000126d0       ??$HookFunction@P6E_NPAXPAUmatrix3x4_t@@HHM@Z@VMTHookManager@VMT@@QAEP6E_NPAXPAUmatrix3x4_t@@HHM@ZH0@Z 100136d0 f i Misc.obj
 0001:000127b0       ??$_Buynode@ABUpiecewise_construct_t@std@@V?$tuple@ABH@2@V?$tuple@$$V@2@@?$_Tree_comp_alloc@V?$_Tmap_traits@HPAXU?$less@H@std@@V?$allocator@U?$pair@$$CBHPAX@std@@@2@$0A@@std@@@std@@QAEPAU?$_Tree_node@U?$pair@$$CBHPAX@std@@PAX@1@ABUpiecewise_construct_t@1@$$QAV?$tuple@ABH@1@$$QAV?$tuple@$$V@1@@Z 100137b0 f i Misc.obj
 0001:000127e0       ??$_Emplace_reallocate@ABV?$vector@V?$basic_string@DU?$char_traits@D@std@@V?$allocator@D@2@@std@@V?$allocator@V?$basic_string@DU?$char_traits@D@std@@V?$allocator@D@2@@std@@@2@@std@@@?$vector@V?$vector@V?$basic_string@DU?$char_traits@D@std@@V?$allocator@D@2@@std@@V?$allocator@V?$basic_string@DU?$char_traits@D@std@@V?$allocator@D@2@@std@@@2@@std@@V?$allocator@V?$vector@V?$basic_string@DU?$char_traits@D@std@@V?$allocator@D@2@@std@@V?$allocator@V?$basic_string@DU?$char_traits@D@std@@V?$allocator@D@2@@std@@@2@@std@@@2@@std@@QAEPAV?$vector@V?$basic_string@DU?$char_traits@D@std@@V?$allocator@D@2@@std@@V?$allocator@V?$basic_string@DU?$char_traits@D@std@@V?$allocator@D@2@@std@@@2@@1@QAV21@ABV21@@Z 100137e0 f i Misc.obj
 0001:00012a00       ??$_Emplace_reallocate@UHitmarker@Hitmarkers@MISC@FEATURES@@@?$vector@UHitmarker@Hitmarkers@MISC@FEATURES@@V?$allocator@UHitmarker@Hitmarkers@MISC@FEATURES@@@std@@@std@@QAEPAUHitmarker@Hitmarkers@MISC@FEATURES@@QAU2345@$$QAU2345@@Z 10013a00 f i Misc.obj
 0001:00012ba0       ??$_Fputc@D@std@@YA_NDPAU_iobuf@@@Z 10013ba0 f i Misc.obj
 0001:00012bc0       ??$_Immortalize_impl@V_Iostream_error_category@std@@@std@@YGHPAX0PAPAX@Z 10013bc0 f i Misc.obj
 0001:00012be0       ??$_Insert_at@AAU?$pair@$$CBHPAX@std@@PAU?$_Tree_node@U?$pair@$$CBHPAX@std@@PAX@2@@?$_Tree@V?$_Tmap_traits@HPAXU?$less@H@std@@V?$allocator@U?$pair@$$CBHPAX@std@@@2@$0A@@std@@@std@@IAE?AV?$_Tree_iterator@V?$_Tree_val@U?$_Tree_simple_types@U?$pair@$$CBHPAX@std@@@std@@@std@@@1@_NPAU?$_Tree_node@U?$pair@$$CBHPAX@std@@PAX@1@AAU?$pair@$$CBHPAX@1@1@Z 10013be0 f i Misc.obj
 0001:00012d40       ??$_Insert_hint@AAU?$pair@$$CBHPAX@std@@PAU?$_Tree_node@U?$pair@$$CBHPAX@std@@PAX@2@@?$_Tree@V?$_Tmap_traits@HPAXU?$less@H@std@@V?$allocator@U?$pair@$$CBHPAX@std@@@2@$0A@@std@@@std@@IAE?AV?$_Tree_iterator@V?$_Tree_val@U?$_Tree_simple_types@U?$pair@$$CBHPAX@std@@@std@@@std@@@1@V?$_Tree_const_iterator@V?$_Tree_val@U?$_Tree_simple_types@U?$pair@$$CBHPAX@std@@@std@@@std@@@1@AAU?$pair@$$CBHPAX@1@PAU?$_Tree_node@U?$pair@$$CBHPAX@std@@PAX@1@@Z 10013d40 f i Misc.obj
 0001:00012f60       ??$_Insert_nohint@AAU?$pair@$$CBHPAX@std@@PAU?$_Tree_node@U?$pair@$$CBHPAX@std@@PAX@2@@?$_Tree@V?$_Tmap_traits@HPAXU?$less@H@std@@V?$allocator@U?$pair@$$CBHPAX@std@@@2@$0A@@std@@@std@@IAE?AU?$pair@V?$_Tree_iterator@V?$_Tree_val@U?$_Tree_simple_types@U?$pair@$$CBHPAX@std@@@std@@@std@@@std@@_N@1@_NAAU?$pair@$$CBHPAX@1@PAU?$_Tree_node@U?$pair@$$CBHPAX@std@@PAX@1@@Z 10013f60 f i Misc.obj
 0001:00013080       ??$_Uninitialized_move@PAV?$vector@V?$basic_string@DU?$char_traits@D@std@@V?$allocator@D@2@@std@@V?$allocator@V?$basic_string@DU?$char_traits@D@std@@V?$allocator@D@2@@std@@@2@@std@@PAV12@V?$allocator@V?$vector@V?$basic_string@DU?$char_traits@D@std@@V?$allocator@D@2@@std@@V?$allocator@V?$basic_string@DU?$char_traits@D@std@@V?$allocator@D@2@@std@@@2@@std@@@2@@std@@YAPAV?$vector@V?$basic_string@DU?$char_traits@D@std@@V?$allocator@D@2@@std@@V?$allocator@V?$basic_string@DU?$char_traits@D@std@@V?$allocator@D@2@@std@@@2@@0@QAV10@0PAV10@AAV?$allocator@V?$vector@V?$basic_string@DU?$char_traits@D@std@@V?$allocator@D@2@@std@@V?$allocator@V?$basic_string@DU?$char_traits@D@std@@V?$allocator@D@2@@std@@@2@@std@@@0@@Z 10014080 f i Misc.obj
 0001:000130f0       ??$endl@DU?$char_traits@D@std@@@std@@YAAAV?$basic_ostream@DU?$char_traits@D@std@@@0@AAV10@@Z 100140f0 f i Misc.obj
 0001:00013120       ??$getline@DU?$char_traits@D@std@@V?$allocator@D@2@@std@@YAAAV?$basic_istream@DU?$char_traits@D@std@@@0@$$QAV10@AAV?$basic_string@DU?$char_traits@D@std@@V?$allocator@D@2@@0@D@Z 10014120 f i Misc.obj
 0001:000132d0       ??$use_facet@V?$codecvt@DDU_Mbstatet@@@std@@@std@@YAABV?$codecvt@DDU_Mbstatet@@@0@ABVlocale@0@@Z 100142d0 f i Misc.obj
 0001:00013430       ??$use_facet@V?$ctype@D@std@@@std@@YAABV?$ctype@D@0@ABVlocale@0@@Z 10014430 f i Misc.obj
 0001:000135b0       ??0?$basic_fstream@DU?$char_traits@D@std@@@std@@QAE@PBDHH@Z 100145b0 f i Misc.obj
 0001:00013930       ??0_Locinfo@std@@QAE@PBD@Z 10014930 f i Misc.obj
 0001:000139f0       ??0_System_error@std@@IAE@Verror_code@1@ABV?$basic_string@DU?$char_traits@D@std@@V?$allocator@D@2@@1@@Z 100149f0 f i Misc.obj
 0001:00013b80       ??0_System_error@std@@QAE@ABV01@@Z 10014b80 f i Misc.obj
 0001:00013bd0       ??0failure@ios_base@std@@QAE@ABV012@@Z 10014bd0 f i Misc.obj
 0001:00013c20       ??0failure@ios_base@std@@QAE@PBDABVerror_code@2@@Z 10014c20 f i Misc.obj
 0001:00013d00       ??0runtime_error@std@@QAE@ABV01@@Z 10014d00 f i Misc.obj
 0001:00013d40       ??0runtime_error@std@@QAE@PBD@Z 10014d40 f i Misc.obj
 0001:00013d90       ??0sentry@?$basic_ostream@DU?$char_traits@D@std@@@std@@QAE@AAV12@@Z 10014d90 f i Misc.obj
 0001:00013e20       ??0system_error@std@@QAE@ABV01@@Z 10014e20 f i Misc.obj
 0001:00013e70       ??1?$_Yarn@D@std@@QAE@XZ   10014e70 f i Misc.obj
 0001:00013e70       ??1?$_Yarn@_W@std@@QAE@XZ  10014e70 f i Misc.obj
 0001:00013e90       ??1?$basic_filebuf@DU?$char_traits@D@std@@@std@@UAE@XZ 10014e90 f i Misc.obj
 0001:00013f40       ??1?$basic_ios@DU?$char_traits@D@std@@@std@@UAE@XZ 10014f40 f i Misc.obj
 0001:00013f90       ??1?$basic_iostream@DU?$char_traits@D@std@@@std@@UAE@XZ 10014f90 f i Misc.obj
 0001:00013ff0       ??1?$basic_istream@DU?$char_traits@D@std@@@std@@UAE@XZ 10014ff0 f i Misc.obj
 0001:00014010       ??1?$unique_ptr@V_Facet_base@std@@U?$default_delete@V_Facet_base@std@@@2@@std@@QAE@XZ 10015010 f i Misc.obj
 0001:00014020       ??1?$vector@V?$vector@V?$basic_string@DU?$char_traits@D@std@@V?$allocator@D@2@@std@@V?$allocator@V?$basic_string@DU?$char_traits@D@std@@V?$allocator@D@2@@std@@@2@@std@@V?$allocator@V?$vector@V?$basic_string@DU?$char_traits@D@std@@V?$allocator@D@2@@std@@V?$allocator@V?$basic_string@DU?$char_traits@D@std@@V?$allocator@D@2@@std@@@2@@std@@@2@@std@@QAE@XZ 10015020 f i Misc.obj
 0001:000140a0       ??1_Locinfo@std@@QAE@XZ    100150a0 f i Misc.obj
 0001:00014170       ??1_Sentry_base@?$basic_istream@DU?$char_traits@D@std@@@std@@QAE@XZ 10015170 f i Misc.obj
 0001:00014170       ??1_Sentry_base@?$basic_ostream@DU?$char_traits@D@std@@@std@@QAE@XZ 10015170 f i Misc.obj
 0001:000141c0       ??1facet@locale@std@@MAE@XZ 100151c0 f i Misc.obj
 0001:000141d0       ??1locale@std@@QAE@XZ      100151d0 f i Misc.obj
 0001:00014220       ??1sentry@?$basic_istream@DU?$char_traits@D@std@@@std@@QAE@XZ 10015220 f i Misc.obj
 0001:00014270       ??1sentry@?$basic_ostream@DU?$char_traits@D@std@@@std@@QAE@XZ 10015270 f i Misc.obj
 0001:000142d0       ??E?$_Tree_const_iterator@V?$_Tree_val@U?$_Tree_simple_types@U?$pair@$$CBHPAX@std@@@std@@@std@@@std@@QAEAAV01@XZ 100152d0 f i Misc.obj
 0001:000142d0       ??E?$_Tree_unchecked_const_iterator@V?$_Tree_val@U?$_Tree_simple_types@U?$pair@$$CBHPAX@std@@@std@@@std@@U_Iterator_base0@2@@std@@QAEAAV01@XZ 100152d0 f i vmt.obj
 0001:00014330       ??F?$_Tree_const_iterator@V?$_Tree_val@U?$_Tree_simple_types@U?$pair@$$CBHPAX@std@@@std@@@std@@@std@@QAEAAV01@XZ 10015330 f i Misc.obj
 0001:000153f0       ??_D?$basic_fstream@DU?$char_traits@D@std@@@std@@QAEXXZ 100163f0 f i Misc.obj
 0001:000154af       ??_E?$basic_fstream@DU?$char_traits@D@std@@@std@@$4PPPPPPPM@A@AEPAXI@Z 100164af f i Misc.obj
 0001:000154b7       ??_E?$basic_iostream@DU?$char_traits@D@std@@@std@@$4PPPPPPPM@A@AEPAXI@Z 100164b7 f i Misc.obj
 0001:000154bf       ??_E?$basic_istream@DU?$char_traits@D@std@@@std@@$4PPPPPPPM@A@AEPAXI@Z 100164bf f i Misc.obj
 0001:000154c7       ??_E?$basic_ostream@DU?$char_traits@D@std@@@std@@$4PPPPPPPM@A@AEPAXI@Z 100164c7 f i Misc.obj
 0001:000154d0       ??_G?$basic_filebuf@DU?$char_traits@D@std@@@std@@UAEPAXI@Z 100164d0 f i Misc.obj
 0001:000154d0       ??_E?$basic_filebuf@DU?$char_traits@D@std@@@std@@UAEPAXI@Z 100164d0 f i Misc.obj
 0001:00015500       ??_G?$basic_fstream@DU?$char_traits@D@std@@@std@@UAEPAXI@Z 10016500 f i Misc.obj
 0001:00015500       ??_E?$basic_fstream@DU?$char_traits@D@std@@@std@@UAEPAXI@Z 10016500 f i Misc.obj
 0001:00015530       ??_G?$basic_ios@DU?$char_traits@D@std@@@std@@UAEPAXI@Z 10016530 f i Misc.obj
 0001:00015530       ??_E?$basic_ios@DU?$char_traits@D@std@@@std@@UAEPAXI@Z 10016530 f i Misc.obj
 0001:00015590       ??_G?$basic_iostream@DU?$char_traits@D@std@@@std@@UAEPAXI@Z 10016590 f i Misc.obj
 0001:00015590       ??_E?$basic_iostream@DU?$char_traits@D@std@@@std@@UAEPAXI@Z 10016590 f i Misc.obj
 0001:00015650       ??_G?$basic_istream@DU?$char_traits@D@std@@@std@@UAEPAXI@Z 10016650 f i Misc.obj
 0001:00015650       ??_E?$basic_istream@DU?$char_traits@D@std@@@std@@UAEPAXI@Z 10016650 f i Misc.obj
 0001:000156d0       ??_G?$basic_ostream@DU?$char_traits@D@std@@@std@@UAEPAXI@Z 100166d0 f i Misc.obj
 0001:000156d0       ??_E?$basic_ostream@DU?$char_traits@D@std@@@std@@UAEPAXI@Z 100166d0 f i Misc.obj
 0001:00015750       ??_E?$basic_streambuf@DU?$char_traits@D@std@@@std@@UAEPAXI@Z 10016750 f i Misc.obj
 0001:00015750       ??_G?$basic_streambuf@DU?$char_traits@D@std@@@std@@UAEPAXI@Z 10016750 f i Misc.obj
 0001:000157e0       ??_E?$num_put@DV?$ostreambuf_iterator@DU?$char_traits@D@std@@@std@@@std@@MAEPAXI@Z 100167e0 f i PPGUI_Commands.obj
 0001:000157e0       ??_G?$codecvt@DDU_Mbstatet@@@std@@MAEPAXI@Z 100167e0 f i Misc.obj
 0001:000157e0       ??_G?$num_put@DV?$ostreambuf_iterator@DU?$char_traits@D@std@@@std@@@std@@MAEPAXI@Z 100167e0 f i PPGUI_Commands.obj
 0001:000157e0       ??_E?$codecvt@DDU_Mbstatet@@@std@@MAEPAXI@Z 100167e0 f i Misc.obj
 0001:00015810       ??_E?$ctype@D@std@@MAEPAXI@Z 10016810 f i Misc.obj
 0001:00015810       ??_G?$ctype@D@std@@MAEPAXI@Z 10016810 f i Misc.obj
 0001:00015870       ??_E_Facet_base@std@@UAEPAXI@Z 10016870 f i Misc.obj
 0001:00015870       ??_G_Facet_base@std@@UAEPAXI@Z 10016870 f i Misc.obj
 0001:000158a0       ??_E_Iostream_error_category@std@@UAEPAXI@Z 100168a0 f i Misc.obj
 0001:000158a0       ??_G_Iostream_error_category@std@@UAEPAXI@Z 100168a0 f i Misc.obj
 0001:000158c0       ??_Esystem_error@std@@UAEPAXI@Z 100168c0 f i Misc.obj
 0001:000158c0       ??_Gsystem_error@std@@UAEPAXI@Z 100168c0 f i Misc.obj
 0001:000158c0       ??_Efailure@ios_base@std@@UAEPAXI@Z 100168c0 f i Misc.obj
 0001:000158c0       ??_G_System_error@std@@UAEPAXI@Z 100168c0 f i Misc.obj
 0001:000158c0       ??_E_System_error@std@@UAEPAXI@Z 100168c0 f i Misc.obj
 0001:000158c0       ??_Gfailure@ios_base@std@@UAEPAXI@Z 100168c0 f i Misc.obj
 0001:000158f0       ??_Gios_base@std@@UAEPAXI@Z 100168f0 f i Misc.obj
 0001:000158f0       ??_Eios_base@std@@UAEPAXI@Z 100168f0 f i Misc.obj
 0001:00015950       ?AddHitmarker@Hitmarkers@MISC@FEATURES@@QAEXH@Z 10016950 f   Misc.obj
 0001:000159f0       ?AutoPistol@MISC@FEATURES@@YAXPAVCUserCmd@SDK@@@Z 100169f0 f   Misc.obj
 0001:00015af0       ?AutoRevolver@MISC@FEATURES@@YAXPAVCUserCmd@SDK@@@Z 10016af0 f   Misc.obj
 0001:00015ba0       ?Bhop@MISC@FEATURES@@YAXPAVCUserCmd@SDK@@@Z 10016ba0 f   Misc.obj
 0001:00015c10       ?ClantagChanger@MISC@FEATURES@@YAXXZ 10016c10 f   Misc.obj
 0001:00015de0       ?Do@BulletTracers@MISC@FEATURES@@QAEXXZ 10016de0 f   Misc.obj
 0001:00016170       ?Do@Hitmarkers@MISC@FEATURES@@QAEXXZ 10017170 f   Misc.obj
 0001:00016460       ?DrawMisc@MISC@FEATURES@@YAXXZ 10017460 f   Misc.obj
 0001:000165b0       ?FNVHashEx@UTILS@@YAIQBDI@Z 100175b0 f i Misc.obj
 0001:000165e0       ?Fakelag@MISC@FEATURES@@YAXPAVCUserCmd@SDK@@@Z 100175e0 f   Misc.obj
 0001:00016a10       ?FixMove@MISC@FEATURES@@YAXPAVCUserCmd@SDK@@VVector@@@Z 10017a10 f   Misc.obj
 0001:00016e90       ?HookedSetupBones@MISC@FEATURES@@YI_NPAX0PAUmatrix3x4_t@@HHM@Z 10017e90 f   Misc.obj
 0001:00016f20       ?LoadUserConfig@MISC@FEATURES@@YAXXZ 10017f20 f   Misc.obj
 0001:00017390       ?Misc@MISC@FEATURES@@YAXXZ 10018390 f   Misc.obj
 0001:00017420       ?Radar@MISC@FEATURES@@YAXXZ 10018420 f   Misc.obj
 0001:00017460       ?ThirdpersonFSN@MISC@FEATURES@@YAXXZ 10018460 f   Misc.obj
 0001:00017550       ?ThirdpersonOV@MISC@FEATURES@@YAXXZ 10018550 f   Misc.obj
 0001:000178f0       ?UpdateAngles@MISC@FEATURES@@YAXPAVCUserCmd@SDK@@@Z 100188f0 f   Misc.obj
 0001:00017930       ?_Buynode0@?$_Tree_comp_alloc@V?$_Tmap_traits@HPAXU?$less@H@std@@V?$allocator@U?$pair@$$CBHPAX@std@@@2@$0A@@std@@@std@@QAEPAU?$_Tree_node@U?$pair@$$CBHPAX@std@@PAX@2@XZ 10018930 f i Misc.obj
 0001:00017950       ?_Decref@facet@locale@std@@UAEPAV_Facet_base@3@XZ 10018950 f i Misc.obj
 0001:00017970       ?_Destroy@?$vector@V?$vector@V?$basic_string@DU?$char_traits@D@std@@V?$allocator@D@2@@std@@V?$allocator@V?$basic_string@DU?$char_traits@D@std@@V?$allocator@D@2@@std@@@2@@std@@V?$allocator@V?$vector@V?$basic_string@DU?$char_traits@D@std@@V?$allocator@D@2@@std@@V?$allocator@V?$basic_string@DU?$char_traits@D@std@@V?$allocator@D@2@@std@@@2@@std@@@2@@std@@AAEXPAV?$vector@V?$basic_string@DU?$char_traits@D@std@@V?$allocator@D@2@@std@@V?$allocator@V?$basic_string@DU?$char_traits@D@std@@V?$allocator@D@2@@std@@@2@@2@0@Z 10018970 f i Misc.obj
 0001:000179a0       ?_Destroy_if_node@?$_Tree@V?$_Tmap_traits@HPAXU?$less@H@std@@V?$allocator@U?$pair@$$CBHPAX@std@@@2@$0A@@std@@@std@@IAEXPAU?$_Tree_node@U?$pair@$$CBHPAX@std@@PAX@2@@Z 100189a0 f i Misc.obj
 0001:000179c0       ?_Endwrite@?$basic_filebuf@DU?$char_traits@D@std@@@std@@IAE_NXZ 100189c0 f i Misc.obj
 0001:00017a80       ?_Gnavail@?$basic_streambuf@DU?$char_traits@D@std@@@std@@IBE_JXZ 10018a80 f i Misc.obj
 0001:00017aa0       ?_Incref@facet@locale@std@@UAEXXZ 10018aa0 f i Misc.obj
 0001:00017ab0       ?_Init@?$basic_filebuf@DU?$char_traits@D@std@@@std@@IAEXPAU_iobuf@@W4_Initfl@12@@Z 10018ab0 f i Misc.obj
 0001:00017b90       ?_Init@?$basic_streambuf@DU?$char_traits@D@std@@@std@@IAEXXZ 10018b90 f i Misc.obj
 0001:00017bf0       ?_Ipfx@?$basic_istream@DU?$char_traits@D@std@@@std@@QAE_N_N@Z 10018bf0 f i Misc.obj
 0001:00017d90       ?_Lock@?$basic_filebuf@DU?$char_traits@D@std@@@std@@UAEXXZ 10018d90 f i Misc.obj
 0001:00017da0       ?_Unlock@?$basic_streambuf@DU?$char_traits@D@std@@@std@@UAEXXZ 10018da0 f i Misc.obj
 0001:00017da0       ?Draw@PPGUI_Command@PPGUI@@UAEXXZ 10018da0 f i PPGUI_Commands.obj
 0001:00017da0       @_guard_check_icall_nop@4  10018da0 f i LIBCMT:guard_support.obj
 0001:00017da0       ?_Lock@?$basic_streambuf@DU?$char_traits@D@std@@@std@@UAEXXZ 10018da0 f i Misc.obj
 0001:00017db0       ?_Lrotate@?$_Tree_val@U?$_Tree_simple_types@U?$pair@$$CBHPAX@std@@@std@@@std@@QAEXPAU?$_Tree_node@U?$pair@$$CBHPAX@std@@PAX@2@@Z 10018db0 f i Misc.obj
 0001:00017e10       ?_Osfx@?$basic_ostream@DU?$char_traits@D@std@@@std@@QAEXXZ 10018e10 f i Misc.obj
 0001:00017ea0       ?_Pnavail@?$basic_streambuf@DU?$char_traits@D@std@@@std@@IBE_JXZ 10018ea0 f i Misc.obj
 0001:00017ec0       ?_Reset_back@?$basic_filebuf@DU?$char_traits@D@std@@@std@@AAEXXZ 10018ec0 f i Misc.obj
 0001:00017ef0       ?_Rrotate@?$_Tree_val@U?$_Tree_simple_types@U?$pair@$$CBHPAX@std@@@std@@@std@@QAEXPAU?$_Tree_node@U?$pair@$$CBHPAX@std@@PAX@2@@Z 10018ef0 f i Misc.obj
 0001:00017f50       ?_Unlock@?$basic_filebuf@DU?$char_traits@D@std@@@std@@UAEXXZ 10018f50 f i Misc.obj
 0001:00017f60       ?clear@ios_base@std@@QAEXH_N@Z 10018f60 f i Misc.obj
 0001:00017fe0       ?close@?$basic_filebuf@DU?$char_traits@D@std@@@std@@QAEPAV12@XZ 10018fe0 f i Misc.obj
 0001:000180a0       ?deallocate@?$allocator@V?$vector@V?$basic_string@DU?$char_traits@D@std@@V?$allocator@D@2@@std@@V?$allocator@V?$basic_string@DU?$char_traits@D@std@@V?$allocator@D@2@@std@@@2@@std@@@std@@QAEXQAV?$vector@V?$basic_string@DU?$char_traits@D@std@@V?$allocator@D@2@@std@@V?$allocator@V?$basic_string@DU?$char_traits@D@std@@V?$allocator@D@2@@std@@@2@@2@I@Z 100190a0 f i Misc.obj
 0001:000180e0       ?default_error_condition@error_category@std@@UBE?AVerror_condition@2@H@Z 100190e0 f i Misc.obj
 0001:00018100       ?do_always_noconv@?$codecvt@DDU_Mbstatet@@@std@@MBE_NXZ 10019100 f i Misc.obj
 0001:00018100       ___acrt_uninitialize_command_line 10019100 f i libucrt:argv_data.obj
 0001:00018110       ?do_max_length@codecvt_base@std@@MBEHXZ 10019110 f i Misc.obj
 0001:00018110       ?do_encoding@codecvt_base@std@@MBEHXZ 10019110 f i Misc.obj
 0001:00018120       ?do_in@?$codecvt@DDU_Mbstatet@@@std@@MBEHAAU_Mbstatet@@PBD1AAPBDPAD3AAPAD@Z 10019120 f i Misc.obj
 0001:00018120       ?do_out@?$codecvt@DDU_Mbstatet@@@std@@MBEHAAU_Mbstatet@@PBD1AAPBDPAD3AAPAD@Z 10019120 f i Misc.obj
 0001:00018140       ?do_length@?$codecvt@DDU_Mbstatet@@@std@@MBEHAAU_Mbstatet@@PBD1I@Z 10019140 f i Misc.obj
 0001:00018160       ?do_narrow@?$ctype@D@std@@MBEDDD@Z 10019160 f i Misc.obj
 0001:00018170       ?do_narrow@?$ctype@D@std@@MBEPBDPBD0DPAD@Z 10019170 f i Misc.obj
 0001:00018190       ?do_tolower@?$ctype@D@std@@MBEDD@Z 10019190 f i Misc.obj
 0001:000181b0       ?do_tolower@?$ctype@D@std@@MBEPBDPADPBD@Z 100191b0 f i Misc.obj
 0001:00018200       ?do_toupper@?$ctype@D@std@@MBEDD@Z 10019200 f i Misc.obj
 0001:00018220       ?do_toupper@?$ctype@D@std@@MBEPBDPADPBD@Z 10019220 f i Misc.obj
 0001:00018270       ?do_unshift@?$codecvt@DDU_Mbstatet@@@std@@MBEHAAU_Mbstatet@@PAD1AAPAD@Z 10019270 f i Misc.obj
 0001:00018290       ?do_widen@?$ctype@D@std@@MBEDD@Z 10019290 f i Misc.obj
 0001:000182a0       ?do_widen@?$ctype@D@std@@MBEPBDPBD0PAD@Z 100192a0 f i Misc.obj
 0001:000182c0       ?equivalent@error_category@std@@UBE_NABVerror_code@2@H@Z 100192c0 f i Misc.obj
 0001:000182f0       ?equivalent@error_category@std@@UBE_NHABVerror_condition@2@@Z 100192f0 f i Misc.obj
 0001:00018330       ?erase@?$basic_string@DU?$char_traits@D@std@@V?$allocator@D@2@@std@@QAE?AV?$_String_iterator@V?$_String_val@U?$_Simple_types@D@std@@@std@@@2@V?$_String_const_iterator@V?$_String_val@U?$_Simple_types@D@std@@@std@@@2@0@Z 10019330 f i Misc.obj
 0001:000183a0       ?erase@?$basic_string@DU?$char_traits@D@std@@V?$allocator@D@2@@std@@QAEAAV12@II@Z 100193a0 f i Misc.obj
 0001:000183f0       ?flush@?$basic_ostream@DU?$char_traits@D@std@@@std@@QAEAAV12@XZ 100193f0 f i Misc.obj
 0001:000184b0       ?imbue@?$basic_filebuf@DU?$char_traits@D@std@@@std@@MAEXABVlocale@2@@Z 100194b0 f i Misc.obj
 0001:000184f0       ?imbue@?$basic_streambuf@DU?$char_traits@D@std@@@std@@MAEXABVlocale@2@@Z 100194f0 f i Misc.obj
 0001:000184f0       ?TestInput@PPGUI_Command@PPGUI@@UAEXAAVPPGUI_Input@2@@Z 100194f0 f i PPGUI_Commands.obj
 0001:00018500       ?insert@?$basic_string@DU?$char_traits@D@std@@V?$allocator@D@2@@std@@QAEAAV12@IID@Z 10019500 f i Misc.obj
 0001:000186a0       ?insert@?$vector@V?$basic_string@DU?$char_traits@D@std@@V?$allocator@D@2@@std@@V?$allocator@V?$basic_string@DU?$char_traits@D@std@@V?$allocator@D@2@@std@@@2@@std@@QAE?AV?$_Vector_iterator@V?$_Vector_val@U?$_Simple_types@V?$basic_string@DU?$char_traits@D@std@@V?$allocator@D@2@@std@@@std@@@std@@@2@V?$_Vector_const_iterator@V?$_Vector_val@U?$_Simple_types@V?$basic_string@DU?$char_traits@D@std@@V?$allocator@D@2@@std@@@std@@@std@@@2@ABV?$basic_string@DU?$char_traits@D@std@@V?$allocator@D@2@@2@@Z 100196a0 f i Misc.obj
 0001:00018820       ?make_error_code@std@@YA?AVerror_code@1@W4io_errc@1@@Z 10019820 f i Misc.obj
 0001:00018860       ?message@_Iostream_error_category@std@@UBE?AV?$basic_string@DU?$char_traits@D@std@@V?$allocator@D@2@@2@H@Z 10019860 f i Misc.obj
 0001:000188e0       ?name@_Iostream_error_category@std@@UBEPBDXZ 100198e0 f i Misc.obj
 0001:000188f0       ?overflow@?$basic_filebuf@DU?$char_traits@D@std@@@std@@MAEHH@Z 100198f0 f i Misc.obj
 0001:00018a60       ?pbackfail@?$basic_streambuf@DU?$char_traits@D@std@@@std@@MAEHH@Z 10019a60 f i Misc.obj
 0001:00018a60       ?overflow@?$basic_streambuf@DU?$char_traits@D@std@@@std@@MAEHH@Z 10019a60 f i Misc.obj
 0001:00018a70       ?pbackfail@?$basic_filebuf@DU?$char_traits@D@std@@@std@@MAEHH@Z 10019a70 f i Misc.obj
 0001:00018b20       ?push_back@?$basic_string@DU?$char_traits@D@std@@V?$allocator@D@2@@std@@QAEXD@Z 10019b20 f i Misc.obj
 0001:00018c30       ?put@?$basic_ostream@DU?$char_traits@D@std@@@std@@QAEAAV12@D@Z 10019c30 f i Misc.obj
 0001:00018db0       ?seekoff@?$basic_filebuf@DU?$char_traits@D@std@@@std@@MAE?AV?$fpos@U_Mbstatet@@@2@_JHH@Z 10019db0 f i Misc.obj
 0001:00018e90       ?seekoff@?$basic_streambuf@DU?$char_traits@D@std@@@std@@MAE?AV?$fpos@U_Mbstatet@@@2@_JHH@Z 10019e90 f i Misc.obj
 0001:00018ec0       ?seekpos@?$basic_filebuf@DU?$char_traits@D@std@@@std@@MAE?AV?$fpos@U_Mbstatet@@@2@V32@H@Z 10019ec0 f i Misc.obj
 0001:00018f90       ?seekpos@?$basic_streambuf@DU?$char_traits@D@std@@@std@@MAE?AV?$fpos@U_Mbstatet@@@2@V32@H@Z 10019f90 f i Misc.obj
 0001:00018fc0       ?setbuf@?$basic_filebuf@DU?$char_traits@D@std@@@std@@MAEPAV?$basic_streambuf@DU?$char_traits@D@std@@@2@PAD_J@Z 10019fc0 f i Misc.obj
 0001:00019010       ?setbuf@?$basic_streambuf@DU?$char_traits@D@std@@@std@@MAEPAV12@PAD_J@Z 1001a010 f i Misc.obj
 0001:00019020       ?setstate@?$basic_ios@DU?$char_traits@D@std@@@std@@QAEXH_N@Z 1001a020 f i Misc.obj
 0001:00019050       ?showmanyc@?$basic_streambuf@DU?$char_traits@D@std@@@std@@MAE_JXZ 1001a050 f i Misc.obj
 0001:00019060       ?snextc@?$basic_streambuf@DU?$char_traits@D@std@@@std@@QAEHXZ 1001a060 f i Misc.obj
 0001:000190d0       ?swap@?$basic_filebuf@DU?$char_traits@D@std@@@std@@QAEXAAV12@@Z 1001a0d0 f i Misc.obj
 0001:000192b0       ?sync@?$basic_filebuf@DU?$char_traits@D@std@@@std@@MAEHXZ 1001a2b0 f i Misc.obj
 0001:000192e0       ?uflow@?$basic_filebuf@DU?$char_traits@D@std@@@std@@MAEHXZ 1001a2e0 f i Misc.obj
 0001:00019500       ?uflow@?$basic_streambuf@DU?$char_traits@D@std@@@std@@MAEHXZ 1001a500 f i Misc.obj
 0001:00019530       ?underflow@?$basic_filebuf@DU?$char_traits@D@std@@@std@@MAEHXZ 1001a530 f i Misc.obj
 0001:00019570       ?underflow@?$basic_streambuf@DU?$char_traits@D@std@@@std@@MAEHXZ 1001a570 f i Misc.obj
 0001:00019580       ?widen@?$basic_ios@DU?$char_traits@D@std@@@std@@QBEDD@Z 1001a580 f i Misc.obj
 0001:00019620       ?xsgetn@?$basic_filebuf@DU?$char_traits@D@std@@@std@@MAE_JPAD_J@Z 1001a620 f i Misc.obj
 0001:000197d0       ?xsgetn@?$basic_streambuf@DU?$char_traits@D@std@@@std@@MAE_JPAD_J@Z 1001a7d0 f i Misc.obj
 0001:000198a0       ?xsputn@?$basic_filebuf@DU?$char_traits@D@std@@@std@@MAE_JPBD_J@Z 1001a8a0 f i Misc.obj
 0001:00019a20       ?xsputn@?$basic_streambuf@DU?$char_traits@D@std@@@std@@MAE_JPBD_J@Z 1001aa20 f i Misc.obj
 0001:00019af0       ??$?HDU?$char_traits@D@std@@V?$allocator@D@1@@std@@YA?AV?$basic_string@DU?$char_traits@D@std@@V?$allocator@D@2@@0@QBDABV10@@Z 1001aaf0 f i Resolver.obj
 0001:00019cb0       ??$_Emplace_reallocate@ABUShotSnapshot@Resolver@RAGEBOT@FEATURES@@@?$vector@UShotSnapshot@Resolver@RAGEBOT@FEATURES@@V?$allocator@UShotSnapshot@Resolver@RAGEBOT@FEATURES@@@std@@@std@@QAEPAUShotSnapshot@Resolver@RAGEBOT@FEATURES@@QAU2345@ABU2345@@Z 1001acb0 f i Resolver.obj
 0001:00019eb0       ??$_Emplace_reallocate@V?$basic_string@DU?$char_traits@D@std@@V?$allocator@D@2@@std@@@?$vector@V?$basic_string@DU?$char_traits@D@std@@V?$allocator@D@2@@std@@V?$allocator@V?$basic_string@DU?$char_traits@D@std@@V?$allocator@D@2@@std@@@2@@std@@QAEPAV?$basic_string@DU?$char_traits@D@std@@V?$allocator@D@2@@1@QAV21@$$QAV21@@Z 1001aeb0 f i Resolver.obj
 0001:00019fd0       ??$_Emplace_reallocate@VVector@@@?$vector@VVector@@V?$allocator@VVector@@@std@@@std@@QAEPAVVector@@QAV2@$$QAV2@@Z 1001afd0 f i Resolver.obj
 0001:0001a1c0       ??0Log@InGameLogger@MISC@FEATURES@@QAE@V?$basic_string@DU?$char_traits@D@std@@V?$allocator@D@2@@std@@VCColor@@@Z 1001b1c0 f i Resolver.obj
 0001:0001a350       ??1?$vector@UShotSnapshot@Resolver@RAGEBOT@FEATURES@@V?$allocator@UShotSnapshot@Resolver@RAGEBOT@FEATURES@@@std@@@std@@QAE@XZ 1001b350 f i Resolver.obj
 0001:0001a3c0       ??1?$vector@VVector@@V?$allocator@VVector@@@std@@@std@@QAE@XZ 1001b3c0 f i Resolver.obj
 0001:0001a430       ??4ColorLine@MISC@FEATURES@@QAEAAV012@$$QAV012@@Z 1001b430 f i Resolver.obj
 0001:0001a4b0       ?AddShotSnapshot@Resolver@RAGEBOT@FEATURES@@QAEXPAVCBaseEntity@SDK@@VPlayerResolveRecord@123@@Z 1001b4b0 f   Resolver.obj
 0001:0001a570       ?DoCM@Resolver@RAGEBOT@FEATURES@@QAEXXZ 1001b570 f   Resolver.obj
 0001:0001ac60       ?DoFSN@Resolver@RAGEBOT@FEATURES@@QAEXXZ 1001bc60 f   Resolver.obj
 0001:0001ae20       ?EventCallback@Resolver@RAGEBOT@FEATURES@@QAEXPAVIGameEvent@SDK@@@Z 1001be20 f   Resolver.obj
 0001:0001b090       ?GetResolveColor@Resolver@RAGEBOT@FEATURES@@QAE?AVCColor@@G@Z 1001c090 f   Resolver.obj
 0001:0001b0f0       ?GetResolveTypeIndex@Resolver@RAGEBOT@FEATURES@@QAEHG@Z 1001c0f0 f   Resolver.obj
 0001:0001b180       ?IsFakingYaw@Resolver@RAGEBOT@FEATURES@@QAE_NPAVCBaseEntity@SDK@@@Z 1001c180 f   Resolver.obj
 0001:0001b210       ?ProcessSnapShots@Resolver@RAGEBOT@FEATURES@@AAEXXZ 1001c210 f   Resolver.obj
 0001:0001b640       ?ResolveYaw@Resolver@RAGEBOT@FEATURES@@AAEXPAVCBaseEntity@SDK@@@Z 1001c640 f   Resolver.obj
 0001:0001bd90       ?TranslateResolveRecord@Resolver@RAGEBOT@FEATURES@@QAE?AV?$basic_string@DU?$char_traits@D@std@@V?$allocator@D@2@@std@@G@Z 1001cd90 f   Resolver.obj
 0001:0001c480       ?UpdateResolveRecord@Resolver@RAGEBOT@FEATURES@@AAEXPAVCBaseEntity@SDK@@@Z 1001d480 f   Resolver.obj
 0001:0001cab0       ?_Become_small@?$basic_string@DU?$char_traits@D@std@@V?$allocator@D@2@@std@@QAEXXZ 1001dab0 f i Resolver.obj
 0001:0001cb00       ?_Change_array@?$vector@V?$basic_string@DU?$char_traits@D@std@@V?$allocator@D@2@@std@@V?$allocator@V?$basic_string@DU?$char_traits@D@std@@V?$allocator@D@2@@std@@@2@@std@@AAEXQAV?$basic_string@DU?$char_traits@D@std@@V?$allocator@D@2@@2@II@Z 1001db00 f i Resolver.obj
 0001:0001cb90       ?push_back@?$vector@V?$basic_string@DU?$char_traits@D@std@@V?$allocator@D@2@@std@@V?$allocator@V?$basic_string@DU?$char_traits@D@std@@V?$allocator@D@2@@std@@@2@@std@@QAEX$$QAV?$basic_string@DU?$char_traits@D@std@@V?$allocator@D@2@@2@@Z 1001db90 f i Resolver.obj
 0001:0001cbf0       ??0MainConfig@SETTINGS@@QAE@XZ 1001dbf0 f i Configurations.obj
 0001:0001ce20       ?CreateConfig@Configuration@SETTINGS@@SA_NPBD0@Z 1001de20 f   Configurations.obj
 0001:0001cf00       ?DeleteConfig@Configuration@SETTINGS@@SA_NPBD0@Z 1001df00 f   Configurations.obj
 0001:0001cf50       ?GetConfigs@Configuration@SETTINGS@@SAHPAY0BAA@DPBD@Z 1001df50 f   Configurations.obj
 0001:0001d0d0       ?Load@Configuration@SETTINGS@@QAE_NPBDI@Z 1001e0d0 f   Configurations.obj
 0001:0001d400       ?Save@Configuration@SETTINGS@@QAE_NPBDI@Z 1001e400 f   Configurations.obj
 0001:0001d560       ?Do@SkeletonESP@VISUALS@FEATURES@@QAEXXZ 1001e560 f   SkeletonESP.obj
 0001:0001d6f0       ?DrawSkeleton@SkeletonESP@VISUALS@FEATURES@@QAEXPAVCBaseEntity@SDK@@VCColor@@PBUmatrix3x4_t@@@Z 1001e6f0 f   SkeletonESP.obj
 0001:0001dbf0       ??0SkinChanger@MISC@FEATURES@@QAE@XZ 1001ebf0 f i SkinChanger.obj
 0001:00028860       ?Do@SkinChanger@MISC@FEATURES@@QAEXXZ 10029860 f   SkinChanger.obj
 0001:00028b40       ?Do@VisualizeBacktrack@VISUALS@FEATURES@@QAEXXZ 10029b40 f   VisualizeBacktrack.obj
 0001:00028ea0       ?Do@VISUALS@FEATURES@@YAXXZ 10029ea0 f   Visuals.obj
 0001:00029480       ?DisableFlashDuration@VisualsMisc@VISUALS@FEATURES@@QAEXXZ 1002a480 f   VisualsMisc.obj
 0001:000294c0       ?Do@VisualsMisc@VISUALS@FEATURES@@QAEXXZ 1002a4c0 f   VisualsMisc.obj
 0001:00029670       ?DrawAutowallCrosshair@VisualsMisc@VISUALS@FEATURES@@AAEXXZ 1002a670 f   VisualsMisc.obj
 0001:000299a0       ?DrawGrenadePrediction@VisualsMisc@VISUALS@FEATURES@@AAEXXZ 1002a9a0 f   VisualsMisc.obj
 0001:0002a9f0       ?DrawSnaplines@VisualsMisc@VISUALS@FEATURES@@AAEXXZ 1002b9f0 f   VisualsMisc.obj
 0001:0002ac60       ?DrawSpreadCircle@VisualsMisc@VISUALS@FEATURES@@AAEXXZ 1002bc60 f   VisualsMisc.obj
 0001:0002b2b0       ?NoSmoke@VisualsMisc@VISUALS@FEATURES@@QAEXXZ 1002c2b0 f   VisualsMisc.obj
 0001:0002b440       ??0WorldTextures@VISUALS@FEATURES@@QAE@XZ 1002c440 f i World Textures.obj
 0001:0002bae0       ?DoFSN@WorldTextures@VISUALS@FEATURES@@QAEXXZ 1002cae0 f   World Textures.obj
 0001:0002c030       ?Start@@YAXXZ              1002d030 f   main.obj
 0001:0002c100       _DllMain@12                1002d100 f   main.obj
 0001:0002c2a0       _printf                    1002d2a0 f i main.obj
 0001:0002c2d0       ??0exception@std@@QAE@QBD@Z 1002d2d0 f i Menu.obj
 0001:0002c8d0       ?Do@MENU@PPGUI@@YAXXZ      1002d8d0 f   Menu.obj
 0001:0002e920       ?ForceFullUpdate@IEngine@SDK@@SAXXZ 1002f920 f i Menu.obj
 0001:0002eaa0       ?Load@Configuration@SETTINGS@@QAE_NPBD0I@Z 1002faa0 f i Menu.obj
 0001:0002eb00       ?PPGUI_AlphaModulate@PPGUI@@YAXM@Z 1002fb00 f i Menu.obj
 0001:0002eb50       ?Save@Configuration@SETTINGS@@QAE_NPBD0I@Z 1002fb50 f i Menu.obj
 0001:0002ebb0       ??$_Buynode@ABUpiecewise_construct_t@std@@V?$tuple@ABI@2@V?$tuple@$$V@2@@?$_List_buy@U?$pair@$$CBITPPGUI_Command_Data@PPGUI_Command_Data_Base@PPGUI@@@std@@V?$allocator@U?$pair@$$CBITPPGUI_Command_Data@PPGUI_Command_Data_Base@PPGUI@@@std@@@2@@std@@QAEPAU?$_List_node@U?$pair@$$CBITPPGUI_Command_Data@PPGUI_Command_Data_Base@PPGUI@@@std@@PAX@1@PAU21@0ABUpiecewise_construct_t@1@$$QAV?$tuple@ABI@1@$$QAV?$tuple@$$V@1@@Z 1002fbb0 f i PPGUI.obj
 0001:0002ebd0       ??$_Emplace_reallocate@ABUPPGUI_Column@PPGUI_Command_Frame@PPGUI@@@?$vector@UPPGUI_Column@PPGUI_Command_Frame@PPGUI@@V?$allocator@UPPGUI_Column@PPGUI_Command_Frame@PPGUI@@@std@@@std@@QAEPAUPPGUI_Column@PPGUI_Command_Frame@PPGUI@@QAU234@ABU234@@Z 1002fbd0 f i PPGUI.obj
 0001:0002ed80       ??$_Emplace_reallocate@ABVPPGUI_Command_Frame@PPGUI@@@?$vector@VPPGUI_Command_Frame@PPGUI@@V?$allocator@VPPGUI_Command_Frame@PPGUI@@@std@@@std@@QAEPAVPPGUI_Command_Frame@PPGUI@@QAV23@ABV23@@Z 1002fd80 f i PPGUI.obj
 0001:0002ef80       ??$_Fill_unchecked@PAV?$_List_unchecked_iterator@V?$_List_val@U?$_List_simple_types@U?$pair@$$CBITPPGUI_Command_Data@PPGUI_Command_Data_Base@PPGUI@@@std@@@std@@@std@@@std@@V12@@std@@YAXPAV?$_List_unchecked_iterator@V?$_List_val@U?$_List_simple_types@U?$pair@$$CBITPPGUI_Command_Data@PPGUI_Command_Data_Base@PPGUI@@@std@@@std@@@std@@@0@0ABV10@@Z 1002ff80 f i PPGUI.obj
 0001:0002f000       ??$_Insert@AAU?$pair@$$CBITPPGUI_Command_Data@PPGUI_Command_Data_Base@PPGUI@@@std@@V?$_List_unchecked_iterator@V?$_List_val@U?$_List_simple_types@U?$pair@$$CBITPPGUI_Command_Data@PPGUI_Command_Data_Base@PPGUI@@@std@@@std@@@std@@@2@@?$_Hash@V?$_Umap_traits@ITPPGUI_Command_Data@PPGUI_Command_Data_Base@PPGUI@@V?$_Uhash_compare@IU?$hash@I@std@@U?$equal_to@I@2@@std@@V?$allocator@U?$pair@$$CBITPPGUI_Command_Data@PPGUI_Command_Data_Base@PPGUI@@@std@@@5@$0A@@std@@@std@@IAE?AU?$pair@V?$_List_iterator@V?$_List_val@U?$_List_simple_types@U?$pair@$$CBITPPGUI_Command_Data@PPGUI_Command_Data_Base@PPGUI@@@std@@@std@@@std@@@std@@_N@1@AAU?$pair@$$CBITPPGUI_Command_Data@PPGUI_Command_Data_Base@PPGUI@@@1@V?$_List_unchecked_iterator@V?$_List_val@U?$_List_simple_types@U?$pair@$$CBITPPGUI_Command_Data@PPGUI_Command_Data_Base@PPGUI@@@std@@@std@@@std@@@1@@Z 10030000 f i PPGUI.obj
 0001:0002f220       ??$_Uninitialized_move@PAVPPGUI_Command_Frame@PPGUI@@PAV12@V?$allocator@VPPGUI_Command_Frame@PPGUI@@@std@@@std@@YAPAVPPGUI_Command_Frame@PPGUI@@QAV12@0PAV12@AAV?$allocator@VPPGUI_Command_Frame@PPGUI@@@0@@Z 10030220 f i PPGUI.obj
 0001:0002f2b0       ??$construct@VPPGUI_Command_Frame@PPGUI@@V12@@?$_Default_allocator_traits@V?$allocator@VPPGUI_Command_Frame@PPGUI@@@std@@@std@@SAXAAV?$allocator@VPPGUI_Command_Frame@PPGUI@@@1@QAVPPGUI_Command_Frame@PPGUI@@$$QAV34@@Z 100302b0 f i PPGUI.obj
 0001:0002f320       ??$erase@V?$_List_iterator@V?$_List_val@U?$_List_simple_types@U?$pair@$$CBITPPGUI_Command_Data@PPGUI_Command_Data_Base@PPGUI@@@std@@@std@@@std@@@std@@X@?$_Hash@V?$_Umap_traits@ITPPGUI_Command_Data@PPGUI_Command_Data_Base@PPGUI@@V?$_Uhash_compare@IU?$hash@I@std@@U?$equal_to@I@2@@std@@V?$allocator@U?$pair@$$CBITPPGUI_Command_Data@PPGUI_Command_Data_Base@PPGUI@@@std@@@5@$0A@@std@@@std@@QAE?AV?$_List_iterator@V?$_List_val@U?$_List_simple_types@U?$pair@$$CBITPPGUI_Command_Data@PPGUI_Command_Data_Base@PPGUI@@@std@@@std@@@std@@@1@V21@@Z 10030320 f i PPGUI.obj
 0001:0002f3d0       ??0?$vector@UPPGUI_Column@PPGUI_Command_Frame@PPGUI@@V?$allocator@UPPGUI_Column@PPGUI_Command_Frame@PPGUI@@@std@@@std@@QAE@ABV01@@Z 100303d0 f i PPGUI.obj
 0001:0002f480       ??0PPGUI_Command_Frame@PPGUI@@QAE@PAVPPGUI_Command@1@H@Z 10030480 f   PPGUI.obj
 0001:0002f6d0       ??1?$vector@UPPGUI_Column@PPGUI_Command_Frame@PPGUI@@V?$allocator@UPPGUI_Column@PPGUI_Command_Frame@PPGUI@@@std@@@std@@QAE@XZ 100306d0 f i PPGUI.obj
 0001:0002f6e0       ??1?$vector@VPPGUI_Command_Frame@PPGUI@@V?$allocator@VPPGUI_Command_Frame@PPGUI@@@std@@@std@@QAE@XZ 100306e0 f i PPGUI.obj
 0001:0002f750       ??1PPGUI_Command_Frame@PPGUI@@QAE@XZ 10030750 f i PPGUI.obj
 0001:0002f760       ??1PPGUI_Command_List@PPGUI@@QAE@XZ 10030760 f i PPGUI.obj
 0001:0002f800       ??4PPGUI_Command_Frame@PPGUI@@QAEAAV01@$$QAV01@@Z 10030800 f i PPGUI.obj
 0001:0002f870       ??A?$unordered_map@ITPPGUI_Command_Data@PPGUI_Command_Data_Base@PPGUI@@U?$hash@I@std@@U?$equal_to@I@5@V?$allocator@U?$pair@$$CBITPPGUI_Command_Data@PPGUI_Command_Data_Base@PPGUI@@@std@@@5@@std@@QAEAATPPGUI_Command_Data@PPGUI_Command_Data_Base@PPGUI@@ABI@Z 10030870 f i PPGUI.obj
 0001:0002f900       ??R<lambda_edaebc954b53efb5b9670c2111df7194>@@QBEXAATPPGUI_Command_Data@PPGUI_Command_Data_Base@PPGUI@@ABW4PPGUI_Command_Types@3@@Z 10030900 f i PPGUI_Commands.obj
 0001:0002f900       ??R<lambda_8026473273ad38e21d271a762a48cf59>@@QBEXAATPPGUI_Command_Data@PPGUI_Command_Data_Base@PPGUI@@ABW4PPGUI_Command_Types@3@@Z 10030900 f i PPGUI_Commands.obj
 0001:0002f900       ??R<lambda_ebd3fe8d89f8826226563be13e65e40a>@@QBEXAATPPGUI_Command_Data@PPGUI_Command_Data_Base@PPGUI@@ABW4PPGUI_Command_Types@3@@Z 10030900 f i PPGUI_Commands.obj
 0001:0002f900       ??R<lambda_754a2942ec65f727641f86a744eec9ca>@@QBEXAATPPGUI_Command_Data@PPGUI_Command_Data_Base@PPGUI@@ABW4PPGUI_Command_Types@3@@Z 10030900 f i PPGUI_Commands.obj
 0001:0002f900       ??R<lambda_4736b5e46205fa413f66b35da70f91eb>@@QBEXAATPPGUI_Command_Data@PPGUI_Command_Data_Base@PPGUI@@ABW4PPGUI_Command_Types@3@@Z 10030900 f i PPGUI_Commands.obj
 0001:0002f900       ??R<lambda_c63487d0a68111f5e6930a79b22ca9cf>@@QBEXAATPPGUI_Command_Data@PPGUI_Command_Data_Base@PPGUI@@ABW4PPGUI_Command_Types@3@@Z 10030900 f i PPGUI.obj
 0001:0002f900       ??R<lambda_f72052e9904a007b22ce8dc0827c70d7>@@QBEXAATPPGUI_Command_Data@PPGUI_Command_Data_Base@PPGUI@@ABW4PPGUI_Command_Types@3@@Z 10030900 f i PPGUI_Commands.obj
 0001:0002f900       ??R<lambda_dda52d86197754781a619e9cd2a6795d>@@QBEXAATPPGUI_Command_Data@PPGUI_Command_Data_Base@PPGUI@@ABW4PPGUI_Command_Types@3@@Z 10030900 f i PPGUI_Commands.obj
 0001:0002f900       ??R<lambda_a4b7f7056c3066ba3213e3cb871fcf9f>@@QBEXAATPPGUI_Command_Data@PPGUI_Command_Data_Base@PPGUI@@ABW4PPGUI_Command_Types@3@@Z 10030900 f i PPGUI_Commands.obj
 0001:0002f900       ??R<lambda_9e77de5ae44ad38ef2ba1f6f90f70737>@@QBEXAATPPGUI_Command_Data@PPGUI_Command_Data_Base@PPGUI@@ABW4PPGUI_Command_Types@3@@Z 10030900 f i PPGUI_Commands.obj
 0001:0002f900       ??R<lambda_c1a44e165f1181c651573858c7f31a02>@@QBEXAATPPGUI_Command_Data@PPGUI_Command_Data_Base@PPGUI@@ABW4PPGUI_Command_Types@3@@Z 10030900 f i PPGUI_Commands.obj
 0001:0002fa10       ?AddCommandFrame@PPGUI_Framework@PPGUI@@QAEXAAVPPGUI_Command_Frame@2@@Z 10030a10 f i PPGUI.obj
 0001:0002fb50       ?AllocateSpace@PPGUI_Command_Frame@PPGUI@@QAE_NVPPGUI_Vector2D@HELPERS@2@AAV342@AA_N_N@Z 10030b50 f   PPGUI.obj
 0001:0002fda0       ?AllocateSpace@PPGUI_Framework@PPGUI@@QAE_NVPPGUI_Vector2D@HELPERS@2@AAV342@AA_N@Z 10030da0 f   PPGUI.obj
 0001:0002fe10       ?BeginFrame@PPGUI_Framework@PPGUI@@QAEXXZ 10030e10 f   PPGUI.obj
 0001:0002fe20       ?DrawMouse@PPGUI_Framework@PPGUI@@AAEXXZ 10030e20 f   PPGUI.obj
 0001:00030010       ?EndFrame@PPGUI_Framework@PPGUI@@QAEXXZ 10031010 f   PPGUI.obj
 0001:000301e0       ?GetCommandFrame@PPGUI_Framework@PPGUI@@QAEAAVPPGUI_Command_Frame@2@XZ 100311e0 f   PPGUI.obj
 0001:00030220       ?GetCurrentFrameSize@PPGUI_Framework@PPGUI@@QAE?AVPPGUI_Vector2D@HELPERS@2@XZ 10031220 f i PPGUI.obj
 0001:000302c0       ?PPGUI_BeginGroupbox@PPGUI@@YAXPBDHH_N@Z 100312c0 f   PPGUI.obj
 0001:000303e0       ?PPGUI_BeginWindow@PPGUI@@YAXPBDVPPGUI_Vector2D@HELPERS@1@1H@Z 100313e0 f   PPGUI.obj
 0001:000304b0       ?PPGUI_Button@PPGUI@@YA_NPBD_N@Z 100314b0 f   PPGUI.obj
 0001:00030630       ?PPGUI_Checkbox@PPGUI@@YA_NPBDAA_N_N@Z 10031630 f   PPGUI.obj
 0001:00030740       ?PPGUI_ColorPicker@PPGUI@@YAXPBDAAE111_N@Z 10031740 f   PPGUI.obj
 0001:00030850       ?PPGUI_Combobox@PPGUI@@YAHPBDHPAY0BAA@DAAH_N@Z 10031850 f   PPGUI.obj
 0001:00030960       ?PPGUI_EndGroupbox@PPGUI@@YAXXZ 10031960 f   PPGUI.obj
 0001:000309c0       ?PPGUI_EndWindow@PPGUI@@YAXXZ 100319c0 f   PPGUI.obj
 0001:00030aa0       ?PPGUI_Keybind@PPGUI@@YAHPBDAAH_N@Z 10031aa0 f   PPGUI.obj
 0001:00030bc0       ?PPGUI_MultiselectCombobox@PPGUI@@YAXPBDHPAY0BAA@DPA_N_N@Z 10031bc0 f   PPGUI.obj
 0001:00030cb0       ?PPGUI_Separator@PPGUI@@YAXPBD_N@Z 10031cb0 f   PPGUI.obj
 0001:00030d90       ?PPGUI_Slider@PPGUI@@YAMPBD0MMAAMH_N@Z 10031d90 f   PPGUI.obj
 0001:00030ed0       ?PPGUI_Tab@PPGUI@@YAHHPAY0BAA@DAAH_N@Z 10031ed0 f   PPGUI.obj
 0001:00030ff0       ?PPGUI_TextInput@PPGUI@@YAPBDPBDPAD_N@Z 10031ff0 f   PPGUI.obj
 0001:00031100       ?PPGUI_ToolTip@PPGUI@@YAXPBDHVPPGUI_Vector2D@HELPERS@1@@Z 10032100 f   PPGUI.obj
 0001:000311a0       ?RemoveCommandFrame@PPGUI_Framework@PPGUI@@QAEXXZ 100321a0 f i PPGUI.obj
 0001:000312b0       ?_Buynode0@?$_List_alloc@U?$_List_base_types@U?$pair@$$CBITPPGUI_Command_Data@PPGUI_Command_Data_Base@PPGUI@@@std@@V?$allocator@U?$pair@$$CBITPPGUI_Command_Data@PPGUI_Command_Data_Base@PPGUI@@@std@@@2@@std@@@std@@QAEPAU?$_List_node@U?$pair@$$CBITPPGUI_Command_Data@PPGUI_Command_Data_Base@PPGUI@@@std@@PAX@2@PAU32@0@Z 100322b0 f i PPGUI.obj
 0001:000312e0       ?_Destroy@?$vector@VPPGUI_Command_Frame@PPGUI@@V?$allocator@VPPGUI_Command_Frame@PPGUI@@@std@@@std@@AAEXPAVPPGUI_Command_Frame@PPGUI@@0@Z 100322e0 f i PPGUI.obj
 0001:00031310       ?_Init@?$_Hash@V?$_Umap_traits@ITPPGUI_Command_Data@PPGUI_Command_Data_Base@PPGUI@@V?$_Uhash_compare@IU?$hash@I@std@@U?$equal_to@I@2@@std@@V?$allocator@U?$pair@$$CBITPPGUI_Command_Data@PPGUI_Command_Data_Base@PPGUI@@@std@@@5@$0A@@std@@@std@@IAEXI@Z 10032310 f i PPGUI.obj
 0001:00031450       ?_Make_iter@?$_Hash@V?$_Umap_traits@ITPPGUI_Command_Data@PPGUI_Command_Data_Base@PPGUI@@V?$_Uhash_compare@IU?$hash@I@std@@U?$equal_to@I@2@@std@@V?$allocator@U?$pair@$$CBITPPGUI_Command_Data@PPGUI_Command_Data_Base@PPGUI@@@std@@@5@$0A@@std@@@std@@QBE?AV?$_List_iterator@V?$_List_val@U?$_List_simple_types@U?$pair@$$CBITPPGUI_Command_Data@PPGUI_Command_Data_Base@PPGUI@@@std@@@std@@@std@@@2@V?$_List_unchecked_const_iterator@V?$_List_val@U?$_List_simple_types@U?$pair@$$CBITPPGUI_Command_Data@PPGUI_Command_Data_Base@PPGUI@@@std@@@std@@@std@@U_Iterator_base0@2@@2@@Z 10032450 f i PPGUI.obj
 0001:00031460       ?_Reallocate_exactly@?$vector@V?$_List_unchecked_iterator@V?$_List_val@U?$_List_simple_types@U?$pair@$$CBITPPGUI_Command_Data@PPGUI_Command_Data_Base@PPGUI@@@std@@@std@@@std@@@std@@V?$allocator@V?$_List_unchecked_iterator@V?$_List_val@U?$_List_simple_types@U?$pair@$$CBITPPGUI_Command_Data@PPGUI_Command_Data_Base@PPGUI@@@std@@@std@@@std@@@std@@@2@@std@@AAEXI@Z 10032460 f i PPGUI.obj
 0001:00031510       ?_Tidy@?$vector@UPPGUI_Column@PPGUI_Command_Frame@PPGUI@@V?$allocator@UPPGUI_Column@PPGUI_Command_Frame@PPGUI@@@std@@@std@@AAEXXZ 10032510 f i PPGUI.obj
 0001:00031580       ?_Umove@?$vector@UPPGUI_Column@PPGUI_Command_Frame@PPGUI@@V?$allocator@UPPGUI_Column@PPGUI_Command_Frame@PPGUI@@@std@@@std@@AAEPAUPPGUI_Column@PPGUI_Command_Frame@PPGUI@@PAU345@00@Z 10032580 f i PPGUI.obj
 0001:000315d0       ?allocate@?$allocator@UPPGUI_Column@PPGUI_Command_Frame@PPGUI@@@std@@QAEPAUPPGUI_Column@PPGUI_Command_Frame@PPGUI@@I@Z 100325d0 f i PPGUI.obj
 0001:00031640       ?deallocate@?$allocator@V?$_List_unchecked_iterator@V?$_List_val@U?$_List_simple_types@U?$pair@$$CBITPPGUI_Command_Data@PPGUI_Command_Data_Base@PPGUI@@@std@@@std@@@std@@@std@@@std@@QAEXQAV?$_List_unchecked_iterator@V?$_List_val@U?$_List_simple_types@U?$pair@$$CBITPPGUI_Command_Data@PPGUI_Command_Data_Base@PPGUI@@@std@@@std@@@std@@@2@I@Z 10032640 f i PPGUI.obj
 0001:00031680       ?deallocate@?$allocator@VPPGUI_Command_Frame@PPGUI@@@std@@QAEXQAVPPGUI_Command_Frame@PPGUI@@I@Z 10032680 f i PPGUI.obj
 0001:000316c0       ?find@?$_Hash@V?$_Umap_traits@ITPPGUI_Command_Data@PPGUI_Command_Data_Base@PPGUI@@V?$_Uhash_compare@IU?$hash@I@std@@U?$equal_to@I@2@@std@@V?$allocator@U?$pair@$$CBITPPGUI_Command_Data@PPGUI_Command_Data_Base@PPGUI@@@std@@@5@$0A@@std@@@std@@QAE?AV?$_List_iterator@V?$_List_val@U?$_List_simple_types@U?$pair@$$CBITPPGUI_Command_Data@PPGUI_Command_Data_Base@PPGUI@@@std@@@std@@@std@@@2@ABI@Z 100326c0 f i PPGUI.obj
 0001:00031760       ?insert@?$vector@PAVPPGUI_Command@PPGUI@@V?$allocator@PAVPPGUI_Command@PPGUI@@@std@@@std@@QAE?AV?$_Vector_iterator@V?$_Vector_val@U?$_Simple_types@PAVPPGUI_Command@PPGUI@@@std@@@std@@@2@V?$_Vector_const_iterator@V?$_Vector_val@U?$_Simple_types@PAVPPGUI_Command@PPGUI@@@std@@@std@@@2@ABQAVPPGUI_Command@PPGUI@@@Z 10032760 f i PPGUI.obj
 0001:000317e0       ??$Get@UPPGUI_Text_Input_Command_Data@PPGUI_Command_Data_Base@PPGUI@@@PPGUI_Command_Data_Base@PPGUI@@QAEAAUPPGUI_Text_Input_Command_Data@01@ABIABW4PPGUI_Command_Types@1@@Z 100327e0 f i PPGUI_Commands.obj
 0001:000317e0       ??$Get@UPPGUI_Button_Command_Data@PPGUI_Command_Data_Base@PPGUI@@@PPGUI_Command_Data_Base@PPGUI@@QAEAAUPPGUI_Button_Command_Data@01@ABIABW4PPGUI_Command_Types@1@@Z 100327e0 f i PPGUI_Commands.obj
 0001:000317e0       ??$Get@UPPGUI_Window_Command_Data@PPGUI_Command_Data_Base@PPGUI@@@PPGUI_Command_Data_Base@PPGUI@@QAEAAUPPGUI_Window_Command_Data@01@ABIABW4PPGUI_Command_Types@1@@Z 100327e0 f i PPGUI_Commands.obj
 0001:000317e0       ??$Get@UPPGUI_Color_Picker_Command_Data@PPGUI_Command_Data_Base@PPGUI@@@PPGUI_Command_Data_Base@PPGUI@@QAEAAUPPGUI_Color_Picker_Command_Data@01@ABIABW4PPGUI_Command_Types@1@@Z 100327e0 f i PPGUI_Commands.obj
 0001:000317e0       ??$Get@UPPGUI_Checkbox_Command_Data@PPGUI_Command_Data_Base@PPGUI@@@PPGUI_Command_Data_Base@PPGUI@@QAEAAUPPGUI_Checkbox_Command_Data@01@ABIABW4PPGUI_Command_Types@1@@Z 100327e0 f i PPGUI_Commands.obj
 0001:000317e0       ??$Get@UPPGUI_Tool_Tip_Command_Data@PPGUI_Command_Data_Base@PPGUI@@@PPGUI_Command_Data_Base@PPGUI@@QAEAAUPPGUI_Tool_Tip_Command_Data@01@ABIABW4PPGUI_Command_Types@1@@Z 100327e0 f i PPGUI_Commands.obj
 0001:000317e0       ??$Get@UPPGUI_Keybind_Command_Data@PPGUI_Command_Data_Base@PPGUI@@@PPGUI_Command_Data_Base@PPGUI@@QAEAAUPPGUI_Keybind_Command_Data@01@ABIABW4PPGUI_Command_Types@1@@Z 100327e0 f i PPGUI_Commands.obj
 0001:000317e0       ??$Get@UPPGUI_Multiselect_Combobox_Command_Data@PPGUI_Command_Data_Base@PPGUI@@@PPGUI_Command_Data_Base@PPGUI@@QAEAAUPPGUI_Multiselect_Combobox_Command_Data@01@ABIABW4PPGUI_Command_Types@1@@Z 100327e0 f i PPGUI_Commands.obj
 0001:000317e0       ??$Get@UPPGUI_Combobox_Command_Data@PPGUI_Command_Data_Base@PPGUI@@@PPGUI_Command_Data_Base@PPGUI@@QAEAAUPPGUI_Combobox_Command_Data@01@ABIABW4PPGUI_Command_Types@1@@Z 100327e0 f i PPGUI_Commands.obj
 0001:000317e0       ??$Get@UPPGUI_Groupbox_Command_Data@PPGUI_Command_Data_Base@PPGUI@@@PPGUI_Command_Data_Base@PPGUI@@QAEAAUPPGUI_Groupbox_Command_Data@01@ABIABW4PPGUI_Command_Types@1@@Z 100327e0 f i PPGUI_Commands.obj
 0001:000317e0       ??$Get@UPPGUI_Slider_Command_Data@PPGUI_Command_Data_Base@PPGUI@@@PPGUI_Command_Data_Base@PPGUI@@QAEAAUPPGUI_Slider_Command_Data@01@ABIABW4PPGUI_Command_Types@1@@Z 100327e0 f i PPGUI_Commands.obj
 0001:00031870       ??$ReturnCorrectData@UPPGUI_Text_Input_Command_Data@PPGUI_Command_Data_Base@PPGUI@@@PPGUI_Command_Data_Base@PPGUI@@AAEAAUPPGUI_Text_Input_Command_Data@01@AATPPGUI_Command_Data@01@ABW4PPGUI_Command_Types@1@@Z 10032870 f i PPGUI_Commands.obj
 0001:00031870       ??$ReturnCorrectData@UPPGUI_Button_Command_Data@PPGUI_Command_Data_Base@PPGUI@@@PPGUI_Command_Data_Base@PPGUI@@AAEAAUPPGUI_Button_Command_Data@01@AATPPGUI_Command_Data@01@ABW4PPGUI_Command_Types@1@@Z 10032870 f i PPGUI_Commands.obj
 0001:00031870       ??$ReturnCorrectData@UPPGUI_Checkbox_Command_Data@PPGUI_Command_Data_Base@PPGUI@@@PPGUI_Command_Data_Base@PPGUI@@AAEAAUPPGUI_Checkbox_Command_Data@01@AATPPGUI_Command_Data@01@ABW4PPGUI_Command_Types@1@@Z 10032870 f i PPGUI_Commands.obj
 0001:00031870       ??$ReturnCorrectData@UPPGUI_Groupbox_Command_Data@PPGUI_Command_Data_Base@PPGUI@@@PPGUI_Command_Data_Base@PPGUI@@AAEAAUPPGUI_Groupbox_Command_Data@01@AATPPGUI_Command_Data@01@ABW4PPGUI_Command_Types@1@@Z 10032870 f i PPGUI_Commands.obj
 0001:00031870       ??$ReturnCorrectData@UPPGUI_Window_Command_Data@PPGUI_Command_Data_Base@PPGUI@@@PPGUI_Command_Data_Base@PPGUI@@AAEAAUPPGUI_Window_Command_Data@01@AATPPGUI_Command_Data@01@ABW4PPGUI_Command_Types@1@@Z 10032870 f i PPGUI_Commands.obj
 0001:00031870       ??$ReturnCorrectData@UPPGUI_Slider_Command_Data@PPGUI_Command_Data_Base@PPGUI@@@PPGUI_Command_Data_Base@PPGUI@@AAEAAUPPGUI_Slider_Command_Data@01@AATPPGUI_Command_Data@01@ABW4PPGUI_Command_Types@1@@Z 10032870 f i PPGUI_Commands.obj
 0001:00031870       ??$ReturnCorrectData@UPPGUI_Color_Picker_Command_Data@PPGUI_Command_Data_Base@PPGUI@@@PPGUI_Command_Data_Base@PPGUI@@AAEAAUPPGUI_Color_Picker_Command_Data@01@AATPPGUI_Command_Data@01@ABW4PPGUI_Command_Types@1@@Z 10032870 f i PPGUI_Commands.obj
 0001:00031870       ??$ReturnCorrectData@UPPGUI_Tool_Tip_Command_Data@PPGUI_Command_Data_Base@PPGUI@@@PPGUI_Command_Data_Base@PPGUI@@AAEAAUPPGUI_Tool_Tip_Command_Data@01@AATPPGUI_Command_Data@01@ABW4PPGUI_Command_Types@1@@Z 10032870 f i PPGUI_Commands.obj
 0001:00031870       ??$ReturnCorrectData@UPPGUI_Combobox_Command_Data@PPGUI_Command_Data_Base@PPGUI@@@PPGUI_Command_Data_Base@PPGUI@@AAEAAUPPGUI_Combobox_Command_Data@01@AATPPGUI_Command_Data@01@ABW4PPGUI_Command_Types@1@@Z 10032870 f i PPGUI_Commands.obj
 0001:00031870       ??$ReturnCorrectData@UPPGUI_Multiselect_Combobox_Command_Data@PPGUI_Command_Data_Base@PPGUI@@@PPGUI_Command_Data_Base@PPGUI@@AAEAAUPPGUI_Multiselect_Combobox_Command_Data@01@AATPPGUI_Command_Data@01@ABW4PPGUI_Command_Types@1@@Z 10032870 f i PPGUI_Commands.obj
 0001:00031870       ??$ReturnCorrectData@UPPGUI_Keybind_Command_Data@PPGUI_Command_Data_Base@PPGUI@@@PPGUI_Command_Data_Base@PPGUI@@AAEAAUPPGUI_Keybind_Command_Data@01@AATPPGUI_Command_Data@01@ABW4PPGUI_Command_Types@1@@Z 10032870 f i PPGUI_Commands.obj
 0001:000318d0       ??$use_facet@V?$numpunct@D@std@@@std@@YAABV?$numpunct@D@0@ABVlocale@0@@Z 100328d0 f i PPGUI_Commands.obj
 0001:00031a50       ??0?$basic_iostream@DU?$char_traits@D@std@@@std@@QAE@PAV?$basic_streambuf@DU?$char_traits@D@std@@@1@@Z 10032a50 f i PPGUI_Commands.obj
 0001:00031c20       ??0PPGUI_Button_Command@PPGUI@@QAE@PBDVPPGUI_Vector2D@HELPERS@1@1_N@Z 10032c20 f   PPGUI_Commands.obj
 0001:00031ca0       ??0PPGUI_Checkbox_Command@PPGUI@@QAE@PBDAA_NVPPGUI_Vector2D@HELPERS@1@2_N@Z 10032ca0 f   PPGUI_Commands.obj
 0001:00031d20       ??0PPGUI_Color_Picker_Command@PPGUI@@QAE@PBDVPPGUI_Vector2D@HELPERS@1@1AAE222_N@Z 10032d20 f   PPGUI_Commands.obj
 0001:00031db0       ??0PPGUI_Combobox_Command@PPGUI@@QAE@PBDVPPGUI_Vector2D@HELPERS@1@1PAY0BAA@DHAAH_N@Z 10032db0 f   PPGUI_Commands.obj
 0001:00031e70       ??0PPGUI_Command@PPGUI@@QAE@XZ 10032e70 f i PPGUI_Commands.obj
 0001:00031f30       ??0PPGUI_Groupbox_Command@PPGUI@@QAE@PBDVPPGUI_Vector2D@HELPERS@1@1_N@Z 10032f30 f   PPGUI_Commands.obj
 0001:00031fb0       ??0PPGUI_Keybind_Command@PPGUI@@QAE@PBDAAHVPPGUI_Vector2D@HELPERS@1@2_N@Z 10032fb0 f   PPGUI_Commands.obj
 0001:00032050       ??0PPGUI_Multiselect_Combobox_Command@PPGUI@@QAE@PBDVPPGUI_Vector2D@HELPERS@1@1PAY0BAA@DPA_NH_N@Z 10033050 f   PPGUI_Commands.obj
 0001:000320f0       ??0PPGUI_Separator_Command@PPGUI@@QAE@PBDVPPGUI_Vector2D@HELPERS@1@1_N@Z 100330f0 f   PPGUI_Commands.obj
 0001:00032170       ??0PPGUI_Slider_Command@PPGUI@@QAE@PBD0MMAAMH_NVPPGUI_Vector2D@HELPERS@1@3@Z 10033170 f   PPGUI_Commands.obj
 0001:00032260       ??0PPGUI_Tab_Command@PPGUI@@QAE@VPPGUI_Vector2D@HELPERS@1@0AAHPAY0BAA@DH_N@Z 10033260 f   PPGUI_Commands.obj
 0001:00032320       ??0PPGUI_Text_Input_Command@PPGUI@@QAE@PBDVPPGUI_Vector2D@HELPERS@1@1PAD_N@Z 10033320 f   PPGUI_Commands.obj
 0001:000323a0       ??0PPGUI_Tool_Tip_Command@PPGUI@@QAE@PBDHVPPGUI_Vector2D@HELPERS@1@PAVPPGUI_Command@1@@Z 100333a0 f   PPGUI_Commands.obj
 0001:00032490       ??0PPGUI_Window_Command@PPGUI@@QAE@PBDVPPGUI_Vector2D@HELPERS@1@1@Z 10033490 f   PPGUI_Commands.obj
 0001:00032540       ??1?$basic_stringbuf@DU?$char_traits@D@std@@V?$allocator@D@2@@std@@UAE@XZ 10033540 f i PPGUI_Commands.obj
 0001:00032650       ??1PPGUI_Command@PPGUI@@UAE@XZ 10033650 f i PPGUI_Commands.obj
 0001:00032660       ??6?$basic_ostream@DU?$char_traits@D@std@@@std@@QAEAAV01@M@Z 10033660 f i PPGUI_Commands.obj
 0001:00032de0       ??_D?$basic_stringstream@DU?$char_traits@D@std@@V?$allocator@D@2@@std@@QAEXXZ 10033de0 f i PPGUI_Commands.obj
 0001:00032e9f       ??_E?$basic_stringstream@DU?$char_traits@D@std@@V?$allocator@D@2@@std@@$4PPPPPPPM@A@AEPAXI@Z 10033e9f f i PPGUI_Commands.obj
 0001:00032eb0       ??_E?$basic_stringbuf@DU?$char_traits@D@std@@V?$allocator@D@2@@std@@UAEPAXI@Z 10033eb0 f i PPGUI_Commands.obj
 0001:00032eb0       ??_G?$basic_stringbuf@DU?$char_traits@D@std@@V?$allocator@D@2@@std@@UAEPAXI@Z 10033eb0 f i PPGUI_Commands.obj
 0001:00032ee0       ??_E?$basic_stringstream@DU?$char_traits@D@std@@V?$allocator@D@2@@std@@UAEPAXI@Z 10033ee0 f i PPGUI_Commands.obj
 0001:00032ee0       ??_G?$basic_stringstream@DU?$char_traits@D@std@@V?$allocator@D@2@@std@@UAEPAXI@Z 10033ee0 f i PPGUI_Commands.obj
 0001:00032f10       ??_G?$numpunct@D@std@@MAEPAXI@Z 10033f10 f i PPGUI_Commands.obj
 0001:00032f10       ??_E?$numpunct@D@std@@MAEPAXI@Z 10033f10 f i PPGUI_Commands.obj
 0001:00032f60       ??_GPPGUI_Button_Command@PPGUI@@UAEPAXI@Z 10033f60 f i PPGUI_Commands.obj
 0001:00032f60       ??_EPPGUI_Separator_Command@PPGUI@@UAEPAXI@Z 10033f60 f i PPGUI_Commands.obj
 0001:00032f60       ??_EPPGUI_Groupbox_Command@PPGUI@@UAEPAXI@Z 10033f60 f i PPGUI_Commands.obj
 0001:00032f60       ??_GPPGUI_Command@PPGUI@@UAEPAXI@Z 10033f60 f i PPGUI_Commands.obj
 0001:00032f60       ??_GPPGUI_Groupbox_Command@PPGUI@@UAEPAXI@Z 10033f60 f i PPGUI_Commands.obj
 0001:00032f60       ??_EPPGUI_Window_Command@PPGUI@@UAEPAXI@Z 10033f60 f i PPGUI_Commands.obj
 0001:00032f60       ??_EPPGUI_Button_Command@PPGUI@@UAEPAXI@Z 10033f60 f i PPGUI_Commands.obj
 0001:00032f60       ??_GPPGUI_Separator_Command@PPGUI@@UAEPAXI@Z 10033f60 f i PPGUI_Commands.obj
 0001:00032f60       ??_EPPGUI_Command@PPGUI@@UAEPAXI@Z 10033f60 f i PPGUI_Commands.obj
 0001:00032f60       ??_GPPGUI_Window_Command@PPGUI@@UAEPAXI@Z 10033f60 f i PPGUI_Commands.obj
 0001:00032f90       ??_GPPGUI_Checkbox_Command@PPGUI@@UAEPAXI@Z 10033f90 f i PPGUI_Commands.obj
 0001:00032f90       ??_EPPGUI_Keybind_Command@PPGUI@@UAEPAXI@Z 10033f90 f i PPGUI_Commands.obj
 0001:00032f90       ??_GPPGUI_Text_Input_Command@PPGUI@@UAEPAXI@Z 10033f90 f i PPGUI_Commands.obj
 0001:00032f90       ??_EPPGUI_Checkbox_Command@PPGUI@@UAEPAXI@Z 10033f90 f i PPGUI_Commands.obj
 0001:00032f90       ??_GPPGUI_Keybind_Command@PPGUI@@UAEPAXI@Z 10033f90 f i PPGUI_Commands.obj
 0001:00032f90       ??_EPPGUI_Text_Input_Command@PPGUI@@UAEPAXI@Z 10033f90 f i PPGUI_Commands.obj
 0001:00032fc0       ??_EPPGUI_Color_Picker_Command@PPGUI@@UAEPAXI@Z 10033fc0 f i PPGUI_Commands.obj
 0001:00032fc0       ??_GPPGUI_Color_Picker_Command@PPGUI@@UAEPAXI@Z 10033fc0 f i PPGUI_Commands.obj
 0001:00032ff0       ??_GPPGUI_Tab_Command@PPGUI@@UAEPAXI@Z 10033ff0 f i PPGUI_Commands.obj
 0001:00032ff0       ??_GPPGUI_Multiselect_Combobox_Command@PPGUI@@UAEPAXI@Z 10033ff0 f i PPGUI_Commands.obj
 0001:00032ff0       ??_EPPGUI_Multiselect_Combobox_Command@PPGUI@@UAEPAXI@Z 10033ff0 f i PPGUI_Commands.obj
 0001:00032ff0       ??_EPPGUI_Tab_Command@PPGUI@@UAEPAXI@Z 10033ff0 f i PPGUI_Commands.obj
 0001:00032ff0       ??_GPPGUI_Combobox_Command@PPGUI@@UAEPAXI@Z 10033ff0 f i PPGUI_Commands.obj
 0001:00032ff0       ??_EPPGUI_Combobox_Command@PPGUI@@UAEPAXI@Z 10033ff0 f i PPGUI_Commands.obj
 0001:00033020       ??_GPPGUI_Slider_Command@PPGUI@@UAEPAXI@Z 10034020 f i PPGUI_Commands.obj
 0001:00033020       ??_EPPGUI_Slider_Command@PPGUI@@UAEPAXI@Z 10034020 f i PPGUI_Commands.obj
 0001:00033050       ??_GPPGUI_Tool_Tip_Command@PPGUI@@UAEPAXI@Z 10034050 f i PPGUI_Commands.obj
 0001:00033050       ??_EPPGUI_Tool_Tip_Command@PPGUI@@UAEPAXI@Z 10034050 f i PPGUI_Commands.obj
 0001:00033080       ?Brightness@PPGUI_Color@HELPERS@PPGUI@@QBEMXZ 10034080 f i PPGUI_Commands.obj
 0001:000330e0       ?ClampToBounds@PPGUI_Vector2D@HELPERS@PPGUI@@SA_NAAV123@0ABV123@1@Z 100340e0 f i PPGUI_Commands.obj
 0001:000331c0       ?Draw@PPGUI_Button_Command@PPGUI@@UAEXXZ 100341c0 f   PPGUI_Commands.obj
 0001:00033500       ?Draw@PPGUI_Checkbox_Command@PPGUI@@UAEXXZ 10034500 f   PPGUI_Commands.obj
 0001:00033790       ?Draw@PPGUI_Color_Picker_Command@PPGUI@@UAEXXZ 10034790 f   PPGUI_Commands.obj
 0001:00034770       ?Draw@PPGUI_Combobox_Command@PPGUI@@UAEXXZ 10035770 f   PPGUI_Commands.obj
 0001:00034e20       ?Draw@PPGUI_Groupbox_Command@PPGUI@@UAEXXZ 10035e20 f   PPGUI_Commands.obj
 0001:00034fe0       ?Draw@PPGUI_Keybind_Command@PPGUI@@UAEXXZ 10035fe0 f   PPGUI_Commands.obj
 0001:00035420       ?Draw@PPGUI_Multiselect_Combobox_Command@PPGUI@@UAEXXZ 10036420 f   PPGUI_Commands.obj
 0001:00035ba0       ?Draw@PPGUI_Separator_Command@PPGUI@@UAEXXZ 10036ba0 f   PPGUI_Commands.obj
 0001:00035db0       ?Draw@PPGUI_Slider_Command@PPGUI@@UAEXXZ 10036db0 f   PPGUI_Commands.obj
 0001:000363b0       ?Draw@PPGUI_Tab_Command@PPGUI@@UAEXXZ 100373b0 f   PPGUI_Commands.obj
 0001:000366d0       ?Draw@PPGUI_Text_Input_Command@PPGUI@@UAEXXZ 100376d0 f   PPGUI_Commands.obj
 0001:00036c80       ?Draw@PPGUI_Tool_Tip_Command@PPGUI@@UAEXXZ 10037c80 f   PPGUI_Commands.obj
 0001:00036ed0       ?Draw@PPGUI_Window_Command@PPGUI@@UAEXXZ 10037ed0 f   PPGUI_Commands.obj
 0001:000374d0       ?GetClampedPositionAndSize@PPGUI_Command@PPGUI@@QAE_NAAVPPGUI_Vector2D@HELPERS@2@0@Z 100384d0 f i PPGUI_Commands.obj
 0001:000375a0       ?GetDataHash@PPGUI_Command@PPGUI@@QAEIXZ 100385a0 f   PPGUI_Commands.obj
 0001:000376c0       ?GetKeyName@PPGUI_Input@PPGUI@@SAPBDH@Z 100386c0 f i PPGUI_Commands.obj
 0001:00037af0       ?GetScrollAlphaScale@PPGUI_Command@PPGUI@@QAEMXZ 10038af0 f i PPGUI_Commands.obj
 0001:00037b90       ?GetScrollAmount@PPGUI_Groupbox_Command@PPGUI@@UAEHXZ 10038b90 f   PPGUI_Commands.obj
 0001:00037bc0       ?GetScrollAmount@PPGUI_Window_Command@PPGUI@@UAEHXZ 10038bc0 f   PPGUI_Commands.obj
 0001:00037bf0       ?HSBtoRGB@PPGUI_Color@HELPERS@PPGUI@@SA?AV123@MMMH@Z 10038bf0 f i PPGUI_Commands.obj
 0001:00037e00       ?Hue@PPGUI_Color@HELPERS@PPGUI@@QBEMXZ 10038e00 f i PPGUI_Commands.obj
 0001:00037ef0       ?IsPointInBounds@PPGUI_Command@PPGUI@@QAE_NVPPGUI_Vector2D@HELPERS@2@@Z 10038ef0 f i PPGUI_Commands.obj
 0001:00037f90       ?IsRectInBounds@PPGUI_Command@PPGUI@@QAE_NVPPGUI_Vector2D@HELPERS@2@0@Z 10038f90 f i PPGUI_Commands.obj
 0001:00038090       ?IsValidKey@PPGUI_Input@PPGUI@@SA_NH@Z 10039090 f i PPGUI_Commands.obj
 0001:00038120       ?KeyToChar@PPGUI_Input@PPGUI@@SADH@Z 10039120 f i PPGUI_Commands.obj
 0001:00038330       ?PPGUI_GetTime@HELPERS@PPGUI@@YAMXZ 10039330 f i PPGUI_Commands.obj
 0001:00038370       ?Saturation@PPGUI_Color@HELPERS@PPGUI@@QBEMXZ 10039370 f i PPGUI_Commands.obj
 0001:000383f0       ?SetupCommandInfo@PPGUI_Command@PPGUI@@QAEXAAUPPGUI_Command_Info@2@VPPGUI_Vector2D@HELPERS@2@1PBD_N@Z 100393f0 f   PPGUI_Commands.obj
 0001:00038620       ?TestInput@PPGUI_Button_Command@PPGUI@@UAEXAAVPPGUI_Input@2@@Z 10039620 f   PPGUI_Commands.obj
 0001:00038720       ?TestInput@PPGUI_Checkbox_Command@PPGUI@@UAEXAAVPPGUI_Input@2@@Z 10039720 f   PPGUI_Commands.obj
 0001:00038820       ?TestInput@PPGUI_Color_Picker_Command@PPGUI@@UAEXAAVPPGUI_Input@2@@Z 10039820 f   PPGUI_Commands.obj
 0001:00038c00       ?TestInput@PPGUI_Combobox_Command@PPGUI@@UAEXAAVPPGUI_Input@2@@Z 10039c00 f   PPGUI_Commands.obj
 0001:00038fc0       ?TestInput@PPGUI_Groupbox_Command@PPGUI@@UAEXAAVPPGUI_Input@2@@Z 10039fc0 f   PPGUI_Commands.obj
 0001:000390e0       ?TestInput@PPGUI_Keybind_Command@PPGUI@@UAEXAAVPPGUI_Input@2@@Z 1003a0e0 f   PPGUI_Commands.obj
 0001:000392a0       ?TestInput@PPGUI_Multiselect_Combobox_Command@PPGUI@@UAEXAAVPPGUI_Input@2@@Z 1003a2a0 f   PPGUI_Commands.obj
 0001:00039650       ?TestInput@PPGUI_Slider_Command@PPGUI@@UAEXAAVPPGUI_Input@2@@Z 1003a650 f   PPGUI_Commands.obj
 0001:00039a00       ?TestInput@PPGUI_Tab_Command@PPGUI@@UAEXAAVPPGUI_Input@2@@Z 1003aa00 f   PPGUI_Commands.obj
 0001:00039b10       ?TestInput@PPGUI_Text_Input_Command@PPGUI@@UAEXAAVPPGUI_Input@2@@Z 1003ab10 f   PPGUI_Commands.obj
 0001:00039cc0       ?TestInput@PPGUI_Tool_Tip_Command@PPGUI@@UAEXAAVPPGUI_Input@2@@Z 1003acc0 f   PPGUI_Commands.obj
 0001:00039de0       ?TestInput@PPGUI_Window_Command@PPGUI@@UAEXAAVPPGUI_Input@2@@Z 1003ade0 f   PPGUI_Commands.obj
 0001:00039f30       ?_Ffmt@?$num_put@DV?$ostreambuf_iterator@DU?$char_traits@D@std@@@std@@@std@@ABAPADPADDH@Z 1003af30 f i PPGUI_Commands.obj
 0001:00039ff0       ?_Fput@?$num_put@DV?$ostreambuf_iterator@DU?$char_traits@D@std@@@std@@@std@@ABA?AV?$ostreambuf_iterator@DU?$char_traits@D@std@@@2@V32@AAVios_base@2@DPBDI@Z 1003aff0 f i PPGUI_Commands.obj
 0001:0003a5b0       ?_Ifmt@?$num_put@DV?$ostreambuf_iterator@DU?$char_traits@D@std@@@std@@@std@@ABAPADPADPBDH@Z 1003b5b0 f i PPGUI_Commands.obj
 0001:0003a640       ?_Init@?$numpunct@D@std@@IAEXABV_Locinfo@2@_N@Z 1003b640 f i PPGUI_Commands.obj
 0001:0003a7d0       ?_Iput@?$num_put@DV?$ostreambuf_iterator@DU?$char_traits@D@std@@@std@@@std@@ABA?AV?$ostreambuf_iterator@DU?$char_traits@D@std@@@2@V32@AAVios_base@2@DPADI@Z 1003b7d0 f i PPGUI_Commands.obj
 0001:0003acf0       ?_Put@?$num_put@DV?$ostreambuf_iterator@DU?$char_traits@D@std@@@std@@@std@@ABA?AV?$ostreambuf_iterator@DU?$char_traits@D@std@@@2@V32@PBDI@Z 1003bcf0 f i PPGUI_Commands.obj
 0001:0003ad70       ?_Rep@?$num_put@DV?$ostreambuf_iterator@DU?$char_traits@D@std@@@std@@@std@@ABA?AV?$ostreambuf_iterator@DU?$char_traits@D@std@@@2@V32@DI@Z 1003bd70 f i PPGUI_Commands.obj
 0001:0003ade0       ?_Tidy@?$numpunct@D@std@@AAEXXZ 1003bde0 f i PPGUI_Commands.obj
 0001:0003ae00       ?append@?$basic_string@DU?$char_traits@D@std@@V?$allocator@D@2@@std@@QAEAAV12@ID@Z 1003be00 f i PPGUI_Commands.obj
 0001:0003af60       ?deallocate@?$allocator@D@std@@QAEXQADI@Z 1003bf60 f i PPGUI_Commands.obj
 0001:0003afa0       ?do_decimal_point@?$numpunct@D@std@@MBEDXZ 1003bfa0 f i PPGUI_Commands.obj
 0001:0003afb0       ?do_falsename@?$numpunct@D@std@@MBE?AV?$basic_string@DU?$char_traits@D@std@@V?$allocator@D@2@@2@XZ 1003bfb0 f i PPGUI_Commands.obj
 0001:0003aff0       ?do_grouping@?$numpunct@D@std@@MBE?AV?$basic_string@DU?$char_traits@D@std@@V?$allocator@D@2@@2@XZ 1003bff0 f i PPGUI_Commands.obj
 0001:0003b030       ?do_put@?$num_put@DV?$ostreambuf_iterator@DU?$char_traits@D@std@@@std@@@std@@MBE?AV?$ostreambuf_iterator@DU?$char_traits@D@std@@@2@V32@AAVios_base@2@DJ@Z 1003c030 f i PPGUI_Commands.obj
 0001:0003b0a0       ?do_put@?$num_put@DV?$ostreambuf_iterator@DU?$char_traits@D@std@@@std@@@std@@MBE?AV?$ostreambuf_iterator@DU?$char_traits@D@std@@@2@V32@AAVios_base@2@DK@Z 1003c0a0 f i PPGUI_Commands.obj
 0001:0003b110       ?do_put@?$num_put@DV?$ostreambuf_iterator@DU?$char_traits@D@std@@@std@@@std@@MBE?AV?$ostreambuf_iterator@DU?$char_traits@D@std@@@2@V32@AAVios_base@2@DN@Z 1003c110 f i PPGUI_Commands.obj
 0001:0003b2c0       ?do_put@?$num_put@DV?$ostreambuf_iterator@DU?$char_traits@D@std@@@std@@@std@@MBE?AV?$ostreambuf_iterator@DU?$char_traits@D@std@@@2@V32@AAVios_base@2@DO@Z 1003c2c0 f i PPGUI_Commands.obj
 0001:0003b470       ?do_put@?$num_put@DV?$ostreambuf_iterator@DU?$char_traits@D@std@@@std@@@std@@MBE?AV?$ostreambuf_iterator@DU?$char_traits@D@std@@@2@V32@AAVios_base@2@DPBX@Z 1003c470 f i PPGUI_Commands.obj
 0001:0003b4d0       ?do_put@?$num_put@DV?$ostreambuf_iterator@DU?$char_traits@D@std@@@std@@@std@@MBE?AV?$ostreambuf_iterator@DU?$char_traits@D@std@@@2@V32@AAVios_base@2@D_J@Z 1003c4d0 f i PPGUI_Commands.obj
 0001:0003b540       ?do_put@?$num_put@DV?$ostreambuf_iterator@DU?$char_traits@D@std@@@std@@@std@@MBE?AV?$ostreambuf_iterator@DU?$char_traits@D@std@@@2@V32@AAVios_base@2@D_K@Z 1003c540 f i PPGUI_Commands.obj
 0001:0003b5b0       ?do_put@?$num_put@DV?$ostreambuf_iterator@DU?$char_traits@D@std@@@std@@@std@@MBE?AV?$ostreambuf_iterator@DU?$char_traits@D@std@@@2@V32@AAVios_base@2@D_N@Z 1003c5b0 f i PPGUI_Commands.obj
 0001:0003b7c0       ?do_thousands_sep@?$numpunct@D@std@@MBEDXZ 1003c7c0 f i PPGUI_Commands.obj
 0001:0003b7d0       ?do_truename@?$numpunct@D@std@@MBE?AV?$basic_string@DU?$char_traits@D@std@@V?$allocator@D@2@@2@XZ 1003c7d0 f i PPGUI_Commands.obj
 0001:0003b810       ?fixed@std@@YAAAVios_base@1@AAV21@@Z 1003c810 f i PPGUI_Commands.obj
 0001:0003b830       ?overflow@?$basic_stringbuf@DU?$char_traits@D@std@@V?$allocator@D@2@@std@@MAEHH@Z 1003c830 f i PPGUI_Commands.obj
 0001:0003b990       ?pbackfail@?$basic_stringbuf@DU?$char_traits@D@std@@V?$allocator@D@2@@std@@MAEHH@Z 1003c990 f i PPGUI_Commands.obj
 0001:0003b9f0       ?seekoff@?$basic_stringbuf@DU?$char_traits@D@std@@V?$allocator@D@2@@std@@MAE?AV?$fpos@U_Mbstatet@@@2@_JHH@Z 1003c9f0 f i PPGUI_Commands.obj
 0001:0003bb50       ?seekpos@?$basic_stringbuf@DU?$char_traits@D@std@@V?$allocator@D@2@@std@@MAE?AV?$fpos@U_Mbstatet@@@2@V32@H@Z 1003cb50 f i PPGUI_Commands.obj
 0001:0003bc40       ?underflow@?$basic_stringbuf@DU?$char_traits@D@std@@V?$allocator@D@2@@std@@MAEHXZ 1003cc40 f i PPGUI_Commands.obj
 0001:0003bca0       ?PPGUI_DrawCircle@HELPERS@PPGUI@@YAXVPPGUI_Vector2D@12@VPPGUI_Color@12@HH_N@Z 1003cca0 f   PPGUI_Helpers.obj
 0001:0003bd00       ?PPGUI_DrawLine@HELPERS@PPGUI@@YAXVPPGUI_Vector2D@12@0VPPGUI_Color@12@@Z 1003cd00 f   PPGUI_Helpers.obj
 0001:0003bd50       ?PPGUI_DrawLineEx@HELPERS@PPGUI@@YAXVPPGUI_Vector2D@12@0VPPGUI_Color@12@@Z 1003cd50 f   PPGUI_Helpers.obj
 0001:0003bd90       ?PPGUI_DrawRectangle@HELPERS@PPGUI@@YAXVPPGUI_Vector2D@12@0VPPGUI_Color@12@_N@Z 1003cd90 f   PPGUI_Helpers.obj
 0001:0003be00       ?PPGUI_DrawText@HELPERS@PPGUI@@YAXVPPGUI_Vector2D@12@I_N1VPPGUI_Color@12@PBD@Z 1003ce00 f   PPGUI_Helpers.obj
 0001:0003be80       ?PPGUI_GetFilteredTextWidth@HELPERS@PPGUI@@YAHPBDH@Z 1003ce80 f   PPGUI_Helpers.obj
 0001:0003bf50       ?PPGUI_GetScreenSize@HELPERS@PPGUI@@YA?AVPPGUI_Vector2D@12@XZ 1003cf50 f   PPGUI_Helpers.obj
 0001:0003bf80       ?PPGUI_GetTextSize@HELPERS@PPGUI@@YA?AVPPGUI_Vector2D@12@IPBD@Z 1003cf80 f   PPGUI_Helpers.obj
 0001:0003bfe0       ??0PPGUI_Color@HELPERS@PPGUI@@QAE@XZ 1003cfe0 f i PPGUI_Defines.obj
 0001:0003bff0       ??1?$_Hash@V?$_Umap_traits@ITPPGUI_Command_Data@PPGUI_Command_Data_Base@PPGUI@@V?$_Uhash_compare@IU?$hash@I@std@@U?$equal_to@I@2@@std@@V?$allocator@U?$pair@$$CBITPPGUI_Command_Data@PPGUI_Command_Data_Base@PPGUI@@@std@@@5@$0A@@std@@@std@@QAE@XZ 1003cff0 f i PPGUI_Defines.obj
 0001:0003c050       ??1?$list@U?$pair@$$CBITPPGUI_Command_Data@PPGUI_Command_Data_Base@PPGUI@@@std@@V?$allocator@U?$pair@$$CBITPPGUI_Command_Data@PPGUI_Command_Data_Base@PPGUI@@@std@@@2@@std@@QAE@XZ 1003d050 f i PPGUI_Defines.obj
 0001:0003c0a0       ?Update@PPGUI_Input@PPGUI@@QAEXXZ 1003d0a0 f   PPGUI_Defines.obj
 0001:0003c210       ??$_Insert_string@DU?$char_traits@D@std@@I@std@@YAAAV?$basic_ostream@DU?$char_traits@D@std@@@0@AAV10@QBDI@Z 1003d210 f i Debugger.obj
 0001:0003c480       ??$_Range_construct_or_tidy@PBQBD@?$vector@PBDV?$allocator@PBD@std@@@std@@AAEXPBQBD0Uforward_iterator_tag@1@@Z 1003d480 f i hooks.obj
 0001:0003c540       ??A?$map@HPAXU?$less@H@std@@V?$allocator@U?$pair@$$CBHPAX@std@@@2@@std@@QAEAAPAXABH@Z 1003d540 f i hooks.obj
 0001:0003c5c0       ?EyeAnglesPitchHook@HOOKS@@YAXPBVCRecvProxyData@SDK@@PAX1@Z 1003d5c0 f   hooks.obj
 0001:0003c5f0       ?EyeAnglesYawHook@HOOKS@@YAXPBVCRecvProxyData@SDK@@PAX1@Z 1003d5f0 f   hooks.obj
 0001:0003c620       ?HookedCreateMove@HOOKS@@YI_NPAX0MPAVCUserCmd@SDK@@@Z 1003d620 f   hooks.obj
 0001:0003c8b0       ?HookedDrawModelExecute@HOOKS@@YIXPAX0PAVIMatRenderContext@SDK@@ABUDrawModelState_t@3@ABUModelRenderInfo_t@3@PAUmatrix3x4_t@@@Z 1003d8b0 f   hooks.obj
 0001:0003c940       ?HookedFrameStageNotify@HOOKS@@YIXPAX0H@Z 1003d940 f   hooks.obj
 0001:0003c9f0       ?HookedOverrideView@HOOKS@@YIXPAX0PAUCViewSetup@SDK@@@Z 1003d9f0 f   hooks.obj
 0001:0003ca50       ?HookedPaintTraverse@HOOKS@@YGXH_N0@Z 1003da50 f   hooks.obj
 0001:0003cbb0       ?HookedSceneEnd@HOOKS@@YIXPAX0@Z 1003dbb0 f   hooks.obj
 0001:0003ce30       ?HookedTraceRay@HOOKS@@YIXPAX0ABURay_t@SDK@@IPAVITraceFilter@3@PAUtrace_t@3@@Z 1003de30 f   hooks.obj
 0001:0003ce60       ?InitHooks@HOOKS@@YAXXZ    1003de60 f   hooks.obj
 0001:0003d6c0       ?InitNetvarHooks@HOOKS@@YAXXZ 1003e6c0 f   hooks.obj
 0001:0003d820       ?SmokeEffectHook@HOOKS@@YAXPBVCRecvProxyData@SDK@@PAX1@Z 1003e820 f   hooks.obj
 0001:0003d830       ?UnHook@HOOKS@@YAXXZ       1003e830 f   hooks.obj
 0001:0003d880       ??$_Emplace_reallocate@ABH@?$vector@HV?$allocator@H@std@@@std@@QAEPAHQAHABH@Z 1003e880 f i input_handler.obj
 0001:0003d880       ??$_Emplace_reallocate@H@?$vector@HV?$allocator@H@std@@@std@@QAEPAHQAH$$QAH@Z 1003e880 f i input_handler.obj
 0001:0003d990       ?GetCurrentKeyboardState@InputHandler@INPUT@UTILS@@QAEXPAH@Z 1003e990 f   input_handler.obj
 0001:0003d9b0       ?GetKeyState@InputHandler@INPUT@UTILS@@QAEHH@Z 1003e9b0 f   input_handler.obj
 0001:0003d9c0       ?GetMouseInfo@InputHandler@INPUT@UTILS@@QAE?AUMouseInfo@23@XZ 1003e9c0 f   input_handler.obj
 0001:0003da40       ?Init@InputHandler@INPUT@UTILS@@QAEXXZ 1003ea40 f   input_handler.obj
 0001:0003da80       ?Update@InputHandler@INPUT@UTILS@@QAEXXZ 1003ea80 f   input_handler.obj
 0001:0003dab0       ?WndProcCallback@INPUT@UTILS@@YGJPAUHWND__@@IIJ@Z 1003eab0 f   input_handler.obj
 0001:0003dc10       ?_Change_array@?$vector@HV?$allocator@H@std@@@std@@AAEXQAHII@Z 1003ec10 f i input_handler.obj
 0001:0003dc70       ??6?$basic_ostream@DU?$char_traits@D@std@@@std@@QAEAAV01@PBX@Z 1003ec70 f i interfaces.obj
 0001:0003df10       ?FindInterface@INTERFACES@@YAPAXPBD0@Z 1003ef10 f   interfaces.obj
 0001:0003e240       ?InitInterfaces@INTERFACES@@YAXXZ 1003f240 f   interfaces.obj
 0001:0003f110       ?hex@std@@YAAAVios_base@1@AAV21@@Z 10040110 f i interfaces.obj
 0001:0003f130       ??0?$basic_fstream@DU?$char_traits@D@std@@@std@@QAE@XZ 10040130 f i logging.obj
 0001:0003f3e0       ?Log@UTILS@@YAXV?$basic_string@DU?$char_traits@D@std@@V?$allocator@D@2@@std@@@Z 100403e0 f   logging.obj
 0001:0003f570       ?open@?$basic_fstream@DU?$char_traits@D@std@@@std@@QAEXPBDHH@Z 10040570 f i logging.obj
 0001:0003f690       ?AngleVectors2D@MATH@@YAXMAAVVector2D@@@Z 10040690 f   math.obj
 0001:0003f6f0       ?AngleVectors@MATH@@YAXABVVector@@PAV2@11@Z 100406f0 f   math.obj
 0001:0003f880       ?CalcAngle2D@MATH@@YAMABVVector2D@@0@Z 10040880 f   math.obj
 0001:0003f8f0       ?NormalizeAngleTest@MATH@@YAXAAM@Z 100408f0 f   math.obj
 0001:0003f990       ?VectorAngles@MATH@@YAXABVVector@@AAV2@@Z 10040990 f   math.obj
 0001:0003faf0       ?VectorTransform@MATH@@YAXABVVector@@ABUmatrix3x4_t@@AAV2@@Z 10040af0 f   math.obj
 0001:0003fb90       ??$_Traits_equal@U?$char_traits@D@std@@@std@@YA_NQBDI0I@Z 10040b90 f i NetvarManager.obj
 0001:0003fc00       ?GetOffset@CNetvarManager@UTILS@@QAEIV?$basic_string@DU?$char_traits@D@std@@V?$allocator@D@2@@std@@0@Z 10040c00 f   NetvarManager.obj
 0001:0003fe90       ?Hook@CNetvarManager@UTILS@@QAEPAXV?$basic_string@DU?$char_traits@D@std@@V?$allocator@D@2@@std@@0P6AXPBVCRecvProxyData@SDK@@PAX2@Z@Z 10040e90 f   NetvarManager.obj
 0001:000401c0       ?RecursivelyFindOffset@CNetvarManager@UTILS@@AAEIPAURecvTable@SDK@@V?$basic_string@DU?$char_traits@D@std@@V?$allocator@D@2@@std@@1@Z 100411c0 f   NetvarManager.obj
 0001:000406e0       ?InitOffsets@OFFSETS@@YAXXZ 100416e0 f   offsets.obj
 0001:00042c50       ?assign@?$basic_string@DU?$char_traits@D@std@@V?$allocator@D@2@@std@@QAEAAV12@QBD@Z 10043c50 f i offsets.obj
 0001:00042c80       ?c_str@?$basic_string@DU?$char_traits@D@std@@V?$allocator@D@2@@std@@QBEPBDXZ 10043c80 f i offsets.obj
 0001:00042c90       ??1?$unique_ptr@$$BY0A@_WU?$default_delete@$$BY0A@_W@std@@@std@@QAE@XZ 10043c90 f i render.obj
 0001:00042ca0       ??1?$vector@UDrawCircleQueue@RenderQueue@RENDER@@V?$allocator@UDrawCircleQueue@RenderQueue@RENDER@@@std@@@std@@QAE@XZ 10043ca0 f i render.obj
 0001:00042d10       ?Clear@RenderQueue@RENDER@@QAEXXZ 10043d10 f   render.obj
 0001:00042db0       ?CreateF@RENDER@@YAIV?$basic_string@DU?$char_traits@D@std@@V?$allocator@D@2@@std@@HHHHH@Z 10043db0 f   render.obj
 0001:00042e70       ?Draw@RenderQueue@RENDER@@QAEXXZ 10043e70 f   render.obj
 0001:00042ee0       ?DrawCircle@RENDER@@YAXHHHHVCColor@@@Z 10043ee0 f   render.obj
 0001:00042f20       ?DrawEmptyRect@RENDER@@YAXHHHHVCColor@@E@Z 10043f20 f   render.obj
 0001:00042fb0       ?DrawF@RENDER@@YAXHHI_N0VCColor@@V?$basic_string@DU?$char_traits@D@std@@V?$allocator@D@2@@std@@@Z 10043fb0 f   render.obj
 0001:00043170       ?DrawFilledCircle@RENDER@@YAXHHHHVCColor@@@Z 10044170 f   render.obj
 0001:000433f0       ?DrawFilledRect@RENDER@@YAXHHHHVCColor@@@Z 100443f0 f   render.obj
 0001:00043420       ?DrawLine@RENDER@@YAXHHHHVCColor@@@Z 10044420 f   render.obj
 0001:00043450       ?GetTextSize@RENDER@@YA?AVVector2D@@IV?$basic_string@DU?$char_traits@D@std@@V?$allocator@D@2@@std@@@Z 10044450 f   render.obj
 0001:00043570       ?TexturedPolygon@RENDER@@YAXHV?$vector@UVertex_t@SDK@@V?$allocator@UVertex_t@SDK@@@std@@@std@@VCColor@@@Z 10044570 f   render.obj
 0001:000436b0       ?CanShoot@UTILS@@YA_N_N@Z  100446b0 f   utils.obj
 0001:00043810       ?FindPattern@UTILS@@YAIPBDPBE0@Z 10044810 f   utils.obj
 0001:000438a0       ?FindSignature@UTILS@@YAIPBD0@Z 100448a0 f   utils.obj
 0001:00043990       ?GetCurtime@UTILS@@YAMXZ   10044990 f   utils.obj
 0001:000439e0       ?GetHitgroupName@UTILS@@YAPBDH@Z 100449e0 f   utils.obj
 0001:00043a50       ?GetLBYRotatedYaw@UTILS@@YAMMM@Z 10044a50 f   utils.obj
 0001:00043ae0       ?GetLatency@UTILS@@YAMXZ   10044ae0 f   utils.obj
 0001:00043b20       ?GetPlayerName@UTILS@@YAPBDPAVCBaseEntity@SDK@@@Z 10044b20 f   utils.obj
 0001:00043b70       ?GetWeapon@UTILS@@YAPAVCBaseWeapon@SDK@@PAVCBaseEntity@3@@Z 10044b70 f   utils.obj
 0001:00043b90       ?IsPressingMovementKeys@UTILS@@YA_NPAVCUserCmd@SDK@@@Z 10044b90 f   utils.obj
 0001:00043bb0       ?IsWeaponGrenade@UTILS@@YA_NPAVCBaseWeapon@SDK@@@Z 10044bb0 f   utils.obj
 0001:00043be0       ?IsWeaponKnife@UTILS@@YA_NPAVCBaseWeapon@SDK@@@Z 10044be0 f   utils.obj
 0001:00043c20       ?IsWeaponSniper@UTILS@@YA_NPAVCBaseWeapon@SDK@@@Z 10044c20 f   utils.obj
 0001:00043c50       ?IsWeaponTaser@UTILS@@YA_NPAVCBaseWeapon@SDK@@@Z 10044c50 f   utils.obj
 0001:00043c70       ?RotateMovement@UTILS@@YAXPAVCUserCmd@SDK@@M@Z 10044c70 f   utils.obj
 0001:00043d10       ?TraceToEnd@UTILS@@YA?AVVector@@V2@0@Z 10044d10 f   utils.obj
 0001:00043e60       ?InitFonts@FONTS@@YAXXZ    10044e60 f   variables.obj
 0001:00044710       ?ShouldReloadFonts@FONTS@@YA_NXZ 10045710 f   variables.obj
 0001:00044760       ??0VMTHookManager@VMT@@QAE@XZ 10045760 f   vmt.obj
 0001:000447a0       ??1VMTHookManager@VMT@@QAE@XZ 100457a0 f   vmt.obj
 0001:00044840       ?Init@VMTHookManager@VMT@@QAEXPAX@Z 10045840 f   vmt.obj
 0001:000448b0       ?IsHooked@VMTHookManager@VMT@@QAE_NH@Z 100458b0 f   vmt.obj
 0001:000448f0       ?Restore@VMTHookManager@VMT@@QAEXXZ 100458f0 f   vmt.obj
 0001:00044970       ?_Buyheadnode@?$_Tree_comp_alloc@V?$_Tmap_traits@HPAXU?$less@H@std@@V?$allocator@U?$pair@$$CBHPAX@std@@@2@$0A@@std@@@std@@QAEPAU?$_Tree_node@U?$pair@$$CBHPAX@std@@PAX@2@XZ 10045970 f i vmt.obj
 0001:00044990       ?_Erase@?$_Tree@V?$_Tmap_traits@HPAXU?$less@H@std@@V?$allocator@U?$pair@$$CBHPAX@std@@@2@$0A@@std@@@std@@IAEXPAU?$_Tree_node@U?$pair@$$CBHPAX@std@@PAX@2@@Z 10045990 f i vmt.obj
 0001:000449d0       ?_Extract@?$_Tree_val@U?$_Tree_simple_types@U?$pair@$$CBHPAX@std@@@std@@@std@@QAEPAU?$_Tree_node@U?$pair@$$CBHPAX@std@@PAX@2@V?$_Tree_const_iterator@V?$_Tree_val@U?$_Tree_simple_types@U?$pair@$$CBHPAX@std@@@std@@@std@@@2@@Z 100459d0 f i vmt.obj
 0001:00044c40       ?clear@?$_Tree@V?$_Tmap_traits@HPAXU?$less@H@std@@V?$allocator@U?$pair@$$CBHPAX@std@@@2@$0A@@std@@@std@@QAEXXZ 10045c40 f i vmt.obj
 0001:00044cd0       ?erase@?$_Tree@V?$_Tmap_traits@HPAXU?$less@H@std@@V?$allocator@U?$pair@$$CBHPAX@std@@@2@$0A@@std@@@std@@QAE?AV?$_Tree_iterator@V?$_Tree_val@U?$_Tree_simple_types@U?$pair@$$CBHPAX@std@@@std@@@std@@@2@V?$_Tree_const_iterator@V?$_Tree_val@U?$_Tree_simple_types@U?$pair@$$CBHPAX@std@@@std@@@std@@@2@0@Z 10045cd0 f i vmt.obj
 0001:00044d3f       _K32GetModuleInformation@16 10045d3f f   kernel32:KERNEL32.dll
 0001:00044d45       ??0bad_alloc@std@@QAE@ABV01@@Z 10045d45 f i libcpmt:xthrow.obj
 0001:00044d60       ??0bad_alloc@std@@QAE@XZ   10045d60 f i libcpmt:xthrow.obj
 0001:00044d78       ??0length_error@std@@QAE@ABV01@@Z 10045d78 f i libcpmt:xthrow.obj
 0001:00044d93       ??0length_error@std@@QAE@PBD@Z 10045d93 f i libcpmt:xthrow.obj
 0001:00044db2       ??0out_of_range@std@@QAE@ABV01@@Z 10045db2 f i libcpmt:xthrow.obj
 0001:00044dcd       ??0out_of_range@std@@QAE@PBD@Z 10045dcd f i libcpmt:xthrow.obj
 0001:00044dec       ??_Glength_error@std@@UAEPAXI@Z 10045dec f i libcpmt:xthrow.obj
 0001:00044dec       ??_Ebad_alloc@std@@UAEPAXI@Z 10045dec f i libcpmt:xthrow.obj
 0001:00044dec       ??_Ebad_array_new_length@std@@UAEPAXI@Z 10045dec f i LIBCMT:throw_bad_alloc.obj
 0001:00044dec       ??_Gbad_exception@std@@UAEPAXI@Z 10045dec f i libvcruntime:frame.obj
 0001:00044dec       ??_Eout_of_range@std@@UAEPAXI@Z 10045dec f i libcpmt:xthrow.obj
 0001:00044dec       ??_Gbad_alloc@std@@UAEPAXI@Z 10045dec f i libcpmt:xthrow.obj
 0001:00044dec       ??_Gout_of_range@std@@UAEPAXI@Z 10045dec f i libcpmt:xthrow.obj
 0001:00044dec       ??_Elength_error@std@@UAEPAXI@Z 10045dec f i libcpmt:xthrow.obj
 0001:00044dec       ??_Gbad_array_new_length@std@@UAEPAXI@Z 10045dec f i LIBCMT:throw_bad_alloc.obj
 0001:00044dec       ??_Ebad_exception@std@@UAEPAXI@Z 10045dec f i libvcruntime:frame.obj
 0001:00044e19       ?__scrt_throw_std_bad_alloc@@YAXXZ 10045e19 f   LIBCMT:throw_bad_alloc.obj
 0001:00044e19       ?_Xbad_alloc@std@@YAXXZ    10045e19 f   libcpmt:xthrow.obj
 0001:00044e36       ?_Xlength_error@std@@YAXPBD@Z 10045e36 f   libcpmt:xthrow.obj
 0001:00044e56       ?_Xout_of_range@std@@YAXPBD@Z 10045e56 f   libcpmt:xthrow.obj
 0001:00044e76       ?_Random_device@std@@YAIXZ 10045e76 f   libcpmt:xrngdev.obj
 0001:00044e98       ??0_Init_locks@std@@QAE@XZ 10045e98 f   libcpmt:xlock.obj
 0001:00044ec5       ??0_Lockit@std@@QAE@H@Z    10045ec5 f   libcpmt:xlock.obj
 0001:00044ef6       ??1_Init_locks@std@@QAE@XZ 10045ef6 f   libcpmt:xlock.obj
 0001:00044f1d       ??1_Lockit@std@@QAE@XZ     10045f1d f   libcpmt:xlock.obj
 0001:00044f3c       ?uncaught_exception@std@@YA_NXZ 10045f3c f   libcpmt:uncaught_exception.obj
 0001:00044f41       __Getctype                 10045f41 f   libcpmt:_tolower.obj
 0001:00044fa9       __Tolower                  10045fa9 f   libcpmt:_tolower.obj
 0001:000450a7       __Toupper                  100460a7 f   libcpmt:_toupper.obj
 0001:000451a5       ??0_Locimp@locale@std@@AAE@_N@Z 100461a5 f i libcpmt:locale0.obj
 0001:000451e6       ??1_Fac_node@std@@QAE@XZ   100461e6 f i libcpmt:locale0.obj
 0001:00045245       ??1_Fac_tidy_reg_t@std@@QAE@XZ 10046245 f i libcpmt:locale0.obj
 0001:0004526c       ??1_Locimp@locale@std@@MAE@XZ 1004626c f i libcpmt:locale0.obj
 0001:000452c5       ??4?$_Yarn@D@std@@QAEAAV01@PBD@Z 100462c5 f i libcpmt:locale0.obj
 0001:00045319       ??_E_Locimp@locale@std@@MAEPAXI@Z 10046319 f i libcpmt:locale0.obj
 0001:00045319       ??_G_Locimp@locale@std@@MAEPAXI@Z 10046319 f i libcpmt:locale0.obj
 0001:0004533b       ?_Facet_Register@std@@YAXPAV_Facet_base@1@@Z 1004633b f   libcpmt:locale0.obj
 0001:00045367       ?_Getgloballocale@locale@std@@CAPAV_Locimp@12@XZ 10046367 f   libcpmt:locale0.obj
 0001:0004536d       ?_Init@locale@std@@CAPAV_Locimp@12@_N@Z 1004636d f   libcpmt:locale0.obj
 0001:000453fd       ?_Locimp_dtor@_Locimp@locale@std@@CAXPAV123@@Z 100463fd f   libcpmt:locale0.obj
 0001:00045474       ?_Locinfo_ctor@_Locinfo@std@@SAXPAV12@PBD@Z 10046474 f   libcpmt:locale0.obj
 0001:000454bf       ?_Locinfo_dtor@_Locinfo@std@@SAXPAV12@@Z 100464bf f   libcpmt:locale0.obj
 0001:000454d9       ?_New_Locimp@_Locimp@locale@std@@CAPAV123@_N@Z 100464d9 f   libcpmt:locale0.obj
 0001:000454fc       ?_Setgloballocale@locale@std@@CAXPAX@Z 100464fc f   libcpmt:locale0.obj
 0001:00045524       __Deletegloballocale       10046524 f   libcpmt:locale0.obj
 0001:00045589       ?_Execute_once@std@@YAHAAUonce_flag@1@P6GHPAX1PAPAX@Z1@Z 10046589 f   libcpmt:xonce.obj
 0001:000455a1       ?_Syserror_map@std@@YAPBDH@Z 100465a1 f   libcpmt:syserror.obj
 0001:000455c6       ?_Addstd@ios_base@std@@SAXPAV12@@Z 100465c6 f   libcpmt:ios.obj
 0001:00045612       ?_Callfns@ios_base@std@@AAEXW4event@12@@Z 10046612 f i libcpmt:ios.obj
 0001:00045645       ?_Ios_base_dtor@ios_base@std@@CAXPAV12@@Z 10046645 f   libcpmt:ios.obj
 0001:00045685       ?_Tidy@ios_base@std@@AAEXXZ 10046685 f i libcpmt:ios.obj
 0001:000456cd       ??$_Xfiopen@D@std@@YAPAU_iobuf@@PBDHH@Z 100466cd f i libcpmt:fiopen.obj
 0001:0004576d       ?_Fiopen@std@@YAPAU_iobuf@@PBDHH@Z 1004676d f   libcpmt:fiopen.obj
 0001:00045776       ?_Xfsopen@std@@YAPAU_iobuf@@PBDHH@Z 10046776 f   libcpmt:fiopen.obj
 0001:00045793       __Getcvt                   10046793 f   libcpmt:xwctomb.obj
 0001:00045806       ?setprecision@std@@YA?AU?$_Smanip@_J@1@_J@Z 10046806 f   libcpmt:iomanip.obj
 0001:00045834       __Xtime_get_ticks          10046834 f   libcpmt:xtime.obj
 0001:0004585b       ??0?$basic_ostream@DU?$char_traits@D@std@@@std@@QAE@PAV?$basic_streambuf@DU?$char_traits@D@std@@@1@_N@Z 1004685b f i libcpmt:cout.obj
 0001:000458c2       ??0?$basic_streambuf@DU?$char_traits@D@std@@@std@@IAE@XZ 100468c2 f i libcpmt:cout.obj
 0001:00045909       ??0_Init_cout@std@@QAE@XZ  10046909 f i libcpmt:cout.obj
 0001:00045962       ??_D?$basic_ostream@DU?$char_traits@D@std@@@std@@QAEXXZ 10046962 f i libcpmt:cout.obj
 0001:000459c0       ?_Init@ios_base@std@@IAEXXZ 100469c0 f i libcpmt:cout.obj
 0001:00045a26       ?init@?$basic_ios@DU?$char_traits@D@std@@@std@@IAEXPAV?$basic_streambuf@DU?$char_traits@D@std@@@2@_N@Z 10046a26 f i libcpmt:cout.obj
 0001:00045a6f       __Mtxdst                   10046a6f f   libcpmt:xmtx.obj
 0001:00045a7d       __Mtxinit                  10046a7d f   libcpmt:xmtx.obj
 0001:00045a94       __Mtxlock                  10046a94 f   libcpmt:xmtx.obj
 0001:00045aa2       __Mtxunlock                10046aa2 f   libcpmt:xmtx.obj
 0001:00045ab0       ___crtLCMapStringA         10046ab0 f   libcpmt:StlLCMapStringA.obj
 0001:00045c85       __freea_crt                10046c85 f i libcpmt:StlLCMapStringA.obj
 0001:00045ca3       ??1_Init_atexit@@QAE@XZ    10046ca3 f i libcpmt:iosptrs.obj
 0001:00045d06       ?_Atexit@@YAXP6AXXZ@Z      10046d06 f   libcpmt:iosptrs.obj
 0001:000460de       ___crtGetSystemTimePreciseAsFileTime 100470de f   libcpmt:winapisupp.obj
 0001:00046108       ___crtInitOnceExecuteOnce  10047108 f   libcpmt:winapisupp.obj
 0001:00046196       ___crtInitializeCriticalSectionEx 10047196 f   libcpmt:winapisupp.obj
 0001:000461cf       _GetTableIndexFromLocaleName 100471cf f   libcpmt:winapinls.obj
 0001:0004621d       ___crtDownlevelLocaleNameToLCID 1004721d f   libcpmt:winapinls.obj
 0001:00046247       ___crtLCMapStringEx        10047247 f   libcpmt:winapinls.obj
 0001:0004629e       ___wcsnicmp_ascii          1004729e f   libcpmt:winapinls.obj
 0001:00046310       ??0_com_error@@QAE@ABV0@@Z 10047310 f i comsuppw:comraise.obj
 0001:00046350       ??0_com_error@@QAE@JPAUIErrorInfo@@_N@Z 10047350 f i comsuppw:comraise.obj
 0001:000463a0       ??1_com_error@@UAE@XZ      100473a0 f i comsuppw:comraise.obj
 0001:000463e0       ??_E_com_error@@UAEPAXI@Z  100473e0 f i comsuppw:comraise.obj
 0001:000463e0       ??_G_com_error@@UAEPAXI@Z  100473e0 f i comsuppw:comraise.obj
 0001:00046430       ?_com_raise_error@@YGXJPAUIErrorInfo@@@Z 10047430 f   comsuppw:comraise.obj
 0001:00046455       _URLDownloadToFileA@20     10047455 f   urlmon:urlmon.dll
 0001:0004645b       ??2@YAPAXI@Z               1004745b f   LIBCMT:new_scalar.obj
 0001:0004648b       ??3@YAXPAXI@Z              1004748b f   LIBCMT:delete_scalar_size.obj
 0001:000464c0       ??$__crt_fast_encode_pointer@PAX@@YAPAXQAX@Z 100474c0 f i libvcruntime:winapi_downlevel.obj
 0001:000464c0       ??$__crt_fast_encode_pointer@PAP6AXXZ@@YAPAP6AXXZQAP6AXXZ@Z 100474c0 f i LIBCMT:utility.obj
 0001:000464c0       ??$__crt_fast_encode_pointer@P6GHPAU_RTL_CONDITION_VARIABLE@@PAU_RTL_CRITICAL_SECTION@@K@Z@@YAP6GHPAU_RTL_CONDITION_VARIABLE@@PAU_RTL_CRITICAL_SECTION@@K@ZQ6GH01K@Z@Z 100474c0 f i LIBCMT:thread_safe_statics.obj
 0001:000464c0       ??$__crt_fast_encode_pointer@P6GXPAU_RTL_CONDITION_VARIABLE@@@Z@@YAP6GXPAU_RTL_CONDITION_VARIABLE@@@ZQ6GX0@Z@Z 100474c0 f i LIBCMT:thread_safe_statics.obj
 0001:000465e8       __Init_thread_abort        100475e8 f   LIBCMT:thread_safe_statics.obj
 0001:0004660c       __Init_thread_footer       1004760c f   LIBCMT:thread_safe_statics.obj
 0001:00046656       __Init_thread_header       10047656 f   LIBCMT:thread_safe_statics.obj
 0001:000466a8       __Init_thread_notify       100476a8 f   LIBCMT:thread_safe_statics.obj
 0001:000466ea       __Init_thread_wait         100476ea f   LIBCMT:thread_safe_statics.obj
 0001:0004674a       @__security_check_cookie@4 1004774a f   LIBCMT:secchk.obj
 0001:00046760       __chkstk                   10047760 f   LIBCMT:chkstk.obj
 0001:00046760       __alloca_probe             10047760 f   LIBCMT:chkstk.obj
 0001:0004678d       ??_Gtype_info@@UAEPAXI@Z   1004778d f i LIBCMT:std_type_info_static.obj
 0001:0004678d       ??_Etype_info@@UAEPAXI@Z   1004778d f i LIBCMT:std_type_info_static.obj
 0001:000467b0       ??_L@YGXPAXIIP6EX0@Z1@Z    100477b0 f   LIBCMT:ehvecctr.obj
 0001:00046824       ??_M@YGXPAXIIP6EX0@Z@Z     10047824 f   LIBCMT:ehvecdtr.obj
 0001:000468a9       ?__ArrayUnwind@@YGXPAXIIP6EX0@Z@Z 100478a9 f   LIBCMT:ehvecdtr.obj
 0001:00046966       ___scrt_acquire_startup_lock 10047966 f   LIBCMT:utility.obj
 0001:00046998       ___scrt_dllmain_after_initialize_c 10047998 f   LIBCMT:utility.obj
 0001:000469c3       ___scrt_dllmain_before_initialize_c 100479c3 f   LIBCMT:utility.obj
 0001:000469d1       ___scrt_dllmain_crt_thread_attach 100479d1 f   LIBCMT:utility.obj
 0001:000469f0       ___scrt_dllmain_crt_thread_detach 100479f0 f   LIBCMT:utility.obj
 0001:000469fd       ___scrt_dllmain_exception_filter 100479fd f   LIBCMT:utility.obj
 0001:00046a31       ___scrt_dllmain_uninitialize_c 10047a31 f   LIBCMT:utility.obj
 0001:00046a54       ___scrt_dllmain_uninitialize_critical 10047a54 f   LIBCMT:utility.obj
 0001:00046a61       ___scrt_initialize_crt     10047a61 f   LIBCMT:utility.obj
 0001:00046a9a       ___scrt_initialize_onexit_tables 10047a9a f   LIBCMT:utility.obj
 0001:00046b3f       ___scrt_is_nonwritable_in_current_image 10047b3f f   LIBCMT:utility.obj
 0001:00046bd3       ___scrt_release_startup_lock 10047bd3 f   LIBCMT:utility.obj
 0001:00046bf0       ___scrt_uninitialize_crt   10047bf0 f   LIBCMT:utility.obj
 0001:00046c18       __onexit                   10047c18 f   LIBCMT:utility.obj
 0001:00046c53       _atexit                    10047c53 f   LIBCMT:utility.obj
 0001:00046c68       ??_V@YAXPAX@Z              10047c68 f   LIBCMT:delete_array.obj
 0001:00046c6d       ___raise_securityfailure   10047c6d f   LIBCMT:gs_report.obj
 0001:00046c95       ___report_gsfailure        10047c95 f   LIBCMT:gs_report.obj
 0001:00046d8e       ___report_rangecheckfailure 10047d8e f   LIBCMT:gs_report.obj
 0001:00046d9a       ___report_securityfailure  10047d9a f   LIBCMT:gs_report.obj
 0001:00046e70       __alldiv                   10047e70 f   LIBCMT:lldiv.obj
 0001:00046f20       __alldvrm                  10047f20 f   LIBCMT:lldvrm.obj
 0001:00047000       __allmul                   10048000 f   LIBCMT:llmul.obj
 0001:00047034       ??_U@YAPAXI@Z              10048034 f   LIBCMT:new_array.obj
 0001:0004735d       __DllMainCRTStartup@12     1004835d f   LIBCMT:dll_dllmain.obj
 0001:00047380       __EH_epilog3               10048380 f   LIBCMT:ehprolg3.obj
 0001:00047395       __EH_epilog3_GS            10048395 f   LIBCMT:ehprolg3.obj
 0001:000473a6       __EH_prolog3               100483a6 f   LIBCMT:ehprolg3.obj
 0001:000473da       __EH_prolog3_GS            100483da f   LIBCMT:ehprolg3.obj
 0001:00047411       __EH_prolog3_catch         10048411 f   LIBCMT:ehprolg3.obj
 0001:00047450       __aulldvrm                 10048450 f   LIBCMT:ulldvrm.obj
 0001:000474f0       __alloca_probe_16          100484f0 f   LIBCMT:alloca16.obj
 0001:00047506       __alloca_probe_8           10048506     LIBCMT:alloca16.obj
 0001:00047520       __aulldiv                  10048520 f   LIBCMT:ulldiv.obj
 0001:00047588       ??0bad_array_new_length@std@@QAE@ABV01@@Z 10048588 f i LIBCMT:throw_bad_alloc.obj
 0001:000475a3       ??0bad_array_new_length@std@@QAE@XZ 100485a3 f i LIBCMT:throw_bad_alloc.obj
 0001:000475bb       ?__scrt_throw_std_bad_array_new_length@@YAXXZ 100485bb f   LIBCMT:throw_bad_alloc.obj
 0001:000475d8       ??3@YAXPAX@Z               100485d8 f   LIBCMT:delete_scalar.obj
 0001:000475dd       ___scrt_fastfail           100485dd f   LIBCMT:utility_desktop.obj
 0001:000476f7       __crt_debugger_hook        100486f7 f   LIBCMT:utility_desktop.obj
 0001:00047700       __SEH_prolog4              10048700 f   LIBCMT:sehprolg4.obj
 0001:00047746       __SEH_epilog4              10048746 f   LIBCMT:sehprolg4.obj
 0001:0004775b       ___isa_available_init      1004875b f   LIBCMT:cpu_disp.obj
 0001:000478f2       __get_startup_argv_mode    100488f2 f   LIBCMT:argv_mode.obj
 0001:000478f6       ___scrt_is_ucrt_dll_in_use 100488f6 f   LIBCMT:ucrt_detection.obj
 0001:0004794f       ___security_init_cookie    1004894f f   LIBCMT:gs_support.obj
 0001:0004799a       ?__scrt_initialize_type_info@@YAXXZ 1004899a f   LIBCMT:tncleanup.obj
 0001:000479a6       ?__scrt_uninitialize_type_info@@YAXXZ 100489a6 f   LIBCMT:tncleanup.obj
 0001:000479b2       ___local_stdio_scanf_options 100489b2 f i LIBCMT:default_local_stdio_options.obj
 0001:000479b8       ___scrt_initialize_default_local_stdio_options 100489b8 f   LIBCMT:default_local_stdio_options.obj
 0001:000479d5       ___scrt_get_dyn_tls_init_callback 100489d5 f   LIBCMT:dyn_tls_init.obj
 0001:000479db       __RTC_Initialize           100489db f   LIBCMT:initsect.obj
 0001:00047a07       __RTC_Terminate            10048a07 f   LIBCMT:initsect.obj
 0001:00047a33       __get_purecall_handler     10048a33 f   libvcruntime:purevirt.obj
 0001:00047a48       __purecall                 10048a48 f   libvcruntime:purevirt.obj
 0001:00047a64       __CxxThrowException@8      10048a64 f   libvcruntime:throw.obj
 0001:00047ad1       ?GetRangeOfTrysToCheck@__FrameHandler3@@SA?AU?$pair@Viterator@TryBlockMap@__FrameHandler3@@V123@@std@@AAVTryBlockMap@1@HH@Z 10048ad1 f   libvcruntime:trnsctrl.obj
 0001:00047b53       ?_CallCatchBlock2@@YAPAXPAUEHRegistrationNode@@PBU_s_FuncInfo@@PAXHK@Z 10048b53 f   libvcruntime:trnsctrl.obj
 0001:00047bb1       ?_CallSETranslator@@YAHPAUEHExceptionRecord@@PAUEHRegistrationNode@@PAX2PBU_s_FuncInfo@@H1@Z 10048bb1 f   libvcruntime:trnsctrl.obj
 0001:00047c8c       ?_JumpToContinuation@@YGXPAXPAUEHRegistrationNode@@@Z 10048c8c f   libvcruntime:trnsctrl.obj
 0001:00047cbc       ?_UnwindNestedFrames@@YGXPAUEHRegistrationNode@@PAUEHExceptionRecord@@@Z 10048cbc f   libvcruntime:trnsctrl.obj
 0001:00047d0f       __CatchGuardHandler        10048d0f f   libvcruntime:trnsctrl.obj
 0001:00047d40       __CreateFrameInfo          10048d40 f   libvcruntime:trnsctrl.obj
 0001:00047d64       __FindAndUnlinkFrame       10048d64 f   libvcruntime:trnsctrl.obj
 0001:00047da9       __TranslatorGuardHandler   10048da9 f   libvcruntime:trnsctrl.obj
 0001:00047e46       ___CxxFrameHandler3        10048e46 f   libvcruntime:trnsctrl.obj
 0001:00047e80       _memcpy                    10048e80 f   libvcruntime:memcpy.obj
 0001:00048400       _memmove                   10049400 f   libvcruntime:memmove.obj
 0001:00048974       ___std_exception_copy      10049974 f   libvcruntime:std_exception.obj
 0001:000489d7       ___std_exception_destroy   100499d7 f   libvcruntime:std_exception.obj
 0001:000489f6       ___DestructExceptionObject 100499f6 f   libvcruntime:ehhelpers.obj
 0001:00048a96       ?_CallMemberFunction0@@YGXQAX0@Z 10049a96 f i libvcruntime:ehhelpers.obj
 0001:00048aa3       __IsExceptionObjectToBeDestroyed 10049aa3 f   libvcruntime:ehhelpers.obj
 0001:00048ac9       ___AdjustPointer           10049ac9 f   libvcruntime:ehhelpers.obj
 0001:00048aee       ___FrameUnwindFilter       10049aee f   libvcruntime:ehhelpers.obj
 0001:00048b33       ___std_terminate           10049b33 f   libvcruntime:ehhelpers.obj
 0001:00048b40       _memset                    10049b40 f   libvcruntime:memset.obj
 0001:00048ca0       _strstr                    10049ca0 f   libvcruntime:strstr.obj
 0001:00048f03       ___uncaught_exception      10049f03 f   libvcruntime:uncaught_exception.obj
 0001:00048f20       _memchr                    10049f20 f   libvcruntime:memchr.obj
 0001:00048fcd       _memcmp                    10049fcd f   libvcruntime:memcmp.obj
 0001:00049fc0       __except_handler4          1004afc0 f   libvcruntime:chandler4.obj
 0001:0004a117       ___vcrt_initialize         1004b117 f   libvcruntime:initialization.obj
 0001:0004a140       ___vcrt_thread_attach      1004b140 f   libvcruntime:initialization.obj
 0001:0004a14b       ___vcrt_thread_detach      1004b14b f   libvcruntime:initialization.obj
 0001:0004a156       ___vcrt_uninitialize       1004b156 f   libvcruntime:initialization.obj
 0001:0004a175       ___vcrt_uninitialize_critical 1004b175 f   libvcruntime:initialization.obj
 0001:0004a17d       ___std_type_info_compare   1004b17d f   libvcruntime:std_type_info.obj
 0001:0004a1b9       ___std_type_info_destroy_list 1004b1b9 f   libvcruntime:std_type_info.obj
 0001:0004a1dc       ___vcrt_initialize_pure_virtual_call_handler 1004b1dc f   libvcruntime:purevirt_data.obj
 0001:0004a1e7       ___vcrt_freefls@4          1004b1e7 f   libvcruntime:per_thread_data.obj
 0001:0004a203       ___vcrt_freeptd            1004b203 f   libvcruntime:per_thread_data.obj
 0001:0004a239       ___vcrt_getptd             1004b239 f   libvcruntime:per_thread_data.obj
 0001:0004a247       ___vcrt_getptd_noexit      1004b247 f   libvcruntime:per_thread_data.obj
 0001:0004a2d9       ___vcrt_getptd_noinit      1004b2d9 f   libvcruntime:per_thread_data.obj
 0001:0004a310       ___vcrt_initialize_ptd     1004b310 f   libvcruntime:per_thread_data.obj
 0001:0004a343       ___vcrt_uninitialize_ptd   1004b343 f   libvcruntime:per_thread_data.obj
 0001:0004aa55       ??$TypeMatchHelper@V__FrameHandler3@@@@YAHPBU_s_HandlerType@@PBU_s_CatchableType@@PBU_s_ThrowInfo@@@Z 1004ba55 f i libvcruntime:frame.obj
 0001:0004aae3       ??$__InternalCxxFrameHandler@V__FrameHandler3@@@@YA?AW4_EXCEPTION_DISPOSITION@@PAUEHExceptionRecord@@PAUEHRegistrationNode@@PAU_CONTEXT@@PAXPBU_s_FuncInfo@@H1E@Z 1004bae3 f i libvcruntime:frame.obj
 0001:0004abe5       ??0bad_exception@std@@QAE@ABV01@@Z 1004bbe5 f i libvcruntime:frame.obj
 0001:0004ac00       ??0bad_exception@std@@QAE@XZ 1004bc00 f i libvcruntime:frame.obj
 0001:0004ac18       ??8type_info@@QBE_NABV0@@Z 1004bc18 f i libvcruntime:frame.obj
 0001:0004ae7f       ?FrameUnwindToEmptyState@__FrameHandler3@@SAXPAUEHRegistrationNode@@PAXPBU_s_FuncInfo@@@Z 1004be7f f   libvcruntime:frame.obj
 0001:0004ae97       ?FrameUnwindToState@__FrameHandler3@@SAXPAUEHRegistrationNode@@PAXPBU_s_FuncInfo@@H@Z 1004be97 f   libvcruntime:frame.obj
 0001:0004b019       ?_CallMemberFunction1@@YGXQAX00@Z 1004c019 f i libvcruntime:frame.obj
 0001:0004b029       ?_CallMemberFunction2@@YGXQAX00H@Z 1004c029 f i libvcruntime:frame.obj
 0001:0004b03c       ?getESTypes@__FrameHandler3@@SAPBU_s_ESTypeList@@PBU_s_FuncInfo@@@Z 1004c03c f i libvcruntime:frame.obj
 0001:0004b050       __CallSettingFrame@12      1004c050 f   libvcruntime:lowhelpr.obj
 0001:0004b077       __NLG_Return               1004c077     libvcruntime:lowhelpr.obj
 0001:0004b09c       ___except_validate_context_record 1004c09c f   libvcruntime:jbcxrval.obj
 0001:0004b0cc       ___except_validate_jump_buffer 1004c0cc f   libvcruntime:jbcxrval.obj
 0001:0004b100       _strchr                    1004c100 f   libvcruntime:strchr.obj
 0001:0004b16e       ___from_strstr_to_strchr   1004c16e     libvcruntime:strchr.obj
 0001:0004b230       __local_unwind4            1004c230 f   libvcruntime:exsup4.obj
 0001:0004b308       __seh_longjmp_unwind4@4    1004c308 f   libvcruntime:exsup4.obj
 0001:0004b330       @_EH4_CallFilterFunc@8     1004c330 f   libvcruntime:exsup4.obj
 0001:0004b348       @_EH4_TransferToHandler@8  1004c348 f   libvcruntime:exsup4.obj
 0001:0004b364       @_EH4_GlobalUnwind2@8      1004c364 f   libvcruntime:exsup4.obj
 0001:0004b380       @_EH4_LocalUnwind@16       1004c380 f   libvcruntime:exsup4.obj
 0001:0004b397       ___vcrt_initialize_locks   1004c397 f   libvcruntime:locks.obj
 0001:0004b3d3       ___vcrt_uninitialize_locks 1004c3d3 f   libvcruntime:locks.obj
 0001:0004b535       ___vcrt_FlsAlloc           1004c535 f   libvcruntime:winapi_downlevel.obj
 0001:0004b570       ___vcrt_FlsFree            1004c570 f   libvcruntime:winapi_downlevel.obj
 0001:0004b5ab       ___vcrt_FlsGetValue        1004c5ab f   libvcruntime:winapi_downlevel.obj
 0001:0004b5e6       ___vcrt_FlsSetValue        1004c5e6 f   libvcruntime:winapi_downlevel.obj
 0001:0004b624       ___vcrt_InitializeCriticalSectionEx 1004c624 f   libvcruntime:winapi_downlevel.obj
 0001:0004b66b       ___vcrt_initialize_winapi_thunks 1004c66b f   libvcruntime:winapi_downlevel.obj
 0001:0004b694       ___vcrt_uninitialize_winapi_thunks 1004c694 f   libvcruntime:winapi_downlevel.obj
 0001:0004b6c6       _unexpected                1004c6c6 f   libvcruntime:unexpected.obj
 0001:0004b6e3       ?GetCurrentState@__FrameHandler3@@SAHPAUEHRegistrationNode@@PAXPBU_s_FuncInfo@@@Z 1004c6e3 f   libvcruntime:ehstate.obj
 0001:0004b700       ?SetState@__FrameHandler3@@SAXPAUEHRegistrationNode@@PBU_s_FuncInfo@@H@Z 1004c700 f   libvcruntime:ehstate.obj
 0001:0004b710       __global_unwind2           1004c710 f   libvcruntime:exsup.obj
 0001:0004b776       __local_unwind2            1004c776 f   libvcruntime:exsup.obj
 0001:0004b7fa       __abnormal_termination     1004c7fa f   libvcruntime:exsup.obj
 0001:0004b820       __NLG_Notify1              1004c820 f   libvcruntime:exsup.obj
 0001:0004b82c       __NLG_Notify               1004c82c f   libvcruntime:exsup.obj
 0001:0004b843       __NLG_Dispatch             1004c843     libvcruntime:exsup.obj
 0001:0004b843       __NLG_Dispatch2            1004c843     libvcruntime:exsup.obj
 0001:0004b84b       __NLG_Call                 1004c84b f   libvcruntime:exsup.obj
 0001:0004b84d       __NLG_Return2              1004c84d     libvcruntime:exsup.obj
 0001:0004b84e       ___acrt_call_reportfault   1004c84e f   libucrt:invalid_parameter.obj
 0001:0004b987       ___acrt_initialize_invalid_parameter_handler 1004c987 f   libucrt:invalid_parameter.obj
 0001:0004b996       __invalid_parameter        1004c996 f   libucrt:invalid_parameter.obj
 0001:0004b9fa       __invalid_parameter_noinfo 1004c9fa f   libucrt:invalid_parameter.obj
 0001:0004ba0a       __invalid_parameter_noinfo_noreturn 1004ca0a f   libucrt:invalid_parameter.obj
 0001:0004ba27       __invoke_watson            1004ca27 f   libucrt:invalid_parameter.obj
 0001:0004ba5b       _roundf                    1004ca5b f   libucrt:roundf.obj
 0001:0004bab0       __libm_sse2_cos_precise    1004cab0 f   libucrt:cos_sse2_precise.obj
 0001:0004bc70       __libm_sse2_sin_precise    1004cc70 f   libucrt:sin_sse2_precise.obj
 0001:0004be40       __libm_sse2_sqrt_precise   1004ce40 f   libucrt:sqrt_sse2_precise.obj
 0001:0004bf40       _floor                     1004cf40 f   libucrt:floor_pentium4.obj
 0001:0004bf80       __floor_pentium4           1004cf80 f   libucrt:floor_pentium4.obj
 0001:0004c03d       __fdlog                    1004d03d f   libucrt:log2f.obj
 0001:0004c197       _log2f                     1004d197 f   libucrt:log2f.obj
 0001:0004c1b0       _ceil                      1004d1b0 f   libucrt:ceil_pentium4.obj
 0001:0004c1f0       __ceil_pentium4            1004d1f0 f   libucrt:ceil_pentium4.obj
 0001:0004c2d0       __CIatan2                  1004d2d0 f   libucrt:87ctriga.obj
 0001:0004c2e0       __libm_sse2_asin_precise   1004d2e0 f   libucrt:asin_sse2_precise.obj
 0001:0004c824       _fmaxf                     1004d824 f   libucrt:fmaxf.obj
 0001:0004c880       _fminf                     1004d880 f   libucrt:fminf.obj
 0001:0004c8e0       __libm_sse2_pow_precise    1004d8e0 f   libucrt:pow_sse2_precise.obj
 0001:0004d430       ___acrt_errno_from_os_error 1004e430 f   libucrt:errno.obj
 0001:0004d473       ___acrt_errno_map_os_error 1004e473 f   libucrt:errno.obj
 0001:0004d496       ___doserrno                1004e496 f   libucrt:errno.obj
 0001:0004d4a9       __errno                    1004e4a9 f   libucrt:errno.obj
 0001:0004d88b       ??$count@D@formatting_buffer@__crt_stdio_output@@QBEIXZ 1004e88b f i libucrt:output.obj
 0001:0004d8a3       ??$ensure_buffer_is_big_enough@D@formatting_buffer@__crt_stdio_output@@QAE_NI@Z 1004e8a3 f i libucrt:output.obj
 0001:0004d920       ??$is_wide_character_specifier@D@__crt_stdio_output@@YA_N_KDW4length_modifier@0@@Z 1004e920 f i libucrt:output.obj
 0001:0004d951       ??$scratch_data@D@formatting_buffer@__crt_stdio_output@@QAEPADXZ 1004e951 f i libucrt:output.obj
 0001:0004d96f       ??$type_case_integer_parse_into_buffer@I@?$output_processor@DV?$string_output_adapter@D@__crt_stdio_output@@V?$standard_base@DV?$string_output_adapter@D@__crt_stdio_output@@@2@@__crt_stdio_output@@AAEXII_N@Z 1004e96f f i libucrt:output.obj
 0001:0004d96f       ??$type_case_integer_parse_into_buffer@I@?$output_processor@DV?$string_output_adapter@D@__crt_stdio_output@@V?$format_validation_base@DV?$string_output_adapter@D@__crt_stdio_output@@@2@@__crt_stdio_output@@AAEXII_N@Z 1004e96f f i libucrt:output.obj
 0001:0004d96f       ??$type_case_integer_parse_into_buffer@I@?$output_processor@DV?$stream_output_adapter@D@__crt_stdio_output@@V?$standard_base@DV?$stream_output_adapter@D@__crt_stdio_output@@@2@@__crt_stdio_output@@AAEXII_N@Z 1004e96f f i libucrt:output.obj
 0001:0004d9e2       ??$type_case_integer_parse_into_buffer@_K@?$output_processor@DV?$stream_output_adapter@D@__crt_stdio_output@@V?$standard_base@DV?$stream_output_adapter@D@__crt_stdio_output@@@2@@__crt_stdio_output@@AAEX_KI_N@Z 1004e9e2 f i libucrt:output.obj
 0001:0004d9e2       ??$type_case_integer_parse_into_buffer@_K@?$output_processor@DV?$string_output_adapter@D@__crt_stdio_output@@V?$format_validation_base@DV?$string_output_adapter@D@__crt_stdio_output@@@2@@__crt_stdio_output@@AAEX_KI_N@Z 1004e9e2 f i libucrt:output.obj
 0001:0004d9e2       ??$type_case_integer_parse_into_buffer@_K@?$output_processor@DV?$string_output_adapter@D@__crt_stdio_output@@V?$standard_base@DV?$string_output_adapter@D@__crt_stdio_output@@@2@@__crt_stdio_output@@AAEX_KI_N@Z 1004e9e2 f i libucrt:output.obj
 0001:0004da70       ??$write_multiple_characters@V?$stream_output_adapter@D@__crt_stdio_output@@D@__crt_stdio_output@@YAXABV?$stream_output_adapter@D@0@DHQAH@Z 1004ea70 f i libucrt:output.obj
 0001:0004daab       ??$write_multiple_characters@V?$string_output_adapter@D@__crt_stdio_output@@D@__crt_stdio_output@@YAXABV?$string_output_adapter@D@0@DHQAH@Z 1004eaab f i libucrt:output.obj
 0001:0004dad7       ??0?$common_data@D@__crt_stdio_output@@IAE@XZ 1004ead7 f i libucrt:output.obj
 0001:0004db1c       ??0?$output_adapter_data@DV?$string_output_adapter@D@__crt_stdio_output@@@__crt_stdio_output@@IAE@ABV?$string_output_adapter@D@1@_KQBDQAU__crt_locale_pointers@@QAD@Z 1004eb1c f i libucrt:output.obj
 0001:0004db1c       ??0?$output_adapter_data@DV?$stream_output_adapter@D@__crt_stdio_output@@@__crt_stdio_output@@IAE@ABV?$stream_output_adapter@D@1@_KQBDQAU__crt_locale_pointers@@QAD@Z 1004eb1c f i libucrt:output.obj
 0001:0004db58       ??0_LocaleUpdate@@QAE@QAU__crt_locale_pointers@@@Z 1004eb58 f i libucrt:output.obj
 0001:0004dbdb       ??1_LocaleUpdate@@QAE@XZ   1004ebdb f i libucrt:output.obj
 0001:0004dbeb       ??1formatting_buffer@__crt_stdio_output@@QAE@XZ 1004ebeb f i libucrt:output.obj
 0001:0004dc05       ??4?$__crt_unique_heap_ptr@DU__crt_internal_free_policy@@@@QAEAAV0@$$QAV0@@Z 1004ec05 f i libucrt:output.obj
 0001:0004dce8       ?crop_zeroes@__crt_stdio_output@@YAXPADQAU__crt_locale_pointers@@@Z 1004ece8 f i libucrt:output.obj
 0001:0004dd48       ?find_next_state@?$output_processor@DV?$stream_output_adapter@D@__crt_stdio_output@@V?$standard_base@DV?$stream_output_adapter@D@__crt_stdio_output@@@2@@__crt_stdio_output@@ABE?AW4state@2@DW432@@Z 1004ed48 f i libucrt:output.obj
 0001:0004dd48       ?find_next_state@?$output_processor@DV?$string_output_adapter@D@__crt_stdio_output@@V?$standard_base@DV?$string_output_adapter@D@__crt_stdio_output@@@2@@__crt_stdio_output@@ABE?AW4state@2@DW432@@Z 1004ed48 f i libucrt:output.obj
 0001:0004dd85       ?find_next_state@?$output_processor@DV?$string_output_adapter@D@__crt_stdio_output@@V?$format_validation_base@DV?$string_output_adapter@D@__crt_stdio_output@@@2@@__crt_stdio_output@@ABE?AW4state@2@DW432@@Z 1004ed85 f i libucrt:output.obj
 0001:0004ddc5       ?force_decimal_point@__crt_stdio_output@@YAXPADQAU__crt_locale_pointers@@@Z 1004edc5 f i libucrt:output.obj
 0001:0004de21       ?parse_int_from_format_string@?$output_processor@DV?$string_output_adapter@D@__crt_stdio_output@@V?$format_validation_base@DV?$string_output_adapter@D@__crt_stdio_output@@@2@@__crt_stdio_output@@AAE_NQAH@Z 1004ee21 f i libucrt:output.obj
 0001:0004de21       ?parse_int_from_format_string@?$output_processor@DV?$string_output_adapter@D@__crt_stdio_output@@V?$standard_base@DV?$string_output_adapter@D@__crt_stdio_output@@@2@@__crt_stdio_output@@AAE_NQAH@Z 1004ee21 f i libucrt:output.obj
 0001:0004de21       ?parse_int_from_format_string@?$output_processor@DV?$stream_output_adapter@D@__crt_stdio_output@@V?$standard_base@DV?$stream_output_adapter@D@__crt_stdio_output@@@2@@__crt_stdio_output@@AAE_NQAH@Z 1004ee21 f i libucrt:output.obj
 0001:0004de95       ?process@?$output_processor@DV?$stream_output_adapter@D@__crt_stdio_output@@V?$standard_base@DV?$stream_output_adapter@D@__crt_stdio_output@@@2@@__crt_stdio_output@@QAEHXZ 1004ee95 f i libucrt:output.obj
 0001:0004dfa9       ?process@?$output_processor@DV?$string_output_adapter@D@__crt_stdio_output@@V?$format_validation_base@DV?$string_output_adapter@D@__crt_stdio_output@@@2@@__crt_stdio_output@@QAEHXZ 1004efa9 f i libucrt:output.obj
 0001:0004e0cd       ?process@?$output_processor@DV?$string_output_adapter@D@__crt_stdio_output@@V?$standard_base@DV?$string_output_adapter@D@__crt_stdio_output@@@2@@__crt_stdio_output@@QAEHXZ 1004f0cd f i libucrt:output.obj
 0001:0004e1e1       ?state_case_flag@?$output_processor@DV?$string_output_adapter@D@__crt_stdio_output@@V?$standard_base@DV?$string_output_adapter@D@__crt_stdio_output@@@2@@__crt_stdio_output@@AAE_NXZ 1004f1e1 f i libucrt:output.obj
 0001:0004e1e1       ?state_case_flag@?$output_processor@DV?$stream_output_adapter@D@__crt_stdio_output@@V?$standard_base@DV?$stream_output_adapter@D@__crt_stdio_output@@@2@@__crt_stdio_output@@AAE_NXZ 1004f1e1 f i libucrt:output.obj
 0001:0004e1e1       ?state_case_flag@?$output_processor@DV?$string_output_adapter@D@__crt_stdio_output@@V?$format_validation_base@DV?$string_output_adapter@D@__crt_stdio_output@@@2@@__crt_stdio_output@@AAE_NXZ 1004f1e1 f i libucrt:output.obj
 0001:0004e21e       ?state_case_normal@?$output_processor@DV?$stream_output_adapter@D@__crt_stdio_output@@V?$standard_base@DV?$stream_output_adapter@D@__crt_stdio_output@@@2@@__crt_stdio_output@@AAE_NXZ 1004f21e f i libucrt:output.obj
 0001:0004e23d       ?state_case_normal@?$output_processor@DV?$string_output_adapter@D@__crt_stdio_output@@V?$format_validation_base@DV?$string_output_adapter@D@__crt_stdio_output@@@2@@__crt_stdio_output@@AAE_NXZ 1004f23d f i libucrt:output.obj
 0001:0004e23d       ?state_case_normal@?$output_processor@DV?$string_output_adapter@D@__crt_stdio_output@@V?$standard_base@DV?$string_output_adapter@D@__crt_stdio_output@@@2@@__crt_stdio_output@@AAE_NXZ 1004f23d f i libucrt:output.obj
 0001:0004e25c       ?state_case_normal_common@?$output_processor@DV?$stream_output_adapter@D@__crt_stdio_output@@V?$standard_base@DV?$stream_output_adapter@D@__crt_stdio_output@@@2@@__crt_stdio_output@@AAE_NXZ 1004f25c f i libucrt:output.obj
 0001:0004e296       ?state_case_normal_common@?$output_processor@DV?$string_output_adapter@D@__crt_stdio_output@@V?$standard_base@DV?$string_output_adapter@D@__crt_stdio_output@@@2@@__crt_stdio_output@@AAE_NXZ 1004f296 f i libucrt:output.obj
 0001:0004e296       ?state_case_normal_common@?$output_processor@DV?$string_output_adapter@D@__crt_stdio_output@@V?$format_validation_base@DV?$string_output_adapter@D@__crt_stdio_output@@@2@@__crt_stdio_output@@AAE_NXZ 1004f296 f i libucrt:output.obj
 0001:0004e2c0       ?state_case_normal_tchar@?$output_processor@DV?$stream_output_adapter@D@__crt_stdio_output@@V?$standard_base@DV?$stream_output_adapter@D@__crt_stdio_output@@@2@@__crt_stdio_output@@AAE_ND@Z 1004f2c0 f i libucrt:output.obj
 0001:0004e32d       ?state_case_normal_tchar@?$output_processor@DV?$string_output_adapter@D@__crt_stdio_output@@V?$standard_base@DV?$string_output_adapter@D@__crt_stdio_output@@@2@@__crt_stdio_output@@AAE_ND@Z 1004f32d f i libucrt:output.obj
 0001:0004e32d       ?state_case_normal_tchar@?$output_processor@DV?$string_output_adapter@D@__crt_stdio_output@@V?$format_validation_base@DV?$string_output_adapter@D@__crt_stdio_output@@@2@@__crt_stdio_output@@AAE_ND@Z 1004f32d f i libucrt:output.obj
 0001:0004e391       ?state_case_precision@?$output_processor@DV?$stream_output_adapter@D@__crt_stdio_output@@V?$standard_base@DV?$stream_output_adapter@D@__crt_stdio_output@@@2@@__crt_stdio_output@@AAE_NXZ 1004f391 f i libucrt:output.obj
 0001:0004e391       ?state_case_precision@?$output_processor@DV?$string_output_adapter@D@__crt_stdio_output@@V?$standard_base@DV?$string_output_adapter@D@__crt_stdio_output@@@2@@__crt_stdio_output@@AAE_NXZ 1004f391 f i libucrt:output.obj
 0001:0004e391       ?state_case_precision@?$output_processor@DV?$string_output_adapter@D@__crt_stdio_output@@V?$format_validation_base@DV?$string_output_adapter@D@__crt_stdio_output@@@2@@__crt_stdio_output@@AAE_NXZ 1004f391 f i libucrt:output.obj
 0001:0004e3b7       ?state_case_size@?$output_processor@DV?$stream_output_adapter@D@__crt_stdio_output@@V?$standard_base@DV?$stream_output_adapter@D@__crt_stdio_output@@@2@@__crt_stdio_output@@AAE_NXZ 1004f3b7 f i libucrt:output.obj
 0001:0004e505       ?state_case_size@?$output_processor@DV?$string_output_adapter@D@__crt_stdio_output@@V?$standard_base@DV?$string_output_adapter@D@__crt_stdio_output@@@2@@__crt_stdio_output@@AAE_NXZ 1004f505 f i libucrt:output.obj
 0001:0004e505       ?state_case_size@?$output_processor@DV?$string_output_adapter@D@__crt_stdio_output@@V?$format_validation_base@DV?$string_output_adapter@D@__crt_stdio_output@@@2@@__crt_stdio_output@@AAE_NXZ 1004f505 f i libucrt:output.obj
 0001:0004e653       ?state_case_type@?$output_processor@DV?$stream_output_adapter@D@__crt_stdio_output@@V?$standard_base@DV?$stream_output_adapter@D@__crt_stdio_output@@@2@@__crt_stdio_output@@AAE_NXZ 1004f653 f i libucrt:output.obj
 0001:0004e885       ?state_case_type@?$output_processor@DV?$string_output_adapter@D@__crt_stdio_output@@V?$format_validation_base@DV?$string_output_adapter@D@__crt_stdio_output@@@2@@__crt_stdio_output@@AAE_NXZ 1004f885 f i libucrt:output.obj
 0001:0004e885       ?state_case_type@?$output_processor@DV?$string_output_adapter@D@__crt_stdio_output@@V?$standard_base@DV?$string_output_adapter@D@__crt_stdio_output@@@2@@__crt_stdio_output@@AAE_NXZ 1004f885 f i libucrt:output.obj
 0001:0004eab7       ?state_case_width@?$output_processor@DV?$string_output_adapter@D@__crt_stdio_output@@V?$standard_base@DV?$string_output_adapter@D@__crt_stdio_output@@@2@@__crt_stdio_output@@AAE_NXZ 1004fab7 f i libucrt:output.obj
 0001:0004eab7       ?state_case_width@?$output_processor@DV?$stream_output_adapter@D@__crt_stdio_output@@V?$standard_base@DV?$stream_output_adapter@D@__crt_stdio_output@@@2@@__crt_stdio_output@@AAE_NXZ 1004fab7 f i libucrt:output.obj
 0001:0004eab7       ?state_case_width@?$output_processor@DV?$string_output_adapter@D@__crt_stdio_output@@V?$format_validation_base@DV?$string_output_adapter@D@__crt_stdio_output@@@2@@__crt_stdio_output@@AAE_NXZ 1004fab7 f i libucrt:output.obj
 0001:0004eae2       ?to_integer_size@__crt_stdio_output@@YAIW4length_modifier@1@@Z 1004fae2 f i libucrt:output.obj
 0001:0004eb36       ?type_case_Z@?$output_processor@DV?$string_output_adapter@D@__crt_stdio_output@@V?$format_validation_base@DV?$string_output_adapter@D@__crt_stdio_output@@@2@@__crt_stdio_output@@AAE_NXZ 1004fb36 f i libucrt:output.obj
 0001:0004eb36       ?type_case_Z@?$output_processor@DV?$stream_output_adapter@D@__crt_stdio_output@@V?$standard_base@DV?$stream_output_adapter@D@__crt_stdio_output@@@2@@__crt_stdio_output@@AAE_NXZ 1004fb36 f i libucrt:output.obj
 0001:0004eb36       ?type_case_Z@?$output_processor@DV?$string_output_adapter@D@__crt_stdio_output@@V?$standard_base@DV?$string_output_adapter@D@__crt_stdio_output@@@2@@__crt_stdio_output@@AAE_NXZ 1004fb36 f i libucrt:output.obj
 0001:0004eb90       ?type_case_a@?$output_processor@DV?$stream_output_adapter@D@__crt_stdio_output@@V?$standard_base@DV?$stream_output_adapter@D@__crt_stdio_output@@@2@@__crt_stdio_output@@AAE_NXZ 1004fb90 f i libucrt:output.obj
 0001:0004eb90       ?type_case_a@?$output_processor@DV?$string_output_adapter@D@__crt_stdio_output@@V?$standard_base@DV?$string_output_adapter@D@__crt_stdio_output@@@2@@__crt_stdio_output@@AAE_NXZ 1004fb90 f i libucrt:output.obj
 0001:0004eb90       ?type_case_a@?$output_processor@DV?$string_output_adapter@D@__crt_stdio_output@@V?$format_validation_base@DV?$string_output_adapter@D@__crt_stdio_output@@@2@@__crt_stdio_output@@AAE_NXZ 1004fb90 f i libucrt:output.obj
 0001:0004ecdf       ?type_case_c_tchar@?$output_processor@DV?$stream_output_adapter@D@__crt_stdio_output@@V?$standard_base@DV?$stream_output_adapter@D@__crt_stdio_output@@@2@@__crt_stdio_output@@AAE_ND@Z 1004fcdf f i libucrt:output.obj
 0001:0004ecdf       ?type_case_c_tchar@?$output_processor@DV?$string_output_adapter@D@__crt_stdio_output@@V?$format_validation_base@DV?$string_output_adapter@D@__crt_stdio_output@@@2@@__crt_stdio_output@@AAE_ND@Z 1004fcdf f i libucrt:output.obj
 0001:0004ecdf       ?type_case_c_tchar@?$output_processor@DV?$string_output_adapter@D@__crt_stdio_output@@V?$standard_base@DV?$string_output_adapter@D@__crt_stdio_output@@@2@@__crt_stdio_output@@AAE_ND@Z 1004fcdf f i libucrt:output.obj
 0001:0004ed6f       ?type_case_integer@?$output_processor@DV?$stream_output_adapter@D@__crt_stdio_output@@V?$standard_base@DV?$stream_output_adapter@D@__crt_stdio_output@@@2@@__crt_stdio_output@@AAE_NI_N@Z 1004fd6f f i libucrt:output.obj
 0001:0004ed6f       ?type_case_integer@?$output_processor@DV?$string_output_adapter@D@__crt_stdio_output@@V?$format_validation_base@DV?$string_output_adapter@D@__crt_stdio_output@@@2@@__crt_stdio_output@@AAE_NI_N@Z 1004fd6f f i libucrt:output.obj
 0001:0004ed6f       ?type_case_integer@?$output_processor@DV?$string_output_adapter@D@__crt_stdio_output@@V?$standard_base@DV?$string_output_adapter@D@__crt_stdio_output@@@2@@__crt_stdio_output@@AAE_NI_N@Z 1004fd6f f i libucrt:output.obj
 0001:0004eec0       ?type_case_n@?$output_processor@DV?$string_output_adapter@D@__crt_stdio_output@@V?$standard_base@DV?$string_output_adapter@D@__crt_stdio_output@@@2@@__crt_stdio_output@@AAE_NXZ 1004fec0 f i libucrt:output.obj
 0001:0004eec0       ?type_case_n@?$output_processor@DV?$string_output_adapter@D@__crt_stdio_output@@V?$format_validation_base@DV?$string_output_adapter@D@__crt_stdio_output@@@2@@__crt_stdio_output@@AAE_NXZ 1004fec0 f i libucrt:output.obj
 0001:0004eec0       ?type_case_n@?$output_processor@DV?$stream_output_adapter@D@__crt_stdio_output@@V?$standard_base@DV?$stream_output_adapter@D@__crt_stdio_output@@@2@@__crt_stdio_output@@AAE_NXZ 1004fec0 f i libucrt:output.obj
 0001:0004ef34       ?type_case_o@?$output_processor@DV?$stream_output_adapter@D@__crt_stdio_output@@V?$standard_base@DV?$stream_output_adapter@D@__crt_stdio_output@@@2@@__crt_stdio_output@@AAE_NXZ 1004ff34 f i libucrt:output.obj
 0001:0004ef34       ?type_case_o@?$output_processor@DV?$string_output_adapter@D@__crt_stdio_output@@V?$format_validation_base@DV?$string_output_adapter@D@__crt_stdio_output@@@2@@__crt_stdio_output@@AAE_NXZ 1004ff34 f i libucrt:output.obj
 0001:0004ef34       ?type_case_o@?$output_processor@DV?$string_output_adapter@D@__crt_stdio_output@@V?$standard_base@DV?$string_output_adapter@D@__crt_stdio_output@@@2@@__crt_stdio_output@@AAE_NXZ 1004ff34 f i libucrt:output.obj
 0001:0004ef53       ?type_case_p@?$output_processor@DV?$stream_output_adapter@D@__crt_stdio_output@@V?$standard_base@DV?$stream_output_adapter@D@__crt_stdio_output@@@2@@__crt_stdio_output@@AAE_NXZ 1004ff53 f i libucrt:output.obj
 0001:0004ef53       ?type_case_p@?$output_processor@DV?$string_output_adapter@D@__crt_stdio_output@@V?$format_validation_base@DV?$string_output_adapter@D@__crt_stdio_output@@@2@@__crt_stdio_output@@AAE_NXZ 1004ff53 f i libucrt:output.obj
 0001:0004ef53       ?type_case_p@?$output_processor@DV?$string_output_adapter@D@__crt_stdio_output@@V?$standard_base@DV?$string_output_adapter@D@__crt_stdio_output@@@2@@__crt_stdio_output@@AAE_NXZ 1004ff53 f i libucrt:output.obj
 0001:0004ef6b       ?type_case_s@?$output_processor@DV?$stream_output_adapter@D@__crt_stdio_output@@V?$standard_base@DV?$stream_output_adapter@D@__crt_stdio_output@@@2@@__crt_stdio_output@@AAE_NXZ 1004ff6b f i libucrt:output.obj
 0001:0004ef6b       ?type_case_s@?$output_processor@DV?$string_output_adapter@D@__crt_stdio_output@@V?$standard_base@DV?$string_output_adapter@D@__crt_stdio_output@@@2@@__crt_stdio_output@@AAE_NXZ 1004ff6b f i libucrt:output.obj
 0001:0004ef6b       ?type_case_s@?$output_processor@DV?$string_output_adapter@D@__crt_stdio_output@@V?$format_validation_base@DV?$string_output_adapter@D@__crt_stdio_output@@@2@@__crt_stdio_output@@AAE_NXZ 1004ff6b f i libucrt:output.obj
 0001:0004efdc       ?validate@?$stream_output_adapter@D@__crt_stdio_output@@QBE_NXZ 1004ffdc f i libucrt:output.obj
 0001:0004effd       ?validate@?$c_string_character_source@_W@__crt_strtox@@QBE_NXZ 1004fffd f i libucrt:strtox.obj
 0001:0004effd       ?validate@?$c_string_character_source@D@__crt_strtox@@QBE_NXZ 1004fffd f i libucrt:strtox.obj
 0001:0004effd       ?validate@?$string_output_adapter@D@__crt_stdio_output@@QBE_NXZ 1004fffd f i libucrt:output.obj
 0001:0004f018       ?validate_and_update_state_at_end_of_format_string@?$format_validation_base@DV?$string_output_adapter@D@__crt_stdio_output@@@__crt_stdio_output@@IBE_NXZ 10050018 f i libucrt:output.obj
 0001:0004f03a       ?validate_stream_is_ansi_if_required@?$__acrt_stdio_char_traits@D@@SA_NQAU_iobuf@@@Z 1005003a f i libucrt:output.obj
 0001:0004f0c1       ?write_character@?$string_output_adapter@D@__crt_stdio_output@@QBE_NDQAH@Z 100500c1 f i libucrt:output.obj
 0001:0004f103       ?write_character_without_count_update@?$stream_output_adapter@D@__crt_stdio_output@@QBE_ND@Z 10050103 f i libucrt:output.obj
 0001:0004f139       ?write_stored_string_tchar@?$output_processor@DV?$stream_output_adapter@D@__crt_stdio_output@@V?$standard_base@DV?$stream_output_adapter@D@__crt_stdio_output@@@2@@__crt_stdio_output@@AAE_ND@Z 10050139 f i libucrt:output.obj
 0001:0004f1e0       ?write_stored_string_tchar@?$output_processor@DV?$string_output_adapter@D@__crt_stdio_output@@V?$standard_base@DV?$string_output_adapter@D@__crt_stdio_output@@@2@@__crt_stdio_output@@AAE_ND@Z 100501e0 f i libucrt:output.obj
 0001:0004f1e0       ?write_stored_string_tchar@?$output_processor@DV?$string_output_adapter@D@__crt_stdio_output@@V?$format_validation_base@DV?$string_output_adapter@D@__crt_stdio_output@@@2@@__crt_stdio_output@@AAE_ND@Z 100501e0 f i libucrt:output.obj
 0001:0004f287       ?write_string@?$stream_output_adapter@D@__crt_stdio_output@@QBEXQBDHQAHAAV__crt_deferred_errno_cache@@@Z 10050287 f i libucrt:output.obj
 0001:0004f2b3       ?write_string@?$string_output_adapter@D@__crt_stdio_output@@QBEXQBDHQAHAAV__crt_deferred_errno_cache@@@Z 100502b3 f i libucrt:output.obj
 0001:0004f31a       ?write_string_impl@?$output_adapter_common@DV?$stream_output_adapter@D@__crt_stdio_output@@@__crt_stdio_output@@IBEXQBDHQAHAAV__crt_deferred_errno_cache@@@Z 1005031a f i libucrt:output.obj
 0001:0004f3b8       ___acrt_locale_get_ctype_array_value 100503b8 f i libucrt:output.obj
 0001:0004f3da       ___stdio_common_vfprintf   100503da f   libucrt:output.obj
 0001:0004f45d       ___stdio_common_vsprintf   1005045d f   libucrt:output.obj
 0001:0004f481       ___stdio_common_vsprintf_s 10050481 f   libucrt:output.obj
 0001:0004f4a5       _malloc                    100504a5 f   libucrt:malloc.obj
 0001:0004f4b0       _free                      100504b0 f   libucrt:free.obj
 0001:0004f4cb       _terminate                 100504cb f   libucrt:terminate.obj
 0001:0004f507       ___acrt_initialize_stdio   10050507 f   libucrt:_file.obj
 0001:0004f5cf       ___acrt_iob_func           100505cf f   libucrt:_file.obj
 0001:0004f5df       ___acrt_uninitialize_stdio 100505df f   libucrt:_file.obj
 0001:0004f62b       __get_stream_buffer_pointers 1005062b f   libucrt:_file.obj
 0001:0004f671       __lock_file                10050671 f   libucrt:_file.obj
 0001:0004f685       __unlock_file              10050685 f   libucrt:_file.obj
 0001:0004f699       __fclose_nolock            10050699 f   libucrt:fclose.obj
 0001:0004f710       _fclose                    10050710 f   libucrt:fclose.obj
 0001:0004f9d1       ___acrt_stdio_flush_nolock 100509d1 f   libucrt:fflush.obj
 0001:0004fa36       __fflush_nolock            10050a36 f   libucrt:fflush.obj
 0001:0004fa7e       __flushall                 10050a7e f   libucrt:fflush.obj
 0001:0004fa87       _fflush                    10050a87 f   libucrt:fflush.obj
 0001:0004fadc       __fgetc_nolock             10050adc f   libucrt:fgetc.obj
 0001:0004fb18       _fgetc                     10050b18 f   libucrt:fgetc.obj
 0001:0004fc20       _fgetpos                   10050c20 f   libucrt:fgetpos.obj
 0001:0004fc7b       __fputc_nolock             10050c7b f   libucrt:fputc.obj
 0001:0004fca4       _fputc                     10050ca4 f   libucrt:fputc.obj
 0001:0004fdae       __fread_nolock_s           10050dae f   libucrt:fread.obj
 0001:0004ff94       _fread                     10050f94 f   libucrt:fread.obj
 0001:0004ffb1       _fread_s                   10050fb1 f   libucrt:fread.obj
 0001:000500cf       _fsetpos                   100510cf f   libucrt:fsetpos.obj
 0001:0005010a       ?LongLongSub@@YAJ_J0PA_J@Z 1005110a f i libucrt:fseek.obj
 0001:000503c6       __fseeki64                 100513c6 f   libucrt:fseek.obj
 0001:000503e1       _fseek                     100513e1 f   libucrt:fseek.obj
 0001:0005049a       __fwrite_nolock            1005149a f   libucrt:fwrite.obj
 0001:0005061b       _fwrite                    1005161b f   libucrt:fwrite.obj
 0001:000507a6       _setvbuf                   100517a6 f   libucrt:setvbuf.obj
 0001:00050828       __ungetc_nolock            10051828 f   libucrt:ungetc.obj
 0001:00050922       _ungetc                    10051922 f   libucrt:ungetc.obj
 0001:000509a0       __CIfmod                   100519a0 f   libucrt:87fmod_impl.obj
 0001:000509b0       __fFMOD                    100519b0 f   libucrt:87fmod_impl.obj
 0001:000509be       ??$is_overflow_condition@K@__crt_strtox@@YA_NIK@Z 100519be f i libucrt:strtox.obj
 0001:000509ef       ??$make_c_string_character_source@DPAPAD@__crt_strtox@@YA?AV?$c_string_character_source@D@0@QBDQAPAD@Z 100519ef f i libucrt:strtox.obj
 0001:00050a0a       ??$parse_integer@KV?$c_string_character_source@D@__crt_strtox@@@__crt_strtox@@YAKQAU__crt_locale_pointers@@V?$c_string_character_source@D@0@H_N@Z 10051a0a f i libucrt:strtox.obj
 0001:00050c2f       ??$parse_integer@KV?$c_string_character_source@_W@__crt_strtox@@@__crt_strtox@@YAKQAU__crt_locale_pointers@@V?$c_string_character_source@_W@0@H_N@Z 10051c2f f i libucrt:strtox.obj
 0001:00051237       ?unget@?$c_string_character_source@D@__crt_strtox@@QAEXD@Z 10052237 f i libucrt:strtox.obj
 0001:00051260       ?unget@?$c_string_character_source@_W@__crt_strtox@@QAEX_W@Z 10052260 f i libucrt:strtox.obj
 0001:0005128e       __ischartype_l             1005228e f i libucrt:strtox.obj
 0001:000512e2       _strtol                    100522e2 f   libucrt:strtox.obj
 0001:0005130c       _strtoul                   1005230c f   libucrt:strtox.obj
 0001:000513e8       ??$__acrt_mbs_to_wcs_cp@U__crt_win32_buffer_internal_dynamic_resizing@@@@YAHQBDAAV?$__crt_win32_buffer@_WU__crt_win32_buffer_internal_dynamic_resizing@@@@I@Z 100523e8 f i libucrt:unlink.obj
 0001:00051405       ?__acrt_get_utf8_acp_compatibility_codepage@@YAIXZ 10052405 f i libucrt:unlink.obj
 0001:00051444       ?_deallocate@?$__crt_win32_buffer@_WU__crt_win32_buffer_internal_dynamic_resizing@@@@AAEXXZ 10052444 f i libucrt:unlink.obj
 0001:00051444       ?_deallocate@?$__crt_win32_buffer@DU__crt_win32_buffer_internal_dynamic_resizing@@@@AAEXXZ 10052444 f i libucrt:argv_wildcards.obj
 0001:0005145e       ?allocate@?$__crt_win32_buffer@_WU__crt_win32_buffer_internal_dynamic_resizing@@@@QAEHI@Z 1005245e f i libucrt:unlink.obj
 0001:0005149d       ?allocate@__crt_win32_buffer_internal_dynamic_resizing@@SAHQAPAXIABV__crt_win32_buffer_empty_debug_info@@@Z 1005249d f i libucrt:unlink.obj
 0001:000514bc       _remove                    100524bc f   libucrt:unlink.obj
 0001:0005162e       _freopen_s                 1005262e f   libucrt:freopen.obj
 0001:0005164e       __tolower_l                1005264e f   libucrt:tolower_toupper.obj
 0001:00051752       _tolower                   10052752 f   libucrt:tolower_toupper.obj
 0001:00051790       _strcspn                   10052790 f   libucrt:strcspn.obj
 0001:000517d6       _calloc                    100527d6 f   libucrt:calloc.obj
 0001:000517e1       ??$assemble_floating_point_snan@N@__crt_strtox@@YAX_NAAN@Z 100527e1 f i libucrt:atof.obj
 0001:00051802       ??$assemble_floating_point_value_t@M@__crt_strtox@@YA?AW4SLD_STATUS@@_NH_KAAM@Z 10052802 f i libucrt:atof.obj
 0001:00051832       ??$assemble_floating_point_value_t@N@__crt_strtox@@YA?AW4SLD_STATUS@@_NH_KAAN@Z 10052832 f i libucrt:atof.obj
 0001:000518d8       ??$convert_decimal_string_to_floating_type@N@__crt_strtox@@YA?AW4SLD_STATUS@@ABUfloating_point_string@0@AAN@Z 100528d8 f i libucrt:atof.obj
 0001:000518f9       ??$convert_hexadecimal_string_to_floating_type@N@__crt_strtox@@YA?AW4SLD_STATUS@@ABUfloating_point_string@0@AAN@Z 100528f9 f i libucrt:atof.obj
 0001:0005191a       ??$parse_floating_point@V?$c_string_character_source@D@__crt_strtox@@N@__crt_strtox@@YA?AW4SLD_STATUS@@QAU__crt_locale_pointers@@V?$c_string_character_source@D@0@QAN@Z 1005291a f i libucrt:atof.obj
 0001:0005198e       ??$parse_floating_point_from_source@V?$c_string_character_source@D@__crt_strtox@@@__crt_strtox@@YA?AW4floating_point_parse_result@0@QAU__crt_locale_pointers@@AAV?$c_string_character_source@D@0@AAUfloating_point_string@0@@Z 1005298e f i libucrt:atof.obj
 0001:00051d77       ??$parse_floating_point_possible_infinity@DV?$c_string_character_source@D@__crt_strtox@@PBD@__crt_strtox@@YA?AW4floating_point_parse_result@0@AADAAV?$c_string_character_source@D@0@PBD@Z 10052d77 f i libucrt:atof.obj
 0001:00051e18       ??$parse_floating_point_possible_nan@DV?$c_string_character_source@D@__crt_strtox@@PBD@__crt_strtox@@YA?AW4floating_point_parse_result@0@AADAAV?$c_string_character_source@D@0@PBD@Z 10052e18 f i libucrt:atof.obj
 0001:00051f27       ??$parse_floating_point_possible_nan_is_ind@DV?$c_string_character_source@D@__crt_strtox@@@__crt_strtox@@YA_NAADAAV?$c_string_character_source@D@0@@Z 10052f27 f i libucrt:atof.obj
 0001:00051f63       ??$parse_floating_point_possible_nan_is_snan@DV?$c_string_character_source@D@__crt_strtox@@@__crt_strtox@@YA_NAADAAV?$c_string_character_source@D@0@@Z 10052f63 f i libucrt:atof.obj
 0001:00051f9f       ??$parse_floating_point_write_result@N@__crt_strtox@@YA?AW4SLD_STATUS@@W4floating_point_parse_result@0@ABUfloating_point_string@0@QAN@Z 10052f9f f i libucrt:atof.obj
 0001:000520e9       ?as_double@floating_point_value@__crt_strtox@@QBEAANXZ 100530e9 f i libucrt:atof.obj
 0001:0005210e       ?as_float@floating_point_value@__crt_strtox@@QBEAAMXZ 1005310e f i libucrt:atof.obj
 0001:00052133       ?assemble_floating_point_infinity@__crt_strtox@@YAX_NABVfloating_point_value@1@@Z 10053133 f i libucrt:atof.obj
 0001:00052173       ?assemble_floating_point_value@__crt_strtox@@YA?AW4SLD_STATUS@@_KH_N1ABVfloating_point_value@1@@Z 10053173 f i libucrt:atof.obj
 0001:000524bc       ?assemble_floating_point_value_from_big_integer@__crt_strtox@@YA?AW4SLD_STATUS@@ABUbig_integer@1@I_N1ABVfloating_point_value@1@@Z 100534bc f i libucrt:atof.obj
 0001:00052650       ?assemble_floating_point_zero@__crt_strtox@@YAX_NABVfloating_point_value@1@@Z 10053650 f i libucrt:atof.obj
 0001:00052685       ?convert_decimal_string_to_floating_type_common@__crt_strtox@@YA?AW4SLD_STATUS@@ABUfloating_point_string@1@ABVfloating_point_value@1@@Z 10053685 f i libucrt:atof.obj
 0001:000543c4       ?convert_hexadecimal_string_to_floating_type_common@__crt_strtox@@YA?AW4SLD_STATUS@@ABUfloating_point_string@1@ABVfloating_point_value@1@@Z 100553c4 f i libucrt:atof.obj
 0001:0005446a       ?denormal_mantissa_mask@floating_point_value@__crt_strtox@@QBE_KXZ 1005546a f i libucrt:atof.obj
 0001:00054490       ?divide@__crt_strtox@@YA_KAAUbig_integer@1@ABU21@@Z 10055490 f i libucrt:atof.obj
 0001:00054928       ?normal_mantissa_mask@floating_point_value@__crt_strtox@@QBE_KXZ 10055928 f i libucrt:atof.obj
 0001:0005493f       _atof                      1005593f f   libucrt:atof.obj
 0001:00054952       _frexp                     10055952 f   libucrt:frexp.obj
 0001:00054a4c       _localeconv                10055a4c f   libucrt:localeconv.obj
 0001:00054d03       __localtime64              10055d03 f   libucrt:localtime.obj
 0001:00054df1       ??$__acrt_wcs_to_mbs_cp@U__crt_win32_buffer_no_resizing@@@@YAHQB_WAAV?$__crt_win32_buffer@DU__crt_win32_buffer_no_resizing@@@@I@Z 10055df1 f i libucrt:strftime.obj
 0001:00054e0e       ?allocate@?$__crt_win32_buffer@DU__crt_win32_buffer_no_resizing@@@@QAEHI@Z 10055e0e f i libucrt:strftime.obj
 0001:00054e35       ?set_to_nullptr@?$__crt_win32_buffer@DU__crt_win32_buffer_no_resizing@@@@QAEXXZ 10055e35 f i libucrt:strftime.obj
 0001:00054e49       __Strftime_l               10055e49 f   libucrt:strftime.obj
 0001:00054f46       _strftime                  10055f46 f   libucrt:strftime.obj
 0001:00054fdd       __fd_int                   10055fdd f   libucrt:_test.obj
 0001:000550aa       __fdtest                   100560aa f   libucrt:_test.obj
 0001:000550f8       __fperrraise               100560f8 f   libucrt:_test.obj
 0001:000552bc       __mbstowcs_s_l             100562bc f   libucrt:mbstowcs.obj
 0001:0005539c       _mbstowcs_s                1005639c f   libucrt:mbstowcs.obj
 0001:000553bc       _rand_s                    100563bc f   libucrt:rand_s.obj
 0001:00055404       ___acrt_initialize_locks   10056404 f   libucrt:locks.obj
 0001:00055445       ___acrt_lock               10056445 f   libucrt:locks.obj
 0001:0005545c       ___acrt_uninitialize_locks 1005645c f   libucrt:locks.obj
 0001:0005548d       ___acrt_unlock             1005648d f   libucrt:locks.obj
 0001:000554a4       __lock_locales             100564a4 f   libucrt:locks.obj
 0001:000554b2       __unlock_locales           100564b2 f   libucrt:locks.obj
 0001:000554bb       ___pctype_func             100564bb f   libucrt:ctype.obj
 0001:000554df       __islower_l                100564df f i libucrt:_ctype.obj
 0001:00055515       __isupper_l                10056515 f i libucrt:_ctype.obj
 0001:0005554b       _islower                   1005654b f i libucrt:_ctype.obj
 0001:0005557c       _isupper                   1005657c f i libucrt:_ctype.obj
 0001:000555ad       __wcsdup                   100565ad f   libucrt:wcsdup.obj
 0001:0005560c       ____lc_codepage_func       1005660c f   libucrt:initctype.obj
 0001:00055631       ____lc_locale_name_func    10056631 f   libucrt:initctype.obj
 0001:00055658       ____mb_cur_max_func        10056658 f   libucrt:initctype.obj
 0001:0005567d       ___acrt_locale_initialize_ctype 1005667d f   libucrt:initctype.obj
 0001:00055d35       _setlocale                 10056d35 f   libucrt:setlocale.obj
 0001:00055e24       __fsopen                   10056e24 f   libucrt:fopen.obj
 0001:00055e2f       ___strncnt                 10056e2f f   libucrt:strncnt.obj
 0001:00055e50       __CIpow                    10056e50 f   libucrt:pow_impl.obj
 0001:00055e8b       __CIpow_default            10056e8b f   libucrt:pow_impl.obj
 0001:00055ea4       __pow_default              10056ea4     libucrt:pow_impl.obj
 0001:00056099       _abort                     10057099 f   libucrt:abort.obj
 0001:000560dd       _wcscpy_s                  100570dd f   libucrt:wcscpy_s.obj
 0001:00056141       _strnlen                   10057141 f   libucrt:strnlen.obj
 0001:00056263       _wcsnlen                   10057263 f   libucrt:strnlen.obj
 0001:00056413       ??$__crt_time_is_leap_year@H@@YA_NH@Z 10057413 f i libucrt:wcsftime.obj
 0001:000574ed       __Wcsftime_l               100584ed f   libucrt:wcsftime.obj
 0001:00057670       ___acrt_initialize_new_handler 10058670 f   libucrt:new_handler.obj
 0001:0005767f       __callnewh                 1005867f f   libucrt:new_handler.obj
 0001:000576ac       __query_new_handler        100586ac f   libucrt:new_handler.obj
 0001:00057708       __seh_filter_dll           10058708 f   libucrt:exception_filter.obj
 0001:00057728       __seh_filter_exe           10058728 f   libucrt:exception_filter.obj
 0001:00057af6       ___acrt_initialize_thread_local_exit_callback 10058af6 f   libucrt:exit.obj
 0001:00057b05       __cexit                    10058b05 f   libucrt:exit.obj
 0001:00057b14       __exit                     10058b14 f   libucrt:exit.obj
 0001:00057b2a       __is_c_termination_complete 10058b2a f   libucrt:exit.obj
 0001:00057dde       ___acrt_allocate_buffer_for_argv 10058dde f   libucrt:argv_parsing.obj
 0001:00057e2d       __configure_narrow_argv    10058e2d f   libucrt:argv_parsing.obj
 0001:00058039       ??$uninitialize@A6AXAAPAPAD@Z@?$dual_state_global@PAPAD@__crt_state_management@@QAEXA6AXAAPAPAD@Z@Z 10059039 f i libucrt:environment_initialization.obj
 0001:00058039       ??$uninitialize@A6AXAAPAPA_W@Z@?$dual_state_global@PAPA_W@__crt_state_management@@QAEXA6AXAAPAPA_W@Z@Z 10059039 f i libucrt:environment_initialization.obj
 0001:00058098       ___dcrt_get_or_create_narrow_environment_nolock 10059098 f   libucrt:environment_initialization.obj
 0001:0005809d       ___dcrt_uninitialize_environments_nolock 1005909d f   libucrt:environment_initialization.obj
 0001:000580d4       __initialize_narrow_environment 100590d4 f   libucrt:environment_initialization.obj
 0001:0005818f       ??$__crt_fast_encode_pointer@P6GHPA_WKJ@Z@@YAP6GHPA_WKJ@ZQ6GH0KJ@Z@Z 1005918f f i libucrt:winapi_thunks.obj
 0001:0005818f       ??$__crt_fast_encode_pointer@P6AHXZ@@YAP6AHXZQ6AHXZ@Z 1005918f f i libucrt:onexit.obj
 0001:000583b1       __crt_atexit               100593b1 f   libucrt:onexit.obj
 0001:000583c7       __execute_onexit_table     100593c7 f   libucrt:onexit.obj
 0001:000583f4       __initialize_onexit_table  100593f4 f   libucrt:onexit.obj
 0001:0005841d       __register_onexit_function 1005941d f   libucrt:onexit.obj
 0001:0005854b       ___acrt_initialize         1005954b f   libucrt:initialization.obj
 0001:0005855d       ___acrt_thread_attach      1005955d f   libucrt:initialization.obj
 0001:00058568       ___acrt_thread_detach      10059568 f   libucrt:initialization.obj
 0001:00058570       ___acrt_uninitialize       10059570 f   libucrt:initialization.obj
 0001:000585a0       ___acrt_uninitialize_critical 100595a0 f   libucrt:initialization.obj
 0001:000585b2       __initterm                 100595b2 f   libucrt:initterm.obj
 0001:000585f7       __initterm_e               100595f7 f   libucrt:initterm.obj
 0001:00058625       _strcpy_s                  10059625 f   libucrt:strcpy_s.obj
 0001:0005867f       _wcsncmp                   1005967f f   libucrt:wcsncmp.obj
 0001:000586b9       __wtol                     100596b9 f   libucrt:atox.obj
 0001:000586dc       _atol                      100596dc f   libucrt:atox.obj
 0001:00058700       _strncmp                   10059700 f   libucrt:strncmp.obj
 0001:00058ab6       ___acrt_freeptd            10059ab6 f   libucrt:per_thread_data.obj
 0001:00058ae2       ___acrt_getptd             10059ae2 f   libucrt:per_thread_data.obj
 0001:00058b9f       ___acrt_getptd_head        10059b9f f   libucrt:per_thread_data.obj
 0001:00058c39       ___acrt_getptd_noexit      10059c39 f   libucrt:per_thread_data.obj
 0001:00058cee       ___acrt_initialize_ptd     10059cee f   libucrt:per_thread_data.obj
 0001:00058d1a       ___acrt_uninitialize_ptd   10059d1a f   libucrt:per_thread_data.obj
 0001:00058d40       __CIcos                    10059d40 f   libucrt:cos_impl.obj
 0001:00058d7b       __CIcos_default            10059d7b f   libucrt:cos_impl.obj
 0001:00058d8f       __cos_default              10059d8f     libucrt:cos_impl.obj
 0001:00058e30       __CIsin                    10059e30 f   libucrt:sin_impl.obj
 0001:00058e6b       __CIsin_default            10059e6b f   libucrt:sin_impl.obj
 0001:00058e7f       __sin_default              10059e7f     libucrt:sin_impl.obj
 0001:00058f12       ___libm_error_support      10059f12 f   libucrt:libm_error.obj
 0001:00059110       _sqrt                      1005a110 f   libucrt:sqrt.obj
 0001:0005911e       ___acrt_initialize_sse2    1005a11e f   libucrt:mathfcns.obj
 0001:0005912e       __floor_default            1005a12e f   libucrt:floor.obj
 0001:000591e3       __fdunscale                1005a1e3 f   libucrt:_unscale.obj
 0001:0005926a       __ceil_default             1005a26a f   libucrt:ceil.obj
 0001:00059340       __fFATN2                   1005a340 f   libucrt:87triga.obj
 0001:00059390       __rtpiby2                  1005a390     libucrt:87triga.obj
 0001:000593a0       __rtforatn20               1005a3a0 f   libucrt:87triga.obj
 0001:000593d0       __rtforatnby0              1005a3d0 f   libucrt:87triga.obj
 0001:000593e0       __cintrindisp2             1005a3e0 f   libucrt:87cdisp.obj
 0001:00059430       __cintrindisp1             1005a430 f   libucrt:87cdisp.obj
 0001:00059479       __ctrandisp2               1005a479 f   libucrt:87cdisp.obj
 0001:00059608       __ctrandisp1               1005a608 f   libucrt:87cdisp.obj
 0001:0005963b       __fload                    1005a63b f   libucrt:87cdisp.obj
 0001:00059680       __CIasin                   1005a680 f   libucrt:asin_impl.obj
 0001:000596bb       __CIasin_default           1005a6bb f   libucrt:asin_impl.obj
 0001:000596cf       __asin_default             1005a6cf     libucrt:asin_impl.obj
 0001:00059786       __free_base                1005a786 f   libucrt:free_base.obj
 0001:000597c0       __malloc_base              1005a7c0 f   libucrt:malloc_base.obj
 0001:0005980e       __mbtowc_l                 1005a80e f   libucrt:mbtowc.obj
 0001:00059950       _mbtowc                    1005a950 f   libucrt:mbtowc.obj
 0001:0005996a       __wctomb_s_l               1005a96a f   libucrt:wctomb.obj
 0001:00059ac5       _wctomb_s                  1005aac5 f   libucrt:wctomb.obj
 0001:00059ae2       ___acrt_update_locale_info 1005aae2 f   libucrt:locale_update.obj
 0001:00059b0f       ___acrt_update_multibyte_info 1005ab0f f   libucrt:locale_update.obj
 0001:00059b3c       ?__acrt_fp_classify@@YA?AW4__acrt_fp_class@@ABN@Z 1005ab3c f i libucrt:cvt.obj
 0001:0005a387       ___acrt_fp_format          1005b387 f   libucrt:cvt.obj
 0001:0005a4c2       __fileno                   1005b4c2 f   libucrt:fileno.obj
 0001:0005a4e9       __get_printf_count_output  1005b4e9 f   libucrt:printf_count_output.obj
 0001:0005a4fe       ___acrt_stdio_begin_temporary_buffering_nolock 1005b4fe f   libucrt:_sftbuf.obj
 0001:0005a5b1       ___acrt_stdio_end_temporary_buffering_nolock 1005b5b1 f   libucrt:_sftbuf.obj
 0001:0005a6eb       ??0_expandlocale_locale_name_cache@@QAE@QA_WIQAU__crt_qualified_locale_data@@@Z 1005b6eb f i libucrt:wsetlocale.obj
 0001:0005a735       ??1_expandlocale_locale_name_cache@@QAE@XZ 1005b735 f i libucrt:wsetlocale.obj
 0001:0005a8cd       ?commit_locale_name@_expandlocale_locale_name_cache@@QAEXQB_WI@Z 1005b8cd f i libucrt:wsetlocale.obj
 0001:0005a911       ?commit_locale_name_cache_already_updated@_expandlocale_locale_name_cache@@QAEXQB_WI@Z 1005b911 f i libucrt:wsetlocale.obj
 0001:0005a946       ___acrt_copy_locale_name   1005b946 f   libucrt:wsetlocale.obj
 0001:0005a9a6       ___acrt_set_locale_changed 1005b9a6 f   libucrt:wsetlocale.obj
 0001:0005a9b1       ___acrt_uninitialize_locale 1005b9b1 f   libucrt:wsetlocale.obj
 0001:0005a9d8       ___lc_lctowcs              1005b9d8 f   libucrt:wsetlocale.obj
 0001:0005aa48       ___lc_wcstolc              1005ba48 f   libucrt:wsetlocale.obj
 0001:0005af8d       __wcscats                  1005bf8d f   libucrt:wsetlocale.obj
 0001:0005afce       __wsetlocale               1005bfce f   libucrt:wsetlocale.obj
 0001:0005be3d       ___acrt_initialize_lowio   1005ce3d f   libucrt:ioinit.obj
 0001:0005be9d       ___acrt_uninitialize_lowio 1005ce9d f   libucrt:ioinit.obj
 0001:0005bec9       __calloc_base              1005cec9 f   libucrt:calloc_base.obj
 0001:0005c248       ___acrt_AppPolicyGetProcessTerminationMethodInternal@4 1005d248 f   libucrt:winapi_thunks.obj
 0001:0005c288       ___acrt_AreFileApisANSI@0  1005d288 f   libucrt:winapi_thunks.obj
 0001:0005c2a7       ___acrt_CompareStringEx@36 1005d2a7 f   libucrt:winapi_thunks.obj
 0001:0005c304       ___acrt_EnumSystemLocalesEx@16 1005d304 f   libucrt:winapi_thunks.obj
 0001:0005c358       ___acrt_FlsAlloc@4         1005d358 f   libucrt:winapi_thunks.obj
 0001:0005c397       ___acrt_FlsFree@4          1005d397 f   libucrt:winapi_thunks.obj
 0001:0005c3d6       ___acrt_FlsGetValue@4      1005d3d6 f   libucrt:winapi_thunks.obj
 0001:0005c415       ___acrt_FlsSetValue@8      1005d415 f   libucrt:winapi_thunks.obj
 0001:0005c457       ___acrt_GetDateFormatEx@28 1005d457 f   libucrt:winapi_thunks.obj
 0001:0005c4ae       ___acrt_GetLocaleInfoEx@16 1005d4ae f   libucrt:winapi_thunks.obj
 0001:0005c4ed       ___acrt_GetTimeFormatEx@24 1005d4ed f   libucrt:winapi_thunks.obj
 0001:0005c532       ___acrt_GetUserDefaultLocaleName@8 1005d532 f   libucrt:winapi_thunks.obj
 0001:0005c56e       ___acrt_InitializeCriticalSectionEx@12 1005d56e f   libucrt:winapi_thunks.obj
 0001:0005c5b9       ___acrt_IsValidLocaleName@4 1005d5b9 f   libucrt:winapi_thunks.obj
 0001:0005c5f1       ___acrt_LCIDToLocaleName@16 1005d5f1 f   libucrt:winapi_thunks.obj
 0001:0005c630       ___acrt_LCMapStringEx@36   1005d630 f   libucrt:winapi_thunks.obj
 0001:0005c68d       ___acrt_LocaleNameToLCID@8 1005d68d f   libucrt:winapi_thunks.obj
 0001:0005c6be       ___acrt_RtlGenRandom@8     1005d6be f   libucrt:winapi_thunks.obj
 0001:0005c6fe       ___acrt_can_use_vista_locale_apis 1005d6fe f   libucrt:winapi_thunks.obj
 0001:0005c709       ___acrt_eagerly_load_locale_apis 1005d709 f   libucrt:winapi_thunks.obj
 0001:0005c740       ___acrt_initialize_winapi_thunks 1005d740 f   libucrt:winapi_thunks.obj
 0001:0005c76b       ___acrt_uninitialize_winapi_thunks 1005d76b f   libucrt:winapi_thunks.obj
 0001:0005c7a1       __fcloseall                1005d7a1 f   libucrt:closeall.obj
 0001:0005c84c       ___acrt_stdio_free_buffer_nolock 1005d84c f   libucrt:_freebuf.obj
 0001:0005c918       __close                    1005d918 f   libucrt:close.obj
 0001:0005c9a5       __close_nolock             1005d9a5 f   libucrt:close.obj
 0001:0005ca41       ?__acrt_stdio_allocate_stream@@YA?AV__crt_stdio_stream@@XZ 1005da41 f   libucrt:stream.obj
 0001:0005caaa       ?__acrt_stdio_free_stream@@YAXV__crt_stdio_stream@@@Z 1005daaa f   libucrt:stream.obj
 0001:0005cc49       __commit                   1005dc49 f   libucrt:commit.obj
 0001:0005d43f       __write                    1005e43f f   libucrt:write.obj
 0001:0005d531       __write_nolock             1005e531 f   libucrt:write.obj
 0001:0005d89d       ___acrt_stdio_refill_and_read_narrow_nolock 1005e89d f   libucrt:_filbuf.obj
 0001:0005de82       __ftelli64                 1005ee82 f   libucrt:ftell.obj
 0001:0005de8d       __ftelli64_nolock          1005ee8d f   libucrt:ftell.obj
 0001:0005e0fe       ___acrt_stdio_flush_and_write_narrow_nolock 1005f0fe f   libucrt:_flsbuf.obj
 0001:0005e60d       __read                     1005f60d f   libucrt:read.obj
 0001:0005e721       __read_nolock              1005f721 f   libucrt:read.obj
 0001:0005ec59       __lseeki64                 1005fc59 f   libucrt:lseek.obj
 0001:0005ec74       __lseeki64_nolock          1005fc74 f   libucrt:lseek.obj
 0001:0005ec8f       ___acrt_stdio_allocate_buffer_nolock 1005fc8f f   libucrt:_getbuf.obj
 0001:0005ecf0       __trandisp1                1005fcf0 f   libucrt:87disp.obj
 0001:0005ed65       __trandisp2                1005fd65 f   libucrt:87disp.obj
 0001:0005edff       __rttospopde               1005fdff     libucrt:87disp.obj
 0001:0005ee04       __rttospop                 1005fe04     libucrt:87disp.obj
 0001:0005ee10       __rtnospop                 1005fe10 f   libucrt:87disp.obj
 0001:0005ee20       __rttosnpop                1005fe20 f   libucrt:87disp.obj
 0001:0005ee21       __rtnospopde               1005fe21     libucrt:87disp.obj
 0001:0005ee28       __rtzeropop                1005fe28     libucrt:87disp.obj
 0001:0005ee2a       __rtzeronpop               1005fe2a     libucrt:87disp.obj
 0001:0005ee30       __rtzerospop               1005fe30 f   libucrt:87disp.obj
 0001:0005ee3d       __rtonepop                 1005fe3d     libucrt:87disp.obj
 0001:0005ee40       __rtonenpop                1005fe40 f   libucrt:87disp.obj
 0001:0005ee50       __tosnan1                  1005fe50 f   libucrt:87disp.obj
 0001:0005ee80       __nosnan2                  1005fe80 f   libucrt:87disp.obj
 0001:0005ee90       __tosnan2                  1005fe90 f   libucrt:87disp.obj
 0001:0005eec0       __nan2                     1005fec0 f   libucrt:87disp.obj
 0001:0005ef00       __rtindfpop                1005ff00 f   libucrt:87disp.obj
 0001:0005ef02       __rtindfnpop               1005ff02     libucrt:87disp.obj
 0001:0005ef13       __rttosnpopde              1005ff13     libucrt:87disp.obj
 0001:0005ef20       __rtatan2inf               1005ff20 f   libucrt:87disp.obj
 0001:0005ef3d       __rtchsifneg               1005ff3d     libucrt:87disp.obj
 0001:0005ef44       _iswctype                  1005ff44 f   libucrt:iswctype.obj
 0001:0005efad       __isctype_l                1005ffad f   libucrt:isctype.obj
 0001:0005f078       ___acrt_MultiByteToWideChar 10060078 f   libucrt:multibytetowidechar.obj
 0001:0005f0f4       __wremove                  100600f4 f   libucrt:wunlink.obj
 0001:0005f11c       ??$__acrt_stdio_parse_mode@D@@YA?AU__acrt_stdio_stream_mode@@QBD@Z 1006011c f i libucrt:openfile.obj
 0001:0005f3c9       ?__acrt_stdio_parse_mode_D@@YA_NAAU__acrt_stdio_stream_mode@@@Z 100603c9 f i libucrt:openfile.obj
 0001:0005f3e4       ?__acrt_stdio_parse_mode_T@@YA_NAAU__acrt_stdio_stream_mode@@@Z 100603e4 f i libucrt:openfile.obj
 0001:0005f403       ?__acrt_stdio_parse_mode_b@@YA_NAAU__acrt_stdio_stream_mode@@@Z 10060403 f i libucrt:openfile.obj
 0001:0005f423       ?__acrt_stdio_parse_mode_c@@YA_NAAU__acrt_stdio_stream_mode@@AA_N@Z 10060423 f i libucrt:openfile.obj
 0001:0005f445       ?__acrt_stdio_parse_mode_n@@YA_NAAU__acrt_stdio_stream_mode@@AA_N@Z 10060445 f i libucrt:openfile.obj
 0001:0005f467       ?__acrt_stdio_parse_mode_plus@@YA_NAAU__acrt_stdio_stream_mode@@AA_N@Z 10060467 f i libucrt:openfile.obj
 0001:0005f49d       ?__acrt_stdio_parse_mode_t@@YA_NAAU__acrt_stdio_stream_mode@@@Z 1006049d f i libucrt:openfile.obj
 0001:0005f4bd       ?__acrt_stdio_parse_mode_x@@YA_NAAU__acrt_stdio_stream_mode@@@Z 100604bd f i libucrt:openfile.obj
 0001:0005f4dd       __openfile                 100604dd f   libucrt:openfile.obj
 0001:0005f4e8       __isleadbyte_l             100604e8 f i libucrt:_wctype.obj
 0001:0005f70c       ___acrt_LCMapStringA       1006070c f   libucrt:lcmapstringa.obj
 0001:0005f755       _fegetround                10060755 f   libucrt:fegetround.obj
 0001:0005f762       __dsign                    10060762 f   libucrt:nan.obj
 0001:0005f772       __errcode                  10060772 f   libucrt:fpexcept.obj
 0001:0005f7a6       __except1                  100607a6 f   libucrt:fpexcept.obj
 0001:0005f874       __handle_exc               10060874 f   libucrt:fpexcept.obj
 0001:0005fa5f       __raise_exc                10060a5f f   libucrt:fpexcept.obj
 0001:0005fa82       __raise_exc_ex             10060a82 f   libucrt:fpexcept.obj
 0001:0005fd78       __set_errno_from_matherr   10060d78 f   libucrt:fpexcept.obj
 0001:0005fda7       __umatherr                 10060da7 f   libucrt:fpexcept.obj
 0001:0005fe47       __decomp                   10060e47 f   libucrt:util.obj
 0001:0005ff19       __set_exp                  10060f19 f   libucrt:util.obj
 0001:0005ff46       __sptype                   10060f46 f   libucrt:util.obj
 0001:0005ffa4       __clrfp                    10060fa4 f   libucrt:fpctrl.obj
 0001:0005ffb5       __ctrlfp                   10060fb5 f   libucrt:fpctrl.obj
 0001:0005ffdf       __set_statfp               10060fdf f   libucrt:fpctrl.obj
 0001:00060038       __statfp                   10061038 f   libucrt:fpctrl.obj
 0001:00060048       ___acrt_initialize_timeset 10061048 f   libucrt:timeset.obj
 0001:00060073       ___daylight                10061073 f   libucrt:timeset.obj
 0001:00060079       ___dstbias                 10061079 f   libucrt:timeset.obj
 0001:0006007f       ___timezone                1006107f f   libucrt:timeset.obj
 0001:00060085       ___tzname                  10061085 f   libucrt:timeset.obj
 0001:0006008b       __get_daylight             1006108b f   libucrt:timeset.obj
 0001:000600b7       __get_dstbias              100610b7 f   libucrt:timeset.obj
 0001:000600e3       __get_timezone             100610e3 f   libucrt:timeset.obj
 0001:0006010f       ??$__crt_time_elapsed_leap_years@H@@YAHH@Z 1006110f f i libucrt:gmtime.obj
 0001:0006034c       ___getgmtimebuf            1006134c f   libucrt:gmtime.obj
 0001:0006038a       __gmtime64_s               1006138a f   libucrt:gmtime.obj
 0001:00060b03       ___tzset                   10061b03 f   libucrt:tzset.obj
 0001:00060b60       __isindst                  10061b60 f   libucrt:tzset.obj
 0001:00060bb4       ___acrt_WideCharToMultiByte 10061bb4 f   libucrt:widechartomultibyte.obj
 0001:00060c61       _fegetexceptflag           10061c61 f   libucrt:fegetexceptflag.obj
 0001:00060c92       _fesetexceptflag           10061c92 f   libucrt:fesetexceptflag.obj
 0001:00060ff8       ___acrt_fenv_get_common_round_control 10061ff8 f   libucrt:_fenvutils.obj
 0001:0006101a       ___acrt_fenv_get_control   1006201a f   libucrt:_fenvutils.obj
 0001:0006109a       ___acrt_fenv_get_fp_status_word_from_exception_mask 1006209a f   libucrt:_fenvutils.obj
 0001:000610b4       ___acrt_fenv_get_status    100620b4 f   libucrt:_fenvutils.obj
 0001:0006116c       ___acrt_fenv_set_control   1006216c f   libucrt:_fenvutils.obj
 0001:000611d4       ___acrt_fenv_set_status    100621d4 f   libucrt:_fenvutils.obj
 0001:000612f7       ?__mbrtowc_utf8@__crt_mbstring@@YAIPA_WPBDIPAU_Mbstatet@@@Z 100622f7 f   libucrt:mbrtowc.obj
 0001:00061337       ?__mbsrtowcs_utf8@__crt_mbstring@@YAIPA_WPAPBDIPAU_Mbstatet@@@Z 10062337 f   libucrt:mbrtowc.obj
 0001:00061511       ___acrt_GetLocaleInfoA     10062511 f   libucrt:getlocaleinfoa.obj
 0001:000616c1       ___acrt_GetStringTypeA     100626c1 f   libucrt:getstringtypea.obj
 0001:00061a6d       __wcstombs_s_l             10062a6d f   libucrt:wcstombs.obj
 0001:00061b38       __realloc_base             10062b38 f   libucrt:realloc_base.obj
 0001:00061ba1       __fpclass                  10062ba1 f   libucrt:ieeemisc.obj
 0001:00061c50       __CIpow_pentium4           10062c50 f   libucrt:pow_pentium4.obj
 0001:00061c69       __pow_pentium4             10062c69     libucrt:pow_pentium4.obj
 0001:00062790       __fFEXP                    10063790 f   libucrt:87tran.obj
 0001:000627e7       __rtinfpopse               100637e7     libucrt:87tran.obj
 0001:000627e9       __rtinfnpopse              100637e9     libucrt:87tran.obj
 0001:000627f9       __fFLN                     100637f9     libucrt:87tran.obj
 0001:000628ae       __rtinfpop                 100638ae     libucrt:87tran.obj
 0001:000628b0       __rtinfnpop                100638b0     libucrt:87tran.obj
 0001:000628c0       __rtforexpinf              100638c0 f   libucrt:87tran.obj
 0001:000628cd       __ffexpm1                  100638cd     libucrt:87tran.obj
 0001:00062980       __startTwoArgErrorHandling 10063980 f   libucrt:genexcep.obj
 0001:00062997       __startOneArgErrorHandling 10063997 f   libucrt:genexcep.obj
 0001:000629e0       __twoToTOS                 100639e0 f   libucrt:common.obj
 0001:000629f5       __load_CW                  100639f5 f   libucrt:common.obj
 0001:00062a0c       __convertTOStoQNaN         10063a0c f   libucrt:common.obj
 0001:00062a25       __fload_withFB             10063a25 f   libucrt:common.obj
 0001:00062a68       __checkTOS_withFB          10063a68 f   libucrt:common.obj
 0001:00062a7e       __fast_exit                10063a7e f   libucrt:common.obj
 0001:00062a8b       __math_exit                10063a8b f   libucrt:common.obj
 0001:00062ab5       __check_overflow_exit      10063ab5 f   libucrt:common.obj
 0001:00062ac9       __check_range_exit         10063ac9 f   libucrt:common.obj
 0001:00062b6c       __d_inttype                10063b6c f   libucrt:powhlp.obj
 0001:00062bd4       __powhlp                   10063bd4 f   libucrt:powhlp.obj
 0001:00062dcd       ___acrt_get_sigabrt_handler 10063dcd f   libucrt:signal.obj
 0001:00062df4       ___acrt_initialize_signal_handlers 10063df4 f   libucrt:signal.obj
 0001:00062e12       ___fpecode                 10063e12 f   libucrt:signal.obj
 0001:00062e1b       _raise                     10063e1b f   libucrt:signal.obj
 0001:00063016       ___ascii_wcsicmp           10064016 f   libucrt:wcsicmp.obj
 0001:00063053       __towlower_internal        10064053 f i libucrt:wcsicmp.obj
 0001:00063092       __wcsicmp                  10064092 f   libucrt:wcsicmp.obj
 0001:000630db       __wcsicmp_l                100640db f   libucrt:wcsicmp.obj
 0001:00063193       ___acrt_get_process_end_policy 10064193 f   libucrt:win_policies.obj
 0001:000637a2       ?allocate@?$__crt_win32_buffer@DU__crt_win32_buffer_internal_dynamic_resizing@@@@QAEHI@Z 100647a2 f i libucrt:argv_wildcards.obj
 0001:00063865       ___acrt_expand_narrow_argv_wildcards 10064865 f   libucrt:argv_wildcards.obj
 0001:00063870       ___acrt_GetModuleFileNameA 10064870 f   libucrt:getmodulefilenamea.obj
 0001:00063e2f       ___acrt_initialize_multibyte 10064e2f f   libucrt:mbctype.obj
 0001:00063e77       ___acrt_update_thread_multibyte_data 10064e77 f   libucrt:mbctype.obj
 0001:00063e8b       __setmbcp_nolock           10064e8b f   libucrt:mbctype.obj
 0001:000640d5       __ismbblead                100650d5 f   libucrt:ismbbyte.obj
 0001:000640ed       ___acrt_initialize_command_line 100650ed f   libucrt:argv_data.obj
 0001:0006413d       ___dcrt_get_narrow_environment_from_os 1006513d f   libucrt:get_environment_from_os.obj
 0001:0006451e       ___dcrt_set_variable_in_narrow_environment_nolock 1006551e f   libucrt:setenv.obj
 0001:00064529       __recalloc_base            10065529 f   libucrt:recalloc.obj
 0001:00064596       ___acrt_initialize_heap    10065596 f   libucrt:heap_handle.obj
 0001:000645a7       ___acrt_uninitialize_heap  100655a7 f   libucrt:heap_handle.obj
 0001:000645b1       ___acrt_execute_initializers 100655b1 f   libucrt:shared_initialization.obj
 0001:00064619       ___acrt_execute_uninitializers 10065619 f   libucrt:shared_initialization.obj
 0001:0006464a       ___acrt_has_user_matherr   1006564a f   libucrt:matherr.obj
 0001:00064662       ___acrt_initialize_user_matherr 10065662 f   libucrt:matherr.obj
 0001:00064671       ___acrt_invoke_user_matherr 10065671 f   libucrt:matherr.obj
 0001:000646a3       ___acrt_add_locale_ref     100656a3 f   libucrt:locale_refcounting.obj
 0001:00064720       ___acrt_free_locale        10065720 f   libucrt:locale_refcounting.obj
 0001:00064868       ___acrt_locale_add_lc_time_reference 10065868 f   libucrt:locale_refcounting.obj
 0001:00064891       ___acrt_locale_free_lc_time_if_unreferenced 10065891 f   libucrt:locale_refcounting.obj
 0001:000648c2       ___acrt_locale_release_lc_time_reference 100658c2 f   libucrt:locale_refcounting.obj
 0001:000648eb       ___acrt_release_locale_ref 100658eb f   libucrt:locale_refcounting.obj
 0001:0006496c       ___acrt_update_thread_locale_data 1006596c f   libucrt:locale_refcounting.obj
 0001:000649ed       __updatetlocinfoEx_nolock  100659ed f   libucrt:locale_refcounting.obj
 0001:00064a40       __CIcos_pentium4           10065a40 f   libucrt:cos_pentium4.obj
 0001:00064a58       __cos_pentium4             10065a58     libucrt:cos_pentium4.obj
 0001:00064bf0       __CIsin_pentium4           10065bf0 f   libucrt:sin_pentium4.obj
 0001:00064c08       __sin_pentium4             10065c08     libucrt:sin_pentium4.obj
 0001:00064dc0       __CIsqrt                   10065dc0 f   libucrt:sqrt_impl.obj
 0001:00064dd4       __sqrt_common              10065dd4     libucrt:sqrt_impl.obj
 0001:00064e71       __frnd                     10065e71 f   libucrt:frnd.obj
 0001:00064e85       __fdnorm                   10065e85 f   libucrt:_norm.obj
 0001:00064f5a       __87except                 10065f5a f   libucrt:87except.obj
 0001:00065070       __CIasin_pentium4          10066070 f   libucrt:asin_pentium4.obj
 0001:00065088       __asin_pentium4            10066088     libucrt:asin_pentium4.obj
 0001:000655f0       __query_new_mode           100665f0 f   libucrt:new_mode.obj
 0001:000655f7       ?__c32rtomb_utf8@__crt_mbstring@@YAIPAD_UPAU_Mbstatet@@@Z 100665f7 f   libucrt:c32rtomb.obj
 0001:000656a2       ?return_illegal_sequence@__crt_mbstring@@YAIPAU_Mbstatet@@@Z 100666a2 f i libucrt:c32rtomb.obj
 0001:000656c1       _c32rtomb                  100666c1 f   libucrt:c32rtomb.obj
 0001:000656cc       ___acrt_fp_strflt_to_string 100666cc f   libucrt:_fptostr.obj
 0001:0006578c       ___acrt_fltout             1006678c f   libucrt:cfout.obj
 0001:00066ad6       __isatty                   10067ad6 f   libucrt:isatty.obj
 0001:00066b2c       ___acrt_locale_free_monetary 10067b2c f   libucrt:initmon.obj
 0001:00066c2a       ___acrt_locale_initialize_monetary 10067c2a f   libucrt:initmon.obj
 0001:00066fe1       ___acrt_locale_free_numeric 10067fe1 f   libucrt:initnum.obj
 0001:0006704a       ___acrt_locale_initialize_numeric 1006804a f   libucrt:initnum.obj
 0001:0006750d       ___acrt_locale_free_time   1006850d f   libucrt:inittime.obj
 0001:000675f1       ___acrt_locale_initialize_time 100685f1 f   libucrt:inittime.obj
 0001:0006766c       _wcscat_s                  1006866c f   libucrt:wcscat_s.obj
 0001:000677c8       _wcsncat_s                 100687c8 f   libucrt:wcsncat_s.obj
 0001:0006789e       _wcsncpy_s                 1006889e f   libucrt:wcsncpy_s.obj
 0001:000678a9       _wcscspn                   100688a9 f   libucrt:wcscspn.obj
 0001:00067902       _wcspbrk                   10068902 f   libucrt:wcspbrk.obj
 0001:0006804c       ___acrt_get_qualified_locale 1006904c f   libucrt:get_qualified_locale.obj
 0001:000689ad       ___acrt_get_qualified_locale_downlevel 100699ad f   libucrt:getqloc_downlevel.obj
 0001:00068ba2       ___acrt_lowio_create_handle_array 10069ba2 f   libucrt:osfinfo.obj
 0001:00068c1d       ___acrt_lowio_destroy_handle_array 10069c1d f   libucrt:osfinfo.obj
 0001:00068c52       ___acrt_lowio_ensure_fh_exists 10069c52 f   libucrt:osfinfo.obj
 0001:00068cf0       ___acrt_lowio_lock_fh      10069cf0 f   libucrt:osfinfo.obj
 0001:00068d13       ___acrt_lowio_set_os_handle 10069d13 f   libucrt:osfinfo.obj
 0001:00068da5       ___acrt_lowio_unlock_fh    10069da5 f   libucrt:osfinfo.obj
 0001:00068dc8       __alloc_osfhnd             10069dc8 f   libucrt:osfinfo.obj
 0001:00068edb       __free_osfhnd              10069edb f   libucrt:osfinfo.obj
 0001:00068f6c       __get_osfhandle            10069f6c f   libucrt:osfinfo.obj
 0001:00069026       ___acrt_DownlevelLCIDToLocaleName 1006a026 f   libucrt:lcidtoname_downlevel.obj
 0001:000690d0       ___acrt_DownlevelLocaleNameToLCID 1006a0d0 f   libucrt:lcidtoname_downlevel.obj
 0001:000690fc       __putwch_nolock            1006a0fc f   libucrt:putwch.obj
 0001:0006912e       ___acrt_GetStringTypeW     1006a12e f   libucrt:getstringtypew.obj
 0001:00069147       ___ascii_wcsnicmp          1006a147 f   libucrt:wcsnicmp.obj
 0001:00069196       __wcsnicmp                 1006a196 f   libucrt:wcsnicmp.obj
 0001:000691e2       __wcsnicmp_l               1006a1e2 f   libucrt:wcsnicmp.obj
 0001:000692b5       __strnicmp                 1006a2b5 f   libucrt:strnicmp.obj
 0001:00069322       __strnicmp_l               1006a322 f   libucrt:strnicmp.obj
 0001:000699b8       __sopen_nolock             1006a9b8 f   libucrt:open.obj
 0001:00069a26       __sopen_s                  1006aa26 f   libucrt:open.obj
 0001:00069a46       __wsopen_nolock            1006aa46 f   libucrt:open.obj
 0001:00069ee2       _getenv_s                  1006aee2 f   libucrt:getenv.obj
 0001:00069fa0       _strncpy_s                 1006afa0 f   libucrt:strncpy_s.obj
 0001:00069fab       _fetestexcept              1006afab f   libucrt:fetestexcept.obj
 0001:00069fcc       ?__mbrtoc32_utf8@__crt_mbstring@@YAIPA_UPBDIPAU_Mbstatet@@@Z 1006afcc f   libucrt:mbrtoc32.obj
 0001:0006a173       ?__wcsrtombs_utf8@__crt_mbstring@@YAIPADPAPB_WIPAU_Mbstatet@@@Z 1006b173 f   libucrt:wcrtomb.obj
 0001:0006a271       __towlower_l               1006b271 f   libucrt:towlower.obj
 0001:0006a360       _qsort                     1006b360 f   libucrt:qsort.obj
 0001:0006a7b0       _strpbrk                   1006b7b0 f   libucrt:strpbrk.obj
 0001:0006a7f0       __mbsdec                   1006b7f0 f   libucrt:mbsdec.obj
 0001:0006a807       __mbsdec_l                 1006b807 f   libucrt:mbsdec.obj
 0001:0006a8a3       __strnicoll                1006b8a3 f   libucrt:strnicol.obj
 0001:0006a8cc       __strnicoll_l              1006b8cc f   libucrt:strnicol.obj
 0001:0006a994       ___acrt_SetEnvironmentVariableA 1006b994 f   libucrt:setenvironmentvariablea.obj
 0001:0006aa29       __msize_base               1006ba29 f   libucrt:msize.obj
 0001:0006aa5c       _fegetenv                  1006ba5c f   libucrt:fegetenv.obj
 0001:0006aa79       _fesetenv                  1006ba79 f   libucrt:fesetenv.obj
 0001:0006aac4       _feholdexcept              1006bac4 f   libucrt:feholdexcept.obj
 0001:0006ab20       __CIlog10                  1006bb20 f   libucrt:log10_impl.obj
 0001:0006ab5b       __CIlog10_default          1006bb5b f   libucrt:log10_impl.obj
 0001:0006ab6f       __log10_default            1006bb6f     libucrt:log10_impl.obj
 0001:0006ad55       __itow_s                   1006bd55 f   libucrt:xtoa.obj
 0001:0006ad88       __query_app_type           1006bd88 f   libucrt:report_runtime_error.obj
 0001:0006adad       ___dcrt_lowio_ensure_console_output_initialized 1006bdad f   libucrt:initcon.obj
 0001:0006adcc       ___dcrt_terminate_console_output 1006bdcc f   libucrt:initcon.obj
 0001:0006ade3       ___dcrt_write_console      1006bde3 f   libucrt:initcon.obj
 0001:0006ae40       ___ascii_strnicmp          1006be40 f   libucrt:_strnicm.obj
 0001:0006aea1       __get_fmode                1006bea1 f   libucrt:setmode.obj
 0001:0006aece       __setmode_nolock           1006bece f   libucrt:setmode.obj
 0001:0006af9d       ??0__crt_seek_guard@@QAE@H_J@Z 1006bf9d f i libucrt:chsize.obj
 0001:0006afea       __chsize_nolock            1006bfea f   libucrt:chsize.obj
 0001:0006b15a       ?__c16rtomb_utf8@__crt_mbstring@@YAIPAD_SPAU_Mbstatet@@@Z 1006c15a f   libucrt:c16rtomb.obj
 0001:0006b1f4       ___acrt_LCMapStringW       1006c1f4 f   libucrt:lcmapstringw.obj
 0001:0006b4bd       ___acrt_CompareStringA     1006c4bd f   libucrt:comparestringa.obj
 0001:0006b503       __clearfp                  1006c503 f   libucrt:ieee87.obj
 0001:0006b5f0       __CIlog10_pentium4         1006c5f0 f   libucrt:log10_pentium4.obj
 0001:0006b608       __log10_pentium4           1006c608     libucrt:log10_pentium4.obj
 0001:0006b880       _IsProcessorFeaturePresent@4 1006c880 f   kernel32:KERNEL32.dll
 0001:0006b890       __FindPESection            1006c890 f   LIBCMT:pesect.obj
 0001:0006b8e0       __IsNonwritableInCurrentImage 1006c8e0 f   LIBCMT:pesect.obj
 0001:0006b9a0       __ValidateImageBase        1006c9a0 f   LIBCMT:pesect.obj
 0001:0006b9e0       __allshl                   1006c9e0 f   LIBCMT:llshl.obj
 0001:0006ba00       __aullshr                  1006ca00 f   LIBCMT:ullshr.obj
 0001:0006ba20       __allrem                   1006ca20 f   LIBCMT:llrem.obj
 0001:0006bae0       __ftol2_sse                1006cae0 f   LIBCMT:ftol2.obj
 0001:0006bae9       __ftol2_pentium4           1006cae9 f   LIBCMT:ftol2.obj
 0001:0006bafc       __ftol2_sse_excpt          1006cafc f   LIBCMT:ftol2.obj
 0001:0006bb20       __ftol2                    1006cb20 f   LIBCMT:ftol2.obj
 0001:0006bba0       _strrchr                   1006cba0 f   libvcruntime:strrchr.obj
 0001:0006bcd7       _wcschr                    1006ccd7 f   libvcruntime:wcschr.obj
 0002:00000000       __imp__AddFontResourceA@4  10070000     gdi32:GDI32.dll
 0002:00000004       \177GDI32_NULL_THUNK_DATA  10070004     gdi32:GDI32.dll
 0002:00000008       __imp__GetTickCount@0      10070008     kernel32:KERNEL32.dll
 0002:0000000c       __imp__VirtualProtect@16   1007000c     kernel32:KERNEL32.dll
 0002:00000010       __imp__FindFirstFileA@8    10070010     kernel32:KERNEL32.dll
 0002:00000014       __imp__FindNextFileA@8     10070014     kernel32:KERNEL32.dll
 0002:00000018       __imp__CreateDirectoryA@8  10070018     kernel32:KERNEL32.dll
 0002:0000001c       __imp__Sleep@4             1007001c     kernel32:KERNEL32.dll
 0002:00000020       __imp__CreateThread@24     10070020     kernel32:KERNEL32.dll
 0002:00000024       __imp__AllocConsole@0      10070024     kernel32:KERNEL32.dll
 0002:00000028       __imp__FreeLibrary@4       10070028     kernel32:KERNEL32.dll
 0002:0000002c       __imp__GetModuleHandleExA@12 1007002c     kernel32:KERNEL32.dll
 0002:00000030       __imp__MultiByteToWideChar@24 10070030     kernel32:KERNEL32.dll
 0002:00000034       __imp__GetCurrentProcess@0 10070034     kernel32:KERNEL32.dll
 0002:00000038       __imp__GetProcAddress@8    10070038     kernel32:KERNEL32.dll
 0002:0000003c       __imp__VirtualQuery@12     1007003c     kernel32:KERNEL32.dll
 0002:00000040       __imp__SetEndOfFile@4      10070040     kernel32:KERNEL32.dll
 0002:00000044       __imp__WriteConsoleW@20    10070044     kernel32:KERNEL32.dll
 0002:00000048       __imp__HeapSize@12         10070048     kernel32:KERNEL32.dll
 0002:0000004c       __imp__CreateFileW@28      1007004c     kernel32:KERNEL32.dll
 0002:00000050       __imp__SetStdHandle@8      10070050     kernel32:KERNEL32.dll
 0002:00000054       __imp__GetProcessHeap@0    10070054     kernel32:KERNEL32.dll
 0002:00000058       __imp__SetEnvironmentVariableW@8 10070058     kernel32:KERNEL32.dll
 0002:0000005c       __imp__FreeEnvironmentStringsW@4 1007005c     kernel32:KERNEL32.dll
 0002:00000060       __imp__GetEnvironmentStringsW@0 10070060     kernel32:KERNEL32.dll
 0002:00000064       __imp__GetCommandLineW@0   10070064     kernel32:KERNEL32.dll
 0002:00000068       __imp__GetCommandLineA@0   10070068     kernel32:KERNEL32.dll
 0002:0000006c       __imp__K32GetModuleInformation@16 1007006c     kernel32:KERNEL32.dll
 0002:00000070       __imp__GetModuleHandleA@4  10070070     kernel32:KERNEL32.dll
 0002:00000074       __imp__GetOEMCP@0          10070074     kernel32:KERNEL32.dll
 0002:00000078       __imp__GetACP@0            10070078     kernel32:KERNEL32.dll
 0002:0000007c       __imp__IsValidCodePage@4   1007007c     kernel32:KERNEL32.dll
 0002:00000080       __imp__FindNextFileW@8     10070080     kernel32:KERNEL32.dll
 0002:00000084       __imp__FindFirstFileExW@24 10070084     kernel32:KERNEL32.dll
 0002:00000088       __imp__FindClose@4         10070088     kernel32:KERNEL32.dll
 0002:0000008c       __imp__HeapReAlloc@16      1007008c     kernel32:KERNEL32.dll
 0002:00000090       __imp__GetTimeZoneInformation@4 10070090     kernel32:KERNEL32.dll
 0002:00000094       __imp__GetLastError@0      10070094     kernel32:KERNEL32.dll
 0002:00000098       __imp__WideCharToMultiByte@32 10070098     kernel32:KERNEL32.dll
 0002:0000009c       __imp__QueryPerformanceCounter@4 1007009c     kernel32:KERNEL32.dll
 0002:000000a0       __imp__EnterCriticalSection@4 100700a0     kernel32:KERNEL32.dll
 0002:000000a4       __imp__LeaveCriticalSection@4 100700a4     kernel32:KERNEL32.dll
 0002:000000a8       __imp__DeleteCriticalSection@4 100700a8     kernel32:KERNEL32.dll
 0002:000000ac       __imp__EncodePointer@4     100700ac     kernel32:KERNEL32.dll
 0002:000000b0       __imp__DecodePointer@4     100700b0     kernel32:KERNEL32.dll
 0002:000000b4       __imp__SetLastError@4      100700b4     kernel32:KERNEL32.dll
 0002:000000b8       __imp__InitializeCriticalSectionAndSpinCount@8 100700b8     kernel32:KERNEL32.dll
 0002:000000bc       __imp__CreateEventW@16     100700bc     kernel32:KERNEL32.dll
 0002:000000c0       __imp__SwitchToThread@0    100700c0     kernel32:KERNEL32.dll
 0002:000000c4       __imp__TlsAlloc@0          100700c4     kernel32:KERNEL32.dll
 0002:000000c8       __imp__TlsGetValue@4       100700c8     kernel32:KERNEL32.dll
 0002:000000cc       __imp__TlsSetValue@8       100700cc     kernel32:KERNEL32.dll
 0002:000000d0       __imp__TlsFree@4           100700d0     kernel32:KERNEL32.dll
 0002:000000d4       __imp__GetSystemTimeAsFileTime@4 100700d4     kernel32:KERNEL32.dll
 0002:000000d8       __imp__GetModuleHandleW@4  100700d8     kernel32:KERNEL32.dll
 0002:000000dc       __imp__CompareStringW@24   100700dc     kernel32:KERNEL32.dll
 0002:000000e0       __imp__LCMapStringW@24     100700e0     kernel32:KERNEL32.dll
 0002:000000e4       __imp__GetLocaleInfoW@16   100700e4     kernel32:KERNEL32.dll
 0002:000000e8       __imp__GetStringTypeW@16   100700e8     kernel32:KERNEL32.dll
 0002:000000ec       __imp__GetCPInfo@8         100700ec     kernel32:KERNEL32.dll
 0002:000000f0       __imp__LocalFree@4         100700f0     kernel32:KERNEL32.dll
 0002:000000f4       __imp__CloseHandle@4       100700f4     kernel32:KERNEL32.dll
 0002:000000f8       __imp__SetEvent@4          100700f8     kernel32:KERNEL32.dll
 0002:000000fc       __imp__ResetEvent@4        100700fc     kernel32:KERNEL32.dll
 0002:00000100       __imp__WaitForSingleObjectEx@12 10070100     kernel32:KERNEL32.dll
 0002:00000104       __imp__UnhandledExceptionFilter@4 10070104     kernel32:KERNEL32.dll
 0002:00000108       __imp__SetUnhandledExceptionFilter@4 10070108     kernel32:KERNEL32.dll
 0002:0000010c       __imp__TerminateProcess@8  1007010c     kernel32:KERNEL32.dll
 0002:00000110       __imp__IsProcessorFeaturePresent@4 10070110     kernel32:KERNEL32.dll
 0002:00000114       __imp__IsDebuggerPresent@0 10070114     kernel32:KERNEL32.dll
 0002:00000118       __imp__GetStartupInfoW@4   10070118     kernel32:KERNEL32.dll
 0002:0000011c       __imp__GetCurrentProcessId@0 1007011c     kernel32:KERNEL32.dll
 0002:00000120       __imp__GetCurrentThreadId@0 10070120     kernel32:KERNEL32.dll
 0002:00000124       __imp__InitializeSListHead@4 10070124     kernel32:KERNEL32.dll
 0002:00000128       __imp__RaiseException@16   10070128     kernel32:KERNEL32.dll
 0002:0000012c       __imp__RtlUnwind@16        1007012c     kernel32:KERNEL32.dll
 0002:00000130       __imp__InterlockedFlushSList@4 10070130     kernel32:KERNEL32.dll
 0002:00000134       __imp__LoadLibraryExW@12   10070134     kernel32:KERNEL32.dll
 0002:00000138       __imp__ExitProcess@4       10070138     kernel32:KERNEL32.dll
 0002:0000013c       __imp__GetModuleHandleExW@12 1007013c     kernel32:KERNEL32.dll
 0002:00000140       __imp__GetModuleFileNameW@12 10070140     kernel32:KERNEL32.dll
 0002:00000144       __imp__HeapFree@12         10070144     kernel32:KERNEL32.dll
 0002:00000148       __imp__HeapAlloc@12        10070148     kernel32:KERNEL32.dll
 0002:0000014c       __imp__GetStdHandle@4      1007014c     kernel32:KERNEL32.dll
 0002:00000150       __imp__GetFileType@4       10070150     kernel32:KERNEL32.dll
 0002:00000154       __imp__GetDateFormatW@24   10070154     kernel32:KERNEL32.dll
 0002:00000158       __imp__GetTimeFormatW@24   10070158     kernel32:KERNEL32.dll
 0002:0000015c       __imp__IsValidLocale@8     1007015c     kernel32:KERNEL32.dll
 0002:00000160       __imp__GetUserDefaultLCID@0 10070160     kernel32:KERNEL32.dll
 0002:00000164       __imp__EnumSystemLocalesW@8 10070164     kernel32:KERNEL32.dll
 0002:00000168       __imp__FlushFileBuffers@4  10070168     kernel32:KERNEL32.dll
 0002:0000016c       __imp__WriteFile@20        1007016c     kernel32:KERNEL32.dll
 0002:00000170       __imp__GetConsoleCP@0      10070170     kernel32:KERNEL32.dll
 0002:00000174       __imp__GetConsoleMode@8    10070174     kernel32:KERNEL32.dll
 0002:00000178       __imp__ReadFile@20         10070178     kernel32:KERNEL32.dll
 0002:0000017c       __imp__GetFileSizeEx@8     1007017c     kernel32:KERNEL32.dll
 0002:00000180       __imp__SetFilePointerEx@20 10070180     kernel32:KERNEL32.dll
 0002:00000184       __imp__ReadConsoleW@20     10070184     kernel32:KERNEL32.dll
 0002:00000188       __imp__DeleteFileW@4       10070188     kernel32:KERNEL32.dll
 0002:0000018c       \177KERNEL32_NULL_THUNK_DATA 1007018c     kernel32:KERNEL32.dll
 0002:00000190       __imp__VariantClear@4      10070190     oleaut32:OLEAUT32.dll
 0002:00000194       \177OLEAUT32_NULL_THUNK_DATA 10070194     oleaut32:OLEAUT32.dll
 0002:00000198       __imp__FindWindowA@8       10070198     user32:USER32.dll
 0002:0000019c       __imp__SetWindowLongA@12   1007019c     user32:USER32.dll
 0002:000001a0       __imp__ScreenToClient@8    100701a0     user32:USER32.dll
 0002:000001a4       __imp__GetCursorPos@4      100701a4     user32:USER32.dll
 0002:000001a8       __imp__CallWindowProcA@20  100701a8     user32:USER32.dll
 0002:000001ac       __imp__MapVirtualKeyA@8    100701ac     user32:USER32.dll
 0002:000001b0       __imp__ToAscii@20          100701b0     user32:USER32.dll
 0002:000001b4       __imp__GetKeyboardState@4  100701b4     user32:USER32.dll
 0002:000001b8       __imp__GetAsyncKeyState@4  100701b8     user32:USER32.dll
 0002:000001bc       \177USER32_NULL_THUNK_DATA 100701bc     user32:USER32.dll
 0002:000001c0       __imp__timeGetTime@0       100701c0     Winmm:WINMM.dll
 0002:000001c4       __imp__PlaySoundA@12       100701c4     Winmm:WINMM.dll
 0002:000001c8       __imp__timeBeginPeriod@4   100701c8     Winmm:WINMM.dll
 0002:000001cc       \177WINMM_NULL_THUNK_DATA  100701cc     Winmm:WINMM.dll
 0002:000001d0       __imp__URLDownloadToFileA@20 100701d0     urlmon:urlmon.dll
 0002:000001d4       \177urlmon_NULL_THUNK_DATA 100701d4     urlmon:urlmon.dll
 0002:000001d8       ___guard_check_icall_fptr  100701d8     LIBCMT:guard_support.obj
 0002:000001dc       ___xc_a                    100701dc     LIBCMT:initializers.obj
 0002:00000280       ___xc_z                    10070280     LIBCMT:initializers.obj
 0002:00000284       ___xi_a                    10070284     LIBCMT:initializers.obj
 0002:00000290       ___acrt_stdio_initializer  10070290     libucrt:stdio_initializer.obj
 0002:00000294       ___acrt_tran_sse2_initializer 10070294     libucrt:sse2_initializer.obj
 0002:00000298       ___acrt_timeset_initializer 10070298     libucrt:timeset_initializer.obj
 0002:0000029c       ___acrt_multibyte_initializer 1007029c     libucrt:multibyte_initializer.obj
 0002:000002a0       ___xi_z                    100702a0     LIBCMT:initializers.obj
 0002:000002a4       ___xl_a                    100702a4     LIBCMT:tlssup.obj
 0002:000002a8       ___xl_z                    100702a8     LIBCMT:tlssup.obj
 0002:000002ac       ___xp_a                    100702ac     LIBCMT:initializers.obj
 0002:000002b0       ___acrt_locale_terminator  100702b0     libucrt:locale_initializer.obj
 0002:000002b4       ___dcrt_console_output_terminator 100702b4     libucrt:console_output_initializer.obj
 0002:000002b8       ___acrt_stdio_terminator   100702b8     libucrt:stdio_initializer.obj
 0002:000002bc       ___xp_z                    100702bc     LIBCMT:initializers.obj
 0002:000002c0       ___xt_a                    100702c0     LIBCMT:initializers.obj
 0002:000002c4       ___xt_z                    100702c4     LIBCMT:initializers.obj
 0002:000002d0       ??_C@_0M@EINGCJHB@vstdlib?4dll@ 100702d0     Aimbot.obj
 0002:000002e0       ??_7CTraceFilterOneEntity@SDK@@6B@ 100702e0     Aimbot.obj
 0002:000002ec       ??_7CTraceFilterOneEntity2@SDK@@6B@ 100702ec     Aimbot.obj
 0002:000002f4       ??_C@_0M@MPLEGCP@RandomFloat@ 100702f4     Aimbot.obj
 0002:00000300       ??_C@_0BD@OLBABOEK@vector?$DMT?$DO?5too?5long@ 10070300     Aimbot.obj
 0002:00000314       __real@3a83126f            10070314     Aimbot.obj
 0002:00000318       __real@3b800000            10070318     Aimbot.obj
 0002:0000031c       __real@3c23d70a            1007031c     Aimbot.obj
 0002:00000320       __real@3dcccccd            10070320     Aimbot.obj
 0002:00000324       __real@3f000000            10070324     Aimbot.obj
 0002:00000328       __real@3f800000            10070328     Aimbot.obj
 0002:0000032c       __real@40400000            1007032c     Aimbot.obj
 0002:00000330       __real@41a00000            10070330     Aimbot.obj
 0002:00000334       __real@42480000            10070334     Aimbot.obj
 0002:00000338       __real@425c0000            10070338     Aimbot.obj
 0002:0000033c       __real@42940000            1007033c     Aimbot.obj
 0002:00000340       __real@42b20000            10070340     Aimbot.obj
 0002:00000344       __real@42b40000            10070344     Aimbot.obj
 0002:00000348       __real@42c80000            10070348     Aimbot.obj
 0002:0000034c       __real@43340000            1007034c     Aimbot.obj
 0002:00000350       __real@43b40000            10070350     Aimbot.obj
 0002:00000354       __real@43e10000            10070354     Aimbot.obj
 0002:00000358       __real@45fce000            10070358     Aimbot.obj
 0002:0000035c       __real@7f7fffff            1007035c     Aimbot.obj
 0002:00000360       __real@c2b20000            10070360     Aimbot.obj
 0002:00000364       __real@c3340000            10070364     Aimbot.obj
 0002:0000036c       ??_7CTraceFilter@SDK@@6B@  1007036c     Antiaim.obj
 0002:00000378       ??_7CTraceWorldOnly@SDK@@6B@ 10070378     Antiaim.obj
 0002:00000380       __real@00000000            10070380     Antiaim.obj
 0002:00000388       __real@3fb999999999999a    10070388     Antiaim.obj
 0002:00000390       __real@3fcc28f5c28f5c29    10070390     Antiaim.obj
 0002:00000398       __real@3fd3333333333333    10070398     Antiaim.obj
 0002:000003a0       __real@3ff199999999999a    100703a0     Antiaim.obj
 0002:000003a8       __real@40a00000            100703a8     Antiaim.obj
 0002:000003ac       __real@41700000            100703ac     Antiaim.obj
 0002:000003b0       __real@41880000            100703b0     Antiaim.obj
 0002:000003b4       __real@41900000            100703b4     Antiaim.obj
 0002:000003b8       __real@41c00000            100703b8     Antiaim.obj
 0002:000003bc       __real@41c80000            100703bc     Antiaim.obj
 0002:000003c0       __real@420c0000            100703c0     Antiaim.obj
 0002:000003c4       __real@42440000            100703c4     Antiaim.obj
 0002:000003c8       __real@42700000            100703c8     Antiaim.obj
 0002:000003cc       __real@42800000            100703cc     Antiaim.obj
 0002:000003d0       __real@42e60000            100703d0     Antiaim.obj
 0002:000003d4       __real@43020000            100703d4     Antiaim.obj
 0002:000003d8       __real@4f800000            100703d8     Antiaim.obj
 0002:000003dc       __real@bf000000            100703dc     Antiaim.obj
 0002:000003e0       __real@bf800000            100703e0     Antiaim.obj
 0002:000003e4       __real@c2e60000            100703e4     Antiaim.obj
 0002:000003f0       __xmm@41f00000000000000000000000000000 100703f0     Antiaim.obj
 0002:00000400       __xmm@7fffffffffffffff7fffffffffffffff 10070400     Antiaim.obj
 0002:00000410       __xmm@80000000800000008000000080000000 10070410     Antiaim.obj
 0002:00000420       __real@402e000000000000    10070420     Autostrafer.obj
 0002:00000428       __real@41f00000            10070428     Autostrafer.obj
 0002:0000042c       __real@42340000            1007042c     Autostrafer.obj
 0002:00000430       __real@42652ee0            10070430     Autostrafer.obj
 0002:00000434       __real@43070000            10070434     Autostrafer.obj
 0002:00000438       __real@c2340000            10070438     Autostrafer.obj
 0002:0000043c       __real@c2b40000            1007043c     Autostrafer.obj
 0002:00000440       __real@c3070000            10070440     Autostrafer.obj
 0002:00000444       __real@c3e10000            10070444     Autostrafer.obj
 0002:0000044c       ??_7exception@std@@6B@     1007044c     Autowall.obj
 0002:00000454       ??_C@_0BC@EOODALEL@Unknown?5exception@ 10070454     Autowall.obj
 0002:0000046c       ??_7logic_error@std@@6B@   1007046c     Autowall.obj
 0002:00000474       ??_C@_0L@PHFEFMEF@client?4dll@ 10070474     Autowall.obj
 0002:00000480       ??_C@_0CA@PLJFAFPH@xxxxxxxxxxxxxxxxxxxxxxxx?$DP?$DP?$DP?$DPxxx@ 10070480     Autowall.obj
 0002:000004a0       ??_C@_0CA@NCNDOMBC@S?$IL?$NM?$ID?l?$AI?$ID?d?p?$ID?D?$AEU?$ILk?$AE?$IJl$?$AE?$IL?l?$IB?l?$AA?$AA?$AA?$AA?$ILC?$BA@ 100704a0     Autowall.obj
 0002:000004c0       ??_C@_0BN@CCHNNEEM@xxxxxxxxxxxxxxxxxxxxxxxxxxxx@ 100704c0     Autowall.obj
 0002:000004e0       ??_C@_0BN@HMPJPBK@S?$IL?$NM?$ID?l?$AI?$ID?d?x?$ID?D?$AEU?$ILk?$AE?$IJl$?$AE?$IL?l?$ID?lx?$ILS?$BE@ 100704e0     Autowall.obj
 0002:00000500       ??_C@_0BC@BCICHOML@CBreakableSurface@ 10070500     Autowall.obj
 0002:00000514       ??_C@_0BA@JFNIOLAK@string?5too?5long@ 10070514     Autowall.obj
 0002:00000524       __real@3f400000            10070524     Autowall.obj
 0002:00000528       __real@3fa00000            10070528     Autowall.obj
 0002:0000052c       __real@40000000            1007052c     Autowall.obj
 0002:00000530       __real@40800000            10070530     Autowall.obj
 0002:00000534       __real@42200000            10070534     Autowall.obj
 0002:00000538       __real@43fa0000            10070538     Autowall.obj
 0002:0000053c       ??_C@_0BA@NAOEFMHJ@xxxxxxxxxxxxx?$DP?$DP@ 1007053c     Backtracking.obj
 0002:0000054c       ??_C@_0BA@LIFLIIA@U?$IL?l?$ID?d?xQSVW?$IL?q?h?$AA?$AA@ 1007054c     Backtracking.obj
 0002:0000055c       ??_C@_0BA@BKAJBOPO@xxxxxxxxxxxxxxx@ 1007055c     Backtracking.obj
 0002:0000056c       ??_C@_0BA@KOOOMFIC@U?$IL?l?$ID?d?x?$ID?ldSVW?$IL?q?h@ 1007056c     Backtracking.obj
 0002:0000057c       ??_C@_0L@FKMMBKBD@sv_gravity@ 1007057c     Backtracking.obj
 0002:00000588       ??_C@_0L@OJEIPPLD@xx?$DP?$DP?$DP?$DPxxxx@ 10070588     Backtracking.obj
 0002:00000594       ??_C@_0L@DFHOBHKF@?$IA?$DN?$AA?$AA?$AA?$AA?$AAt?$BG?$KB@ 10070594     Backtracking.obj
 0002:000005a0       ??_C@_0BA@EALHDOPA@cl_interp_ratio@ 100705a0     Backtracking.obj
 0002:000005b0       ??_C@_0O@GLEIJHMA@cl_updaterate@ 100705b0     Backtracking.obj
 0002:000005c0       ??_C@_09EEMEFIMK@cl_interp@ 100705c0     Backtracking.obj
 0002:000005cc       ??_C@_0BC@KBDMBKEH@deque?$DMT?$DO?5too?5long@ 100705cc     Backtracking.obj
 0002:000005e0       __real@3e4ccccc            100705e0     Backtracking.obj
 0002:000005e8       __real@3fe0000000000000    100705e8     Backtracking.obj
 0002:000005f0       ??_C@_02NJPGOMH@?$CFf@     100705f0     BoxESP.obj
 0002:000005f4       ??_C@_0N@CNADAMED@Breaking?5LBY@ 100705f4     BoxESP.obj
 0002:00000604       ??_C@_05BOOJJLKO@LBY?3?5@  10070604     BoxESP.obj
 0002:0000060c       ??_C@_05INKFKLBN@?$CFs?5?$CFi@ 1007060c     BoxESP.obj
 0002:00000614       ??_C@_0BI@CFPLBAOH@invalid?5string?5position@ 10070614     BoxESP.obj
 0002:0000062c       __real@3b449ba6            1007062c     BoxESP.obj
 0002:00000630       __real@3f0ccccd            10070630     BoxESP.obj
 0002:00000634       __real@40c00000            10070634     BoxESP.obj
 0002:00000638       __real@41000000            10070638     BoxESP.obj
 0002:0000063c       __real@41100000            1007063c     BoxESP.obj
 0002:00000640       __real@43160000            10070640     BoxESP.obj
 0002:00000644       __real@437f0000            10070644     BoxESP.obj
 0002:00000648       ??_C@_0BI@LDFJIEBB@55?58B?5EC?551?533?5C0?5C7?545@ 10070648     Chams.obj
 0002:00000660       ??_C@_0DD@PILKPPAK@55?58B?5EC?583?5E4?5F8?583?5EC?534?553?58@ 10070660     Chams.obj
 0002:00000694       ??_C@_08NMECNPNI@?$CC?7?7?7?7?6?$HN?6@ 10070694     Chams.obj
 0002:000006a0       ??_C@_0CK@MNIOLAED@?$CC?7?7?7?7?6?7?$CC$znearer?$CC?5?$CC0?$CC?7?7?7?7?6?7?$CC$wi@ 100706a0     Chams.obj
 0002:000006d0       ??_C@_0BBK@HJPGOMOB@?$CC?$CFs?$CC?7?7?7?7?6?$HL?7?7?7?7?6?7?$CC$basetexture?$CC?5@ 100706d0     Chams.obj
 0002:000007ec       ??_C@_0BB@PJFNHEEA@VertexLitGeneric@ 100707ec     Chams.obj
 0002:00000800       ??_C@_0BL@GHDFFJPE@?$CDnice_pener_material?$CFi?4vmt@ 10070800     Chams.obj
 0002:0000081c       __real@447a0000            1007081c     CircleStrafer.obj
 0002:00000820       ??_C@_0BE@HPOMLKFC@xx?$DP?$DP?$DP?$DPx?$DP?$DP?$DP?$DPx?$DP?$DP?$DP?$DPxxx@ 10070820     EnginePrediction.obj
 0002:00000834       ??_C@_0BE@OINIJPGK@?$IL?$AN?$AA?$AA?$AA?$AA?$LK?$AA?$AA?$AA?$AA?h?$AA?$AA?$AA?$AA?$ID?D?$AE@ 10070834     EnginePrediction.obj
 0002:0000084c       ??_7IGameEventListener@SDK@@6B@ 1007084c     EventListeners.obj
 0002:0000085c       ??_7ItemPurchaseListener@MISC@FEATURES@@6B@ 1007085c     EventListeners.obj
 0002:0000086c       ??_7PlayerHurtListener@MISC@FEATURES@@6B@ 1007086c     EventListeners.obj
 0002:0000087c       ??_7BulletImpactListener@MISC@FEATURES@@6B@ 1007087c     EventListeners.obj
 0002:0000088c       ??_7WeaponFireListener@MISC@FEATURES@@6B@ 1007088c     EventListeners.obj
 0002:00000898       ??_C@_00CNPNBAHC@@         10070898     EventListeners.obj
 0002:0000089c       ??_C@_0O@JAENPIHH@item_purchase@ 1007089c     EventListeners.obj
 0002:000008ac       ??_C@_0M@GPCKBPEK@player_hurt@ 100708ac     EventListeners.obj
 0002:000008b8       ??_C@_0O@FEPDDHEK@bullet_impact@ 100708b8     EventListeners.obj
 0002:000008c8       ??_C@_0M@LMEOBDP@weapon_fire@ 100708c8     EventListeners.obj
 0002:000008d4       ??_C@_06IHAGGOEE@userid@   100708d4     EventListeners.obj
 0002:000008dc       ??_C@_0L@HKNLFHNA@?5bought?5a?5@ 100708dc     EventListeners.obj
 0002:000008e8       ??_C@_06GEPNGEJI@weapon@   100708e8     EventListeners.obj
 0002:000008f0       ??_C@_08MANLKGDL@attacker@ 100708f0     EventListeners.obj
 0002:000008fc       ??_C@_0L@CPHGICGA@dmg_health@ 100708fc     EventListeners.obj
 0002:00000908       ??_C@_04NBAMEHMN@Hit?5@    10070908     EventListeners.obj
 0002:00000910       ??_C@_08KBGNDPBA@hitgroup@ 10070910     EventListeners.obj
 0002:0000091c       ??_C@_08KBNOFEGG@?5in?5the?5@ 1007091c     EventListeners.obj
 0002:00000928       ??_C@_05POFHKGEO@?5for?5@  10070928     EventListeners.obj
 0002:00000930       ??_C@_08BBLFANMG@?5damage?4@ 10070930     EventListeners.obj
 0002:0000093c       ??_C@_01GLPGHMHM@z@        1007093c     EventListeners.obj
 0002:00000940       ??_C@_01EANLCPLP@y@        10070940     EventListeners.obj
 0002:00000944       ??_C@_01FJMABOPO@x@        10070944     EventListeners.obj
 0002:00000948       __real@3fc3333333333333    10070948     Fakewalk.obj
 0002:00000950       ?piecewise_construct@std@@3Upiecewise_construct_t@1@B 10070950     Misc.obj
 0002:00000958       ??_7runtime_error@std@@6B@ 10070958     Misc.obj
 0002:00000960       ??_C@_0BA@ELKIONDK@bad?5locale?5name@ 10070960     Misc.obj
 0002:00000974       ??_7_Facet_base@std@@6B@   10070974     Misc.obj
 0002:00000984       ??_7?$ctype@D@std@@6B@     10070984     Misc.obj
 0002:000009b4       ??_7_System_error@std@@6B@ 100709b4     Misc.obj
 0002:000009bc       ??_C@_02LMMGGCAJ@?3?5@     100709bc     Misc.obj
 0002:000009c4       ??_7system_error@std@@6B@  100709c4     Misc.obj
 0002:000009d0       ??_7_Iostream_error_category@std@@6B@ 100709d0     Misc.obj
 0002:000009e8       ??_C@_08LLGCOLLL@iostream@ 100709e8     Misc.obj
 0002:000009f4       ??_C@_0BG@PADBLCHM@iostream?5stream?5error@ 100709f4     Misc.obj
 0002:00000a10       ??_7failure@ios_base@std@@6B@ 10070a10     Misc.obj
 0002:00000a1c       ??_7ios_base@std@@6B@      10070a1c     Misc.obj
 0002:00000a20       ??_C@_0BF@PHHKMMFD@ios_base?3?3badbit?5set@ 10070a20     Misc.obj
 0002:00000a38       ??_C@_0BG@FMKFHCIL@ios_base?3?3failbit?5set@ 10070a38     Misc.obj
 0002:00000a50       ??_C@_0BF@OOHOMBOF@ios_base?3?3eofbit?5set@ 10070a50     Misc.obj
 0002:00000a68       ??_C@_0L@EMPDFJNI@engine?4dll@ 10070a68     Misc.obj
 0002:00000a74       ??_C@_09CPPOEBIG@xxxxxxxxx@ 10070a74     Misc.obj
 0002:00000a80       ??_C@_09JNDMODPH@SVW?$IL?Z?$IL?y?$PP?$BF@ 10070a80     Misc.obj
 0002:00000b98       ??_7?$basic_ios@DU?$char_traits@D@std@@@std@@6B@ 10070b98     Misc.obj
 0002:00000ba0       ??_7?$basic_istream@DU?$char_traits@D@std@@@std@@6B@ 10070ba0     Misc.obj
 0002:00000ba8       ??_7?$basic_ostream@DU?$char_traits@D@std@@@std@@6B@ 10070ba8     Misc.obj
 0002:00000bac       ??_8?$basic_ostream@DU?$char_traits@D@std@@@std@@7B@ 10070bac     Misc.obj
 0002:00000bb8       ??_7?$basic_iostream@DU?$char_traits@D@std@@@std@@6B@ 10070bb8     Misc.obj
 0002:00000bbc       ??_8?$basic_iostream@DU?$char_traits@D@std@@@std@@7B?$basic_istream@DU?$char_traits@D@std@@@1@@ 10070bbc     Misc.obj
 0002:00000bc4       ??_8?$basic_iostream@DU?$char_traits@D@std@@@std@@7B?$basic_ostream@DU?$char_traits@D@std@@@1@@ 10070bc4     Misc.obj
 0002:00000bd0       ??_7?$basic_streambuf@DU?$char_traits@D@std@@@std@@6B@ 10070bd0     Misc.obj
 0002:00000c10       ??_7?$basic_filebuf@DU?$char_traits@D@std@@@std@@6B@ 10070c10     Misc.obj
 0002:00000c50       ??_7?$basic_fstream@DU?$char_traits@D@std@@@std@@6B@ 10070c50     Misc.obj
 0002:00000c54       ??_8?$basic_fstream@DU?$char_traits@D@std@@@std@@7B?$basic_istream@DU?$char_traits@D@std@@@1@@ 10070c54     Misc.obj
 0002:00000c5c       ??_8?$basic_fstream@DU?$char_traits@D@std@@@std@@7B?$basic_ostream@DU?$char_traits@D@std@@@1@@ 10070c5c     Misc.obj
 0002:00000c64       ??_C@_0DJ@JGNBOHDK@?2?2?5These?5are?5options?5that?5are?5r@ 10070c64     Misc.obj
 0002:00000ca0       ??_C@_0DO@JNMLMOP@?2?2?5Use?5?$CIENABLED?$CJ?5and?5?$CIDISABLED?$CJ@ 10070ca0     Misc.obj
 0002:00000ce0       ??_C@_0EF@IIFAIFIA@?$FLLoad?5config?$FN?5?$CIDISABLED?$CJ?5?2?2?5rag@ 10070ce0     Misc.obj
 0002:00000d28       ??_C@_0FH@JDAANJIH@?$FLLoad?5visuals?1misc?5config?$FN?5?$CIDIS@ 10070d28     Misc.obj
 0002:00000d80       ??_C@_0CF@EPGJBHPJ@?$FLLoad?5skins?5on?5injection?$FN?5?$CIDISA@ 10070d80     Misc.obj
 0002:00000da8       ??_C@_08GLNGGDPJ@DISABLED@ 10070da8     Misc.obj
 0002:00000db4       ??_C@_07DKCFBCHE@ENABLED@  10070db4     Misc.obj
 0002:00000dbc       ??_C@_0BC@LPEFKFMP@skins_config?4scfg@ 10070dbc     Misc.obj
 0002:00000dd0       ?bameware_text@?4???R<lambda_8598c850d2f80c08bd6af5fc93c9f3cd>@@QBE@XZ@4QBDB 10070dd0     Misc.obj
 0002:00000de4       ??_C@_03BHBOHINF@LBY@      10070de4     Misc.obj
 0002:00000dec       ??_7?$codecvt@DDU_Mbstatet@@@std@@6B@ 10070dec     Misc.obj
 0002:00000e14       ??_C@_0BE@JONHPENG@map?1set?$DMT?$DO?5too?5long@ 10070e14     Misc.obj
 0002:00000e28       __real@3c8efa35            10070e28     Misc.obj
 0002:00000e2c       __real@3e19999a            10070e2c     Misc.obj
 0002:00000e30       __real@40200000            10070e30     Misc.obj
 0002:00000e38       __real@4024000000000000    10070e38     Misc.obj
 0002:00000e40       __real@41200000            10070e40     Misc.obj
 0002:00000e44       __real@42fa0000            10070e44     Misc.obj
 0002:00000e48       ??_C@_0CE@LNFEJFHG@55?58B?5EC?583?57D?508?5FF?556?58B?5F1?57@ 10070e48     Resolver.obj
 0002:00000e6c       ??_C@_0N@BCODAK@Hit?5shot?5at?5@ 10070e6c     Resolver.obj
 0002:00000e7c       ??_C@_0BA@CNOHEFKK@Missed?5shot?5at?5@ 10070e7c     Resolver.obj
 0002:00000e8c       ??_C@_08ICLDDLKE@OVERRIDE@ 10070e8c     Resolver.obj
 0002:00000e98       ??_C@_07BGPPLLDP@NO?5FAKE@ 10070e98     Resolver.obj
 0002:00000ea0       ??_C@_0L@OAOBLFMH@LBY?5UPDATE@ 10070ea0     Resolver.obj
 0002:00000eac       ??_C@_0BF@DHIMLONP@PREDICTED?5LBY?5UPDATE@ 10070eac     Resolver.obj
 0002:00000ec4       ??_C@_0BB@PMIJMFPH@NOT?5BREAKING?5LBY@ 10070ec4     Resolver.obj
 0002:00000ed8       ??_C@_0L@MFFDHCIK@BRUTEFORCE@ 10070ed8     Resolver.obj
 0002:00000ee4       ??_C@_0BG@MKHIMGK@LAST?5MOVING?5LBY?5DELTA@ 10070ee4     Resolver.obj
 0002:00000efc       ??_C@_0BA@CIIKPDGJ@LAST?5MOVING?5LBY@ 10070efc     Resolver.obj
 0002:00000f0c       ??_C@_0P@BBFCPCM@ANTI?5FREESTAND@ 10070f0c     Resolver.obj
 0002:00000f1c       ??_C@_03MCFJEBIN@GAY@      10070f1c     Resolver.obj
 0002:00000f20       ??_C@_03NIBMKKKC@?5?1?5@   10070f20     Resolver.obj
 0002:00000f24       __real@41800000            10070f24     Resolver.obj
 0002:00000f28       __real@428c0000            10070f28     Resolver.obj
 0002:00000f2c       __real@42920000            10070f2c     Resolver.obj
 0002:00000f30       __real@42960000            10070f30     Resolver.obj
 0002:00000f34       __real@430c0000            10070f34     Resolver.obj
 0002:00000f38       __real@43200000            10070f38     Resolver.obj
 0002:00000f3c       ??_C@_0BH@LABFDBK@C?3?2Bameware?2Configs?2?$CFs@ 10070f3c     Configurations.obj
 0002:00000f54       ??_C@_05ODCCPGFJ@0x?$CFX?5@ 10070f54     Configurations.obj
 0002:00000f5c       ??_C@_07BGCLIMJD@?$FLH?$FN0x?$CFX@ 10070f5c     Configurations.obj
 0002:00000f64       ??_C@_0BG@JEBIAHIG@C?3?2Bameware?2Configs?2?$CK@ 10070f64     Configurations.obj
 0002:00000f7c       ??_C@_0BJ@HINLFPKK@C?3?2Bameware?2Configs?2?$CFs?$CFs@ 10070f7c     Configurations.obj
 0002:00000f98       ??_C@_05EECHHEFG@AK?947@   10070f98     SkinChanger.obj
 0002:00000fa0       ??_C@_09HEJEKDNG@CZ75?5Auto@ 10070fa0     SkinChanger.obj
 0002:00000fac       ??_C@_0N@FAMDEIAF@Desert?5Eagle@ 10070fac     SkinChanger.obj
 0002:00000fbc       ??_C@_0O@JJEHDGFO@Dual?5Berettas@ 10070fbc     SkinChanger.obj
 0002:00000fcc       ??_C@_05HLBPKPFE@FAMAS@    10070fcc     SkinChanger.obj
 0002:00000fd4       ??_C@_0L@IHNFOILN@Five?9SeveN@ 10070fd4     SkinChanger.obj
 0002:00000fe0       ??_C@_05NANBJKGF@G3SG1@    10070fe0     SkinChanger.obj
 0002:00000fe8       ??_C@_08NJIMLAOK@Galil?5AR@ 10070fe8     SkinChanger.obj
 0002:00000ff4       ??_C@_08FJFDHDHA@Glock?918@ 10070ff4     SkinChanger.obj
 0002:00001000       ??_C@_04OOHKGEMG@M249@     10071000     SkinChanger.obj
 0002:00001008       ??_C@_06FEKDEEJK@M4A1?9S@  10071008     SkinChanger.obj
 0002:00001010       ??_C@_04CMIFOPOM@M4A4@     10071010     SkinChanger.obj
 0002:00001018       ??_C@_06DEKPABNP@MAC?910@  10071018     SkinChanger.obj
 0002:00001020       ??_C@_05DODJCDBE@MAG?97@   10071020     SkinChanger.obj
 0002:00001028       ??_C@_05LLDFNFHM@Negev@    10071028     SkinChanger.obj
 0002:00001030       ??_C@_04JBMBEHJL@Nova@     10071030     SkinChanger.obj
 0002:00001038       ??_C@_05JCFEJGIP@P2000@    10071038     SkinChanger.obj
 0002:00001040       ??_C@_04KGAKOGIL@P250@     10071040     SkinChanger.obj
 0002:00001048       ??_C@_08PKCNDFCK@PP?9Bizon@ 10071048     SkinChanger.obj
 0002:00001054       ??_C@_0M@HKKILMII@R8?5Revolver@ 10071054     SkinChanger.obj
 0002:00001060       ??_C@_09GMOLFBMP@Sawed?9Off@ 10071060     SkinChanger.obj
 0002:0000106c       ??_C@_07BILBIONL@SCAR?920@ 1007106c     SkinChanger.obj
 0002:00001074       ??_C@_06IDKBNLPO@SSG?508@  10071074     SkinChanger.obj
 0002:0000107c       ??_C@_06LCAMIMKD@SG?5553@  1007107c     SkinChanger.obj
 0002:00001084       ??_C@_05JPHCOMGE@Tec?99@   10071084     SkinChanger.obj
 0002:0000108c       ??_C@_06ELKAMIPB@UMP?945@  1007108c     SkinChanger.obj
 0002:00001094       ??_C@_05HMDKGIF@USP?9S@    10071094     SkinChanger.obj
 0002:0000109c       ??_C@_06DDIGILCE@XM1014@   1007109c     SkinChanger.obj
 0002:000010a4       ??_C@_08ONJOKMEB@KNIFE?5CT@ 100710a4     SkinChanger.obj
 0002:000010b0       ??_C@_07EPKKHAPL@KNIFE?5T@ 100710b0     SkinChanger.obj
 0002:000010b8       ??_C@_07MCAEODGB@Default@  100710b8     SkinChanger.obj
 0002:000010c0       ??_C@_07HPCKEIPE@Genuine@  100710c0     SkinChanger.obj
 0002:000010c8       ??_C@_07PPJOCJOF@Vintage@  100710c8     SkinChanger.obj
 0002:000010d0       ??_C@_07GFLDDJPD@Unusual@  100710d0     SkinChanger.obj
 0002:000010d8       ??_C@_09NNGLBCPE@Community@ 100710d8     SkinChanger.obj
 0002:000010e4       ??_C@_09HCBPJCHD@Developer@ 100710e4     SkinChanger.obj
 0002:000010f0       ??_C@_09PIBPEEGK@Self?9Made@ 100710f0     SkinChanger.obj
 0002:000010fc       ??_C@_0L@DMDPMNHP@Customized@ 100710fc     SkinChanger.obj
 0002:00001108       ??_C@_07DFAABAML@Strange@  10071108     SkinChanger.obj
 0002:00001110       ??_C@_09MIJAKHKB@Completed@ 10071110     SkinChanger.obj
 0002:0000111c       ??_C@_0L@FENDKKGN@Tournament@ 1007111c     SkinChanger.obj
 0002:00001128       ??_C@_0M@EDOCMJDF@Groundwater@ 10071128     SkinChanger.obj
 0002:00001134       ??_C@_0M@OPCAHGBI@Candy?5Apple@ 10071134     SkinChanger.obj
 0002:00001140       ??_C@_0N@FFBELPGE@Forest?5DDPAT@ 10071140     SkinChanger.obj
 0002:00001150       ??_C@_0M@FCMIHBKN@Arctic?5Camo@ 10071150     SkinChanger.obj
 0002:0000115c       ??_C@_0N@DGJJJNOM@Desert?5Storm@ 1007115c     SkinChanger.obj
 0002:0000116c       ??_C@_0N@FJAKLPOF@Bengal?5Tiger@ 1007116c     SkinChanger.obj
 0002:0000117c       ??_C@_0L@NFJHMHME@Copperhead@ 1007117c     SkinChanger.obj
 0002:00001188       ??_C@_06BHIABDEH@Skulls@   10071188     SkinChanger.obj
 0002:00001190       ??_C@_0M@GFECCEP@Crimson?5Web@ 10071190     SkinChanger.obj
 0002:0000119c       ??_C@_0M@DPCGOHHJ@Blue?5Streak@ 1007119c     SkinChanger.obj
 0002:000011a8       ??_C@_0N@IJGLODJA@Red?5Laminate@ 100711a8     SkinChanger.obj
 0002:000011b8       ??_C@_08EPGFLNDG@Gunsmoke@ 100711b8     SkinChanger.obj
 0002:000011c4       ??_C@_0N@OBBBHNAI@Jungle?5Tiger@ 100711c4     SkinChanger.obj
 0002:000011d4       ??_C@_0M@EPFCPDPH@Urban?5DDPAT@ 100711d4     SkinChanger.obj
 0002:000011e0       ??_C@_05JHNGEIBD@Virus@    100711e0     SkinChanger.obj
 0002:000011e8       ??_C@_0BD@GLPPKINJ@Granite?5Marbleized@ 100711e8     SkinChanger.obj
 0002:000011fc       ??_C@_0P@EJEOPGBF@Contrast?5Spray@ 100711fc     SkinChanger.obj
 0002:0000120c       ??_C@_0O@GFJDNNLG@Forest?5Leaves@ 1007120c     SkinChanger.obj
 0002:0000121c       ??_C@_0O@FPCNGBIN@Lichen?5Dashed@ 1007121c     SkinChanger.obj
 0002:0000122c       ??_C@_09ONOELCGH@Bone?5Mask@ 1007122c     SkinChanger.obj
 0002:00001238       ??_C@_0O@NONFFFGP@Anodized?5Navy@ 10071238     SkinChanger.obj
 0002:00001248       ??_C@_0L@JMBCBDGP@Snake?5Camo@ 10071248     SkinChanger.obj
 0002:00001254       ??_C@_06BONGPKIK@Silver@   10071254     SkinChanger.obj
 0002:0000125c       ??_C@_07GPDHEAIG@Hot?5Rod@ 1007125c     SkinChanger.obj
 0002:00001264       ??_C@_0P@HCCJKNJE@Metallic?5DDPAT@ 10071264     SkinChanger.obj
 0002:00001274       ??_C@_08NHKILINM@Ossified@ 10071274     SkinChanger.obj
 0002:00001280       ??_C@_05JCBJINHF@Blaze@    10071280     SkinChanger.obj
 0002:00001288       ??_C@_04DKKAMJHD@Fade@     10071288     SkinChanger.obj
 0002:00001290       ??_C@_09CIMMKKHM@Bulldozer@ 10071290     SkinChanger.obj
 0002:0000129c       ??_C@_05EECLMJKM@Night@    1007129c     SkinChanger.obj
 0002:000012a4       ??_C@_06CPCKKAAG@Copper@   100712a4     SkinChanger.obj
 0002:000012ac       ??_C@_0L@DBOBANBN@Blue?5Steel@ 100712ac     SkinChanger.obj
 0002:000012b8       ??_C@_07JKKNMOBA@Stained@  100712b8     SkinChanger.obj
 0002:000012c0       ??_C@_0O@KJMMGPHG@Case?5Hardened@ 100712c0     SkinChanger.obj
 0002:000012d0       ??_C@_0L@JLJHBLJO@Contractor@ 100712d0     SkinChanger.obj
 0002:000012dc       ??_C@_06GNOBKLGG@Colony@   100712dc     SkinChanger.obj
 0002:000012e4       ??_C@_0O@HGAJGILG@Dragon?5Tattoo@ 100712e4     SkinChanger.obj
 0002:000012f4       ??_C@_0BB@PJJIOMOB@Lightning?5Strike@ 100712f4     SkinChanger.obj
 0002:00001308       ??_C@_09FNOLKBMB@Slaughter@ 10071308     SkinChanger.obj
 0002:00001314       ??_C@_0L@FCDEGGNE@Dark?5Water@ 10071314     SkinChanger.obj
 0002:00001320       ??_C@_08OHNMGBGI@Hypnotic@ 10071320     SkinChanger.obj
 0002:0000132c       ??_C@_0L@LKKFJNHI@Bloomstick@ 1007132c     SkinChanger.obj
 0002:00001338       ??_C@_0N@JEJOOMBJ@Cold?5Blooded@ 10071338     SkinChanger.obj
 0002:00001348       ??_C@_0N@DGHIEPBK@Carbon?5Fiber@ 10071348     SkinChanger.obj
 0002:00001358       ??_C@_08DAFADDAO@Scorpion@ 10071358     SkinChanger.obj
 0002:00001364       ??_C@_0M@GJILCPMG@Safari?5Mesh@ 10071364     SkinChanger.obj
 0002:00001370       ??_C@_05FJOHAEIP@Wings@    10071370     SkinChanger.obj
 0002:00001378       ??_C@_0L@CIMEEHIP@Polar?5Camo@ 10071378     SkinChanger.obj
 0002:00001384       ??_C@_0BE@GEADEPCF@Blizzard?5Marbleized@ 10071384     SkinChanger.obj
 0002:00001398       ??_C@_0O@DGOGMMCM@Winter?5Forest@ 10071398     SkinChanger.obj
 0002:000013a8       ??_C@_0O@HPJBMDBP@Boreal?5Forest@ 100713a8     SkinChanger.obj
 0002:000013b8       ??_C@_0N@CDKOOGC@Forest?5Night@ 100713b8     SkinChanger.obj
 0002:000013c8       ??_C@_0N@MOPPCCGL@Orange?5DDPAT@ 100713c8     SkinChanger.obj
 0002:000013d8       ??_C@_0L@EKJBKFDM@Pink?5DDPAT@ 100713d8     SkinChanger.obj
 0002:000013e4       ??_C@_06JHEDALCM@Mudder@   100713e4     SkinChanger.obj
 0002:000013ec       ??_C@_0N@CCIEDFOP@Cyanospatter@ 100713ec     SkinChanger.obj
 0002:000013fc       ??_C@_07LMKOFCEA@Caramel@  100713fc     SkinChanger.obj
 0002:00001404       ??_C@_09GOLBDHFM@Grassland@ 10071404     SkinChanger.obj
 0002:00001410       ??_C@_0M@GJKJALBA@Blue?5Spruce@ 10071410     SkinChanger.obj
 0002:0000141c       ??_C@_0M@IIBENIHK@Ultraviolet@ 1007141c     SkinChanger.obj
 0002:00001428       ??_C@_09BDCLDHID@Sand?5Dune@ 10071428     SkinChanger.obj
 0002:00001434       ??_C@_05CMBGCMIL@Storm@    10071434     SkinChanger.obj
 0002:0000143c       ??_C@_07HIIGAALC@Tornado@  1007143c     SkinChanger.obj
 0002:00001444       ??_C@_08KJKIDDCA@Whiteout@ 10071444     SkinChanger.obj
 0002:00001450       ??_C@_0BB@IJLIHELD@Grassland?5Leaves@ 10071450     SkinChanger.obj
 0002:00001464       ??_C@_0L@EBGPHGAE@Polar?5Mesh@ 10071464     SkinChanger.obj
 0002:00001470       ??_C@_09PNFFLFGN@Condemned@ 10071470     SkinChanger.obj
 0002:0000147c       ??_C@_0N@PFDPAIPH@Glacier?5Mesh@ 1007147c     SkinChanger.obj
 0002:0000148c       ??_C@_09OPHCEMAD@Sand?5Mesh@ 1007148c     SkinChanger.obj
 0002:00001498       ??_C@_0L@CBKDHAHP@Sage?5Spray@ 10071498     SkinChanger.obj
 0002:000014a4       ??_C@_0N@BCNOGOPJ@Jungle?5Spray@ 100714a4     SkinChanger.obj
 0002:000014b4       ??_C@_0L@EBKKMGLK@Sand?5Spray@ 100714b4     SkinChanger.obj
 0002:000014c0       ??_C@_0BB@HEBGBBOB@Urban?5Perforated@ 100714c0     SkinChanger.obj
 0002:000014d4       ??_C@_0BB@ELFMLINJ@Waves?5Perforated@ 100714d4     SkinChanger.obj
 0002:000014e8       ??_C@_0M@HNKEOFBH@Orange?5Peel@ 100714e8     SkinChanger.obj
 0002:000014f4       ??_C@_0N@IMLJNPJA@Urban?5Masked@ 100714f4     SkinChanger.obj
 0002:00001504       ??_C@_0O@PKEFHFCF@Jungle?5Dashed@ 10071504     SkinChanger.obj
 0002:00001514       ??_C@_0M@BFMDBBKH@Sand?5Dashed@ 10071514     SkinChanger.obj
 0002:00001520       ??_C@_0N@LJEDFKN@Urban?5Dashed@ 10071520     SkinChanger.obj
 0002:00001530       ??_C@_06LDDNPE@Jungle@     10071530     SkinChanger.obj
 0002:00001538       ??_C@_0L@PAKEHDBP@Demolition@ 10071538     SkinChanger.obj
 0002:00001544       ??_C@_0L@IJCFDOEA@Afterimage@ 10071544     SkinChanger.obj
 0002:00001550       ??_C@_0M@FMDKJNJK@Bullet?5Rain@ 10071550     SkinChanger.obj
 0002:0000155c       ??_C@_0P@IHGEAONB@Death?5by?5Kitty@ 1007155c     SkinChanger.obj
 0002:0000156c       ??_C@_04BDMKHAOB@Palm@     1007156c     SkinChanger.obj
 0002:00001574       ??_C@_06NJBLCHHC@Walnut@   10071574     SkinChanger.obj
 0002:0000157c       ??_C@_05FOIACKMO@Brass@    1007157c     SkinChanger.obj
 0002:00001584       ??_C@_06FPEHODOG@Splash@   10071584     SkinChanger.obj
 0002:0000158c       ??_C@_0O@NJHJEFAF@Modern?5Hunter@ 1007158c     SkinChanger.obj
 0002:0000159c       ??_C@_0L@LAHCMGBK@Splash?5Jam@ 1007159c     SkinChanger.obj
 0002:000015a8       ??_C@_0N@EBKBHDNA@Blaze?5Orange@ 100715a8     SkinChanger.obj
 0002:000015b8       ??_C@_0BB@JFAAMFPH@Radiation?5Hazard@ 100715b8     SkinChanger.obj
 0002:000015cc       ??_C@_0P@HJBNOAPI@Nuclear?5Threat@ 100715cc     SkinChanger.obj
 0002:000015dc       ??_C@_0BA@DDPOBJDM@Fallout?5Warning@ 100715dc     SkinChanger.obj
 0002:000015ec       ??_C@_08NBLHOMJL@Predator@ 100715ec     SkinChanger.obj
 0002:000015f8       ??_C@_0BB@PNJHOBHG@Irradiated?5Alert@ 100715f8     SkinChanger.obj
 0002:0000160c       ??_C@_0P@FDOPKCNK@Black?5Laminate@ 1007160c     SkinChanger.obj
 0002:0000161c       ??_C@_04OGIILABF@BOOM@     1007161c     SkinChanger.obj
 0002:00001624       ??_C@_08FINENEGF@Scorched@ 10071624     SkinChanger.obj
 0002:00001630       ??_C@_0M@NJLBJPLI@Faded?5Zebra@ 10071630     SkinChanger.obj
 0002:0000163c       ??_C@_07HOBHEHIF@Memento@  1007163c     SkinChanger.obj
 0002:00001644       ??_C@_09FEBNDOEJ@Doomkitty@ 10071644     SkinChanger.obj
 0002:00001650       ??_C@_0N@PDJEIBLM@Fire?5Serpent@ 10071650     SkinChanger.obj
 0002:00001660       ??_C@_09MKHCLFGM@Corticera@ 10071660     SkinChanger.obj
 0002:0000166c       ??_C@_0P@NPFKAJJB@Emerald?5Dragon@ 1007166c     SkinChanger.obj
 0002:0000167c       ??_C@_0L@MJLDIDNI@Overgrowth@ 1007167c     SkinChanger.obj
 0002:00001688       ??_C@_0L@DEABGANA@Golden?5Koi@ 10071688     SkinChanger.obj
 0002:00001694       ??_C@_0L@CKMBFFMP@Wave?5Spray@ 10071694     SkinChanger.obj
 0002:000016a0       ??_C@_05IOFIHGMB@Zirka@    100716a0     SkinChanger.obj
 0002:000016a8       ??_C@_06PKLBCJOD@Graven@   100716a8     SkinChanger.obj
 0002:000016b0       ??_C@_0N@PPAEPDMO@Bright?5Water@ 100716b0     SkinChanger.obj
 0002:000016c0       ??_C@_0M@JAKPGAD@Black?5Limba@ 100716c0     SkinChanger.obj
 0002:000016cc       ??_C@_07MOJLCPGJ@Tempest@  100716cc     SkinChanger.obj
 0002:000016d4       ??_C@_09OCFBKFPG@Shattered@ 100716d4     SkinChanger.obj
 0002:000016e0       ??_C@_09DJNJAAHI@Bone?5Pile@ 100716e0     SkinChanger.obj
 0002:000016ec       ??_C@_08GPEHFICL@Spitfire@ 100716ec     SkinChanger.obj
 0002:000016f8       ??_C@_07LMHEEOAO@Demeter@  100716f8     SkinChanger.obj
 0002:00001700       ??_C@_07JCMOAPN@Emerald@   10071700     SkinChanger.obj
 0002:00001708       ??_C@_06LAMDLNPF@Hazard@   10071708     SkinChanger.obj
 0002:00001710       ??_C@_0L@IKAKJAHL@Dry?5Season@ 10071710     SkinChanger.obj
 0002:0000171c       ??_C@_0N@PLLLECK@Mayan?5Dreams@ 1007171c     SkinChanger.obj
 0002:0000172c       ??_C@_0N@EKPADJCG@Jungle?5DDPAT@ 1007172c     SkinChanger.obj
 0002:0000173c       ??_C@_09FIKEPIDC@Rust?5Coat@ 1007173c     SkinChanger.obj
 0002:00001748       ??_C@_07JCIFFAKM@Mosaico@  10071748     SkinChanger.obj
 0002:00001750       ??_C@_06DGAFMCI@Facets@    10071750     SkinChanger.obj
 0002:00001758       ??_C@_0BC@DJOAJEGD@Anodized?5Gunmetal@ 10071758     SkinChanger.obj
 0002:0000176c       ??_C@_0L@BADILEEI@Ocean?5Foam@ 1007176c     SkinChanger.obj
 0002:00001778       ??_C@_08MPINICIJ@Graphite@ 10071778     SkinChanger.obj
 0002:00001784       ??_C@_05EBFNJLPC@X?9Ray@   10071784     SkinChanger.obj
 0002:0000178c       ??_C@_0O@BBDNFEFG@Blue?5Titanium@ 1007178c     SkinChanger.obj
 0002:0000179c       ??_C@_0M@MMEPBAIN@Blood?5Tiger@ 1007179c     SkinChanger.obj
 0002:000017a8       ??_C@_06FNLFMHNG@Hexane@   100717a8     SkinChanger.obj
 0002:000017b0       ??_C@_04FPIGCIOD@Hive@     100717b0     SkinChanger.obj
 0002:000017b8       ??_C@_0L@GMMIHJLB@Hemoglobin@ 100717b8     SkinChanger.obj
 0002:000017c4       ??_C@_05NGKKALHO@Serum@    100717c4     SkinChanger.obj
 0002:000017cc       ??_C@_0BD@GDDEIJIB@Blood?5in?5the?5Water@ 100717cc     SkinChanger.obj
 0002:000017e0       ??_C@_0L@OOKFNPIA@Nightshade@ 100717e0     SkinChanger.obj
 0002:000017ec       ??_C@_0M@KDIKPJEI@Water?5Sigil@ 100717ec     SkinChanger.obj
 0002:000017f8       ??_C@_0L@CJBGLCBH@Ghost?5Camo@ 100717f8     SkinChanger.obj
 0002:00001804       ??_C@_0O@MHHKDMCK@Blue?5Laminate@ 10071804     SkinChanger.obj
 0002:00001814       ??_C@_0O@DDCKJBEO@Electric?5Hive@ 10071814     SkinChanger.obj
 0002:00001824       ??_C@_0L@IACHMHBN@Blind?5Spot@ 10071824     SkinChanger.obj
 0002:00001830       ??_C@_0M@OMJJPAEI@Azure?5Zebra@ 10071830     SkinChanger.obj
 0002:0000183c       ??_C@_0BB@PKLGBOHF@Steel?5Disruption@ 1007183c     SkinChanger.obj
 0002:00001850       ??_C@_0BC@NHDLPGLP@Cobalt?5Disruption@ 10071850     SkinChanger.obj
 0002:00001864       ??_C@_0P@FKICPIKI@Tropical?5Storm@ 10071864     SkinChanger.obj
 0002:00001874       ??_C@_08OGFJLLOC@Ash?5Wood@ 10071874     SkinChanger.obj
 0002:00001880       ??_C@_08GOFAHBPM@VariCamo@ 10071880     SkinChanger.obj
 0002:0000188c       ??_C@_09MMFHFGJI@Night?5Ops@ 1007188c     SkinChanger.obj
 0002:00001898       ??_C@_0N@LDCKIIEM@Urban?5Rubble@ 10071898     SkinChanger.obj
 0002:000018a8       ??_C@_0O@NHFKGBMB@VariCamo?5Blue@ 100718a8     SkinChanger.obj
 0002:000018b8       ??_C@_08LPOGJBFB@CaliCamo@ 100718b8     SkinChanger.obj
 0002:000018c4       ??_C@_0O@MDIDBKJG@Hunting?5Blind@ 100718c4     SkinChanger.obj
 0002:000018d4       ??_C@_09NBOCJJIP@Army?5Mesh@ 100718d4     SkinChanger.obj
 0002:000018e0       ??_C@_0L@NKPJGFKE@Gator?5Mesh@ 100718e0     SkinChanger.obj
 0002:000018ec       ??_C@_08GAFPLAEL@Teardown@ 100718ec     SkinChanger.obj
 0002:000018f8       ??_C@_0L@CBHOMLFF@Army?5Recon@ 100718f8     SkinChanger.obj
 0002:00001904       ??_C@_0L@DCBPAFKE@Amber?5Fade@ 10071904     SkinChanger.obj
 0002:00001910       ??_C@_0P@IEPDKCON@Damascus?5Steel@ 10071910     SkinChanger.obj
 0002:00001920       ??_C@_0L@EGJMEOFH@Red?5Quartz@ 10071920     SkinChanger.obj
 0002:0000192c       ??_C@_0O@MNMPONAM@Cobalt?5Quartz@ 1007192c     SkinChanger.obj
 0002:0000193c       ??_C@_09OEBIHJM@Full?5Stop@ 1007193c     SkinChanger.obj
 0002:00001948       ??_C@_09MENJMMDN@Pit?5Viper@ 10071948     SkinChanger.obj
 0002:00001954       ??_C@_0O@OKGLFOKL@Silver?5Quartz@ 10071954     SkinChanger.obj
 0002:00001964       ??_C@_09LMGPFBLH@Acid?5Fade@ 10071964     SkinChanger.obj
 0002:00001970       ??_C@_05LOAANMOB@Nitro@    10071970     SkinChanger.obj
 0002:00001978       ??_C@_07OKBBBOEO@Asiimov@  10071978     SkinChanger.obj
 0002:00001980       ??_C@_0L@IMFMOONI@The?5Kraken@ 10071980     SkinChanger.obj
 0002:0000198c       ??_C@_08LEGJHPMK@Guardian@ 1007198c     SkinChanger.obj
 0002:00001998       ??_C@_06JGCMKFHP@Mehndi@   10071998     SkinChanger.obj
 0002:000019a0       ??_C@_07IHBKKBCO@Redline@  100719a0     SkinChanger.obj
 0002:000019a8       ??_C@_05EMEMDIEE@Pulse@    100719a8     SkinChanger.obj
 0002:000019b0       ??_C@_06HPHEFPCN@Marina@   100719b0     SkinChanger.obj
 0002:000019b8       ??_C@_09PCJDOHJF@Rose?5Iron@ 100719b8     SkinChanger.obj
 0002:000019c4       ??_C@_0N@FHDKMGNK@Rising?5Skull@ 100719c4     SkinChanger.obj
 0002:000019d4       ??_C@_09NKFBJCLL@Sandstorm@ 100719d4     SkinChanger.obj
 0002:000019e0       ??_C@_04GBFEHJEB@Kami@     100719e0     SkinChanger.obj
 0002:000019e8       ??_C@_05MDLBNEDM@Magma@    100719e8     SkinChanger.obj
 0002:000019f0       ??_C@_0BA@EOAICINF@Cobalt?5Halftone@ 100719f0     SkinChanger.obj
 0002:00001a00       ??_C@_0M@GCHHCDGM@Tread?5Plate@ 10071a00     SkinChanger.obj
 0002:00001a0c       ??_C@_0BD@JMFFBFHD@The?5Fuschia?5Is?5Now@ 10071a0c     SkinChanger.obj
 0002:00001a20       ??_C@_08BMEDFDFA@Victoria@ 10071a20     SkinChanger.obj
 0002:00001a2c       ??_C@_08IHCIEMLG@Undertow@ 10071a2c     SkinChanger.obj
 0002:00001a38       ??_C@_0N@FBCLANHN@Titanium?5Bit@ 10071a38     SkinChanger.obj
 0002:00001a48       ??_C@_08BACMKFID@Heirloom@ 10071a48     SkinChanger.obj
 0002:00001a54       ??_C@_0O@MJNJKIDK@Copper?5Galaxy@ 10071a54     SkinChanger.obj
 0002:00001a64       ??_C@_0M@EDEMNPDE@Red?5FragCam@ 10071a64     SkinChanger.obj
 0002:00001a70       ??_C@_07HBBBHBHH@Panther@  10071a70     SkinChanger.obj
 0002:00001a78       ??_C@_09NBBHJOGD@Stainless@ 10071a78     SkinChanger.obj
 0002:00001a84       ??_C@_0N@OLEOFLGM@Blue?5Fissure@ 10071a84     SkinChanger.obj
 0002:00001a94       ??_C@_09MIJFEMDG@Chameleon@ 10071a94     SkinChanger.obj
 0002:00001aa0       ??_C@_08NNPOKHHA@Corporal@ 10071aa0     SkinChanger.obj
 0002:00001aac       ??_C@_06HJMFFBFN@Trigon@   10071aac     SkinChanger.obj
 0002:00001ab4       ??_C@_04FPOAABLO@Heat@     10071ab4     SkinChanger.obj
 0002:00001abc       ??_C@_07GICFIHGN@Terrain@  10071abc     SkinChanger.obj
 0002:00001ac4       ??_C@_07DJMBHNBG@Antique@  10071ac4     SkinChanger.obj
 0002:00001acc       ??_C@_08HPHGPEFO@Sergeant@ 10071acc     SkinChanger.obj
 0002:00001ad8       ??_C@_0N@CHMAMEOK@Heaven?5Guard@ 10071ad8     SkinChanger.obj
 0002:00001ae8       ??_C@_0N@ILNBIMKL@Death?5Rattle@ 10071ae8     SkinChanger.obj
 0002:00001af8       ??_C@_0M@ECNHDICL@Green?5Apple@ 10071af8     SkinChanger.obj
 0002:00001b04       ??_C@_08GGFOJGCL@Franklin@ 10071b04     SkinChanger.obj
 0002:00001b10       ??_C@_09OHLNMKJN@Meteorite@ 10071b10     SkinChanger.obj
 0002:00001b1c       ??_C@_06IGAHMJPM@Tuxedo@   10071b1c     SkinChanger.obj
 0002:00001b24       ??_C@_0L@DKEOAGEL@Army?5Sheen@ 10071b24     SkinChanger.obj
 0002:00001b30       ??_C@_0M@OBLKEPFA@Caged?5Steel@ 10071b30     SkinChanger.obj
 0002:00001b3c       ??_C@_0BC@CKJIEBBE@Emerald?5Pinstripe@ 10071b3c     SkinChanger.obj
 0002:00001b50       ??_C@_0N@GFLAEKEB@Atomic?5Alloy@ 10071b50     SkinChanger.obj
 0002:00001b60       ??_C@_06LOEDEFOB@Vulcan@   10071b60     SkinChanger.obj
 0002:00001b68       ??_C@_05FMEHJGPC@Isaac@    10071b68     SkinChanger.obj
 0002:00001b70       ??_C@_07MBKHMMEG@Slashed@  10071b70     SkinChanger.obj
 0002:00001b78       ??_C@_06FGIKBBKF@Torque@   10071b78     SkinChanger.obj
 0002:00001b80       ??_C@_0M@COPFEHFE@Retribution@ 10071b80     SkinChanger.obj
 0002:00001b8c       ??_C@_04KKONKGEB@Howl@     10071b8c     SkinChanger.obj
 0002:00001b94       ??_C@_05HJMIGINN@Curse@    10071b94     SkinChanger.obj
 0002:00001b9c       ??_C@_0P@OCNIGEHA@Desert?5Warfare@ 10071b9c     SkinChanger.obj
 0002:00001bac       ??_C@_05FLPPDGAC@Cyrex@    10071bac     SkinChanger.obj
 0002:00001bb4       ??_C@_05MNPKCHPH@Orion@    10071bb4     SkinChanger.obj
 0002:00001bbc       ??_C@_0M@HIIADPHC@Poison?5Dart@ 10071bbc     SkinChanger.obj
 0002:00001bc8       ??_C@_06GCKPJHNJ@Jaguar@   10071bc8     SkinChanger.obj
 0002:00001bd0       ??_C@_08PINMCKGI@Bratatat@ 10071bd0     SkinChanger.obj
 0002:00001bdc       ??_C@_09HMIAHJAH@Road?5Rash@ 10071bdc     SkinChanger.obj
 0002:00001be8       ??_C@_06KKMKPPJH@Detour@   10071be8     SkinChanger.obj
 0002:00001bf0       ??_C@_0L@DOFALBFF@Red?5Python@ 10071bf0     SkinChanger.obj
 0002:00001bfc       ??_C@_0N@NAMMOCCE@Master?5Piece@ 10071bfc     SkinChanger.obj
 0002:00001c0c       ??_C@_07OMJPDLL@Chalice@   10071c0c     SkinChanger.obj
 0002:00001c14       ??_C@_06CJCFJDME@Knight@   10071c14     SkinChanger.obj
 0002:00001c1c       ??_C@_09NCKEDIDB@Chainmail@ 10071c1c     SkinChanger.obj
 0002:00001c28       ??_C@_0M@OHINAHGI@Hand?5Cannon@ 10071c28     SkinChanger.obj
 0002:00001c34       ??_C@_08CIHGHFPP@Dark?5Age@ 10071c34     SkinChanger.obj
 0002:00001c40       ??_C@_05JNINEEHO@Briar@    10071c40     SkinChanger.obj
 0002:00001c48       ??_C@_0L@IGMOPFMM@Royal?5Blue@ 10071c48     SkinChanger.obj
 0002:00001c54       ??_C@_06EJPLNMI@Indigo@    10071c54     SkinChanger.obj
 0002:00001c5c       ??_C@_05MJBKPKBA@Twist@    10071c5c     SkinChanger.obj
 0002:00001c64       ??_C@_06NHPJKFDC@Module@   10071c64     SkinChanger.obj
 0002:00001c6c       ??_C@_0O@DBOAECOC@Desert?9Strike@ 10071c6c     SkinChanger.obj
 0002:00001c7c       ??_C@_06MNLLFCKB@Tatter@   10071c7c     SkinChanger.obj
 0002:00001c84       ??_C@_06DLNNEOEG@Caiman@   10071c84     SkinChanger.obj
 0002:00001c8c       ??_C@_07HGILOIFH@Jet?5Set@ 10071c8c     SkinChanger.obj
 0002:00001c94       ??_C@_0M@KIOJABKK@First?5Class@ 10071c94     SkinChanger.obj
 0002:00001ca0       ??_C@_07FPBMMDNF@Leather@  10071ca0     SkinChanger.obj
 0002:00001ca8       ??_C@_08CPFDBNOO@Commuter@ 10071ca8     SkinChanger.obj
 0002:00001cb4       ??_C@_0M@HDHBCMFG@Dragon?5Lore@ 10071cb4     SkinChanger.obj
 0002:00001cc0       ??_C@_0M@JDLCOAAH@Coach?5Class@ 10071cc0     SkinChanger.obj
 0002:00001ccc       ??_C@_05KPLJDLMD@Pilot@    10071ccc     SkinChanger.obj
 0002:00001cd4       ??_C@_0M@OKNFACJD@Red?5Leather@ 10071cd4     SkinChanger.obj
 0002:00001ce0       ??_C@_06ELGGPNMP@Osiris@   10071ce0     SkinChanger.obj
 0002:00001ce8       ??_C@_06DDMCKKGH@Tigris@   10071ce8     SkinChanger.obj
 0002:00001cf0       ??_C@_0L@DKDHLIPD@Conspiracy@ 10071cf0     SkinChanger.obj
 0002:00001cfc       ??_C@_09BPCPPBON@Fowl?5Play@ 10071cfc     SkinChanger.obj
 0002:00001d08       ??_C@_0BA@NJEGAHAD@Water?5Elemental@ 10071d08     SkinChanger.obj
 0002:00001d18       ??_C@_0N@KFEFMHNH@Urban?5Hazard@ 10071d18     SkinChanger.obj
 0002:00001d28       ??_C@_05NKDFIJED@Ivory@    10071d28     SkinChanger.obj
 0002:00001d30       ??_C@_09KOILBCDN@Supernova@ 10071d30     SkinChanger.obj
 0002:00001d3c       ??_C@_05CNFJLAJC@Abyss@    10071d3c     SkinChanger.obj
 0002:00001d44       ??_C@_09MPDIMPJL@Labyrinth@ 10071d44     SkinChanger.obj
 0002:00001d50       ??_C@_08FLLAGGHC@Traveler@ 10071d50     SkinChanger.obj
 0002:00001d5c       ??_C@_0P@IDEJABCO@Business?5Class@ 10071d5c     SkinChanger.obj
 0002:00001d6c       ??_C@_0M@PAKPELJJ@Olive?5Plaid@ 10071d6c     SkinChanger.obj
 0002:00001d78       ??_C@_0M@NIDIFAMG@Green?5Plaid@ 10071d78     SkinChanger.obj
 0002:00001d84       ??_C@_07PDLFMGKP@Reactor@  10071d84     SkinChanger.obj
 0002:00001d8c       ??_C@_0M@MEAOMDN@Setting?5Sun@ 10071d8c     SkinChanger.obj
 0002:00001d98       ??_C@_0O@NMIAJCNF@Nuclear?5Waste@ 10071d98     SkinChanger.obj
 0002:00001da8       ??_C@_0N@GEJHIOBJ@Bone?5Machine@ 10071da8     SkinChanger.obj
 0002:00001db8       ??_C@_04BOPFCKBD@Styx@     10071db8     SkinChanger.obj
 0002:00001dc0       ??_C@_0P@HLMACAB@Nuclear?5Garden@ 10071dc0     SkinChanger.obj
 0002:00001dd0       ??_C@_0O@DICKIMG@Contamination@ 10071dd0     SkinChanger.obj
 0002:00001de0       ??_C@_05GFBNLEJJ@Toxic@    10071de0     SkinChanger.obj
 0002:00001de8       ??_C@_0P@NDHCLHEB@Chemical?5Green@ 10071de8     SkinChanger.obj
 0002:00001df8       ??_C@_08ODAFFDEP@Hot?5Shot@ 10071df8     SkinChanger.obj
 0002:00001e04       ??_C@_08JOOFAFLL@Cerberus@ 10071e04     SkinChanger.obj
 0002:00001e10       ??_C@_0BA@OMCKGEFH@Wasteland?5Rebel@ 10071e10     SkinChanger.obj
 0002:00001e20       ??_C@_07CMNKMPDF@Grinder@  10071e20     SkinChanger.obj
 0002:00001e28       ??_C@_05LHIAKGDI@Murky@    10071e28     SkinChanger.obj
 0002:00001e30       ??_C@_08MNPKLCHB@Basilisk@ 10071e30     SkinChanger.obj
 0002:00001e3c       ??_C@_07FJMOOIEG@Griffin@  10071e3c     SkinChanger.obj
 0002:00001e44       ??_C@_0M@FJKPDKBM@Firestarter@ 10071e44     SkinChanger.obj
 0002:00001e50       ??_C@_04LBCGGMB@Dart@      10071e50     SkinChanger.obj
 0002:00001e58       ??_C@_06DEMDDKJO@Cartel@   10071e58     SkinChanger.obj
 0002:00001e60       ??_C@_0P@KEPGKGOC@Fire?5Elemental@ 10071e60     SkinChanger.obj
 0002:00001e70       ??_C@_0L@ILIPLGGE@Highwayman@ 10071e70     SkinChanger.obj
 0002:00001e7c       ??_C@_07HLLNPOHE@Cardiac@  10071e7c     SkinChanger.obj
 0002:00001e84       ??_C@_08FFNDEFME@Delusion@ 10071e84     SkinChanger.obj
 0002:00001e90       ??_C@_0M@PBCFJGEP@Tranquility@ 10071e90     SkinChanger.obj
 0002:00001e9c       ??_C@_0L@LNKBJIHF@Man?9o?8?9war@ 10071e9c     SkinChanger.obj
 0002:00001ea8       ??_C@_0M@JOOPFDJE@Urban?5Shock@ 10071ea8     SkinChanger.obj
 0002:00001eb4       ??_C@_04GMPKPJOP@Naga@     10071eb4     SkinChanger.obj
 0002:00001ebc       ??_C@_0L@IMKOOGOB@Chatterbox@ 10071ebc     SkinChanger.obj
 0002:00001ec8       ??_C@_09DEDEOBDL@Catacombs@ 10071ec8     SkinChanger.obj
 0002:00001ed4       ??_C@_0BB@HNNCLGJD@?$DP?$DP?5?$CIDragon?5King?$CJ@ 10071ed4     SkinChanger.obj
 0002:00001ee8       ??_C@_0M@LNIJGCJM@System?5Lock@ 10071ee8     SkinChanger.obj
 0002:00001ef4       ??_C@_09LMNCNKEE@Malachite@ 10071ef4     SkinChanger.obj
 0002:00001f00       ??_C@_0O@NHPACFCG@Deadly?5Poison@ 10071f00     SkinChanger.obj
 0002:00001f10       ??_C@_07OOPKLEID@Muertos@  10071f10     SkinChanger.obj
 0002:00001f18       ??_C@_08CEMFBEEA@Serenity@ 10071f18     SkinChanger.obj
 0002:00001f24       ??_C@_06OLHHKHAP@Grotto@   10071f24     SkinChanger.obj
 0002:00001f2c       ??_C@_0M@NKOEBMOD@Quicksilver@ 10071f2c     SkinChanger.obj
 0002:00001f38       ??_C@_0M@IFCNOIMG@Tiger?5Tooth@ 10071f38     SkinChanger.obj
 0002:00001f44       ??_C@_0M@GBIOCIOA@Marble?5Fade@ 10071f44     SkinChanger.obj
 0002:00001f50       ??_C@_07JKOBGHIH@Doppler@  10071f50     SkinChanger.obj
 0002:00001f58       ??_C@_0M@NEPPDHBJ@Elite?5Build@ 10071f58     SkinChanger.obj
 0002:00001f64       ??_C@_0L@JKFHCLFJ@Armor?5Core@ 10071f64     SkinChanger.obj
 0002:00001f70       ??_C@_08EMILMFEB@Worm?5God@ 10071f70     SkinChanger.obj
 0002:00001f7c       ??_C@_0M@KALMOOID@Bronze?5Deco@ 10071f7c     SkinChanger.obj
 0002:00001f88       ??_C@_07IDFDMADB@Valence@  10071f88     SkinChanger.obj
 0002:00001f90       ??_C@_0BA@GIIJFPON@Monkey?5Business@ 10071f90     SkinChanger.obj
 0002:00001fa0       ??_C@_05PGGPGBEA@Djinn@    10071fa0     SkinChanger.obj
 0002:00001fa8       ??_C@_0M@HLGDNDCN@Hyper?5Beast@ 10071fa8     SkinChanger.obj
 0002:00001fb4       ??_C@_0L@JMLLLIIF@Neon?5Rider@ 10071fb4     SkinChanger.obj
 0002:00001fc0       ??_C@_07GCNENMOB@Origami@  10071fc0     SkinChanger.obj
 0002:00001fc8       ??_C@_0O@BICBAJBK@Pole?5Position@ 10071fc8     SkinChanger.obj
 0002:00001fd8       ??_C@_0L@DGFOPJPJ@Grand?5Prix@ 10071fd8     SkinChanger.obj
 0002:00001fe4       ??_C@_0BA@EHONPBGP@Twilight?5Galaxy@ 10071fe4     SkinChanger.obj
 0002:00001ff4       ??_C@_07EEHOINFE@Chronos@  10071ff4     SkinChanger.obj
 0002:00001ffc       ??_C@_05PHCOMLAK@Hades@    10071ffc     SkinChanger.obj
 0002:00002004       ??_C@_0M@GNPECMJG@Icarus?5Fell@ 10072004     SkinChanger.obj
 0002:00002010       ??_C@_0BF@KNHBCLKE@Minotaur?8s?5Labyrinth@ 10072010     SkinChanger.obj
 0002:00002028       ??_C@_08MPBHMBKF@Asterion@ 10072028     SkinChanger.obj
 0002:00002034       ??_C@_0L@HKGMEJCE@Pathfinder@ 10072034     SkinChanger.obj
 0002:00002040       ??_C@_08EPKIKBLJ@Daedalus@ 10072040     SkinChanger.obj
 0002:0000204c       ??_C@_06FHEKHBN@Medusa@    1007204c     SkinChanger.obj
 0002:00002054       ??_C@_07NGGLMFNK@Duelist@  10072054     SkinChanger.obj
 0002:0000205c       ??_C@_0O@MKKBLIHF@Pandora?8s?5Box@ 1007205c     SkinChanger.obj
 0002:0000206c       ??_C@_08HPEFPDDD@Poseidon@ 1007206c     SkinChanger.obj
 0002:00002078       ??_C@_0O@EKKFPJPP@Moon?5in?5Libra@ 10072078     SkinChanger.obj
 0002:00002088       ??_C@_0L@JIDJFCLE@Sun?5in?5Leo@ 10072088     SkinChanger.obj
 0002:00002094       ??_C@_0BC@MCGGLMDC@Shipping?5Forecast@ 10072094     SkinChanger.obj
 0002:000020a8       ??_C@_0L@PHJPEPDL@Para?5Green@ 100720a8     SkinChanger.obj
 0002:000020b4       ??_C@_0BB@GDPCACML@Akihabara?5Accept@ 100720b4     SkinChanger.obj
 0002:000020c8       ??_C@_0L@KCMEMHAE@Hydroponic@ 100720c8     SkinChanger.obj
 0002:000020d4       ??_C@_0N@FFPLCOHP@Bamboo?5Print@ 100720d4     SkinChanger.obj
 0002:000020e4       ??_C@_0O@HMIKKEOG@Bamboo?5Shadow@ 100720e4     SkinChanger.obj
 0002:000020f4       ??_C@_0O@PFIEKENH@Bamboo?5Forest@ 100720f4     SkinChanger.obj
 0002:00002104       ??_C@_0N@EFNEHC@Aqua?5Terrace@ 10072104     SkinChanger.obj
 0002:00002114       ??_C@_0BA@PCIENHAL@Counter?5Terrace@ 10072114     SkinChanger.obj
 0002:00002124       ??_C@_07IGEGNLHA@Terrace@  10072124     SkinChanger.obj
 0002:0000212c       ??_C@_0M@PKPMLKGD@Neon?5Kimono@ 1007212c     SkinChanger.obj
 0002:00002138       ??_C@_0O@EFBBJCOH@Orange?5Kimono@ 10072138     SkinChanger.obj
 0002:00002148       ??_C@_0P@CGPHMODB@Crimson?5Kimono@ 10072148     SkinChanger.obj
 0002:00002158       ??_C@_0M@FBFEFJIF@Mint?5Kimono@ 10072158     SkinChanger.obj
 0002:00002164       ??_C@_0P@EJOOMKPH@Midnight?5Storm@ 10072164     SkinChanger.obj
 0002:00002174       ??_C@_0P@DCPEPKJF@Sunset?5Storm?5?$DP@ 10072174     SkinChanger.obj
 0002:00002184       ??_C@_08PKPDIFDD@Daybreak@ 10072184     SkinChanger.obj
 0002:00002190       ??_C@_0N@OHFADMEB@Impact?5Drill@ 10072190     SkinChanger.obj
 0002:000021a0       ??_C@_07KIGKOFDH@Seabird@  100721a0     SkinChanger.obj
 0002:000021a8       ??_C@_0BD@CFPHDDIA@Aquamarine?5Revenge@ 100721a8     SkinChanger.obj
 0002:000021bc       ??_C@_0O@JKCCFDAH@Yellow?5Jacket@ 100721bc     SkinChanger.obj
 0002:000021cc       ??_C@_0L@JOHLJOPK@Neural?5Net@ 100721cc     SkinChanger.obj
 0002:000021d8       ??_C@_0L@FDGMINFP@Rocket?5Pop@ 100721d8     SkinChanger.obj
 0002:000021e4       ??_C@_0O@FGHHNPEB@Bunsen?5Burner@ 100721e4     SkinChanger.obj
 0002:000021f4       ??_C@_0M@MDGJMNFM@Evil?5Daimyo@ 100721f4     SkinChanger.obj
 0002:00002200       ??_C@_07KAGCKCFK@Nemesis@  10072200     SkinChanger.obj
 0002:00002208       ??_C@_0BB@OMFBPJGD@Ruby?5Poison?5Dart@ 10072208     SkinChanger.obj
 0002:0000221c       ??_C@_09INFFEEEF@Loudmouth@ 1007221c     SkinChanger.obj
 0002:00002228       ??_C@_06MGJHBAMJ@Ranger@   10072228     SkinChanger.obj
 0002:00002230       ??_C@_07BMJNCCBA@Handgun@  10072230     SkinChanger.obj
 0002:00002238       ??_C@_04DFPIBMCP@Riot@     10072238     SkinChanger.obj
 0002:00002240       ??_C@_0BA@CGABEKFP@Frontside?5Misty@ 10072240     SkinChanger.obj
 0002:00002250       ??_C@_0BA@EEFMEAPK@Dualing?5Dragons@ 10072250     SkinChanger.obj
 0002:00002260       ??_C@_0L@LADGFEPB@Survivor?5Z@ 10072260     SkinChanger.obj
 0002:0000226c       ??_C@_04CKECLEPF@Flux@     1007226c     SkinChanger.obj
 0002:00002274       ??_C@_0L@COFFBDHH@Stone?5Cold@ 10072274     SkinChanger.obj
 0002:00002280       ??_C@_07EPMIFFOO@Wraiths@  10072280     SkinChanger.obj
 0002:00002288       ??_C@_0BA@CMLJKFPL@Nebula?5Crusader@ 10072288     SkinChanger.obj
 0002:00002298       ??_C@_0M@HPNPLMNO@Golden?5Coil@ 10072298     SkinChanger.obj
 0002:000022a4       ??_C@_07GJBONI@Rangeen@    100722a4     SkinChanger.obj
 0002:000022ac       ??_C@_0M@DFNHNNCO@Cobalt?5Core@ 100722ac     SkinChanger.obj
 0002:000022b8       ??_C@_0BB@PFIGFEDK@Special?5Delivery@ 100722b8     SkinChanger.obj
 0002:000022cc       ??_C@_08EGCBABDI@Wingshot@ 100722cc     SkinChanger.obj
 0002:000022d8       ??_C@_0N@PKBFEGGD@Green?5Marine@ 100722d8     SkinChanger.obj
 0002:000022e8       ??_C@_08EDKLJEAG@Big?5Iron@ 100722e8     SkinChanger.obj
 0002:000022f4       ??_C@_0P@NAFNMAAC@Kill?5Confirmed@ 100722f4     SkinChanger.obj
 0002:00002304       ??_C@_08BPFDDEMB@Scumbria@ 10072304     SkinChanger.obj
 0002:00002310       ??_C@_0P@JCGBCJDG@Point?5Disarray@ 10072310     SkinChanger.obj
 0002:00002320       ??_C@_08OMEFLFIO@Ricochet@ 10072320     SkinChanger.obj
 0002:0000232c       ??_C@_08BEKJGINI@Fuel?5Rod@ 1007232c     SkinChanger.obj
 0002:00002338       ??_C@_0L@PMPCCFJH@Corinthian@ 10072338     SkinChanger.obj
 0002:00002344       ??_C@_0M@OIJKEOND@Retrobution@ 10072344     SkinChanger.obj
 0002:00002350       ??_C@_0BA@MHHIFFNC@The?5Executioner@ 10072350     SkinChanger.obj
 0002:00002360       ??_C@_0O@LIOOBDK@Royal?5Paladin@ 10072360     SkinChanger.obj
 0002:00002370       ??_C@_0N@FNDJPCKA@Power?5Loader@ 10072370     SkinChanger.obj
 0002:00002380       ??_C@_08NBBJCLDP@Imperial@ 10072380     SkinChanger.obj
 0002:0000238c       ??_C@_09GLFAJOKN@Shapewood@ 1007238c     SkinChanger.obj
 0002:00002398       ??_C@_06CENIPNFJ@Yorick@   10072398     SkinChanger.obj
 0002:000023a0       ??_C@_08OBIAEFPP@Outbreak@ 100723a0     SkinChanger.obj
 0002:000023ac       ??_C@_0L@JAEFBDAH@Tiger?5Moth@ 100723ac     SkinChanger.obj
 0002:000023b8       ??_C@_09CMJEIPLI@Avalanche@ 100723b8     SkinChanger.obj
 0002:000023c4       ??_C@_0N@ELGDNGIL@Teclu?5Burner@ 100723c4     SkinChanger.obj
 0002:000023d4       ??_C@_0O@DBGEMOHH@Fuel?5Injector@ 100723d4     SkinChanger.obj
 0002:000023e4       ??_C@_0M@OGJGHIOM@Photic?5Zone@ 100723e4     SkinChanger.obj
 0002:000023f0       ??_C@_0P@JDJJCOEH@Kumicho?5Dragon@ 100723f0     SkinChanger.obj
 0002:00002400       ??_C@_0M@CKIIGILP@Triumvirate@ 10072400     SkinChanger.obj
 0002:0000240c       ??_C@_0N@DFKLIDOE@Royal?5Legion@ 1007240c     SkinChanger.obj
 0002:0000241c       ??_C@_0P@LHOIDDPP@The?5Battlestar@ 1007241c     SkinChanger.obj
 0002:0000242c       ??_C@_0M@MHCCFDBK@Lapis?5Gator@ 1007242c     SkinChanger.obj
 0002:00002438       ??_C@_0L@FLLLFIAF@Praetorian@ 10072438     SkinChanger.obj
 0002:00002444       ??_C@_06PHGJHHDF@Impire@   10072444     SkinChanger.obj
 0002:0000244c       ??_C@_08FMNNIBIB@Necropos@ 1007244c     SkinChanger.obj
 0002:00002458       ??_C@_07DJDBDAPL@Jambiya@  10072458     SkinChanger.obj
 0002:00002460       ??_C@_0N@HIPOLPDC@Lead?5Conduit@ 10072460     SkinChanger.obj
 0002:00002470       ??_C@_0M@ONDJNBCL@Fleet?5Flock@ 10072470     SkinChanger.obj
 0002:0000247c       ??_C@_0BE@OGMEGIC@Judgement?5of?5Anubis@ 1007247c     SkinChanger.obj
 0002:00002490       ??_C@_09OMNFHBLO@Red?5Astor@ 10072490     SkinChanger.obj
 0002:0000249c       ??_C@_0M@GIOECMLD@Ventilators@ 1007249c     SkinChanger.obj
 0002:000024a8       ??_C@_0N@OBBAIIDA@Orange?5Crash@ 100724a8     SkinChanger.obj
 0002:000024b8       ??_C@_09KJADDCJF@Firefight@ 100724b8     SkinChanger.obj
 0002:000024c4       ??_C@_07IABFIDPL@Spectre@  100724c4     SkinChanger.obj
 0002:000024cc       ??_C@_0BA@DOKALGDE@Chantico?8s?5Fire@ 100724cc     SkinChanger.obj
 0002:000024dc       ??_C@_07IJMPNPLJ@Bioleak@  100724dc     SkinChanger.obj
 0002:000024e4       ??_C@_07POHKCOEA@Oceanic@  100724e4     SkinChanger.obj
 0002:000024ec       ??_C@_05GDDNFNHJ@Fubar@    100724ec     SkinChanger.obj
 0002:000024f4       ??_C@_05LKJMACAD@Atlas@    100724f4     SkinChanger.obj
 0002:000024fc       ??_C@_0P@MECMGCHE@Ghost?5Crusader@ 100724fc     SkinChanger.obj
 0002:0000250c       ??_C@_08EHHBGPJL@Re?9Entry@ 1007250c     SkinChanger.obj
 0002:00002518       ??_C@_0N@NBGDKGAG@Primal?5Saber@ 10072518     SkinChanger.obj
 0002:00002528       ??_C@_09CCGDODNM@Black?5Tie@ 10072528     SkinChanger.obj
 0002:00002534       ??_C@_04IIGEHJCD@Lore@     10072534     SkinChanger.obj
 0002:0000253c       ??_C@_0O@EIAAMEPH@Gamma?5Doppler@ 1007253c     SkinChanger.obj
 0002:0000254c       ??_C@_0L@KANKBGLL@Autotronic@ 1007254c     SkinChanger.obj
 0002:00002558       ??_C@_08LCLMBOPJ@Freehand@ 10072558     SkinChanger.obj
 0002:00002564       ??_C@_0L@FPHKENMN@Aristocrat@ 10072564     SkinChanger.obj
 0002:00002570       ??_C@_06GIDFDNDN@Phobos@   10072570     SkinChanger.obj
 0002:00002578       ??_C@_0P@IPEMPPKF@Violent?5Daimyo@ 10072578     SkinChanger.obj
 0002:00002588       ??_C@_0BB@FIHGAPNP@Mecha?5Industries@ 10072588     SkinChanger.obj
 0002:0000259c       ??_C@_0P@BHGGODB@Desolate?5Space@ 1007259c     SkinChanger.obj
 0002:000025ac       ??_C@_09GCMPJAOM@Carnivore@ 100725ac     SkinChanger.obj
 0002:000025b8       ??_C@_0BA@HFNGMPME@Imperial?5Dragon@ 100725b8     SkinChanger.obj
 0002:000025c8       ??_C@_09FDEGLFLP@Iron?5Clad@ 100725c8     SkinChanger.obj
 0002:000025d4       ??_C@_07LNMMAIHJ@Chopper@  100725d4     SkinChanger.obj
 0002:000025dc       ??_C@_09OKMOBHEE@Harvester@ 100725dc     SkinChanger.obj
 0002:000025e8       ??_C@_06GIPLFGB@Reboot@    100725e8     SkinChanger.obj
 0002:000025f0       ??_C@_09LKCBKCLN@Limelight@ 100725f0     SkinChanger.obj
 0002:000025fc       ??_C@_0L@CPGIOGGO@Bloodsport@ 100725fc     SkinChanger.obj
 0002:00002608       ??_C@_06JNLHEODP@Aerial@   10072608     SkinChanger.obj
 0002:00002610       ??_C@_07GACCDBPH@Ice?5Cap@ 10072610     SkinChanger.obj
 0002:00002618       ??_C@_0BA@CCHCFEJC@Neon?5Revolution@ 10072618     SkinChanger.obj
 0002:00002628       ??_C@_08HNHMOFOE@Syd?5Mead@ 10072628     SkinChanger.obj
 0002:00002634       ??_C@_07IBGKIIEK@Imprint@  10072634     SkinChanger.obj
 0002:0000263c       ??_C@_09MAPFPKHB@Directive@ 1007263c     SkinChanger.obj
 0002:00002648       ??_C@_09CHGLOJGC@Roll?5Cage@ 10072648     SkinChanger.obj
 0002:00002654       ??_C@_0L@PAJDGLFE@Ventilator@ 10072654     SkinChanger.obj
 0002:00002660       ??_C@_06IGFEBFLO@Weasel@   10072660     SkinChanger.obj
 0002:00002668       ??_C@_0L@EDBNKHHM@Petroglyph@ 10072668     SkinChanger.obj
 0002:00002674       ??_C@_07NEDBPNBF@Airlock@  10072674     SkinChanger.obj
 0002:0000267c       ??_C@_06PPNILICE@Dazzle@   1007267c     SkinChanger.obj
 0002:00002684       ??_C@_04IFGNABOJ@Grim@     10072684     SkinChanger.obj
 0002:0000268c       ??_C@_09ONGCMBKB@Powercore@ 1007268c     SkinChanger.obj
 0002:00002698       ??_C@_07JNGMOAAG@Triarch@  10072698     SkinChanger.obj
 0002:000026a0       ??_C@_08HJFJOAMM@Briefing@ 100726a0     SkinChanger.obj
 0002:000026ac       ??_C@_0L@LJPADCKF@Slipstream@ 100726ac     SkinChanger.obj
 0002:000026b8       ??_C@_07KDKIJPKC@Polymer@  100726b8     SkinChanger.obj
 0002:000026c0       ??_C@_08DDHJEPBO@Ironwork@ 100726c0     SkinChanger.obj
 0002:000026cc       ??_C@_0L@MBMAAGAA@Dragonfire@ 100726cc     SkinChanger.obj
 0002:000026d8       ??_C@_0P@HKCKGEHA@Royal?5Consorts@ 100726d8     SkinChanger.obj
 0002:000026e8       ??_C@_06CMIHEKMB@Cirrus@   100726e8     SkinChanger.obj
 0002:000026f0       ??_C@_07KFEOGKDA@Stinger@  100726f0     SkinChanger.obj
 0002:000026f8       ??_C@_0L@PFBHEIKB@Black?5Sand@ 100726f8     SkinChanger.obj
 0002:00002704       ??_C@_0L@MKOJBNJH@Sand?5Scale@ 10072704     SkinChanger.obj
 0002:00002710       ??_C@_09LMBAAGCE@Flashback@ 10072710     SkinChanger.obj
 0002:0000271c       ??_C@_09KPKCAGLL@Buzz?5Kill@ 1007271c     SkinChanger.obj
 0002:00002728       ??_C@_05FAKAPOMK@Sonar@    10072728     SkinChanger.obj
 0002:00002730       ??_C@_04KIALFMJA@Gila@     10072730     SkinChanger.obj
 0002:00002738       ??_C@_04MMHNEBFI@Turf@     10072738     SkinChanger.obj
 0002:00002740       ??_C@_0O@LDONNMFG@Shallow?5Grave@ 10072740     SkinChanger.obj
 0002:00002750       ??_C@_0BD@FPJMIHPN@Wasteland?5Princess@ 10072750     SkinChanger.obj
 0002:00002764       ??_C@_0M@DEPJMHKG@Fever?5Dream@ 10072764     SkinChanger.obj
 0002:00002770       ??_C@_0BC@OAEHEGHA@Jungle?5Slipstream@ 10072770     SkinChanger.obj
 0002:00002784       ??_C@_09MGFHJCCN@Blueprint@ 10072784     SkinChanger.obj
 0002:00002790       ??_C@_08EPELAECO@Xiangliu@ 10072790     SkinChanger.obj
 0002:0000279c       ??_C@_09HHHNLIAN@Decimator@ 1007279c     SkinChanger.obj
 0002:000027a8       ??_C@_0M@CFNDBJNP@Oxide?5Blaze@ 100727a8     SkinChanger.obj
 0002:000027b4       ??_C@_09JJHIJNOB@Capillary@ 100727b4     SkinChanger.obj
 0002:000027c0       ??_C@_0BA@KPAKKGD@Crimson?5Tsunami@ 100727c0     SkinChanger.obj
 0002:000027d0       ??_C@_0BE@ELABFEEP@Emerald?5Poison?5Dart@ 100727d0     SkinChanger.obj
 0002:000027e4       ??_C@_06NNPDDBCD@Akoben@   100727e4     SkinChanger.obj
 0002:000027ec       ??_C@_06DCIIGLHI@Ripple@   100727ec     SkinChanger.obj
 0002:000027f4       ??_C@_09ENBEEPDN@Last?5Dive@ 100727f4     SkinChanger.obj
 0002:00002800       ??_C@_08MKEKGDPD@Scaffold@ 10072800     SkinChanger.obj
 0002:0000280c       ??_C@_08IPOIFNFJ@Neo?9Noir@ 1007280c     SkinChanger.obj
 0002:00002818       ??_C@_07MADONKFL@Seasons@  10072818     SkinChanger.obj
 0002:00002820       ??_C@_06OHMNPBEA@Zander@   10072820     SkinChanger.obj
 0002:00002828       ??_C@_0L@CPLMBLPL@Orbit?5Mk01@ 10072828     SkinChanger.obj
 0002:00002834       ??_C@_0N@PJNKDGHE@Cobra?5Strike@ 10072834     SkinChanger.obj
 0002:00002844       ??_C@_07PBGGIPKG@Macabre@  10072844     SkinChanger.obj
 0002:0000284c       ??_C@_0L@NIPNMIDF@Sugar?5Rush@ 1007284c     SkinChanger.obj
 0002:00002858       ??_C@_09GDGACBBD@Oni?5Taiji@ 10072858     SkinChanger.obj
 0002:00002864       ??_C@_08MIDEBEJJ@Hellfire@ 10072864     SkinChanger.obj
 0002:00002870       ??_C@_05IPJMDKPC@Aloha@    10072870     SkinChanger.obj
 0002:00002878       ??_C@_0L@IBAOOGLP@Hard?5Water@ 10072878     SkinChanger.obj
 0002:00002884       ??_C@_08CNMAFGEG@Woodsman@ 10072884     SkinChanger.obj
 0002:00002890       ??_C@_08EIACPNFF@Red?5Rock@ 10072890     SkinChanger.obj
 0002:0000289c       ??_C@_0L@FKAMIDGE@Death?5Grip@ 1007289c     SkinChanger.obj
 0002:000028a8       ??_C@_0N@LBGNKJDM@Death?8s?5Head@ 100728a8     SkinChanger.obj
 0002:000028b8       ??_C@_07IPDCEOF@Cut?5Out@  100728b8     SkinChanger.obj
 0002:000028c0       ??_C@_0O@HKMMAAGA@Metal?5Flowers@ 100728c0     SkinChanger.obj
 0002:000028d0       ??_C@_06LPNNIIJF@Morris@   100728d0     SkinChanger.obj
 0002:000028d8       ??_C@_06JKJOGDHH@Triqua@   100728d8     SkinChanger.obj
 0002:000028e0       ??_C@_0M@LJAOMGMG@The?5Empress@ 100728e0     SkinChanger.obj
 0002:000028ec       ??_C@_0M@IHOFILJJ@High?5Roller@ 100728ec     SkinChanger.obj
 0002:000028f8       ??_C@_06NPNCGLLF@Hunter@   100728f8     SkinChanger.obj
 0002:00002900       ??_C@_0N@PMGJBPHK@See?5Ya?5Later@ 10072900     SkinChanger.obj
 0002:00002910       ??_C@_09OAHIPAJ@Off?5World@ 10072910     SkinChanger.obj
 0002:0000291c       ??_C@_0N@DMFDPIDD@Leaded?5Glass@ 1007291c     SkinChanger.obj
 0002:0000292c       ??_C@_0N@OIMLBBO@Llama?5Cannon@ 1007292c     SkinChanger.obj
 0002:0000293c       ??_C@_0N@JMJOJLCG@Cracked?5Opal@ 1007293c     SkinChanger.obj
 0002:0000294c       ??_C@_07OFINGKDN@Phantom@  1007294c     SkinChanger.obj
 0002:00002954       ??_C@_08LPBDBCJF@Tacticat@ 10072954     SkinChanger.obj
 0002:00002960       ??_C@_08EKOAKDPF@Exposure@ 10072960     SkinChanger.obj
 0002:0000296c       ??_C@_05GCJOLAFB@Ziggy@    1007296c     SkinChanger.obj
 0002:00002974       ??_C@_0M@FJGCNCKK@Stymphalian@ 10072974     SkinChanger.obj
 0002:00002980       ??_C@_06JKLGNHEJ@Mortis@   10072980     SkinChanger.obj
 0002:00002988       ??_C@_0L@BFBGOBOA@Night?5Riot@ 10072988     SkinChanger.obj
 0002:00002994       ??_C@_0L@GDAFDLHJ@Flame?5Test@ 10072994     SkinChanger.obj
 0002:000029a0       ??_C@_08PLOBKNPN@Moonrise@ 100729a0     SkinChanger.obj
 0002:000029ac       ??_C@_08KDLPPDG@Lionfish@  100729ac     SkinChanger.obj
 0002:000029b8       ??_C@_08KHILJLLK@Wild?5Six@ 100729b8     SkinChanger.obj
 0002:000029c4       ??_C@_04HKABGNPF@Grip@     100729c4     SkinChanger.obj
 0002:000029cc       ??_C@_06KCOHIPBO@SWAG?97@  100729cc     SkinChanger.obj
 0002:000029d4       ??_C@_0M@PHHHOGKC@Arctic?5Wolf@ 100729d4     SkinChanger.obj
 0002:000029e0       ??_C@_06CAGHIMLL@Cortex@   100729e0     SkinChanger.obj
 0002:000029e8       ??_C@_07ELJHEHDF@Charred@  100729e8     SkinChanger.obj
 0002:000029f0       ??_C@_09PJJABFON@Snakebite@ 100729f0     SkinChanger.obj
 0002:000029fc       ??_C@_07BODNLHDH@Bronzed@  100729fc     SkinChanger.obj
 0002:00002a04       ??_C@_0N@LJMPCKAM@Spruce?5DDPAT@ 10072a04     SkinChanger.obj
 0002:00002a14       ??_C@_0M@BAPNOIBB@Lunar?5Weave@ 10072a14     SkinChanger.obj
 0002:00002a20       ??_C@_06DLPCIKCE@Convoy@   10072a20     SkinChanger.obj
 0002:00002a28       ??_C@_0O@PIMCDAJE@Crimson?5Weave@ 10072a28     SkinChanger.obj
 0002:00002a38       ??_C@_0P@EJHPDJOB@Superconductor@ 10072a38     SkinChanger.obj
 0002:00002a48       ??_C@_04NLOPEPAA@Arid@     10072a48     SkinChanger.obj
 0002:00002a50       ??_C@_07IPOIIJAN@Eclipse@  10072a50     SkinChanger.obj
 0002:00002a58       ??_C@_09GDEDHNPO@Spearmint@ 10072a58     SkinChanger.obj
 0002:00002a64       ??_C@_05LIBKLPGC@Boom?$CB@ 10072a64     SkinChanger.obj
 0002:00002a6c       ??_C@_09EHAEIKEG@Cool?5Mint@ 10072a6c     SkinChanger.obj
 0002:00002a78       ??_C@_0M@BDMPNFCB@Emerald?5Web@ 10072a78     SkinChanger.obj
 0002:00002a84       ??_C@_0L@LLOEHGOK@Foundation@ 10072a84     SkinChanger.obj
 0002:00002a90       ??_C@_08MBHLFACG@Badlands@ 10072a90     SkinChanger.obj
 0002:00002a9c       ??_C@_0L@KIKLBIAJ@Hedge?5Maze@ 10072a9c     SkinChanger.obj
 0002:00002aa8       ??_C@_09KHMIPLPI@Guerrilla@ 10072aa8     SkinChanger.obj
 0002:00002ab4       ??_C@_0M@OCAIKPKC@Diamondback@ 10072ab4     SkinChanger.obj
 0002:00002ac0       ??_C@_0L@LOFLKNDK@King?5Snake@ 10072ac0     SkinChanger.obj
 0002:00002acc       ??_C@_0P@LIJLIJDC@Imperial?5Plaid@ 10072acc     SkinChanger.obj
 0002:00002adc       ??_C@_08DOEGBNFC@Overtake@ 10072adc     SkinChanger.obj
 0002:00002ae8       ??_C@_0N@GHIJMPAD@Racing?5Green@ 10072ae8     SkinChanger.obj
 0002:00002af8       ??_C@_0L@KOFHKKKH@Amphibious@ 10072af8     SkinChanger.obj
 0002:00002b04       ??_C@_0N@ELFFBCAF@Bronze?5Morph@ 10072b04     SkinChanger.obj
 0002:00002b14       ??_C@_05OMBHNFGL@Omega@    10072b14     SkinChanger.obj
 0002:00002b1c       ??_C@_04JKLLGAJL@Vice@     10072b1c     SkinChanger.obj
 0002:00002b24       ??_C@_04CHNFKCJE@POW?$CB@  10072b24     SkinChanger.obj
 0002:00002b2c       ??_C@_06NAOOFIJF@Turtle@   10072b2c     SkinChanger.obj
 0002:00002b34       ??_C@_09LOBALFEM@Transport@ 10072b34     SkinChanger.obj
 0002:00002b40       ??_C@_07CHPFKHEN@Polygon@  10072b40     SkinChanger.obj
 0002:00002b48       ??_C@_0O@IFNNMHKB@Cobalt?5Skulls@ 10072b48     SkinChanger.obj
 0002:00002b58       ??_C@_09NEIFECBJ@Overprint@ 10072b58     SkinChanger.obj
 0002:00002b64       ??_C@_09HCINOOEA@Duct?5Tape@ 10072b64     SkinChanger.obj
 0002:00002b70       ??_C@_08NEFGLLJJ@Arboreal@ 10072b70     SkinChanger.obj
 0002:00002b7c       ??_C@_08EMLDHIIE@Mangrove@ 10072b7c     SkinChanger.obj
 0002:00002b88       ??_C@_07BOBLMAKA@Rattler@  10072b88     SkinChanger.obj
 0002:00002b90       ??_C@_08JNHHIDNJ@Buckshot@ 10072b90     SkinChanger.obj
 0002:00002b9c       ??_C@_05NLBKOGNI@Mogul@    10072b9c     SkinChanger.obj
 0002:00002ba4       ??_C@_0P@IIPEELKE@Other?5textures@ 10072ba4     VisualsMisc.obj
 0002:00002bb4       ??_C@_0CI@PNMOKBEK@particle?1vistasmokev1?1vistasmok@ 10072bb4     VisualsMisc.obj
 0002:00002bdc       ??_C@_0DA@OJKONOI@particle?1vistasmokev1?1vistasmok@ 10072bdc     VisualsMisc.obj
 0002:00002c0c       ??_C@_0CJ@ECEDHNAB@particle?1vistasmokev1?1vistasmok@ 10072c0c     VisualsMisc.obj
 0002:00002c38       ??_C@_0DE@OEEJFIDN@particle?1vistasmokev1?1vistasmok@ 10072c38     VisualsMisc.obj
 0002:00002c6c       ??_C@_0BM@LCODMDEN@molotov_throw_detonate_time@ 10072c6c     VisualsMisc.obj
 0002:00002c88       ??_C@_0CA@OALJAIHG@weapon_molotov_maxdetonateslope@ 10072c88     VisualsMisc.obj
 0002:00002ca8       __real@34000000            10072ca8     VisualsMisc.obj
 0002:00002cac       __real@3de38e39            10072cac     VisualsMisc.obj
 0002:00002cb0       __real@3e99999a            10072cb0     VisualsMisc.obj
 0002:00002cb4       __real@3ecccccd            10072cb4     VisualsMisc.obj
 0002:00002cb8       __real@3ee66666            10072cb8     VisualsMisc.obj
 0002:00002cbc       __real@3f333333            10072cbc     VisualsMisc.obj
 0002:00002cc0       __real@3f666666            10072cc0     VisualsMisc.obj
 0002:00002cc4       __real@3fc00000            10072cc4     VisualsMisc.obj
 0002:00002cc8       __real@3ff0000000000000    10072cc8     VisualsMisc.obj
 0002:00002cd0       __real@401921fb60000000    10072cd0     VisualsMisc.obj
 0002:00002cd8       __real@41400000            10072cd8     VisualsMisc.obj
 0002:00002cdc       __real@41b00000            10072cdc     VisualsMisc.obj
 0002:00002ce0       __real@46000000            10072ce0     VisualsMisc.obj
 0002:00002ce4       __real@bdcccccd            10072ce4     VisualsMisc.obj
 0002:00002ce8       ??_C@_0BC@HGLEFIAP@cs_baggage_skybox@ 10072ce8     World Textures.obj
 0002:00002cfc       ??_C@_08BLKLIJEH@cs_tibet@ 10072cfc     World Textures.obj
 0002:00002d08       ??_C@_08KBJNAGNK@clearsky@ 10072d08     World Textures.obj
 0002:00002d14       ??_C@_0N@DOFMLNBI@clearsky_hdr@ 10072d14     World Textures.obj
 0002:00002d24       ??_C@_07NIBJEIAE@embassy@  10072d24     World Textures.obj
 0002:00002d2c       ??_C@_05FBDOCGFM@italy@    10072d2c     World Textures.obj
 0002:00002d34       ??_C@_06MPAOAEGI@jungle@   10072d34     World Textures.obj
 0002:00002d3c       ??_C@_09GDEEAKEC@nukeblank@ 10072d3c     World Textures.obj
 0002:00002d48       ??_C@_06MDIHCADF@office@   10072d48     World Textures.obj
 0002:00002d50       ??_C@_0BI@EHOLFNKI@sky_cs15_daylight01_hdr@ 10072d50     World Textures.obj
 0002:00002d68       ??_C@_0BI@MBHPCPAG@sky_cs15_daylight02_hdr@ 10072d68     World Textures.obj
 0002:00002d80       ??_C@_0BI@KCDPMKD@sky_cs15_daylight03_hdr@ 10072d80     World Textures.obj
 0002:00002d98       ??_C@_0BI@BHCGMMBL@sky_cs15_daylight04_hdr@ 10072d98     World Textures.obj
 0002:00002db0       ??_C@_0BC@NJBKFELC@sky_csgo_cloudy01@ 10072db0     World Textures.obj
 0002:00002dc4       ??_C@_0BB@DNKKAGKJ@sky_csgo_night02@ 10072dc4     World Textures.obj
 0002:00002dd8       ??_C@_0BC@PIPMLIGP@sky_csgo_night02b@ 10072dd8     World Textures.obj
 0002:00002dec       ??_C@_0BE@PBHHAKHI@sky_csgo_night_flat@ 10072dec     World Textures.obj
 0002:00002e00       ??_C@_0BB@JFCHDEMK@sky_day02_05_hdr@ 10072e00     World Textures.obj
 0002:00002e14       ??_C@_0N@MNJEOBGO@sky_day02_05@ 10072e14     World Textures.obj
 0002:00002e24       ??_C@_08PEMGGMKO@sky_dust@ 10072e24     World Textures.obj
 0002:00002e30       ??_C@_0BE@IOKGLHFD@sky_l4d_rural02_ldr@ 10072e30     World Textures.obj
 0002:00002e44       ??_C@_0M@FPDMGLII@vertigo_hdr@ 10072e44     World Textures.obj
 0002:00002e50       ??_C@_0BA@HGAAPMNH@vertigoblue_hdr@ 10072e50     World Textures.obj
 0002:00002e60       ??_C@_07IKAHCDEC@vertigo@  10072e60     World Textures.obj
 0002:00002e68       ??_C@_07PIBIFNJM@vietnam@  10072e68     World Textures.obj
 0002:00002e70       ??_C@_09JEAMLPFC@sky150day@ 10072e70     World Textures.obj
 0002:00002e7c       ??_C@_06EMJDMICC@sky149@   10072e7c     World Textures.obj
 0002:00002e84       ??_C@_06OACGIHCO@sky145@   10072e84     World Textures.obj
 0002:00002e8c       ??_C@_06KPGHBBOJ@sky142@   10072e8c     World Textures.obj
 0002:00002e94       ??_C@_07DEBNLAHD@sky139a@  10072e94     World Textures.obj
 0002:00002e9c       ??_C@_06EJNMNOKH@sky139@   10072e9c     World Textures.obj
 0002:00002ea4       ??_C@_04IIICLNHD@mars@     10072ea4     World Textures.obj
 0002:00002eac       ??_C@_0L@DOOKJNDL@WhiteDwarf@ 10072eac     World Textures.obj
 0002:00002eb8       ??_C@_08MMFHLCCK@space_13@ 10072eb8     World Textures.obj
 0002:00002ec4       ??_C@_01GBGANLPD@0@        10072ec4     World Textures.obj
 0002:00002ec8       ??_C@_0L@NPFKENCH@sv_skyname@ 10072ec8     World Textures.obj
 0002:00002ed4       ??_C@_0BJ@FDCFOANE@r_drawspecificstaticprop@ 10072ed4     World Textures.obj
 0002:00002ef0       ??_C@_0P@HPCHOLAI@World?5textures@ 10072ef0     World Textures.obj
 0002:00002f00       ??_C@_0BE@GFCHNMFC@StaticProp?5textures@ 10072f00     World Textures.obj
 0002:00002f14       ??_C@_06HDCPEBNJ@SkyBox@   10072f14     World Textures.obj
 0002:00002f1c       ??_C@_02CHHAKFFB@w?$CL@    10072f1c     main.obj
 0002:00002f20       ??_C@_07GPDNMNG@CONOUT$@   10072f20     main.obj
 0002:00002f28       ??_C@_0O@LOBDMAOA@?$FL?$HO?$FN?5chadhook?6@ 10072f28     main.obj
 0002:00002f38       ??_C@_0BC@LLHFCENE@serverbrowser?4dll@ 10072f38     main.obj
 0002:00002f4c       ??_C@_0BK@KAGCHPAH@?$FL?$HO?$FN?5welcome?5to?5chadhook?$CB?6@ 10072f4c     main.obj
 0002:00002f68       ??_C@_0M@HDNAJOMD@C?3?2Bameware@ 10072f68     main.obj
 0002:00002f74       ??_C@_0BB@LGDBHGJI@C?3?2Bameware?2Logs@ 10072f74     main.obj
 0002:00002f88       ??_C@_0BE@ICDACDDL@C?3?2Bameware?2Configs@ 10072f88     main.obj
 0002:00002f9c       ??_C@_0BG@HHLCLDGI@C?3?2Bameware?2Resources@ 10072f9c     main.obj
 0002:00002fb4       ??_C@_0BM@PPAAOHJA@C?3?2Bameware?2Resources?2Fonts@ 10072fb4     main.obj
 0002:00002fd0       ??_C@_09OOFOPABP@DETACHING@ 10072fd0     main.obj
 0002:00002fdc       ??_C@_0CJ@OAGBGMIN@A1?5?$DP?5?$DP?5?$DP?5?$DP?533?5D2?56A?500?56A?500?533@ 10072fdc     Menu.obj
 0002:00003008       ??_C@_04HDOCAJNK@?$CFs?$CFs@ 10073008     Menu.obj
 0002:00003010       ??_C@_0BB@LJBMMFFO@cl_mouseenable?51@ 10073010     Menu.obj
 0002:00003024       ??_C@_0BB@KAAHPEBP@cl_mouseenable?50@ 10073024     Menu.obj
 0002:00003038       ??_C@_05CKLABGMP@Skins@    10073038     Menu.obj
 0002:00003040       ??_C@_07DNEKOHB@Weapons@   10073040     Menu.obj
 0002:00003048       ??_C@_04BGDBHLHN@Skin@     10073048     Menu.obj
 0002:00003050       ??_C@_07MJEANAEL@Quality@  10073050     Menu.obj
 0002:00003058       ??_C@_04OLAKKGGL@Wear@     10073058     Menu.obj
 0002:00003060       ??_C@_04FBLBNKA@Seed@      10073060     Menu.obj
 0002:00003068       ??_C@_08EPIBDGJ@StatTrak@  10073068     Menu.obj
 0002:00003074       ??_C@_05ILKPOBAF@Kills@    10073074     Menu.obj
 0002:0000307c       ??_C@_0M@OFIIAKLM@Custom?5name@ 1007307c     Menu.obj
 0002:00003088       ??_C@_06LMAGPFNF@Update@   10073088     Menu.obj
 0002:00003090       ??_C@_04INACKGJP@Save@     10073090     Menu.obj
 0002:00003098       ??_C@_04IPBPFFEL@Load@     10073098     Menu.obj
 0002:000030a0       ??_C@_08MODHACIL@chadhook@ 100730a0     Menu.obj
 0002:000030ac       ??_C@_06FHEBLMEF@Aimbot@   100730ac     Menu.obj
 0002:000030b4       ??_C@_0BI@BLDCCCKN@Enabled?$CD?$CDaimbot?5enabled@ 100730b4     Menu.obj
 0002:000030cc       ??_C@_0P@LEJBADAA@Prefer?5bodyaim@ 100730cc     Menu.obj
 0002:000030dc       ??_C@_06KMEJCCGM@Ignore@   100730dc     Menu.obj
 0002:000030e4       ??_C@_06PAMAEABB@?$CD?$CDhead@ 100730e4     Menu.obj
 0002:000030ec       ??_C@_0BJ@OKGPLAIM@Ignore?5limbs?5when?5moving@ 100730ec     Menu.obj
 0002:00003108       ??_C@_0M@LGKINCLF@Auto?5Crouch@ 10073108     Menu.obj
 0002:00003114       ??_C@_08ODLBHCGJ@Autostop@ 10073114     Menu.obj
 0002:00003120       ??_C@_03EMOFKE@dmg@        10073120     Menu.obj
 0002:00003124       ??_C@_0BI@EFPAOGMK@Trigger?$CD?$CDtrigger?5damage@ 10073124     Menu.obj
 0002:00003140       ??_C@_0EB@GJNOHGHN@The?5damage?5needed?5to?5be?5able?5to@ 10073140     Menu.obj
 0002:00003184       ??_C@_0BE@BOODMOIC@Bodyaim?5if?5x?5damage@ 10073184     Menu.obj
 0002:00003198       ??_C@_0L@MCPKNIPF@Min?5damage@ 10073198     Menu.obj
 0002:000031a4       ??_C@_0BE@CMLCGGEA@Min?5autowall?5damage@ 100731a4     Menu.obj
 0002:000031b8       ??_C@_01FGNFDNOH@?$CF@     100731b8     Menu.obj
 0002:000031bc       ??_C@_0M@MNKHPMOK@Point?9scale@ 100731bc     Menu.obj
 0002:000031c8       ??_C@_0BB@GGHICIDO@Body?5point?9scale@ 100731c8     Menu.obj
 0002:000031dc       ??_C@_0BG@MIJBAFNH@Duel?5body?5point?9scale@ 100731dc     Menu.obj
 0002:000031f4       ??_C@_0BA@GIBLNMEH@Delay?5shot?5type@ 100731f4     Menu.obj
 0002:00003204       ??_C@_01LKDEMHDF@s@        10073204     Menu.obj
 0002:00003208       ??_C@_0L@FFFFNMAN@Delay?5shot@ 10073208     Menu.obj
 0002:00003214       ??_C@_0N@JMKPPJDO@Fake?5latency@ 10073214     Menu.obj
 0002:00003224       ??_C@_02EEKDFEKL@ms@       10073224     Menu.obj
 0002:00003228       ??_C@_0BB@ODENIDEL@?$CD?$CDlatency?5amount@ 10073228     Menu.obj
 0002:0000323c       ??_C@_0O@FOPAMPBJ@Accuracy?5type@ 1007323c     Menu.obj
 0002:0000324c       ??_C@_0BI@GGEINMGN@?$CD?$CDaccuracy?5value?5aimbot@ 1007324c     Menu.obj
 0002:00003264       ??_C@_0P@KDBDPFHM@Hitscan?5groups@ 10073264     Menu.obj
 0002:00003274       ??_C@_0BK@DCLKCNFC@Hitbox?5groups?5to?5hitscan?4@ 10073274     Menu.obj
 0002:00003290       ??_C@_0BK@JBALNDHA@Hitscan?5multipoint?5groups@ 10073290     Menu.obj
 0002:000032ac       ??_C@_0DA@HMCPMIMB@Hitbox?5groups?5to?5hitscan?0?5will?5@ 100732ac     Menu.obj
 0002:000032dc       ??_C@_08PDMHKKA@Anti?9aim@ 100732dc     Menu.obj
 0002:000032e8       ??_C@_07DOAOMMKG@Enabled@  100732e8     Menu.obj
 0002:000032f0       ??_C@_0BO@OIHGOMHK@At?5target?$CD?$CDstanding?5at?5target@ 100732f0     Menu.obj
 0002:00003310       ??_C@_0BG@DBAOCCKP@Pitch?$CD?$CDstanding?5pitch@ 10073310     Menu.obj
 0002:00003328       ??_C@_04PHKLBGME@Real@     10073328     Menu.obj
 0002:00003330       ??_C@_0BH@DLLNGEDH@Yaw?$CD?$CDstanding?5real?5yaw@ 10073330     Menu.obj
 0002:00003348       ??_C@_01FKODEDLI@?$LA@     10073348     Menu.obj
 0002:0000334c       ??_C@_0BN@LDOCPJDC@Offset?$CD?$CDstanding?5real?5offset@ 1007334c     Menu.obj
 0002:0000336c       ??_C@_0BO@GMJBNPDF@LBY?5delta?$CD?$CDstanding?5lby?5delta@ 1007336c     Menu.obj
 0002:0000338c       ??_C@_0CJ@KNEMHBJK@Jitter?5range?$CD?$CDstanding?5real?5jit@ 1007338c     Menu.obj
 0002:000033b8       ??_C@_0CF@ECFCFGCI@Spin?5speed?$CD?$CDstanding?5real?5spin?5@ 100733b8     Menu.obj
 0002:000033e0       ??_C@_04DBPMIOEO@Fake@     100733e0     Menu.obj
 0002:000033e8       ??_C@_0BH@MNKEHHDG@Yaw?$CD?$CDstanding?5fake?5yaw@ 100733e8     Menu.obj
 0002:00003400       ??_C@_0BN@LHKEHKKB@Offset?$CD?$CDstanding?5fake?5offset@ 10073400     Menu.obj
 0002:00003420       ??_C@_0CJ@HJIOHAAI@Jitter?5range?$CD?$CDstanding?5fake?5jit@ 10073420     Menu.obj
 0002:0000344c       ??_C@_0BM@LCDMKBME@At?5target?$CD?$CDmoving?5at?5target@ 1007344c     Menu.obj
 0002:00003468       ??_C@_0BE@CFCNLDPD@Pitch?$CD?$CDmoving?5pitch@ 10073468     Menu.obj
 0002:0000347c       ??_C@_0BF@KJCPBPNL@Yaw?$CD?$CDmoving?5real?5yaw@ 1007347c     Menu.obj
 0002:00003494       ??_C@_0BL@MJLGGLI@Offset?$CD?$CDmoving?5real?5offset@ 10073494     Menu.obj
 0002:000034b0       ??_C@_0CH@LBOBBGGG@Jitter?5range?$CD?$CDmoving?5real?5jitte@ 100734b0     Menu.obj
 0002:000034d8       ??_C@_0CD@PPKOFHKA@Spin?5speed?$CD?$CDmoving?5real?5spin?5sp@ 100734d8     Menu.obj
 0002:000034fc       ??_C@_0BF@FPDGAMNK@Yaw?$CD?$CDmoving?5fake?5yaw@ 100734fc     Menu.obj
 0002:00003514       ??_C@_0BL@INNOFCL@Offset?$CD?$CDmoving?5fake?5offset@ 10073514     Menu.obj
 0002:00003530       ??_C@_0CH@GFCDBHPE@Jitter?5range?$CD?$CDmoving?5fake?5jitte@ 10073530     Menu.obj
 0002:00003558       ??_C@_0BN@LMCOBCEJ@At?5target?$CD?$CDjumping?5at?5target@ 10073558     Menu.obj
 0002:00003578       ??_C@_0BF@PJNBLJPM@Pitch?$CD?$CDjumping?5pitch@ 10073578     Menu.obj
 0002:00003590       ??_C@_0BG@FOEJCIFL@Yaw?$CD?$CDjumping?5real?5yaw@ 10073590     Menu.obj
 0002:000035a8       ??_C@_0BM@MCPONIDG@Offset?$CD?$CDjumping?5real?5offset@ 100735a8     Menu.obj
 0002:000035c4       ??_C@_0CI@JCAIAMFO@Jitter?5range?$CD?$CDjumping?5real?5jitt@ 100735c4     Menu.obj
 0002:000035ec       ??_C@_0CE@EFLMAHOC@Spin?5speed?$CD?$CDjumping?5real?5spin?5s@ 100735ec     Menu.obj
 0002:00003610       ??_C@_0BG@KIFADLFK@Yaw?$CD?$CDjumping?5fake?5yaw@ 10073610     Menu.obj
 0002:00003628       ??_C@_0BM@MGLIFLKF@Offset?$CD?$CDjumping?5fake?5offset@ 10073628     Menu.obj
 0002:00003644       ??_C@_0CI@EGMKANMM@Jitter?5range?$CD?$CDjumping?5fake?5jitt@ 10073644     Menu.obj
 0002:0000366c       ??_C@_0M@NFNOKPED@Edging?5type@ 1007366c     Menu.obj
 0002:00003678       ??_C@_09HBBKONPH@LBY?5delta@ 10073678     Menu.obj
 0002:00003684       ??_C@_0N@CIJEEHCA@Jitter?5range@ 10073684     Menu.obj
 0002:00003694       ??_C@_08CHGFFCLN@Standing@ 10073694     Menu.obj
 0002:000036a0       ??_C@_06OGKEDPBL@Moving@   100736a0     Menu.obj
 0002:000036a8       ??_C@_06GBDKOOAJ@In?9air@  100736a8     Menu.obj
 0002:000036b0       ??_C@_04OFFCAMCD@Test@     100736b0     Menu.obj
 0002:000036b8       ??_C@_0BF@IHPGKCCK@Other?$CD?$CDvisuals?5other@ 100736b8     Menu.obj
 0002:000036d0       ??_C@_0M@HKHNBN@Thirdperson@ 100736d0     Menu.obj
 0002:000036dc       ??_C@_0BN@IIMHJLOJ@Enabled?$CD?$CDthirdperson?5enabled@ 100736dc     Menu.obj
 0002:000036fc       ??_C@_0BG@DMFOIMEA@?$CD?$CDthirdperson?5keybind@ 100736fc     Menu.obj
 0002:00003714       ??_C@_0BP@OKLNIBML@Distance?$CD?$CDthirdperson?5distance@ 10073714     Menu.obj
 0002:00003734       ??_C@_0BJ@BAAPKIMG@Angle?$CD?$CDthirdperson?5angle@ 10073734     Menu.obj
 0002:00003750       ??_C@_0BK@JKEAHMN@The?5yaw?5that?5is?5displayed@ 10073750     Menu.obj
 0002:0000376c       ??_C@_0BJ@CMDHFDHE@Misc?$CD?$CDvisuals?5other?5misc@ 1007376c     Menu.obj
 0002:00003788       ??_C@_0BA@KKMFPBCC@Fov?$CD?$CDvisual?5fov@ 10073788     Menu.obj
 0002:00003798       ??_C@_0BE@KNADKKAO@Scoped?5transparency@ 10073798     Menu.obj
 0002:000037ac       ??_C@_0CI@KCNGOMHO@How?5transparent?5you?5are?5while?5s@ 100737ac     Menu.obj
 0002:000037d4       ??_C@_0BD@EMDFMOID@Autowall?5crosshair@ 100737d4     Menu.obj
 0002:000037e8       ??_C@_0DC@EIIECNJL@Changes?5crosshair?5color?5based?5o@ 100737e8     Menu.obj
 0002:0000381c       ??_C@_0L@OJPGICEN@Hitmarkers@ 1007381c     Menu.obj
 0002:00003828       ??_C@_0O@IGJHKCFF@Spread?5circle@ 10073828     Menu.obj
 0002:00003838       ??_C@_0BG@GHHHCGF@?$CD?$CDspread?5circle?5color@ 10073838     Menu.obj
 0002:00003850       ??_C@_0P@NABECKPL@Bullet?5tracers@ 10073850     Menu.obj
 0002:00003860       ??_C@_0BH@LCJAJOJA@?$CD?$CDbullet?5tracers?5color@ 10073860     Menu.obj
 0002:00003878       ??_C@_09FADNPJCJ@Snaplines@ 10073878     Menu.obj
 0002:00003884       ??_C@_0BC@CINBOAHB@?$CD?$CDsnaplines?5color@ 10073884     Menu.obj
 0002:00003898       ??_C@_0BA@GFPPHAMI@Grenade?5tracers@ 10073898     Menu.obj
 0002:000038a8       ??_C@_0BI@LAACIDPO@?$CD?$CDgrenade?5tracers?5color@ 100738a8     Menu.obj
 0002:000038c0       ??_C@_0BB@LKLANKED@No?5scope?5overlay@ 100738c0     Menu.obj
 0002:000038d4       ??_C@_0BJ@FAHONIMO@?$CD?$CDno?5scope?5overlay?5color@ 100738d4     Menu.obj
 0002:000038f0       ??_C@_0CM@HDKCOJGL@World?5Modifications?$CD?$CDvisuals?5wo@ 100738f0     Menu.obj
 0002:0000391c       ??_C@_0BI@PKJJDOLC@Skybox?$CD?$CDskybox?5combobox@ 1007391c     Menu.obj
 0002:00003934       ??_C@_0BK@DACHCLJG@?$CD?$CDskybox?5color?5modulation@ 10073934     Menu.obj
 0002:00003950       ??_C@_0BO@MIKPDAGF@World?$CD?$CDworld?5color?5modulation@ 10073950     Menu.obj
 0002:00003970       ??_C@_0CE@CEDBPMGK@Props?$CD?$CDstatic?5prop?5color?5modula@ 10073970     Menu.obj
 0002:00003994       ??_C@_0N@JFENBDEL@World?5Update@ 10073994     Menu.obj
 0002:000039a4       ??_C@_0BI@ECIALKGO@Backtrack?5visualization@ 100739a4     Menu.obj
 0002:000039bc       ??_C@_0CF@GJPMJEAF@Skeleton?$CD?$CDbacktrack?5skeleton?5en@ 100739bc     Menu.obj
 0002:000039e4       ??_C@_0BL@LOEMLPEP@?$CD?$CDbacktrack?5skeleton?5color@ 100739e4     Menu.obj
 0002:00003a00       ??_C@_0BP@JCFLNDO@Chams?$CD?$CDbacktrack?5chams?5enabled@ 10073a00     Menu.obj
 0002:00003a20       ??_C@_0BI@OICLIEPG@?$CD?$CDbacktrack?5chams?5color@ 10073a20     Menu.obj
 0002:00003a38       ??_C@_0BL@EFHANEEO@Dot?$CD?$CDbacktrack?5dot?5enabled@ 10073a38     Menu.obj
 0002:00003a54       ??_C@_0BG@EGFKBJPK@?$CD?$CDbacktrack?5dot?5color@ 10073a54     Menu.obj
 0002:00003a6c       ??_C@_0BB@GBLFCPBP@ESP?$CD?$CDvisuals?5esp@ 10073a6c     Menu.obj
 0002:00003a80       ??_C@_0BB@NACJDMKO@Enemy?$CD?$CDesp?5enemy@ 10073a80     Menu.obj
 0002:00003a94       ??_C@_0BL@DDGAGKHA@Box?$CD?$CDenemy?5box?5esp?5enabled@ 10073a94     Menu.obj
 0002:00003ab0       ??_C@_0BG@NOLNECFN@?$CD?$CDenemy?5box?5esp?5color@ 10073ab0     Menu.obj
 0002:00003ac8       ??_C@_0CF@MPPFGCEB@Skeleton?$CD?$CDenemy?5skeleton?5esp?5en@ 10073ac8     Menu.obj
 0002:00003af0       ??_C@_0BL@MPKACLPC@?$CD?$CDenemy?5skeleton?5esp?5color@ 10073af0     Menu.obj
 0002:00003b0c       ??_C@_0BF@LEPAOGLJ@Name?$CD?$CDenemy?5esp?5name@ 10073b0c     Menu.obj
 0002:00003b24       ??_C@_0BH@CFEFGDLB@?$CD?$CDenemy?5name?5esp?5color@ 10073b24     Menu.obj
 0002:00003b3c       ??_C@_0BJ@JFNLALAI@Weapon?$CD?$CDenemy?5esp?5weapon@ 10073b3c     Menu.obj
 0002:00003b58       ??_C@_0BJ@DPNJFHID@Health?$CD?$CDenemy?5esp?5health@ 10073b58     Menu.obj
 0002:00003b74       ??_C@_0CH@CNGPHPNL@Resolver?5info?$CD?$CDenemy?5esp?5resolv@ 10073b74     Menu.obj
 0002:00003b9c       ??_C@_0DI@MDKIKLMM@Displays?5what?5the?5player?5is?5cur@ 10073b9c     Menu.obj
 0002:00003bd4       ??_C@_0P@LMDINBHD@Team?$CD?$CDesp?5team@ 10073bd4     Menu.obj
 0002:00003be4       ??_C@_0BK@FMHEIFCD@Box?$CD?$CDteam?5box?5esp?5enabled@ 10073be4     Menu.obj
 0002:00003c00       ??_C@_0BF@POPFAOEA@?$CD?$CDteam?5box?5esp?5color@ 10073c00     Menu.obj
 0002:00003c18       ??_C@_0CE@BNFJMJOP@Skeleton?$CD?$CDteam?5skeleton?5esp?5ena@ 10073c18     Menu.obj
 0002:00003c3c       ??_C@_0BK@GNBPGHJO@?$CD?$CDteam?5skeleton?5esp?5color@ 10073c3c     Menu.obj
 0002:00003c58       ??_C@_0BE@PBCHAGPD@Name?$CD?$CDteam?5esp?5name@ 10073c58     Menu.obj
 0002:00003c6c       ??_C@_0BG@EGGDEHCE@?$CD?$CDteam?5name?5esp?5color@ 10073c6c     Menu.obj
 0002:00003c84       ??_C@_0BI@LKKCJMHO@Weapon?$CD?$CDteam?5esp?5weapon@ 10073c84     Menu.obj
 0002:00003c9c       ??_C@_0BI@NICLCDPC@Health?$CD?$CDteam?5esp?5health@ 10073c9c     Menu.obj
 0002:00003cb4       ??_C@_0BA@GJPNLCML@Player?5textures@ 10073cb4     Menu.obj
 0002:00003cc4       ??_C@_0DD@CHLNICCN@Localplayer?$CD?$CDlocalplayer?5player@ 10073cc4     Menu.obj
 0002:00003cf8       ??_C@_0BO@HEJABAJA@Draw?5player?$CD?$CDdraw?5localplayer@ 10073cf8     Menu.obj
 0002:00003d18       ??_C@_0CD@ILPICKBC@Draw?5chams?$CD?$CDdraw?5chams?5localpla@ 10073d18     Menu.obj
 0002:00003d3c       ??_C@_0CP@PDAMIOFL@Wireframe?$CD?$CDchams?5localplayer?5wi@ 10073d3c     Menu.obj
 0002:00003d6c       ??_C@_0BK@MLAGNPO@?$CD?$CDlocalplayer?5chams?5color@ 10073d6c     Menu.obj
 0002:00003d88       ??_C@_0CB@BIKFDBAI@Draw?5glow?$CD?$CDdraw?5glow?5localplaye@ 10073d88     Menu.obj
 0002:00003dac       ??_C@_0BJ@OBIMNBHK@?$CD?$CDlocalplayer?5glow?5style@ 10073dac     Menu.obj
 0002:00003dc8       ??_C@_0CG@LNGKFEKD@Fullbloom?$CD?$CDlocalplayer?5glow?5ful@ 10073dc8     Menu.obj
 0002:00003df0       ??_C@_0CH@BIIEDBOA@Enemy?$CD?$CDenemy?5player?5textures?5se@ 10073df0     Menu.obj
 0002:00003e18       ??_C@_0BK@FINEMLF@Draw?5player?$CD?$CDdraw?5enemies@ 10073e18     Menu.obj
 0002:00003e34       ??_C@_0BN@LMLPDCNO@Draw?5chams?$CD?$CDdraw?5chams?5enemy@ 10073e34     Menu.obj
 0002:00003e54       ??_C@_0CJ@LBKFOFGA@Wireframe?$CD?$CDchams?5enemy?5wirefram@ 10073e54     Menu.obj
 0002:00003e80       ??_C@_0BN@OGCBKOHD@?$CD?$CDenemy?5occluded?5chams?5color@ 10073e80     Menu.obj
 0002:00003ea0       ??_C@_0CG@KHNENPKI@Chams?5color?5while?5behind?5walls?$CD@ 10073ea0     Menu.obj
 0002:00003ec8       ??_C@_0BP@NFNOGEDP@?$CD?$CDenemy?5unoccluded?5chams?5color@ 10073ec8     Menu.obj
 0002:00003ee8       ??_C@_0BL@CJOFMEDJ@Draw?5glow?$CD?$CDdraw?5glow?5enemy@ 10073ee8     Menu.obj
 0002:00003f04       ??_C@_0BD@HAPBDJKK@?$CD?$CDenemy?5glow?5style@ 10073f04     Menu.obj
 0002:00003f18       ??_C@_0CA@MCJFDDAO@Fullbloom?$CD?$CDenemy?5glow?5fullbloom@ 10073f18     Menu.obj
 0002:00003f38       ??_C@_0CF@MHNPGFAD@Team?$CD?$CDteam?5player?5textures?5sepe@ 10073f38     Menu.obj
 0002:00003f60       ??_C@_0BH@HOEMHCGO@Draw?5player?$CD?$CDdraw?5team@ 10073f60     Menu.obj
 0002:00003f78       ??_C@_0BM@HNOAJMMG@Draw?5chams?$CD?$CDdraw?5chams?5team@ 10073f78     Menu.obj
 0002:00003f94       ??_C@_0CI@PBPLOFAM@Wireframe?$CD?$CDchams?5team?5wireframe@ 10073f94     Menu.obj
 0002:00003fbc       ??_C@_0BM@FAADCFNM@?$CD?$CDteam?5occluded?5chams?5color@ 10073fbc     Menu.obj
 0002:00003fd8       ??_C@_0CF@BHKIJBJD@Chams?5color?5while?5behind?5walls?$CD@ 10073fd8     Menu.obj
 0002:00004000       ??_C@_0BO@IGCLCIJD@?$CD?$CDteam?5unoccluded?5chams?5color@ 10074000     Menu.obj
 0002:00004020       ??_C@_0CA@LIILFAGJ@Chams?5color?5while?5visible?$CD?$CDteam@ 10074020     Menu.obj
 0002:00004040       ??_C@_0BK@JIFMPJAO@Draw?5glow?$CD?$CDdraw?5glow?5team@ 10074040     Menu.obj
 0002:0000405c       ??_C@_0BC@POJNMEBK@?$CD?$CDteam?5glow?5style@ 1007405c     Menu.obj
 0002:00004070       ??_C@_0BP@HICOOPGF@Fullbloom?$CD?$CDteam?5glow?5fullbloom@ 10074070     Menu.obj
 0002:00004090       ??_C@_07GLBJHKEK@Configs@  10074090     Menu.obj
 0002:00004098       ??_C@_07HNMLFLME@Ragebot@  10074098     Menu.obj
 0002:000040a0       ??_C@_05LPPMJLKK@?4rcfg@   100740a0     Menu.obj
 0002:000040a8       ??_C@_0BK@PBPJKHNM@?$CD?$CDragebot?5new?5config?5name@ 100740a8     Menu.obj
 0002:000040c4       ??_C@_0N@NBHOGHLP@New?$CD?$CDragebot@ 100740c4     Menu.obj
 0002:000040d4       ??_C@_0O@CGOJEOM@?$CD?$CDrage?5config@ 100740d4     Menu.obj
 0002:000040e4       ??_C@_0BB@GDMDGNIP@?$CD?$CDragebot?5config@ 100740e4     Menu.obj
 0002:000040f8       ??_C@_0BA@CKPPBNLG@Delete?$CD?$CDragebot@ 100740f8     Menu.obj
 0002:00004108       ??_C@_0O@ENMJGKHK@Save?$CD?$CDragebot@ 10074108     Menu.obj
 0002:00004118       ??_C@_0O@DOAHDFOD@Load?$CD?$CDragebot@ 10074118     Menu.obj
 0002:00004128       ??_C@_0P@LHLJOMAA@Visuals?5?1?5Misc@ 10074128     Menu.obj
 0002:00004138       ??_C@_06OLNCNHP@?4vmcfg@   10074138     Menu.obj
 0002:00004140       ??_C@_0BP@EGGAMKIM@?$CD?$CDvisuals?1misc?5new?5config?5name@ 10074140     Menu.obj
 0002:00004160       ??_C@_09NEKDNHN@New?$CD?$CDmain@ 10074160     Menu.obj
 0002:0000416c       ??_C@_0O@OAHOEIAP@?$CD?$CDmain?5config@ 1007416c     Menu.obj
 0002:0000417c       ??_C@_0N@EECHGPBA@Delete?$CD?$CDmain@ 1007417c     Menu.obj
 0002:0000418c       ??_C@_0L@HBJOEPHN@Save?$CD?$CDmain@ 1007418c     Menu.obj
 0002:00004198       ??_C@_0L@FGFCGAOF@Load?$CD?$CDmain@ 10074198     Menu.obj
 0002:000041a4       ??_C@_0L@HDJKNMII@Misc?$CD?$CDmisc@ 100741a4     Menu.obj
 0002:000041b0       ??_C@_0N@KGPHIAJN@Unload?5cheat@ 100741b0     Menu.obj
 0002:000041c0       ??_C@_0BJ@JJPLKEHP@?$CD?$CDunload?5cheat?5seperator@ 100741c0     Menu.obj
 0002:000041dc       ??_C@_0P@HLFNIDD@Anti?9untrusted@ 100741dc     Menu.obj
 0002:000041ec       ??_C@_08DDLGGJIE@No?5flash@ 100741ec     Menu.obj
 0002:000041f8       ??_C@_08BKIJCIKK@No?5smoke@ 100741f8     Menu.obj
 0002:00004204       ??_C@_05ELHBHDGK@Radar@    10074204     Menu.obj
 0002:0000420c       ??_C@_04IJMICJMM@Bhop@     1007420c     Menu.obj
 0002:00004214       ??_C@_0N@KEMIDGND@Auto?9strafer@ 10074214     Menu.obj
 0002:00004224       ??_C@_0O@HKCNGFJM@Auto?9revolver@ 10074224     Menu.obj
 0002:00004234       ??_C@_0P@COKMIJDG@Circle?5strafer@ 10074234     Menu.obj
 0002:00004244       ??_C@_08HPOOIHCA@Override@ 10074244     Menu.obj
 0002:00004250       ??_C@_08CAKHAMKE@Clan?5tag@ 10074250     Menu.obj
 0002:0000425c       ??_C@_0CC@DPBDEDMJ@Enabled?$CD?$CDclan?5tag?5changer?5enabl@ 1007425c     Menu.obj
 0002:00004280       ??_C@_0BM@IPLKOAKE@Name?$CD?$CDclan?5tag?5changer?5name@ 10074280     Menu.obj
 0002:0000429c       ??_C@_0BO@GJAHGABO@Style?$CD?$CDclan?5tag?5changer?5style@ 1007429c     Menu.obj
 0002:000042bc       ??_C@_05HOIAGEJD@Speed@    100742bc     Menu.obj
 0002:000042c4       ??_C@_0BF@ODMPOCIH@Fake?9lag?5?1?5Fake?9walk@ 100742c4     Menu.obj
 0002:000042dc       ??_C@_09CEFIJAFP@Fake?9walk@ 100742dc     Menu.obj
 0002:000042e8       ??_C@_0BD@DNEPMHPO@Key?$CD?$CDfake?9walk?5key@ 100742e8     Menu.obj
 0002:000042fc       ??_C@_0BH@FHEJEPLC@Speed?$CD?$CDfake?9walk?5speed@ 100742fc     Menu.obj
 0002:00004314       ??_C@_0BK@NPJIGBHF@On?5peek?$CD?$CDfakewalk?5on?5peek@ 10074314     Menu.obj
 0002:00004330       ??_C@_08FCLPEIHG@Fake?9lag@ 10074330     Menu.obj
 0002:0000433c       ??_C@_0CD@KKIFLKEH@Adaptive?$CD?$CDadaptive?5fakelag?5enab@ 1007433c     Menu.obj
 0002:00004360       ??_C@_0CC@LALPPKOF@Ideal?5fakelag?5amount?5when?5jumpi@ 10074360     Menu.obj
 0002:00004384       ??_C@_0BJ@FJIMNEKC@On?5peek?$CD?$CDfakelag?5on?5peek@ 10074384     Menu.obj
 0002:000043a0       ??_C@_0BJ@BIJNHKMN@Max?5fakelag?5when?5peeking@ 100743a0     Menu.obj
 0002:000043bc       ??_C@_0BH@PIBCKLAM@Moving?$CD?$CDfakelag?5moving@ 100743bc     Menu.obj
 0002:000043d4       ??_C@_0BH@GMDNMPHC@In?9air?$CD?$CDfakelag?5in?5air@ 100743d4     Menu.obj
 0002:000043f0       __xmm@412000004180000040c0000041000000 100743f0     Menu.obj
 0002:00004400       __xmm@4160000043160000437a000041200000 10074400     Menu.obj
 0002:00004410       __xmm@41f00000410000004160000043480000 10074410     Menu.obj
 0002:00004420       ??_C@_0CI@OMNCKDIP@Failed?5to?5match?5a?5Begin?$CI?$CJ?5with?5@ 10074420     PPGUI.obj
 0002:00004448       ??_C@_0BL@MLKKEJCG@Not?5inside?5a?5command?5frame@ 10074448     PPGUI.obj
 0002:00004464       ??_C@_0BP@BDBFDJIJ@BeginWindow?$CI?$CJ?5improperly?5ended@ 10074464     PPGUI.obj
 0002:00004484       ??_C@_0CB@MFIGKLPB@BeginGroupbox?$CI?$CJ?5improperly?5ende@ 10074484     PPGUI.obj
 0002:000044a8       ??_C@_0BM@NEIMNNNI@Unhandled?5command?5data?5type@ 100744a8     PPGUI.obj
 0002:000044c4       ??_C@_0BB@MOGOBHAF@list?$DMT?$DO?5too?5long@ 100744c4     PPGUI.obj
 0002:000044d8       ??_C@_05LAPONLG@false@     100744d8     PPGUI_Commands.obj
 0002:000044e0       ??_C@_04LOAJBDKD@true@     100744e0     PPGUI_Commands.obj
 0002:000044e8       ??_C@_01GFHCPBMG@C@        100744e8     PPGUI_Commands.obj
 0002:000044ec       ??_C@_06BKKJGDHO@Window@   100744ec     PPGUI_Commands.obj
 0002:000044f4       ??_C@_08HBKJHHBM@Checkbox@ 100744f4     PPGUI_Commands.obj
 0002:00004500       ??_C@_06LKBCGDFD@Button@   10074500     PPGUI_Commands.obj
 0002:00004508       ??_C@_08KHPBBDKI@Groupbox@ 10074508     PPGUI_Commands.obj
 0002:00004514       ??_C@_06HMOLHLFN@Slider@   10074514     PPGUI_Commands.obj
 0002:0000451c       ??_C@_09IBFEOKHN@Separator@ 1007451c     PPGUI_Commands.obj
 0002:00004528       ??_C@_08IEKDLDLD@Key?5Bind@ 10074528     PPGUI_Commands.obj
 0002:00004534       ??_C@_0L@LLAOMMOH@Text?5Input@ 10074534     PPGUI_Commands.obj
 0002:00004540       ??_C@_08HGFPEFAH@Combobox@ 10074540     PPGUI_Commands.obj
 0002:0000454c       ??_C@_0BF@FOHFNBPC@Multiselect?5Combobox@ 1007454c     PPGUI_Commands.obj
 0002:00004564       ??_C@_0N@JKIFLNGD@Color?5Picker@ 10074564     PPGUI_Commands.obj
 0002:00004574       ??_C@_03IEAKBACE@Tab@      10074574     PPGUI_Commands.obj
 0002:00004578       ??_C@_08NANMIELJ@Tool?5Tip@ 10074578     PPGUI_Commands.obj
 0002:00004584       ??_C@_07HAPIOJCK@Mouse?53@ 10074584     PPGUI_Commands.obj
 0002:0000458c       ??_C@_07DPLJHPON@Mouse?54@ 1007458c     PPGUI_Commands.obj
 0002:00004594       ??_C@_07CGKCEOKM@Mouse?55@ 10074594     PPGUI_Commands.obj
 0002:0000459c       ??_C@_07DFGIDBBA@Control@  1007459c     PPGUI_Commands.obj
 0002:000045a4       ??_C@_05CMECKLGA@Shift@    100745a4     PPGUI_Commands.obj
 0002:000045ac       ??_C@_0L@BCOPDFIK@Left?5Arrow@ 100745ac     PPGUI_Commands.obj
 0002:000045b8       ??_C@_0M@OJABKOKA@Right?5Arrow@ 100745b8     PPGUI_Commands.obj
 0002:000045c4       ??_C@_08OHALCGDJ@Up?5Arrow@ 100745c4     PPGUI_Commands.obj
 0002:000045d0       ??_C@_0L@OJMODPNH@Down?5Arrow@ 100745d0     PPGUI_Commands.obj
 0002:000045dc       ??_C@_09GGECHFNF@Caps?5Lock@ 100745dc     PPGUI_Commands.obj
 0002:000045e8       ??_C@_08PNEIMCGO@Numpad?50@ 100745e8     PPGUI_Commands.obj
 0002:000045f4       ??_C@_08OEFDPDCP@Numpad?51@ 100745f4     PPGUI_Commands.obj
 0002:00004600       ??_C@_08MPHOKAOM@Numpad?52@ 10074600     PPGUI_Commands.obj
 0002:0000460c       ??_C@_08NGGFJBKN@Numpad?53@ 1007460c     PPGUI_Commands.obj
 0002:00004618       ??_C@_08JJCEAHGK@Numpad?54@ 10074618     PPGUI_Commands.obj
 0002:00004624       ??_C@_08IADPDGCL@Numpad?55@ 10074624     PPGUI_Commands.obj
 0002:00004630       ??_C@_08KLBCGFOI@Numpad?56@ 10074630     PPGUI_Commands.obj
 0002:0000463c       ??_C@_08LCAJFEKJ@Numpad?57@ 1007463c     PPGUI_Commands.obj
 0002:00004648       ??_C@_08DFJBEIGG@Numpad?58@ 10074648     PPGUI_Commands.obj
 0002:00004654       ??_C@_08CMIKHJCH@Numpad?59@ 10074654     PPGUI_Commands.obj
 0002:00004660       ??_C@_02LCPENACN@F1@       10074660     PPGUI_Commands.obj
 0002:00004664       ??_C@_02JJNJIDOO@F2@       10074664     PPGUI_Commands.obj
 0002:00004668       ??_C@_02IAMCLCKP@F3@       10074668     PPGUI_Commands.obj
 0002:0000466c       ??_C@_02MPIDCEGI@F4@       1007466c     PPGUI_Commands.obj
 0002:00004670       ??_C@_02NGJIBFCJ@F5@       10074670     PPGUI_Commands.obj
 0002:00004674       ??_C@_02PNLFEGOK@F6@       10074674     PPGUI_Commands.obj
 0002:00004678       ??_C@_02OEKOHHKL@F7@       10074678     PPGUI_Commands.obj
 0002:0000467c       ??_C@_02GDDGGLGE@F8@       1007467c     PPGUI_Commands.obj
 0002:00004680       ??_C@_02HKCNFKCF@F9@       10074680     PPGUI_Commands.obj
 0002:00004684       ??_C@_03JKCLJOFG@F10@      10074684     PPGUI_Commands.obj
 0002:00004688       ??_C@_03IDDAKPBH@F11@      10074688     PPGUI_Commands.obj
 0002:0000468c       ??_C@_03KIBNPMNE@F12@      1007468c     PPGUI_Commands.obj
 0002:00004690       ??_C@_03LBAGMNJF@F13@      10074690     PPGUI_Commands.obj
 0002:00004694       ??_C@_03POEHFLFC@F14@      10074694     PPGUI_Commands.obj
 0002:00004698       ??_C@_03OHFMGKBD@F15@      10074698     PPGUI_Commands.obj
 0002:0000469c       ??_C@_03MMHBDJNA@F16@      1007469c     PPGUI_Commands.obj
 0002:000046a0       ??_C@_03NFGKAIJB@F17@      100746a0     PPGUI_Commands.obj
 0002:000046a4       ??_C@_03FCPCBEFO@F18@      100746a4     PPGUI_Commands.obj
 0002:000046a8       ??_C@_03ELOJCFBP@F19@      100746a8     PPGUI_Commands.obj
 0002:000046ac       ??_C@_03JIGNCAAP@F20@      100746ac     PPGUI_Commands.obj
 0002:000046b0       ??_C@_03IBHGBBEO@F21@      100746b0     PPGUI_Commands.obj
 0002:000046b4       ??_C@_03KKFLECIN@F22@      100746b4     PPGUI_Commands.obj
 0002:000046b8       ??_C@_03LDEAHDMM@F23@      100746b8     PPGUI_Commands.obj
 0002:000046bc       ??_C@_03PMABOFAL@F24@      100746bc     PPGUI_Commands.obj
 0002:000046c0       ??_C@_01FHEEJDEE@A@        100746c0     PPGUI_Commands.obj
 0002:000046c4       ??_C@_01HMGJMAIH@B@        100746c4     PPGUI_Commands.obj
 0002:000046c8       ??_C@_01CKDDGHAB@D@        100746c8     PPGUI_Commands.obj
 0002:000046cc       ??_C@_01DDCIFGEA@E@        100746cc     PPGUI_Commands.obj
 0002:000046d0       ??_C@_01BIAFAFID@F@        100746d0     PPGUI_Commands.obj
 0002:000046d4       ??_C@_01BBODEMC@G@         100746d4     PPGUI_Commands.obj
 0002:000046d8       ??_C@_01IGIGCIAN@H@        100746d8     PPGUI_Commands.obj
 0002:000046dc       ??_C@_01JPJNBJEM@I@        100746dc     PPGUI_Commands.obj
 0002:000046e0       ??_C@_01LELAEKIP@J@        100746e0     PPGUI_Commands.obj
 0002:000046e4       ??_C@_01KNKLHLMO@K@        100746e4     PPGUI_Commands.obj
 0002:000046e8       ??_C@_01OCOKONAJ@L@        100746e8     PPGUI_Commands.obj
 0002:000046ec       ??_C@_01PLPBNMEI@M@        100746ec     PPGUI_Commands.obj
 0002:000046f0       ??_C@_01NANMIPIL@N@        100746f0     PPGUI_Commands.obj
 0002:000046f4       ??_C@_01MJMHLOMK@O@        100746f4     PPGUI_Commands.obj
 0002:000046f8       ??_C@_01EJNLAFE@P@         100746f8     PPGUI_Commands.obj
 0002:000046fc       ??_C@_01BNIGIBBF@Q@        100746fc     PPGUI_Commands.obj
 0002:00004700       ??_C@_01DGKLNCNG@R@        10074700     PPGUI_Commands.obj
 0002:00004704       ??_C@_01CPLAODJH@S@        10074704     PPGUI_Commands.obj
 0002:00004708       ??_C@_01GAPBHFFA@T@        10074708     PPGUI_Commands.obj
 0002:0000470c       ??_C@_01HJOKEEBB@U@        1007470c     PPGUI_Commands.obj
 0002:00004710       ??_C@_01FCMHBHNC@V@        10074710     PPGUI_Commands.obj
 0002:00004714       ??_C@_01ELNMCGJD@W@        10074714     PPGUI_Commands.obj
 0002:00004718       ??_C@_01MMEEDKFM@X@        10074718     PPGUI_Commands.obj
 0002:0000471c       ??_C@_01NFFPALBN@Y@        1007471c     PPGUI_Commands.obj
 0002:00004720       ??_C@_01POHCFINO@Z@        10074720     PPGUI_Commands.obj
 0002:00004724       ??_C@_01HIHLOKLC@1@        10074724     PPGUI_Commands.obj
 0002:00004728       ??_C@_01FDFGLJHB@2@        10074728     PPGUI_Commands.obj
 0002:0000472c       ??_C@_01EKENIIDA@3@        1007472c     PPGUI_Commands.obj
 0002:00004730       ??_C@_01FAMBOPH@4@         10074730     PPGUI_Commands.obj
 0002:00004734       ??_C@_01BMBHCPLG@5@        10074734     PPGUI_Commands.obj
 0002:00004738       ??_C@_01DHDKHMHF@6@        10074738     PPGUI_Commands.obj
 0002:0000473c       ??_C@_01COCBENDE@7@        1007473c     PPGUI_Commands.obj
 0002:00004740       ??_C@_01KJLJFBPL@8@        10074740     PPGUI_Commands.obj
 0002:00004744       ??_C@_01LAKCGALK@9@        10074744     PPGUI_Commands.obj
 0002:0000474c       ??_7PPGUI_Command@PPGUI@@6B@ 1007474c     PPGUI_Commands.obj
 0002:00004760       ??_7PPGUI_Window_Command@PPGUI@@6B@ 10074760     PPGUI_Commands.obj
 0002:00004774       ??_7PPGUI_Checkbox_Command@PPGUI@@6B@ 10074774     PPGUI_Commands.obj
 0002:00004788       ??_7PPGUI_Button_Command@PPGUI@@6B@ 10074788     PPGUI_Commands.obj
 0002:0000479c       ??_7PPGUI_Groupbox_Command@PPGUI@@6B@ 1007479c     PPGUI_Commands.obj
 0002:000047b0       ??_7PPGUI_Slider_Command@PPGUI@@6B@ 100747b0     PPGUI_Commands.obj
 0002:000047c4       ??_7PPGUI_Separator_Command@PPGUI@@6B@ 100747c4     PPGUI_Commands.obj
 0002:000047d8       ??_7PPGUI_Keybind_Command@PPGUI@@6B@ 100747d8     PPGUI_Commands.obj
 0002:000047ec       ??_7PPGUI_Text_Input_Command@PPGUI@@6B@ 100747ec     PPGUI_Commands.obj
 0002:00004800       ??_7PPGUI_Combobox_Command@PPGUI@@6B@ 10074800     PPGUI_Commands.obj
 0002:00004814       ??_7PPGUI_Multiselect_Combobox_Command@PPGUI@@6B@ 10074814     PPGUI_Commands.obj
 0002:00004828       ??_7PPGUI_Color_Picker_Command@PPGUI@@6B@ 10074828     PPGUI_Commands.obj
 0002:0000483c       ??_7PPGUI_Tab_Command@PPGUI@@6B@ 1007483c     PPGUI_Commands.obj
 0002:00004850       ??_7PPGUI_Tool_Tip_Command@PPGUI@@6B@ 10074850     PPGUI_Commands.obj
 0002:00004864       ??_7?$basic_stringbuf@DU?$char_traits@D@std@@V?$allocator@D@2@@std@@6B@ 10074864     PPGUI_Commands.obj
 0002:000048a4       ??_7?$basic_stringstream@DU?$char_traits@D@std@@V?$allocator@D@2@@std@@6B@ 100748a4     PPGUI_Commands.obj
 0002:000048a8       ??_8?$basic_stringstream@DU?$char_traits@D@std@@V?$allocator@D@2@@std@@7B?$basic_istream@DU?$char_traits@D@std@@@1@@ 100748a8     PPGUI_Commands.obj
 0002:000048b0       ??_8?$basic_stringstream@DU?$char_traits@D@std@@V?$allocator@D@2@@std@@7B?$basic_ostream@DU?$char_traits@D@std@@@1@@ 100748b0     PPGUI_Commands.obj
 0002:000048b8       ??_C@_03CCMDOIHN@?$CFs_@   100748b8     PPGUI_Commands.obj
 0002:000048bc       ??_C@_03IKGEINEE@?$CFs?5@  100748bc     PPGUI_Commands.obj
 0002:000048c0       ??_C@_02DKCKIIND@?$CFs@    100748c0     PPGUI_Commands.obj
 0002:000048c4       ??_C@_01CLKCMJKC@?5@       100748c4     PPGUI_Commands.obj
 0002:000048c8       ??_C@_01JOAMLHOP@?9@       100748c8     PPGUI_Commands.obj
 0002:000048cc       ??_C@_04DJCABLIL@?$CFs?$CFc@ 100748cc     PPGUI_Commands.obj
 0002:000048d4       ??_C@_0BC@FOEPGIBJ@?$CFi?5items?5selected@ 100748d4     PPGUI_Commands.obj
 0002:000048ec       ??_7?$num_put@DV?$ostreambuf_iterator@DU?$char_traits@D@std@@@std@@@std@@6B@ 100748ec     PPGUI_Commands.obj
 0002:00004918       ??_C@_02BBAHNLBA@?$CFp@    10074918     PPGUI_Commands.obj
 0002:0000491c       ??_C@_02CLHGNPPK@Lu@       1007491c     PPGUI_Commands.obj
 0002:00004920       ??_C@_02HIKPPMOK@Ld@       10074920     PPGUI_Commands.obj
 0002:00004924       ??_C@_02BDDLJJBK@lu@       10074924     PPGUI_Commands.obj
 0002:00004928       ??_C@_02EAOCLKAK@ld@       10074928     PPGUI_Commands.obj
 0002:00004930       ??_7?$numpunct@D@std@@6B@  10074930     PPGUI_Commands.obj
 0002:00004950       ??_C@_02MDKMJEGG@eE@       10074950     PPGUI_Commands.obj
 0002:00004954       ??_C@_02OOPEBDOJ@pP@       10074954     PPGUI_Commands.obj
 0002:00004958       __real@3e800000            10074958     PPGUI_Commands.obj
 0002:00004960       __real@3ff8000000000000    10074960     PPGUI_Commands.obj
 0002:00004968       __real@4014000000000000    10074968     PPGUI_Commands.obj
 0002:00004970       __real@4202a05f20000000    10074970     PPGUI_Commands.obj
 0002:00004978       __real@bfe0000000000000    10074978     PPGUI_Commands.obj
 0002:00004980       ??_C@_0BA@EAHDCAHA@xxxxxxxx?$DP?$DP?$DP?$DPxxx@ 10074980     hooks.obj
 0002:00004990       ??_C@_0BA@PMEIOKGL@U?$IL?l?$ID?l?$AI?$IL?$BF?$AA?$AA?$AA?$AA?$APW?$MA@ 10074990     hooks.obj
 0002:000049a0       ??_C@_0BC@OOIPLIMD@MatSystemTopPanel@ 100749a0     hooks.obj
 0002:000049b4       ??_C@_07MPKOOCMG@HudZoom@  100749b4     hooks.obj
 0002:000049bc       ??_C@_0DC@CKBOMCGI@Successfully?5hooked?5virtual?5fun@ 100749bc     hooks.obj
 0002:000049f0       ??_C@_0DI@NHNEAKHH@Successfully?5hooked?5virtual?5fun@ 100749f0     hooks.obj
 0002:00004a28       ??_C@_0DF@HKHILHBI@Successfully?5hooked?5virtual?5fun@ 10074a28     hooks.obj
 0002:00004a60       ??_C@_0DI@MIPPDNJI@Successfully?5hooked?5virtual?5fun@ 10074a60     hooks.obj
 0002:00004a98       ??_C@_0DA@CINFFHEH@Successfully?5hooked?5virtual?5fun@ 10074a98     hooks.obj
 0002:00004ac8       ??_C@_0DA@INIKHIPB@Successfully?5hooked?5virtual?5fun@ 10074ac8     hooks.obj
 0002:00004af8       ??_C@_0DE@PHBFJFOI@Successfully?5hooked?5virtual?5fun@ 10074af8     hooks.obj
 0002:00004b2c       ??_C@_0BC@ELHPMMNM@m_angEyeAngles?$FL0?$FN@ 10074b2c     hooks.obj
 0002:00004b40       ??_C@_0M@LGBCIIFJ@DT_CSPlayer@ 10074b40     hooks.obj
 0002:00004b4c       ??_C@_0BC@EKLNKGOL@m_angEyeAngles?$FL1?$FN@ 10074b4c     hooks.obj
 0002:00004b60       ??_C@_0BC@HHBEMJFI@m_bDidSmokeEffect@ 10074b60     hooks.obj
 0002:00004b74       ??_C@_0BK@NNEDEOFF@DT_SmokeGrenadeProjectile@ 10074b74     hooks.obj
 0002:00004b90       ??_C@_07JCIBDCMH@VClient@  10074b90     interfaces.obj
 0002:00004b98       ??_C@_0L@FHOOPKFG@VGUI_Panel@ 10074b98     interfaces.obj
 0002:00004ba4       ??_C@_09CODMFJIB@vgui2?4dll@ 10074ba4     interfaces.obj
 0002:00004bb0       ??_C@_0N@DPFCIDHG@VGUI_Surface@ 10074bb0     interfaces.obj
 0002:00004bc0       ??_C@_0P@OCAGFFCM@vguimatsurface@ 10074bc0     interfaces.obj
 0002:00004bd0       ??_C@_0O@FDOOCLEF@VEngineClient@ 10074bd0     interfaces.obj
 0002:00004be0       ??_C@_0BC@IFHLHIPB@VClientEntityList@ 10074be0     interfaces.obj
 0002:00004bf4       ??_C@_0O@HOKEFIHL@VDebugOverlay@ 10074bf4     interfaces.obj
 0002:00004c04       ??_C@_0BC@JBNKAEJG@EngineTraceClient@ 10074c04     interfaces.obj
 0002:00004c18       ??_C@_0BB@JOMIIOGI@VModelInfoClient@ 10074c18     interfaces.obj
 0002:00004c2c       ??_C@_0M@EOFANOAE@VEngineCvar@ 10074c2c     interfaces.obj
 0002:00004c38       ??_C@_0BD@KILDBMPM@InputSystemVersion@ 10074c38     interfaces.obj
 0002:00004c4c       ??_C@_0BA@JBLHMOPO@inputsystem?4dll@ 10074c4c     interfaces.obj
 0002:00004c5c       ??_C@_0N@LHCGGBCI@VEngineModel@ 10074c5c     interfaces.obj
 0002:00004c6c       ??_C@_0BC@JKKKFBEL@VEngineRenderView@ 10074c6c     interfaces.obj
 0002:00004c80       ??_C@_0BF@GFDELCOB@VPhysicsSurfaceProps@ 10074c80     interfaces.obj
 0002:00004c98       ??_C@_0N@FNMJMILG@vphysics?4dll@ 10074c98     interfaces.obj
 0002:00004ca8       ??_C@_0BF@KOIHLKCK@GAMEEVENTSMANAGER002@ 10074ca8     interfaces.obj
 0002:00004cc0       ??_C@_0BA@NIIHIFED@VMaterialSystem@ 10074cc0     interfaces.obj
 0002:00004cd0       ??_C@_0BD@PEHNKAML@materialsystem?4dll@ 10074cd0     interfaces.obj
 0002:00004ce4       ??_C@_0BH@OPAFKODJ@A1?5?$DP?5?$DP?5?$DP?5?$DP?5A8?501?575?54B@ 10074ce4     interfaces.obj
 0002:00004cfc       ??_C@_0N@LKNLNJEI@GameMovement@ 10074cfc     interfaces.obj
 0002:00004d0c       ??_C@_0BC@NHPCLNIG@VClientPrediction@ 10074d0c     interfaces.obj
 0002:00004d20       ??_C@_0L@OODIEBAN@?$IL?$AN?$AA?$AA?$AA?$AA?$ILF?$AIh@ 10074d20     interfaces.obj
 0002:00004d2c       ??_C@_04MBOLING@?$FL?$HO?$FN?5@ 10074d2c     interfaces.obj
 0002:00004d34       ??_C@_0BA@OBHPCBFP@CreateInterface@ 10074d34     interfaces.obj
 0002:00004d44       ??_C@_05NNLMPMIC@?$CFs0?$CFi@ 10074d44     interfaces.obj
 0002:00004d4c       ??_C@_06KJBDFNBH@?$CFs00?$CFi@ 10074d4c     interfaces.obj
 0002:00004d54       ??_C@_0BM@FLFKPNGA@Failed?5to?5find?5interface?5?9?5@ 10074d54     interfaces.obj
 0002:00004d70       ??_C@_0CA@PCHHEJAG@Successfully?5found?5interface?5?9?5@ 10074d70     interfaces.obj
 0002:00004d90       ??_C@_0M@NCCCKNOE@?5not?5found?$CB@ 10074d90     interfaces.obj
 0002:00004d9c       ??_C@_0CB@IEBPMDJL@C?3?2Bameware?2Logs?2?$CFd?9?$CFm?9?$CFY?9?$CFH?4lo@ 10074d9c     logging.obj
 0002:00004dc0       __real@400921fb54442d18    10074dc0     math.obj
 0002:00004dc8       __real@43870000            10074dc8     math.obj
 0002:00004dcc       ??_C@_0CE@LMJBGNDC@Successfully?5hooked?5netvar?5prox@ 10074dcc     NetvarManager.obj
 0002:00004df0       ??_C@_0BI@NDCAPNHN@Failed?5to?5get?5offset?5?9?5@ 10074df0     NetvarManager.obj
 0002:00004e08       ??_C@_0BL@KNMNLGCB@Successfully?5found?5offset?5@ 10074e08     NetvarManager.obj
 0002:00004e24       ??_C@_0BD@JKKKGNKL@m_AttributeManager@ 10074e24     offsets.obj
 0002:00004e38       ??_C@_0O@OJENFICL@DT_EconEntity@ 10074e38     offsets.obj
 0002:00004e48       ??_C@_06FKNLKGFE@m_Item@   10074e48     offsets.obj
 0002:00004e50       ??_C@_0BG@NOKIDHNB@DT_AttributeContainer@ 10074e50     offsets.obj
 0002:00004e68       ??_C@_0N@PCMAIJEE@m_nForceBone@ 10074e68     offsets.obj
 0002:00004e78       ??_C@_0BB@POPPCPOC@DT_BaseAnimating@ 10074e78     offsets.obj
 0002:00004e8c       ??_C@_0BC@HCJNFOGH@m_flPoseParameter@ 10074e8c     offsets.obj
 0002:00004ea0       ??_C@_0BG@IBOJPCLN@m_flNextPrimaryAttack@ 10074ea0     offsets.obj
 0002:00004eb8       ??_C@_0BJ@NCBOFNBK@DT_LocalActiveWeaponData@ 10074eb8     offsets.obj
 0002:00004ed4       ??_C@_0BI@BCKKEFEG@m_flNextSecondaryAttack@ 10074ed4     offsets.obj
 0002:00004eec       ??_C@_0P@IFMDLDIK@m_flNextAttack@ 10074eec     offsets.obj
 0002:00004efc       ??_C@_0BL@JFGKMECE@DT_BCCLocalPlayerExclusive@ 10074efc     offsets.obj
 0002:00004f18       ??_C@_09FOIALPOM@m_iHealth@ 10074f18     offsets.obj
 0002:00004f24       ??_C@_0O@KNDKHNCF@DT_BasePlayer@ 10074f24     offsets.obj
 0002:00004f34       ??_C@_08JPGJABNM@m_fFlags@ 10074f34     offsets.obj
 0002:00004f40       ??_C@_0BH@GJAPHBOD@m_flLowerBodyYawTarget@ 10074f40     offsets.obj
 0002:00004f58       ??_C@_0M@BAFECOKC@m_vecOrigin@ 10074f58     offsets.obj
 0002:00004f64       ??_C@_0O@NDBNDAKG@DT_BaseEntity@ 10074f64     offsets.obj
 0002:00004f74       ??_C@_0L@OEKNBODE@m_iTeamNum@ 10074f74     offsets.obj
 0002:00004f80       ??_C@_0M@ILMGKKBH@m_Collision@ 10074f80     offsets.obj
 0002:00004f8c       ??_C@_0P@PAJMEMKA@m_angEyeAngles@ 10074f8c     offsets.obj
 0002:00004f9c       ??_C@_0BD@IDNCLOOB@m_flSimulationTime@ 10074f9c     offsets.obj
 0002:00004fb0       ??_C@_0BD@IHDNKCCD@m_bGunGameImmunity@ 10074fb0     offsets.obj
 0002:00004fc4       ??_C@_0BA@MIGFFMNM@m_hActiveWeapon@ 10074fc4     offsets.obj
 0002:00004fd4       ??_C@_0BH@EFEKCINC@DT_BaseCombatCharacter@ 10074fd4     offsets.obj
 0002:00004fec       ??_C@_0N@IIBEIILJ@m_ArmorValue@ 10074fec     offsets.obj
 0002:00004ffc       ??_C@_0N@KELFAIEF@m_bHasHelmet@ 10074ffc     offsets.obj
 0002:0000500c       ??_C@_0M@PPOAODEA@m_bIsScoped@ 1007500c     offsets.obj
 0002:00005018       ??_C@_0BE@HFEMCGPD@m_nFallbackPaintKit@ 10075018     offsets.obj
 0002:0000502c       ??_C@_0BI@KDIKOMBE@DT_BaseAttributableItem@ 1007502c     offsets.obj
 0002:00005044       ??_C@_0BB@IMPAFKGK@m_flFallbackWear@ 10075044     offsets.obj
 0002:00005058       ??_C@_0N@LDOBMGCE@m_hMyWeapons@ 10075058     offsets.obj
 0002:00005068       ??_C@_0BO@DMPAACBH@DT_BCCNonLocalPlayerExclusive@ 10075068     offsets.obj
 0002:00005088       ??_C@_0BA@LONLNMG@m_nFallbackSeed@ 10075088     offsets.obj
 0002:00005098       ??_C@_0BE@GGJDINOK@m_nFallbackStatTrak@ 10075098     offsets.obj
 0002:000050ac       ??_C@_0BH@BLPCDECE@m_iItemDefinitionIndex@ 100750ac     offsets.obj
 0002:000050c4       ??_C@_0BF@KMPPDKNO@DT_ScriptCreatedItem@ 100750c4     offsets.obj
 0002:000050dc       ??_C@_0O@KJEFBEF@m_iItemIDHigh@ 100750dc     offsets.obj
 0002:000050ec       ??_C@_0P@GFHGANFM@m_szCustomName@ 100750ec     offsets.obj
 0002:000050fc       ??_C@_0BB@OIFBPKHJ@m_iEntityQuality@ 100750fc     offsets.obj
 0002:00005110       ??_C@_0N@JJMAHKON@m_iAccountID@ 10075110     offsets.obj
 0002:00005120       ??_C@_0BK@KKEKOEGH@m_flPostponeFireReadyTime@ 10075120     offsets.obj
 0002:0000513c       ??_C@_0BA@GJLMCNFJ@DT_WeaponCSBase@ 1007513c     offsets.obj
 0002:0000514c       ??_C@_0BA@GKDDFKAC@m_iObserverMode@ 1007514c     offsets.obj
 0002:0000515c       ??_C@_0BC@HLCHJLHC@m_flFlashDuration@ 1007515c     offsets.obj
 0002:00005170       ??_C@_0BC@CGLBMEHH@m_flThrowStrength@ 10075170     offsets.obj
 0002:00005184       ??_C@_0BB@BDMKEGJH@DT_BaseCSGrenade@ 10075184     offsets.obj
 0002:00005198       ??_C@_0N@GJDDOKLN@m_bPinPulled@ 10075198     offsets.obj
 0002:000051a8       ??_C@_0L@FMFDKOOG@m_bSpotted@ 100751a8     offsets.obj
 0002:000051b4       ??_C@_0N@EOAKBOFO@m_fThrowTime@ 100751b4     offsets.obj
 0002:000051c4       ??_C@_08CHHOFABL@m_iClip1@ 100751c4     offsets.obj
 0002:000051d0       ??_C@_0BE@OBECLDDP@DT_BaseCombatWeapon@ 100751d0     offsets.obj
 0002:000051e4       ??_C@_0BL@GKAMNBOO@m_iPrimaryReserveAmmoCount@ 100751e4     offsets.obj
 0002:00005200       ??_C@_0O@BLDHPAC@m_nModelIndex@ 10075200     offsets.obj
 0002:00005210       ??_C@_09FPFKFAGF@m_hWeapon@ 10075210     offsets.obj
 0002:0000521c       ??_C@_0BB@LBHIIDFM@DT_BaseViewModel@ 1007521c     offsets.obj
 0002:00005230       ??_C@_08LNJFHIKD@m_hOwner@ 10075230     offsets.obj
 0002:0000523c       ??_C@_0BE@JINCONAD@m_hWeaponWorldModel@ 1007523c     offsets.obj
 0002:00005250       ??_C@_0BC@NCIEGBIJ@m_iViewModelIndex@ 10075250     offsets.obj
 0002:00005264       ??_C@_0BD@GFBBMJBP@m_iWorldModelIndex@ 10075264     offsets.obj
 0002:00005278       ??_C@_0O@MFJONOMM@m_angRotation@ 10075278     offsets.obj
 0002:00005288       __real@401921fb54442d18    10075288     render.obj
 0002:00005290       ??_C@_04BFCCBDOP@Head@     10075290     utils.obj
 0002:00005298       ??_C@_05HPKPHHNI@Chest@    10075298     utils.obj
 0002:000052a0       ??_C@_06EIPNOIEJ@Pelvis@   100752a0     utils.obj
 0002:000052a8       ??_C@_08KEMBDKBN@Left?5Arm@ 100752a8     utils.obj
 0002:000052b4       ??_C@_09MGNPKLHM@Right?5Arm@ 100752b4     utils.obj
 0002:000052c0       ??_C@_08LFCNLPLP@Left?5Leg@ 100752c0     utils.obj
 0002:000052cc       ??_C@_09NHDDCONO@Right?5Leg@ 100752cc     utils.obj
 0002:000052d8       ??_C@_0CB@PJCPBMCH@Counter?9Strike?3?5Global?5Offensiv@ 100752d8     variables.obj
 0002:000052fc       ??_C@_0CI@BGFANOEJ@C?3?2Bameware?2Resources?2Fonts?2aga@ 100752fc     variables.obj
 0002:00005328       ??_C@_0FM@FKHMNGPL@https?3?1?1drive?4google?4com?1uc?$DPaut@ 10075328     variables.obj
 0002:00005384       ??_C@_0CL@POAMBCEB@C?3?2Bameware?2Resources?2Fonts?2ast@ 10075384     variables.obj
 0002:000053b0       ??_C@_0FF@CCKCJKPN@https?3?1?1drive?4google?4com?1u?10?1uc@ 100753b0     variables.obj
 0002:00005408       ??_C@_07EHHHOIHI@Verdana@  10075408     variables.obj
 0002:00005410       ??_C@_0N@PDCILLKO@Small?5Pixel7@ 10075410     variables.obj
 0002:00005420       ??_C@_0P@JBPCNICL@Counter?9Strike@ 10075420     variables.obj
 0002:00005430       ??_C@_07OKGCDDME@Againts@  10075430     variables.obj
 0002:0000543c       ??_7bad_alloc@std@@6B@     1007543c     libcpmt:xthrow.obj
 0002:00005444       ??_C@_0P@GHFPNOJB@bad?5allocation@ 10075444     libcpmt:xthrow.obj
 0002:00005458       ??_7length_error@std@@6B@  10075458     libcpmt:xthrow.obj
 0002:00005464       ??_7out_of_range@std@@6B@  10075464     libcpmt:xthrow.obj
 0002:0000546c       ??_C@_0BM@EEBBMCOD@invalid?5random_device?5value@ 1007546c     libcpmt:xrngdev.obj
 0002:0000548c       ??_7_Locimp@locale@std@@6B@ 1007548c     libcpmt:locale0.obj
 0002:00005498       ??_C@_01NBENCBCI@?$CK@     10075498     libcpmt:locale0.obj
 0002:0000549c       ??_C@_0O@BFJCFAAK@unknown?5error@ 1007549c     libcpmt:xonce.obj
 0002:00005988       ??_C@_0BN@LKKBCCDB@address?5family?5not?5supported@ 10075988     libcpmt:syserror.obj
 0002:000059a8       ??_C@_0P@LDMLAFHI@address?5in?5use@ 100759a8     libcpmt:syserror.obj
 0002:000059b8       ??_C@_0BG@DHPCNBJB@address?5not?5available@ 100759b8     libcpmt:syserror.obj
 0002:000059d0       ??_C@_0BC@DFIBIBIL@already?5connected@ 100759d0     libcpmt:syserror.obj
 0002:000059e4       ??_C@_0BH@CAKOHOMI@argument?5list?5too?5long@ 100759e4     libcpmt:syserror.obj
 0002:000059fc       ??_C@_0BH@CGIMPKIM@argument?5out?5of?5domain@ 100759fc     libcpmt:syserror.obj
 0002:00005a14       ??_C@_0M@KGHGGJGL@bad?5address@ 10075a14     libcpmt:syserror.obj
 0002:00005a20       ??_C@_0BE@MPJPGCEO@bad?5file?5descriptor@ 10075a20     libcpmt:syserror.obj
 0002:00005a34       ??_C@_0M@PMMIEFCP@bad?5message@ 10075a34     libcpmt:syserror.obj
 0002:00005a40       ??_C@_0M@KPHOFDBE@broken?5pipe@ 10075a40     libcpmt:syserror.obj
 0002:00005a4c       ??_C@_0BD@MGNDDEGM@connection?5aborted@ 10075a4c     libcpmt:syserror.obj
 0002:00005a60       ??_C@_0BP@KAIHPOGN@connection?5already?5in?5progress@ 10075a60     libcpmt:syserror.obj
 0002:00005a80       ??_C@_0BD@PJLIIJEL@connection?5refused@ 10075a80     libcpmt:syserror.obj
 0002:00005a94       ??_C@_0BB@IECNJNOI@connection?5reset@ 10075a94     libcpmt:syserror.obj
 0002:00005aa8       ??_C@_0BC@PPHBOELF@cross?5device?5link@ 10075aa8     libcpmt:syserror.obj
 0002:00005abc       ??_C@_0BN@KDMIFEIP@destination?5address?5required@ 10075abc     libcpmt:syserror.obj
 0002:00005adc       ??_C@_0BI@NGCEHDD@device?5or?5resource?5busy@ 10075adc     libcpmt:syserror.obj
 0002:00005af4       ??_C@_0BE@JIDOCPHM@directory?5not?5empty@ 10075af4     libcpmt:syserror.obj
 0002:00005b08       ??_C@_0BI@BNCLIGPB@executable?5format?5error@ 10075b08     libcpmt:syserror.obj
 0002:00005b20       ??_C@_0M@MIDIAGJP@file?5exists@ 10075b20     libcpmt:syserror.obj
 0002:00005b2c       ??_C@_0P@DNAJLBJK@file?5too?5large@ 10075b2c     libcpmt:syserror.obj
 0002:00005b3c       ??_C@_0BC@EJHOMAAK@filename?5too?5long@ 10075b3c     libcpmt:syserror.obj
 0002:00005b50       ??_C@_0BH@KEFGLDAF@function?5not?5supported@ 10075b50     libcpmt:syserror.obj
 0002:00005b68       ??_C@_0BB@DHFDFGDM@host?5unreachable@ 10075b68     libcpmt:syserror.obj
 0002:00005b7c       ??_C@_0BD@JPHBMONG@identifier?5removed@ 10075b7c     libcpmt:syserror.obj
 0002:00005b90       ??_C@_0BG@CDNPAGJK@illegal?5byte?5sequence@ 10075b90     libcpmt:syserror.obj
 0002:00005ba8       ??_C@_0CD@BNPLBMNA@inappropriate?5io?5control?5operat@ 10075ba8     libcpmt:syserror.obj
 0002:00005bcc       ??_C@_0M@EGEKIIMP@interrupted@ 10075bcc     libcpmt:syserror.obj
 0002:00005bd8       ??_C@_0BB@FCMFBGOM@invalid?5argument@ 10075bd8     libcpmt:syserror.obj
 0002:00005bec       ??_C@_0N@OHAFKDEK@invalid?5seek@ 10075bec     libcpmt:syserror.obj
 0002:00005bfc       ??_C@_08GLNPIFBN@io?5error@ 10075bfc     libcpmt:syserror.obj
 0002:00005c08       ??_C@_0P@FLLDBIDK@is?5a?5directory@ 10075c08     libcpmt:syserror.obj
 0002:00005c18       ??_C@_0N@IFLPBIOP@message?5size@ 10075c18     libcpmt:syserror.obj
 0002:00005c28       ??_C@_0N@KIIEAAIO@network?5down@ 10075c28     libcpmt:syserror.obj
 0002:00005c38       ??_C@_0O@FNPDBHEE@network?5reset@ 10075c38     libcpmt:syserror.obj
 0002:00005c48       ??_C@_0BE@IFNCKGE@network?5unreachable@ 10075c48     libcpmt:syserror.obj
 0002:00005c5c       ??_C@_0BA@PFFCAOFK@no?5buffer?5space@ 10075c5c     libcpmt:syserror.obj
 0002:00005c6c       ??_C@_0BB@IEPBLJHK@no?5child?5process@ 10075c6c     libcpmt:syserror.obj
 0002:00005c80       ??_C@_07PLECNNKG@no?5link@ 10075c80     libcpmt:syserror.obj
 0002:00005c88       ??_C@_0BC@NJECKMKE@no?5lock?5available@ 10075c88     libcpmt:syserror.obj
 0002:00005c9c       ??_C@_0BF@PBGGPKKE@no?5message?5available@ 10075c9c     libcpmt:syserror.obj
 0002:00005cb4       ??_C@_0L@EDOLMPAK@no?5message@ 10075cb4     libcpmt:syserror.obj
 0002:00005cc0       ??_C@_0BD@EAMBFIDF@no?5protocol?5option@ 10075cc0     libcpmt:syserror.obj
 0002:00005cd4       ??_C@_0BD@IJDJKDEA@no?5space?5on?5device@ 10075cd4     libcpmt:syserror.obj
 0002:00005ce8       ??_C@_0BE@MKFDAFMP@no?5stream?5resources@ 10075ce8     libcpmt:syserror.obj
 0002:00005cfc       ??_C@_0BK@IMCPHCBI@no?5such?5device?5or?5address@ 10075cfc     libcpmt:syserror.obj
 0002:00005d18       ??_C@_0P@FDINDDOK@no?5such?5device@ 10075d18     libcpmt:syserror.obj
 0002:00005d28       ??_C@_0BK@NDOCBPGE@no?5such?5file?5or?5directory@ 10075d28     libcpmt:syserror.obj
 0002:00005d44       ??_C@_0BA@ENLPPKBN@no?5such?5process@ 10075d44     libcpmt:syserror.obj
 0002:00005d54       ??_C@_0BA@DOCPFFJG@not?5a?5directory@ 10075d54     libcpmt:syserror.obj
 0002:00005d64       ??_C@_0N@POEIPGGF@not?5a?5socket@ 10075d64     libcpmt:syserror.obj
 0002:00005d74       ??_C@_0N@LGAPMMPI@not?5a?5stream@ 10075d74     libcpmt:syserror.obj
 0002:00005d84       ??_C@_0O@GLMIBBEG@not?5connected@ 10075d84     libcpmt:syserror.obj
 0002:00005d94       ??_C@_0BC@ENOOLCNF@not?5enough?5memory@ 10075d94     libcpmt:syserror.obj
 0002:00005da8       ??_C@_0O@NHEDABJP@not?5supported@ 10075da8     libcpmt:syserror.obj
 0002:00005db8       ??_C@_0BD@MOLBPMEA@operation?5canceled@ 10075db8     libcpmt:syserror.obj
 0002:00005dcc       ??_C@_0BG@KDKHOPCO@operation?5in?5progress@ 10075dcc     libcpmt:syserror.obj
 0002:00005de4       ??_C@_0BI@OHIEJAAB@operation?5not?5permitted@ 10075de4     libcpmt:syserror.obj
 0002:00005dfc       ??_C@_0BI@LNEGIFLN@operation?5not?5supported@ 10075dfc     libcpmt:syserror.obj
 0002:00005e14       ??_C@_0BG@OEMDKMEE@operation?5would?5block@ 10075e14     libcpmt:syserror.obj
 0002:00005e2c       ??_C@_0L@BLPOFLNJ@owner?5dead@ 10075e2c     libcpmt:syserror.obj
 0002:00005e38       ??_C@_0BC@CIJDGCDI@permission?5denied@ 10075e38     libcpmt:syserror.obj
 0002:00005e4c       ??_C@_0P@FNPOCJBE@protocol?5error@ 10075e4c     libcpmt:syserror.obj
 0002:00005e5c       ??_C@_0BH@JPPPLHJB@protocol?5not?5supported@ 10075e5c     libcpmt:syserror.obj
 0002:00005e74       ??_C@_0BG@EICBIHDP@read?5only?5file?5system@ 10075e74     libcpmt:syserror.obj
 0002:00005e8c       ??_C@_0BO@BJBOMOEJ@resource?5deadlock?5would?5occur@ 10075e8c     libcpmt:syserror.obj
 0002:00005eac       ??_C@_0BP@LKNGHENJ@resource?5unavailable?5try?5again@ 10075eac     libcpmt:syserror.obj
 0002:00005ecc       ??_C@_0BE@GOIPJJHG@result?5out?5of?5range@ 10075ecc     libcpmt:syserror.obj
 0002:00005ee0       ??_C@_0BG@MPLKFPAE@state?5not?5recoverable@ 10075ee0     libcpmt:syserror.obj
 0002:00005ef8       ??_C@_0P@DIIFGFCG@stream?5timeout@ 10075ef8     libcpmt:syserror.obj
 0002:00005f08       ??_C@_0P@IPFDMIFL@text?5file?5busy@ 10075f08     libcpmt:syserror.obj
 0002:00005f18       ??_C@_09KJPPMAOI@timed?5out@ 10075f18     libcpmt:syserror.obj
 0002:00005f24       ??_C@_0BO@HACHBEKI@too?5many?5files?5open?5in?5system@ 10075f24     libcpmt:syserror.obj
 0002:00005f44       ??_C@_0BE@GHAFMPAH@too?5many?5files?5open@ 10075f44     libcpmt:syserror.obj
 0002:00005f58       ??_C@_0P@HCOMKFCC@too?5many?5links@ 10075f58     libcpmt:syserror.obj
 0002:00005f68       ??_C@_0BO@EFGOJEF@too?5many?5symbolic?5link?5levels@ 10075f68     libcpmt:syserror.obj
 0002:00005f88       ??_C@_0BA@KGKGOOJA@value?5too?5large@ 10075f88     libcpmt:syserror.obj
 0002:00005f98       ??_C@_0BE@MIEJDDNH@wrong?5protocol?5type@ 10075f98     libcpmt:syserror.obj
 0002:00005fb0       ?_BADOFF@std@@3_JB         10075fb0     libcpmt:ios.obj
 0002:00005ff4       ??_C@_01KDCPPGHE@r@        10075ff4     libcpmt:fiopen.obj
 0002:00005ff8       ??_C@_01NOFIACDB@w@        10075ff8     libcpmt:fiopen.obj
 0002:00005ffc       ??_C@_01MCMALHOG@a@        10075ffc     libcpmt:fiopen.obj
 0002:00006000       ??_C@_02JDPG@rb@           10076000     libcpmt:fiopen.obj
 0002:00006004       ??_C@_02GMLFBBN@wb@        10076004     libcpmt:fiopen.obj
 0002:00006008       ??_C@_02BOGAIONP@ab@       10076008     libcpmt:fiopen.obj
 0002:0000600c       ??_C@_02CBLLGHLK@r?$CL@    1007600c     libcpmt:fiopen.obj
 0002:00006010       ??_C@_02DPNLHKJD@a?$CL@    10076010     libcpmt:fiopen.obj
 0002:00006014       ??_C@_03HMFOOINA@r?$CLb@   10076014     libcpmt:fiopen.obj
 0002:00006018       ??_C@_03ELIABIOC@w?$CLb@   10076018     libcpmt:fiopen.obj
 0002:0000601c       ??_C@_03DOPCBAKB@a?$CLb@   1007601c     libcpmt:fiopen.obj
 0002:00006020       ?valid@?1???$_Xfiopen@D@std@@YAPAU_iobuf@@PBDHH@Z@4QBHB 10076020     libcpmt:fiopen.obj
 0002:0000605c       ??_C@_1BK@MGMFAEKH@?$AAk?$AAe?$AAr?$AAn?$AAe?$AAl?$AA3?$AA2?$AA?4?$AAd?$AAl?$AAl@ 1007605c     libcpmt:winapisupp.obj
 0002:00006078       ??_C@_08KNHFBNJ@FlsAlloc@  10076078     libcpmt:winapisupp.obj
 0002:00006084       ??_C@_07PEJMOBNF@FlsFree@  10076084     libcpmt:winapisupp.obj
 0002:0000608c       ??_C@_0M@GDNOONDI@FlsGetValue@ 1007608c     libcpmt:winapisupp.obj
 0002:00006098       ??_C@_0M@JCPCPOEF@FlsSetValue@ 10076098     libcpmt:winapisupp.obj
 0002:000060a4       ??_C@_0BM@HCFOFFN@InitializeCriticalSectionEx@ 100760a4     libcpmt:winapisupp.obj
 0002:000060c0       ??_C@_0BE@GPLMMCMH@InitOnceExecuteOnce@ 100760c0     libcpmt:winapisupp.obj
 0002:000060d4       ??_C@_0P@DLHPPCNH@CreateEventExW@ 100760d4     libcpmt:winapisupp.obj
 0002:000060e4       ??_C@_0BB@MEFPJLHN@CreateSemaphoreW@ 100760e4     libcpmt:winapisupp.obj
 0002:000060f8       ??_C@_0BD@KIEEOEEH@CreateSemaphoreExW@ 100760f8     libcpmt:winapisupp.obj
 0002:0000610c       ??_C@_0BG@OGFAJCKC@CreateThreadpoolTimer@ 1007610c     libcpmt:winapisupp.obj
 0002:00006124       ??_C@_0BD@LPLEMMDI@SetThreadpoolTimer@ 10076124     libcpmt:winapisupp.obj
 0002:00006138       ??_C@_0CA@FMNJENH@WaitForThreadpoolTimerCallbacks@ 10076138     libcpmt:winapisupp.obj
 0002:00006158       ??_C@_0BF@DCFCCNOC@CloseThreadpoolTimer@ 10076158     libcpmt:winapisupp.obj
 0002:00006170       ??_C@_0BF@FLABGKKM@CreateThreadpoolWait@ 10076170     libcpmt:winapisupp.obj
 0002:00006188       ??_C@_0BC@MGCOHNA@SetThreadpoolWait@ 10076188     libcpmt:winapisupp.obj
 0002:0000619c       ??_C@_0BE@OCIOMIMP@CloseThreadpoolWait@ 1007619c     libcpmt:winapisupp.obj
 0002:000061b0       ??_C@_0BJ@LKGHFHBO@FlushProcessWriteBuffers@ 100761b0     libcpmt:winapisupp.obj
 0002:000061cc       ??_C@_0BP@KALKKPMO@FreeLibraryWhenCallbackReturns@ 100761cc     libcpmt:winapisupp.obj
 0002:000061ec       ??_C@_0BK@DFNBACLA@GetCurrentProcessorNumber@ 100761ec     libcpmt:winapisupp.obj
 0002:00006208       ??_C@_0BE@FKKLLFLM@CreateSymbolicLinkW@ 10076208     libcpmt:winapisupp.obj
 0002:0000621c       ??_C@_0BE@JOGNEJCI@GetCurrentPackageId@ 1007621c     libcpmt:winapisupp.obj
 0002:00006230       ??_C@_0P@CDHHOHKP@GetTickCount64@ 10076230     libcpmt:winapisupp.obj
 0002:00006240       ??_C@_0BN@NEEHBBPO@GetFileInformationByHandleEx@ 10076240     libcpmt:winapisupp.obj
 0002:00006260       ??_C@_0BL@KBBHGKCM@SetFileInformationByHandle@ 10076260     libcpmt:winapisupp.obj
 0002:0000627c       ??_C@_0BP@FPNJPEJC@GetSystemTimePreciseAsFileTime@ 1007627c     libcpmt:winapisupp.obj
 0002:0000629c       ??_C@_0BM@HLJJNPAH@InitializeConditionVariable@ 1007629c     libcpmt:winapisupp.obj
 0002:000062b8       ??_C@_0BG@BFNILBLN@WakeConditionVariable@ 100762b8     libcpmt:winapisupp.obj
 0002:000062d0       ??_C@_0BJ@PGPPEPCC@WakeAllConditionVariable@ 100762d0     libcpmt:winapisupp.obj
 0002:000062ec       ??_C@_0BJ@JEBJOJFJ@SleepConditionVariableCS@ 100762ec     libcpmt:winapisupp.obj
 0002:00006308       ??_C@_0BC@MMLHEBPB@InitializeSRWLock@ 10076308     libcpmt:winapisupp.obj
 0002:0000631c       ??_C@_0BI@OMNLIJDB@AcquireSRWLockExclusive@ 1007631c     libcpmt:winapisupp.obj
 0002:00006334       ??_C@_0BL@OGHFEMNA@TryAcquireSRWLockExclusive@ 10076334     libcpmt:winapisupp.obj
 0002:00006350       ??_C@_0BI@HMIEPCNJ@ReleaseSRWLockExclusive@ 10076350     libcpmt:winapisupp.obj
 0002:00006368       ??_C@_0BK@LGACAGIC@SleepConditionVariableSRW@ 10076368     libcpmt:winapisupp.obj
 0002:00006384       ??_C@_0BF@GGPHFPJA@CreateThreadpoolWork@ 10076384     libcpmt:winapisupp.obj
 0002:0000639c       ??_C@_0BF@NHDAIMMO@SubmitThreadpoolWork@ 1007639c     libcpmt:winapisupp.obj
 0002:000063b4       ??_C@_0BE@NPHIPNPD@CloseThreadpoolWork@ 100763b4     libcpmt:winapisupp.obj
 0002:000063c8       ??_C@_0BA@IHGNDAEB@CompareStringEx@ 100763c8     libcpmt:winapisupp.obj
 0002:000063d8       ??_C@_0BA@ONOKGCMP@GetLocaleInfoEx@ 100763d8     libcpmt:winapisupp.obj
 0002:000063e8       ??_C@_0O@KKBNKAPF@LCMapStringEx@ 100763e8     libcpmt:winapisupp.obj
 0002:00007238       ??_C@_15EMKDOKLE@?$AAa?$AAr@ 10077238     libcpmt:winapinls.obj
 0002:00007240       ??_C@_15KNPADPLH@?$AAb?$AAg@ 10077240     libcpmt:winapinls.obj
 0002:00007248       ??_C@_15EDMHLDMO@?$AAc?$AAa@ 10077248     libcpmt:winapinls.obj
 0002:00007250       ??_C@_1O@BPEAJADD@?$AAz?$AAh?$AA?9?$AAC?$AAH?$AAS@ 10077250     libcpmt:winapinls.obj
 0002:00007260       ??_C@_15LJNHCMNK@?$AAc?$AAs@ 10077260     libcpmt:winapinls.obj
 0002:00007268       ??_C@_15FOMCIDHG@?$AAd?$AAa@ 10077268     libcpmt:winapinls.obj
 0002:00007270       ??_C@_15NBKABECB@?$AAd?$AAe@ 10077270     libcpmt:winapinls.obj
 0002:00007278       ??_C@_15GHPEIIAO@?$AAe?$AAl@ 10077278     libcpmt:winapinls.obj
 0002:00007280       ??_C@_15MNPNEAIF@?$AAe?$AAn@ 10077280     libcpmt:winapinls.obj
 0002:00007288       ??_C@_15GPIOMPMH@?$AAe?$AAs@ 10077288     libcpmt:winapinls.obj
 0002:00007290       ??_C@_15NGLOAKJC@?$AAf?$AAi@ 10077290     libcpmt:winapinls.obj
 0002:00007298       ??_C@_15FBKGNKAM@?$AAf?$AAr@ 10077298     libcpmt:winapinls.obj
 0002:000072a0       ??_C@_15KGGCNEFK@?$AAh?$AAe@ 100772a0     libcpmt:winapinls.obj
 0002:000072a8       ??_C@_15PGHLIDMF@?$AAh?$AAu@ 100772a8     libcpmt:winapinls.obj
 0002:000072b0       ??_C@_15BIEMAPLM@?$AAi?$AAs@ 100772b0     libcpmt:winapinls.obj
 0002:000072b8       ??_C@_15IFJLDHAF@?$AAi?$AAt@ 100772b8     libcpmt:winapinls.obj
 0002:000072c0       ??_C@_15GEMIOCAG@?$AAj?$AAa@ 100772c0     libcpmt:winapinls.obj
 0002:000072c8       ??_C@_15EPELEGJA@?$AAk?$AAo@ 100772c8     libcpmt:winapinls.obj
 0002:000072d0       ??_C@_15NDDHIMN@?$AAn?$AAl@ 100772d0     libcpmt:winapinls.obj
 0002:000072d8       ??_C@_15BPIGNHCD@?$AAn?$AAo@ 100772d8     libcpmt:winapinls.obj
 0002:000072e0       ??_C@_15DEOPBLCG@?$AAp?$AAl@ 100772e0     libcpmt:winapinls.obj
 0002:000072e8       ??_C@_15KBECGEFG@?$AAp?$AAt@ 100772e8     libcpmt:winapinls.obj
 0002:000072f0       ??_C@_15GLJCBFMD@?$AAr?$AAo@ 100772f0     libcpmt:winapinls.obj
 0002:000072f8       ??_C@_15FEDGKCDI@?$AAr?$AAu@ 100772f8     libcpmt:winapinls.obj
 0002:00007300       ??_C@_15GLKMLLHM@?$AAh?$AAr@ 10077300     libcpmt:winapinls.obj
 0002:00007308       ??_C@_15CPKMFBDB@?$AAs?$AAk@ 10077308     libcpmt:winapinls.obj
 0002:00007310       ??_C@_15BAAIOGMK@?$AAs?$AAq@ 10077310     libcpmt:winapinls.obj
 0002:00007318       ??_C@_15INNPNOHD@?$AAs?$AAv@ 10077318     libcpmt:winapinls.obj
 0002:00007320       ??_C@_15CABMMOGH@?$AAt?$AAh@ 10077320     libcpmt:winapinls.obj
 0002:00007328       ??_C@_15BPLIHJJM@?$AAt?$AAr@ 10077328     libcpmt:winapinls.obj
 0002:00007330       ??_C@_15NEOEKKDJ@?$AAu?$AAr@ 10077330     libcpmt:winapinls.obj
 0002:00007338       ??_C@_15NFICGAJK@?$AAi?$AAd@ 10077338     libcpmt:winapinls.obj
 0002:00007340       ??_C@_15PJPFLCCM@?$AAu?$AAk@ 10077340     libcpmt:winapinls.obj
 0002:00007348       ??_C@_15HPJPHDM@?$AAb?$AAe@ 10077348     libcpmt:winapinls.obj
 0002:00007350       ??_C@_15LCHLGJII@?$AAs?$AAl@ 10077350     libcpmt:winapinls.obj
 0002:00007358       ??_C@_15PCFJPHHO@?$AAe?$AAt@ 10077358     libcpmt:winapinls.obj
 0002:00007360       ??_C@_15HPFPGODN@?$AAl?$AAv@ 10077360     libcpmt:winapinls.obj
 0002:00007368       ??_C@_15NFFGKGLG@?$AAl?$AAt@ 10077368     libcpmt:winapinls.obj
 0002:00007370       ??_C@_15BDAKCCHN@?$AAf?$AAa@ 10077370     libcpmt:winapinls.obj
 0002:00007378       ??_C@_15NFGIAIAJ@?$AAv?$AAi@ 10077378     libcpmt:winapinls.obj
 0002:00007380       ??_C@_15LMKNDMHN@?$AAh?$AAy@ 10077380     libcpmt:winapinls.obj
 0002:00007388       ??_C@_15IJBHMCFL@?$AAa?$AAz@ 10077388     libcpmt:winapinls.obj
 0002:00007390       ??_C@_15EKOFJABL@?$AAe?$AAu@ 10077390     libcpmt:winapinls.obj
 0002:00007398       ??_C@_15BGHADCNK@?$AAm?$AAk@ 10077398     libcpmt:winapinls.obj
 0002:000073a0       ??_C@_15JDNICKHM@?$AAa?$AAf@ 100773a0     libcpmt:winapinls.obj
 0002:000073a8       ??_C@_15KPJEDBKD@?$AAk?$AAa@ 100773a8     libcpmt:winapinls.obj
 0002:000073b0       ??_C@_15PDNFFFEO@?$AAf?$AAo@ 100773b0     libcpmt:winapinls.obj
 0002:000073b8       ??_C@_15OMLEGLOC@?$AAh?$AAi@ 100773b8     libcpmt:winapinls.obj
 0002:000073c0       ??_C@_15IDNNENKK@?$AAm?$AAs@ 100773c0     libcpmt:winapinls.obj
 0002:000073c8       ??_C@_15MACJNBMH@?$AAk?$AAk@ 100773c8     libcpmt:winapinls.obj
 0002:000073d0       ??_C@_15DKDJEOND@?$AAk?$AAy@ 100773d0     libcpmt:winapinls.obj
 0002:000073d8       ??_C@_15DFGDLJBG@?$AAs?$AAw@ 100773d8     libcpmt:winapinls.obj
 0002:000073e0       ??_C@_15BBFAICNG@?$AAu?$AAz@ 100773e0     libcpmt:winapinls.obj
 0002:000073e8       ??_C@_15DKNDCGEA@?$AAt?$AAt@ 100773e8     libcpmt:winapinls.obj
 0002:000073f0       ??_C@_15MGIFMDPL@?$AAp?$AAa@ 100773f0     libcpmt:winapinls.obj
 0002:000073f8       ??_C@_15HCNDBBA@?$AAg?$AAu@ 100773f8     libcpmt:winapinls.obj
 0002:00007400       ??_C@_15FNBEIBON@?$AAt?$AAa@ 10077400     libcpmt:winapinls.obj
 0002:00007408       ??_C@_15NCHGBGLK@?$AAt?$AAe@ 10077408     libcpmt:winapinls.obj
 0002:00007410       ??_C@_15PHPHCBPF@?$AAk?$AAn@ 10077410     libcpmt:winapinls.obj
 0002:00007418       ??_C@_15DLGBCKMP@?$AAm?$AAr@ 10077418     libcpmt:winapinls.obj
 0002:00007420       ??_C@_15EABBLBFF@?$AAs?$AAa@ 10077420     libcpmt:winapinls.obj
 0002:00007428       ??_C@_15CBKOMCOI@?$AAm?$AAn@ 10077428     libcpmt:winapinls.obj
 0002:00007430       ??_C@_15CKDMCJAF@?$AAg?$AAl@ 10077430     libcpmt:winapinls.obj
 0002:00007438       ??_C@_17CNJFBPG@?$AAk?$AAo?$AAk@ 10077438     libcpmt:winapinls.obj
 0002:00007440       ??_C@_17FFBJICPL@?$AAs?$AAy?$AAr@ 10077440     libcpmt:winapinls.obj
 0002:00007448       ??_C@_17KPNDCPAF@?$AAd?$AAi?$AAv@ 10077448     libcpmt:winapinls.obj
 0002:00007450       ??_C@_11LOCGONAA@@         10077450     libcpmt:winapinls.obj
 0002:00007454       ??_C@_1M@OKAHONE@?$AAa?$AAr?$AA?9?$AAS?$AAA@ 10077454     libcpmt:winapinls.obj
 0002:00007460       ??_C@_1M@FFFIGIGK@?$AAb?$AAg?$AA?9?$AAB?$AAG@ 10077460     libcpmt:winapinls.obj
 0002:0000746c       ??_C@_1M@BJNKEDC@?$AAc?$AAa?$AA?9?$AAE?$AAS@ 1007746c     libcpmt:winapinls.obj
 0002:00007478       ??_C@_1M@CLNBBOPM@?$AAz?$AAh?$AA?9?$AAT?$AAW@ 10077478     libcpmt:winapinls.obj
 0002:00007484       ??_C@_1M@IJJHFJHA@?$AAc?$AAs?$AA?9?$AAC?$AAZ@ 10077484     libcpmt:winapinls.obj
 0002:00007490       ??_C@_1M@CLPEOBGI@?$AAd?$AAa?$AA?9?$AAD?$AAK@ 10077490     libcpmt:winapinls.obj
 0002:0000749c       ??_C@_1M@MCMADGCB@?$AAd?$AAe?$AA?9?$AAD?$AAE@ 1007749c     libcpmt:winapinls.obj
 0002:000074a8       ??_C@_1M@OOCKEMAM@?$AAe?$AAl?$AA?9?$AAG?$AAR@ 100774a8     libcpmt:winapinls.obj
 0002:000074b4       ??_C@_1M@BMHNFIME@?$AAe?$AAn?$AA?9?$AAU?$AAS@ 100774b4     libcpmt:winapinls.obj
 0002:000074c0       ??_C@_1M@DDNJFGID@?$AAf?$AAi?$AA?9?$AAF?$AAI@ 100774c0     libcpmt:winapinls.obj
 0002:000074cc       ??_C@_1M@GLIPPMAC@?$AAf?$AAr?$AA?9?$AAF?$AAR@ 100774cc     libcpmt:winapinls.obj
 0002:000074d8       ??_C@_1M@GFMCHPE@?$AAh?$AAe?$AA?9?$AAI?$AAL@ 100774d8     libcpmt:winapinls.obj
 0002:000074e4       ??_C@_1M@MHLPGNKM@?$AAh?$AAu?$AA?9?$AAH?$AAU@ 100774e4     libcpmt:winapinls.obj
 0002:000074f0       ??_C@_1M@LPDDNNPN@?$AAi?$AAs?$AA?9?$AAI?$AAS@ 100774f0     libcpmt:winapinls.obj
 0002:000074fc       ??_C@_1M@MADIPODN@?$AAi?$AAt?$AA?9?$AAI?$AAT@ 100774fc     libcpmt:winapinls.obj
 0002:00007508       ??_C@_1M@HPNHIDJI@?$AAj?$AAa?$AA?9?$AAJ?$AAP@ 10077508     libcpmt:winapinls.obj
 0002:00007514       ??_C@_1M@JLOOOEGK@?$AAk?$AAo?$AA?9?$AAK?$AAR@ 10077514     libcpmt:winapinls.obj
 0002:00007520       ??_C@_1M@IHBJJGG@?$AAn?$AAl?$AA?9?$AAN?$AAL@ 10077520     libcpmt:winapinls.obj
 0002:0000752c       ??_C@_1M@EANAGDL@?$AAn?$AAb?$AA?9?$AAN?$AAO@ 1007752c     libcpmt:winapinls.obj
 0002:00007538       ??_C@_1M@NEIEMEGP@?$AAp?$AAl?$AA?9?$AAP?$AAL@ 10077538     libcpmt:winapinls.obj
 0002:00007544       ??_C@_1M@BOCFIGEP@?$AAp?$AAt?$AA?9?$AAB?$AAR@ 10077544     libcpmt:winapinls.obj
 0002:00007550       ??_C@_1M@IMPFOPBG@?$AAr?$AAo?$AA?9?$AAR?$AAO@ 10077550     libcpmt:winapinls.obj
 0002:0000755c       ??_C@_1M@IDNNEJMM@?$AAr?$AAu?$AA?9?$AAR?$AAU@ 1007755c     libcpmt:winapinls.obj
 0002:00007568       ??_C@_1M@LILEEOGM@?$AAh?$AAr?$AA?9?$AAH?$AAR@ 10077568     libcpmt:winapinls.obj
 0002:00007574       ??_C@_1M@FKIFEHPB@?$AAs?$AAk?$AA?9?$AAS?$AAK@ 10077574     libcpmt:winapinls.obj
 0002:00007580       ??_C@_1M@LJMAMNPJ@?$AAs?$AAq?$AA?9?$AAA?$AAL@ 10077580     libcpmt:winapinls.obj
 0002:0000758c       ??_C@_1M@GIAKDKJK@?$AAs?$AAv?$AA?9?$AAS?$AAE@ 1007758c     libcpmt:winapinls.obj
 0002:00007598       ??_C@_1M@MKJKIKCL@?$AAt?$AAh?$AA?9?$AAT?$AAH@ 10077598     libcpmt:winapinls.obj
 0002:000075a4       ??_C@_1M@MFLCCMPB@?$AAt?$AAr?$AA?9?$AAT?$AAR@ 100775a4     libcpmt:winapinls.obj
 0002:000075b0       ??_C@_1M@OIJHDKJN@?$AAu?$AAr?$AA?9?$AAP?$AAK@ 100775b0     libcpmt:winapinls.obj
 0002:000075bc       ??_C@_1M@LHIPCIEK@?$AAi?$AAd?$AA?9?$AAI?$AAD@ 100775bc     libcpmt:winapinls.obj
 0002:000075c8       ??_C@_1M@MFMOBGI@?$AAu?$AAk?$AA?9?$AAU?$AAA@ 100775c8     libcpmt:winapinls.obj
 0002:000075d4       ??_C@_1M@OBGLJIPL@?$AAb?$AAe?$AA?9?$AAB?$AAY@ 100775d4     libcpmt:winapinls.obj
 0002:000075e0       ??_C@_1M@BCFAJEAD@?$AAs?$AAl?$AA?9?$AAS?$AAI@ 100775e0     libcpmt:winapinls.obj
 0002:000075ec       ??_C@_1M@FKFFEDDN@?$AAe?$AAt?$AA?9?$AAE?$AAE@ 100775ec     libcpmt:winapinls.obj
 0002:000075f8       ??_C@_1M@KGKKAACI@?$AAl?$AAv?$AA?9?$AAL?$AAV@ 100775f8     libcpmt:winapinls.obj
 0002:00007604       ??_C@_1M@IFGBIJO@?$AAl?$AAt?$AA?9?$AAL?$AAT@ 10077604     libcpmt:winapinls.obj
 0002:00007610       ??_C@_1M@FGEAHEDM@?$AAf?$AAa?$AA?9?$AAI?$AAR@ 10077610     libcpmt:winapinls.obj
 0002:0000761c       ??_C@_1M@KBMAIBFN@?$AAv?$AAi?$AA?9?$AAV?$AAN@ 1007761c     libcpmt:winapinls.obj
 0002:00007628       ??_C@_1M@GPCBKDJK@?$AAh?$AAy?$AA?9?$AAA?$AAM@ 10077628     libcpmt:winapinls.obj
 0002:00007634       ??_C@_1BG@BECMDDJB@?$AAa?$AAz?$AA?9?$AAA?$AAZ?$AA?9?$AAL?$AAa?$AAt?$AAn@ 10077634     libcpmt:winapinls.obj
 0002:0000764c       ??_C@_1M@MAOFCAEA@?$AAe?$AAu?$AA?9?$AAE?$AAS@ 1007764c     libcpmt:winapinls.obj
 0002:00007658       ??_C@_1M@IGHABKPI@?$AAm?$AAk?$AA?9?$AAM?$AAK@ 10077658     libcpmt:winapinls.obj
 0002:00007664       ??_C@_1M@IAIGNEJG@?$AAt?$AAn?$AA?9?$AAZ?$AAA@ 10077664     libcpmt:winapinls.obj
 0002:00007670       ??_C@_1M@IIJCOJFA@?$AAx?$AAh?$AA?9?$AAZ?$AAA@ 10077670     libcpmt:winapinls.obj
 0002:0000767c       ??_C@_1M@LGPJHNJH@?$AAz?$AAu?$AA?9?$AAZ?$AAA@ 1007767c     libcpmt:winapinls.obj
 0002:00007688       ??_C@_1M@HOKAOIO@?$AAa?$AAf?$AA?9?$AAZ?$AAA@ 10077688     libcpmt:winapinls.obj
 0002:00007694       ??_C@_1M@DPCLHLIE@?$AAk?$AAa?$AA?9?$AAG?$AAE@ 10077694     libcpmt:winapinls.obj
 0002:000076a0       ??_C@_1M@BLKMHJBI@?$AAf?$AAo?$AA?9?$AAF?$AAO@ 100776a0     libcpmt:winapinls.obj
 0002:000076ac       ??_C@_1M@LGGJAPPB@?$AAh?$AAi?$AA?9?$AAI?$AAN@ 100776ac     libcpmt:winapinls.obj
 0002:000076b8       ??_C@_1M@FIKPIHFE@?$AAm?$AAt?$AA?9?$AAM?$AAT@ 100776b8     libcpmt:winapinls.obj
 0002:000076c4       ??_C@_1M@HEGGPBFA@?$AAs?$AAe?$AA?9?$AAN?$AAO@ 100776c4     libcpmt:winapinls.obj
 0002:000076d0       ??_C@_1M@EIBJEEPA@?$AAm?$AAs?$AA?9?$AAM?$AAY@ 100776d0     libcpmt:winapinls.obj
 0002:000076dc       ??_C@_1M@FHLBGMPP@?$AAk?$AAk?$AA?9?$AAK?$AAZ@ 100776dc     libcpmt:winapinls.obj
 0002:000076e8       ??_C@_1M@NGJJLCGI@?$AAk?$AAy?$AA?9?$AAK?$AAG@ 100776e8     libcpmt:winapinls.obj
 0002:000076f4       ??_C@_1M@GIENNBFC@?$AAs?$AAw?$AA?9?$AAK?$AAE@ 100776f4     libcpmt:winapinls.obj
 0002:00007700       ??_C@_1BG@NDGMJIMJ@?$AAu?$AAz?$AA?9?$AAU?$AAZ?$AA?9?$AAL?$AAa?$AAt?$AAn@ 10077700     libcpmt:winapinls.obj
 0002:00007718       ??_C@_1M@IDCCIHBC@?$AAt?$AAt?$AA?9?$AAR?$AAU@ 10077718     libcpmt:winapinls.obj
 0002:00007724       ??_C@_1M@LOICPMOJ@?$AAb?$AAn?$AA?9?$AAI?$AAN@ 10077724     libcpmt:winapinls.obj
 0002:00007730       ??_C@_1M@KPKKNEAH@?$AAp?$AAa?$AA?9?$AAI?$AAN@ 10077730     libcpmt:winapinls.obj
 0002:0000773c       ??_C@_1M@PJGPPBOG@?$AAg?$AAu?$AA?9?$AAI?$AAN@ 1007773c     libcpmt:winapinls.obj
 0002:00007748       ??_C@_1M@KMKMOPHI@?$AAt?$AAa?$AA?9?$AAI?$AAN@ 10077748     libcpmt:winapinls.obj
 0002:00007754       ??_C@_1M@KFEHEPAC@?$AAt?$AAe?$AA?9?$AAI?$AAN@ 10077754     libcpmt:winapinls.obj
 0002:00007760       ??_C@_1M@CDCLMGHI@?$AAk?$AAn?$AA?9?$AAI?$AAN@ 10077760     libcpmt:winapinls.obj
 0002:0000776c       ??_C@_1M@MIODLDKF@?$AAm?$AAl?$AA?9?$AAI?$AAN@ 1007776c     libcpmt:winapinls.obj
 0002:00007778       ??_C@_1M@PBIEACPO@?$AAm?$AAr?$AA?9?$AAI?$AAN@ 10077778     libcpmt:winapinls.obj
 0002:00007784       ??_C@_1M@NIDEAGPH@?$AAs?$AAa?$AA?9?$AAI?$AAN@ 10077784     libcpmt:winapinls.obj
 0002:00007790       ??_C@_1M@FHIHCBIO@?$AAm?$AAn?$AA?9?$AAM?$AAN@ 10077790     libcpmt:winapinls.obj
 0002:0000779c       ??_C@_1M@JAIJPENP@?$AAc?$AAy?$AA?9?$AAG?$AAB@ 1007779c     libcpmt:winapinls.obj
 0002:000077a8       ??_C@_1M@PHGFBEPN@?$AAg?$AAl?$AA?9?$AAE?$AAS@ 100777a8     libcpmt:winapinls.obj
 0002:000077b4       ??_C@_1O@KPIPDNCP@?$AAk?$AAo?$AAk?$AA?9?$AAI?$AAN@ 100777b4     libcpmt:winapinls.obj
 0002:000077c4       ??_C@_1O@KNHJLDJA@?$AAs?$AAy?$AAr?$AA?9?$AAS?$AAY@ 100777c4     libcpmt:winapinls.obj
 0002:000077d4       ??_C@_1O@MKEKBLAH@?$AAd?$AAi?$AAv?$AA?9?$AAM?$AAV@ 100777d4     libcpmt:winapinls.obj
 0002:000077e4       ??_C@_1O@OHDCKDDF@?$AAq?$AAu?$AAz?$AA?9?$AAB?$AAO@ 100777e4     libcpmt:winapinls.obj
 0002:000077f4       ??_C@_1M@LEPJNLFD@?$AAn?$AAs?$AA?9?$AAZ?$AAA@ 100777f4     libcpmt:winapinls.obj
 0002:00007800       ??_C@_1M@OMLEIIJB@?$AAm?$AAi?$AA?9?$AAN?$AAZ@ 10077800     libcpmt:winapinls.obj
 0002:0000780c       ??_C@_1M@PMPEAILG@?$AAa?$AAr?$AA?9?$AAI?$AAQ@ 1007780c     libcpmt:winapinls.obj
 0002:00007818       ??_C@_1M@BIBDDEMK@?$AAz?$AAh?$AA?9?$AAC?$AAN@ 10077818     libcpmt:winapinls.obj
 0002:00007824       ??_C@_1M@CNKPNOEE@?$AAd?$AAe?$AA?9?$AAC?$AAH@ 10077824     libcpmt:winapinls.obj
 0002:00007830       ??_C@_1M@LKMGMLKO@?$AAe?$AAn?$AA?9?$AAG?$AAB@ 10077830     libcpmt:winapinls.obj
 0002:0000783c       ??_C@_1M@PGKJFFGL@?$AAe?$AAs?$AA?9?$AAM?$AAX@ 1007783c     libcpmt:winapinls.obj
 0002:00007848       ??_C@_1M@DNNANBDC@?$AAf?$AAr?$AA?9?$AAB?$AAE@ 10077848     libcpmt:winapinls.obj
 0002:00007854       ??_C@_1M@HLGMDFHM@?$AAi?$AAt?$AA?9?$AAC?$AAH@ 10077854     libcpmt:winapinls.obj
 0002:00007860       ??_C@_1M@CLLBGJH@?$AAn?$AAl?$AA?9?$AAB?$AAE@ 10077860     libcpmt:winapinls.obj
 0002:0000786c       ??_C@_1M@BODBOGLF@?$AAn?$AAn?$AA?9?$AAN?$AAO@ 1007786c     libcpmt:winapinls.obj
 0002:00007878       ??_C@_1M@HFFAHKAD@?$AAp?$AAt?$AA?9?$AAP?$AAT@ 10077878     libcpmt:winapinls.obj
 0002:00007884       ??_C@_1BG@LNOAKHIE@?$AAs?$AAr?$AA?9?$AAS?$AAP?$AA?9?$AAL?$AAa?$AAt?$AAn@ 10077884     libcpmt:winapinls.obj
 0002:0000789c       ??_C@_1M@HBMHBGAK@?$AAs?$AAv?$AA?9?$AAF?$AAI@ 1007789c     libcpmt:winapinls.obj
 0002:000078a8       ??_C@_1BG@DGCJGJBE@?$AAa?$AAz?$AA?9?$AAA?$AAZ?$AA?9?$AAC?$AAy?$AAr?$AAl@ 100778a8     libcpmt:winapinls.obj
 0002:000078c0       ??_C@_1M@KEJDAAHB@?$AAs?$AAe?$AA?9?$AAS?$AAE@ 100778c0     libcpmt:winapinls.obj
 0002:000078cc       ??_C@_1M@HEIBJJAD@?$AAm?$AAs?$AA?9?$AAB?$AAN@ 100778cc     libcpmt:winapinls.obj
 0002:000078d8       ??_C@_1BG@PBGJMCEM@?$AAu?$AAz?$AA?9?$AAU?$AAZ?$AA?9?$AAC?$AAy?$AAr?$AAl@ 100778d8     libcpmt:winapinls.obj
 0002:000078f0       ??_C@_1O@LAOBCMDF@?$AAq?$AAu?$AAz?$AA?9?$AAE?$AAC@ 100778f0     libcpmt:winapinls.obj
 0002:00007900       ??_C@_1M@POEEMAIO@?$AAa?$AAr?$AA?9?$AAE?$AAG@ 10077900     libcpmt:winapinls.obj
 0002:0000790c       ??_C@_1M@EFAKDEDL@?$AAz?$AAh?$AA?9?$AAH?$AAK@ 1007790c     libcpmt:winapinls.obj
 0002:00007918       ??_C@_1M@HKKIJHGI@?$AAd?$AAe?$AA?9?$AAA?$AAT@ 10077918     libcpmt:winapinls.obj
 0002:00007924       ??_C@_1M@KBFBEHJF@?$AAe?$AAn?$AA?9?$AAA?$AAU@ 10077924     libcpmt:winapinls.obj
 0002:00007930       ??_C@_1M@MNPLFAAH@?$AAe?$AAs?$AA?9?$AAE?$AAS@ 10077930     libcpmt:winapinls.obj
 0002:0000793c       ??_C@_1M@HJOOJFMA@?$AAf?$AAr?$AA?9?$AAC?$AAA@ 1007793c     libcpmt:winapinls.obj
 0002:00007948       ??_C@_1BG@JPOFPNAB@?$AAs?$AAr?$AA?9?$AAS?$AAP?$AA?9?$AAC?$AAy?$AAr?$AAl@ 10077948     libcpmt:winapinls.obj
 0002:00007960       ??_C@_1M@LNFOCMOB@?$AAs?$AAe?$AA?9?$AAF?$AAI@ 10077960     libcpmt:winapinls.obj
 0002:0000796c       ??_C@_1O@MGJBOAMB@?$AAq?$AAu?$AAz?$AA?9?$AAP?$AAE@ 1007796c     libcpmt:winapinls.obj
 0002:0000797c       ??_C@_1M@GJINLBOK@?$AAa?$AAr?$AA?9?$AAL?$AAY@ 1007797c     libcpmt:winapinls.obj
 0002:00007988       ??_C@_1M@GGMNHJNL@?$AAz?$AAh?$AA?9?$AAS?$AAG@ 10077988     libcpmt:winapinls.obj
 0002:00007994       ??_C@_1M@HOIKODND@?$AAd?$AAe?$AA?9?$AAL?$AAU@ 10077994     libcpmt:winapinls.obj
 0002:000079a0       ??_C@_1M@DDOCCGFG@?$AAe?$AAn?$AA?9?$AAC?$AAA@ 100779a0     libcpmt:winapinls.obj
 0002:000079ac       ??_C@_1M@BNOEMJLF@?$AAe?$AAs?$AA?9?$AAG?$AAT@ 100779ac     libcpmt:winapinls.obj
 0002:000079b8       ??_C@_1M@EOGNKEK@?$AAf?$AAr?$AA?9?$AAC?$AAH@ 100779b8     libcpmt:winapinls.obj
 0002:000079c4       ??_C@_1M@FLIDJFHL@?$AAh?$AAr?$AA?9?$AAB?$AAA@ 100779c4     libcpmt:winapinls.obj
 0002:000079d0       ??_C@_1O@FMCELNAJ@?$AAs?$AAm?$AAj?$AA?9?$AAN?$AAO@ 100779d0     libcpmt:winapinls.obj
 0002:000079e0       ??_C@_1M@JHGLJMGJ@?$AAa?$AAr?$AA?9?$AAD?$AAZ@ 100779e0     libcpmt:winapinls.obj
 0002:000079ec       ??_C@_1M@JKKFDCNP@?$AAz?$AAh?$AA?9?$AAM?$AAO@ 100779ec     libcpmt:winapinls.obj
 0002:000079f8       ??_C@_1M@GEEFALPE@?$AAd?$AAe?$AA?9?$AAL?$AAI@ 100779f8     libcpmt:winapinls.obj
 0002:00007a04       ??_C@_1M@IGEOFBG@?$AAe?$AAn?$AA?9?$AAN?$AAZ@ 10077a04     libcpmt:winapinls.obj
 0002:00007a10       ??_C@_1M@KDBONEHP@?$AAe?$AAs?$AA?9?$AAC?$AAR@ 10077a10     libcpmt:winapinls.obj
 0002:00007a1c       ??_C@_1M@FHMDOHNN@?$AAf?$AAr?$AA?9?$AAL?$AAU@ 10077a1c     libcpmt:winapinls.obj
 0002:00007a28       ??_C@_1BG@NFKKMAFG@?$AAb?$AAs?$AA?9?$AAB?$AAA?$AA?9?$AAL?$AAa?$AAt?$AAn@ 10077a28     libcpmt:winapinls.obj
 0002:00007a40       ??_C@_1O@IMNBEMCI@?$AAs?$AAm?$AAj?$AA?9?$AAS?$AAE@ 10077a40     libcpmt:winapinls.obj
 0002:00007a50       ??_C@_1M@DHHMBNDP@?$AAa?$AAr?$AA?9?$AAM?$AAA@ 10077a50     libcpmt:winapinls.obj
 0002:00007a5c       ??_C@_1M@BNBLJCGH@?$AAe?$AAn?$AA?9?$AAI?$AAE@ 10077a5c     libcpmt:winapinls.obj
 0002:00007a68       ??_C@_1M@GEPAFMDL@?$AAe?$AAs?$AA?9?$AAP?$AAA@ 10077a68     libcpmt:winapinls.obj
 0002:00007a74       ??_C@_1M@OJONDMDL@?$AAf?$AAr?$AA?9?$AAM?$AAC@ 10077a74     libcpmt:winapinls.obj
 0002:00007a80       ??_C@_1BG@OBCNFJB@?$AAs?$AAr?$AA?9?$AAB?$AAA?$AA?9?$AAL?$AAa?$AAt?$AAn@ 10077a80     libcpmt:winapinls.obj
 0002:00007a98       ??_C@_1O@KEMEEGPO@?$AAs?$AAm?$AAa?$AA?9?$AAN?$AAO@ 10077a98     libcpmt:winapinls.obj
 0002:00007aa8       ??_C@_1M@ELMGFODK@?$AAa?$AAr?$AA?9?$AAT?$AAN@ 10077aa8     libcpmt:winapinls.obj
 0002:00007ab4       ??_C@_1M@BHDLHFAF@?$AAe?$AAn?$AA?9?$AAZ?$AAA@ 10077ab4     libcpmt:winapinls.obj
 0002:00007ac0       ??_C@_1M@BMGIGLIF@?$AAe?$AAs?$AA?9?$AAD?$AAO@ 10077ac0     libcpmt:winapinls.obj
 0002:00007acc       ??_C@_1BG@CMBHIPBE@?$AAs?$AAr?$AA?9?$AAB?$AAA?$AA?9?$AAC?$AAy?$AAr?$AAl@ 10077acc     libcpmt:winapinls.obj
 0002:00007ae4       ??_C@_1O@HEDBLHNP@?$AAs?$AAm?$AAa?$AA?9?$AAS?$AAE@ 10077ae4     libcpmt:winapinls.obj
 0002:00007af4       ??_C@_1M@DAGCADIM@?$AAa?$AAr?$AA?9?$AAO?$AAM@ 10077af4     libcpmt:winapinls.obj
 0002:00007b00       ??_C@_1M@FODLMICG@?$AAe?$AAn?$AA?9?$AAJ?$AAM@ 10077b00     libcpmt:winapinls.obj
 0002:00007b0c       ??_C@_1M@DNMLCIHB@?$AAe?$AAs?$AA?9?$AAV?$AAE@ 10077b0c     libcpmt:winapinls.obj
 0002:00007b18       ??_C@_1O@EOKHMKJK@?$AAs?$AAm?$AAs?$AA?9?$AAF?$AAI@ 10077b18     libcpmt:winapinls.obj
 0002:00007b28       ??_C@_1M@CAFJMKOF@?$AAa?$AAr?$AA?9?$AAY?$AAE@ 10077b28     libcpmt:winapinls.obj
 0002:00007b34       ??_C@_1M@CBFHIJLI@?$AAe?$AAn?$AA?9?$AAC?$AAB@ 10077b34     libcpmt:winapinls.obj
 0002:00007b40       ??_C@_1M@BGNFLDN@?$AAe?$AAs?$AA?9?$AAC?$AAO@ 10077b40     libcpmt:winapinls.obj
 0002:00007b4c       ??_C@_1O@JMPHMAMC@?$AAs?$AAm?$AAn?$AA?9?$AAF?$AAI@ 10077b4c     libcpmt:winapinls.obj
 0002:00007b5c       ??_C@_1M@JLANABKE@?$AAa?$AAr?$AA?9?$AAS?$AAY@ 10077b5c     libcpmt:winapinls.obj
 0002:00007b68       ??_C@_1M@HPKGCFGN@?$AAe?$AAn?$AA?9?$AAB?$AAZ@ 10077b68     libcpmt:winapinls.obj
 0002:00007b74       ??_C@_1M@OLJCMLGM@?$AAe?$AAs?$AA?9?$AAP?$AAE@ 10077b74     libcpmt:winapinls.obj
 0002:00007b80       ??_C@_1M@MKKGFKLE@?$AAa?$AAr?$AA?9?$AAJ?$AAO@ 10077b80     libcpmt:winapinls.obj
 0002:00007b8c       ??_C@_1M@EKPGLDNI@?$AAe?$AAn?$AA?9?$AAT?$AAT@ 10077b8c     libcpmt:winapinls.obj
 0002:00007b98       ??_C@_1M@OONGHFHE@?$AAe?$AAs?$AA?9?$AAA?$AAR@ 10077b98     libcpmt:winapinls.obj
 0002:00007ba4       ??_C@_1M@OOJFGBHE@?$AAa?$AAr?$AA?9?$AAL?$AAB@ 10077ba4     libcpmt:winapinls.obj
 0002:00007bb0       ??_C@_1M@GCEJHNEG@?$AAe?$AAn?$AA?9?$AAZ?$AAW@ 10077bb0     libcpmt:winapinls.obj
 0002:00007bbc       ??_C@_1M@JNOCAHJI@?$AAe?$AAs?$AA?9?$AAE?$AAC@ 10077bbc     libcpmt:winapinls.obj
 0002:00007bc8       ??_C@_1M@JEFHPGGB@?$AAa?$AAr?$AA?9?$AAK?$AAW@ 10077bc8     libcpmt:winapinls.obj
 0002:00007bd4       ??_C@_1M@MLKIBJOJ@?$AAe?$AAn?$AA?9?$AAP?$AAH@ 10077bd4     libcpmt:winapinls.obj
 0002:00007be0       ??_C@_1M@BDNIPEND@?$AAe?$AAs?$AA?9?$AAC?$AAL@ 10077be0     libcpmt:winapinls.obj
 0002:00007bec       ??_C@_1M@MPNMEKBD@?$AAa?$AAr?$AA?9?$AAA?$AAE@ 10077bec     libcpmt:winapinls.obj
 0002:00007bf8       ??_C@_1M@KBJALCPI@?$AAe?$AAs?$AA?9?$AAU?$AAY@ 10077bf8     libcpmt:winapinls.obj
 0002:00007c04       ??_C@_1M@LLCCOAGA@?$AAa?$AAr?$AA?9?$AAB?$AAH@ 10077c04     libcpmt:winapinls.obj
 0002:00007c10       ??_C@_1M@PBFNCDEL@?$AAe?$AAs?$AA?9?$AAP?$AAY@ 10077c10     libcpmt:winapinls.obj
 0002:00007c1c       ??_C@_1M@EDGINPNP@?$AAa?$AAr?$AA?9?$AAQ?$AAA@ 10077c1c     libcpmt:winapinls.obj
 0002:00007c28       ??_C@_1M@MKDBIIJI@?$AAe?$AAs?$AA?9?$AAB?$AAO@ 10077c28     libcpmt:winapinls.obj
 0002:00007c34       ??_C@_1M@CPKKEBLD@?$AAe?$AAs?$AA?9?$AAS?$AAV@ 10077c34     libcpmt:winapinls.obj
 0002:00007c40       ??_C@_1M@NDBGMMJL@?$AAe?$AAs?$AA?9?$AAH?$AAN@ 10077c40     libcpmt:winapinls.obj
 0002:00007c4c       ??_C@_1M@JIJIBHDP@?$AAe?$AAs?$AA?9?$AAN?$AAI@ 10077c4c     libcpmt:winapinls.obj
 0002:00007c58       ??_C@_1M@CGFMKEEK@?$AAe?$AAs?$AA?9?$AAP?$AAR@ 10077c58     libcpmt:winapinls.obj
 0002:00007c64       ??_C@_1O@ICJHKIIK@?$AAz?$AAh?$AA?9?$AAC?$AAH?$AAT@ 10077c64     libcpmt:winapinls.obj
 0002:00007c74       ??_C@_15CLNEJCE@?$AAs?$AAr@ 10077c74     libcpmt:winapinls.obj
 0002:00007c7c       ??_C@_1M@KAHEKEIG@?$AAa?$AAf?$AA?9?$AAz?$AAa@ 10077c7c     libcpmt:winapinls.obj
 0002:00007c88       ??_C@_1M@GIECOABL@?$AAa?$AAr?$AA?9?$AAa?$AAe@ 10077c88     libcpmt:winapinls.obj
 0002:00007c94       ??_C@_1M@BMLMEKGI@?$AAa?$AAr?$AA?9?$AAb?$AAh@ 10077c94     libcpmt:winapinls.obj
 0002:00007ca0       ??_C@_1M@DAPFDGGB@?$AAa?$AAr?$AA?9?$AAd?$AAz@ 10077ca0     libcpmt:winapinls.obj
 0002:00007cac       ??_C@_1M@FJNKGKIG@?$AAa?$AAr?$AA?9?$AAe?$AAg@ 10077cac     libcpmt:winapinls.obj
 0002:00007cb8       ??_C@_1M@FLGKKCLO@?$AAa?$AAr?$AA?9?$AAi?$AAq@ 10077cb8     libcpmt:winapinls.obj
 0002:00007cc4       ??_C@_1M@GNDIPALM@?$AAa?$AAr?$AA?9?$AAj?$AAo@ 10077cc4     libcpmt:winapinls.obj
 0002:00007cd0       ??_C@_1M@DDMJFMGJ@?$AAa?$AAr?$AA?9?$AAk?$AAw@ 10077cd0     libcpmt:winapinls.obj
 0002:00007cdc       ??_C@_1M@EJALMLHM@?$AAa?$AAr?$AA?9?$AAl?$AAb@ 10077cdc     libcpmt:winapinls.obj
 0002:00007ce8       ??_C@_1M@MOBDBLOC@?$AAa?$AAr?$AA?9?$AAl?$AAy@ 10077ce8     libcpmt:winapinls.obj
 0002:00007cf4       ??_C@_1M@JAOCLHDH@?$AAa?$AAr?$AA?9?$AAm?$AAa@ 10077cf4     libcpmt:winapinls.obj
 0002:00007d00       ??_C@_1M@JHPMKJIE@?$AAa?$AAr?$AA?9?$AAo?$AAm@ 10077d00     libcpmt:winapinls.obj
 0002:00007d0c       ??_C@_1M@OEPGHFNH@?$AAa?$AAr?$AA?9?$AAq?$AAa@ 10077d0c     libcpmt:winapinls.obj
 0002:00007d18       ??_C@_1M@KJDONENM@?$AAa?$AAr?$AA?9?$AAs?$AAa@ 10077d18     libcpmt:winapinls.obj
 0002:00007d24       ??_C@_1M@DMJDKLKM@?$AAa?$AAr?$AA?9?$AAs?$AAy@ 10077d24     libcpmt:winapinls.obj
 0002:00007d30       ??_C@_1M@OMFIPEDC@?$AAa?$AAr?$AA?9?$AAt?$AAn@ 10077d30     libcpmt:winapinls.obj
 0002:00007d3c       ??_C@_1M@IHMHGAON@?$AAa?$AAr?$AA?9?$AAy?$AAe@ 10077d3c     libcpmt:winapinls.obj
 0002:00007d48       ??_C@_1BG@KDCPGJGB@?$AAa?$AAz?$AA?9?$AAa?$AAz?$AA?9?$AAc?$AAy?$AAr?$AAl@ 10077d48     libcpmt:winapinls.obj
 0002:00007d60       ??_C@_1BG@IBCKDDOE@?$AAa?$AAz?$AA?9?$AAa?$AAz?$AA?9?$AAl?$AAa?$AAt?$AAn@ 10077d60     libcpmt:winapinls.obj
 0002:00007d78       ??_C@_1M@EGPFDCPD@?$AAb?$AAe?$AA?9?$AAb?$AAy@ 10077d78     libcpmt:winapinls.obj
 0002:00007d84       ??_C@_1M@PCMGMCGC@?$AAb?$AAg?$AA?9?$AAb?$AAg@ 10077d84     libcpmt:winapinls.obj
 0002:00007d90       ??_C@_1M@BJBMFGOB@?$AAb?$AAn?$AA?9?$AAi?$AAn@ 10077d90     libcpmt:winapinls.obj
 0002:00007d9c       ??_C@_1BG@EAKMMACD@?$AAb?$AAs?$AA?9?$AAb?$AAa?$AA?9?$AAl?$AAa?$AAt?$AAn@ 10077d9c     libcpmt:winapinls.obj
 0002:00007db4       ??_C@_1M@KGADAODK@?$AAc?$AAa?$AA?9?$AAe?$AAs@ 10077db4     libcpmt:winapinls.obj
 0002:00007dc0       ??_C@_1M@COAJPDHI@?$AAc?$AAs?$AA?9?$AAc?$AAz@ 10077dc0     libcpmt:winapinls.obj
 0002:00007dcc       ??_C@_1M@DHBHFONH@?$AAc?$AAy?$AA?9?$AAg?$AAb@ 10077dcc     libcpmt:winapinls.obj
 0002:00007dd8       ??_C@_1M@IMGKELGA@?$AAd?$AAa?$AA?9?$AAd?$AAk@ 10077dd8     libcpmt:winapinls.obj
 0002:00007de4       ??_C@_1M@NNDGDNGA@?$AAd?$AAe?$AA?9?$AAa?$AAt@ 10077de4     libcpmt:winapinls.obj
 0002:00007df0       ??_C@_1M@IKDBHEEM@?$AAd?$AAe?$AA?9?$AAc?$AAh@ 10077df0     libcpmt:winapinls.obj
 0002:00007dfc       ??_C@_1M@GFFOJMCJ@?$AAd?$AAe?$AA?9?$AAd?$AAe@ 10077dfc     libcpmt:winapinls.obj
 0002:00007e08       ??_C@_1M@MDNLKBPM@?$AAd?$AAe?$AA?9?$AAl?$AAi@ 10077e08     libcpmt:winapinls.obj
 0002:00007e14       ??_C@_1M@NJBEEJNL@?$AAd?$AAe?$AA?9?$AAl?$AAu@ 10077e14     libcpmt:winapinls.obj
 0002:00007e20       ??_C@_1O@GNNELBAP@?$AAd?$AAi?$AAv?$AA?9?$AAm?$AAv@ 10077e20     libcpmt:winapinls.obj
 0002:00007e30       ??_C@_1M@EJLEOGAE@?$AAe?$AAl?$AA?9?$AAg?$AAr@ 10077e30     libcpmt:winapinls.obj
 0002:00007e3c       ??_C@_1M@GMPONJN@?$AAe?$AAn?$AA?9?$AAa?$AAu@ 10077e3c     libcpmt:winapinls.obj
 0002:00007e48       ??_C@_1M@NIDIIPGF@?$AAe?$AAn?$AA?9?$AAb?$AAz@ 10077e48     libcpmt:winapinls.obj
 0002:00007e54       ??_C@_1M@JEHMIMFO@?$AAe?$AAn?$AA?9?$AAc?$AAa@ 10077e54     libcpmt:winapinls.obj
 0002:00007e60       ??_C@_1M@IGMJCDLA@?$AAe?$AAn?$AA?9?$AAc?$AAb@ 10077e60     libcpmt:winapinls.obj
 0002:00007e6c       ??_C@_1M@BNFIGBKG@?$AAe?$AAn?$AA?9?$AAg?$AAb@ 10077e6c     libcpmt:winapinls.obj
 0002:00007e78       ??_C@_1M@LKIFDIGP@?$AAe?$AAn?$AA?9?$AAi?$AAe@ 10077e78     libcpmt:winapinls.obj
 0002:00007e84       ??_C@_1M@PJKFGCCO@?$AAe?$AAn?$AA?9?$AAj?$AAm@ 10077e84     libcpmt:winapinls.obj
 0002:00007e90       ??_C@_1M@KPPKEPBO@?$AAe?$AAn?$AA?9?$AAn?$AAz@ 10077e90     libcpmt:winapinls.obj
 0002:00007e9c       ??_C@_1M@GMDGLDOB@?$AAe?$AAn?$AA?9?$AAp?$AAh@ 10077e9c     libcpmt:winapinls.obj
 0002:00007ea8       ??_C@_1M@ONGIBJNA@?$AAe?$AAn?$AA?9?$AAt?$AAt@ 10077ea8     libcpmt:winapinls.obj
 0002:00007eb4       ??_C@_1M@LLODPCMM@?$AAe?$AAn?$AA?9?$AAu?$AAs@ 10077eb4     libcpmt:winapinls.obj
 0002:00007ec0       ??_C@_1M@LAKFNPAN@?$AAe?$AAn?$AA?9?$AAz?$AAa@ 10077ec0     libcpmt:winapinls.obj
 0002:00007ecc       ??_C@_1M@MFNHNHEO@?$AAe?$AAn?$AA?9?$AAz?$AAw@ 10077ecc     libcpmt:winapinls.obj
 0002:00007ed8       ??_C@_1M@EJEINPHM@?$AAe?$AAs?$AA?9?$AAa?$AAr@ 10077ed8     libcpmt:winapinls.obj
 0002:00007ee4       ??_C@_1M@GNKPCCJA@?$AAe?$AAs?$AA?9?$AAb?$AAo@ 10077ee4     libcpmt:winapinls.obj
 0002:00007ef0       ??_C@_1M@LEEGFONL@?$AAe?$AAs?$AA?9?$AAc?$AAl@ 10077ef0     libcpmt:winapinls.obj
 0002:00007efc       ??_C@_1M@KGPDPBDF@?$AAe?$AAs?$AA?9?$AAc?$AAo@ 10077efc     libcpmt:winapinls.obj
 0002:00007f08       ??_C@_1M@EIAHOHH@?$AAe?$AAs?$AA?9?$AAc?$AAr@ 10077f08     libcpmt:winapinls.obj
 0002:00007f14       ??_C@_1M@LLPGMBIN@?$AAe?$AAs?$AA?9?$AAd?$AAo@ 10077f14     libcpmt:winapinls.obj
 0002:00007f20       ??_C@_1M@DKHMKNJA@?$AAe?$AAs?$AA?9?$AAe?$AAc@ 10077f20     libcpmt:winapinls.obj
 0002:00007f2c       ??_C@_1M@GKGFPKAP@?$AAe?$AAs?$AA?9?$AAe?$AAs@ 10077f2c     libcpmt:winapinls.obj
 0002:00007f38       ??_C@_1M@LKHKGDLN@?$AAe?$AAs?$AA?9?$AAg?$AAt@ 10077f38     libcpmt:winapinls.obj
 0002:00007f44       ??_C@_1M@HEIIGGJD@?$AAe?$AAs?$AA?9?$AAh?$AAn@ 10077f44     libcpmt:winapinls.obj
 0002:00007f50       ??_C@_1M@FBDHPPGD@?$AAe?$AAs?$AA?9?$AAm?$AAx@ 10077f50     libcpmt:winapinls.obj
 0002:00007f5c       ??_C@_1M@DPAGLNDH@?$AAe?$AAs?$AA?9?$AAn?$AAi@ 10077f5c     libcpmt:winapinls.obj
 0002:00007f68       ??_C@_1M@MDGOPGDD@?$AAe?$AAs?$AA?9?$AAp?$AAa@ 10077f68     libcpmt:winapinls.obj
 0002:00007f74       ??_C@_1M@EMAMGBGE@?$AAe?$AAs?$AA?9?$AAp?$AAe@ 10077f74     libcpmt:winapinls.obj
 0002:00007f80       ??_C@_1M@IBMCAOEC@?$AAe?$AAs?$AA?9?$AAp?$AAr@ 10077f80     libcpmt:winapinls.obj
 0002:00007f8c       ??_C@_1M@FGMDIJED@?$AAe?$AAs?$AA?9?$AAp?$AAy@ 10077f8c     libcpmt:winapinls.obj
 0002:00007f98       ??_C@_1M@IIDEOLLL@?$AAe?$AAs?$AA?9?$AAs?$AAv@ 10077f98     libcpmt:winapinls.obj
 0002:00007fa4       ??_C@_1M@GAOBIPA@?$AAe?$AAs?$AA?9?$AAu?$AAy@ 10077fa4     libcpmt:winapinls.obj
 0002:00007fb0       ??_C@_1M@JKFFICHJ@?$AAe?$AAs?$AA?9?$AAv?$AAe@ 10077fb0     libcpmt:winapinls.obj
 0002:00007fbc       ??_C@_1M@PNMLOJDF@?$AAe?$AAt?$AA?9?$AAe?$AAe@ 10077fbc     libcpmt:winapinls.obj
 0002:00007fc8       ??_C@_1M@GHHLIKEI@?$AAe?$AAu?$AA?9?$AAe?$AAs@ 10077fc8     libcpmt:winapinls.obj
 0002:00007fd4       ??_C@_1M@PBNONODE@?$AAf?$AAa?$AA?9?$AAi?$AAr@ 10077fd4     libcpmt:winapinls.obj
 0002:00007fe0       ??_C@_1M@JEEHPMIL@?$AAf?$AAi?$AA?9?$AAf?$AAi@ 10077fe0     libcpmt:winapinls.obj
 0002:00007fec       ??_C@_1M@LMDCNDBA@?$AAf?$AAo?$AA?9?$AAf?$AAo@ 10077fec     libcpmt:winapinls.obj
 0002:00007ff8       ??_C@_1M@JKEOHLDK@?$AAf?$AAr?$AA?9?$AAb?$AAe@ 10077ff8     libcpmt:winapinls.obj
 0002:00008004       ??_C@_1M@NOHADPMI@?$AAf?$AAr?$AA?9?$AAc?$AAa@ 10078004     libcpmt:winapinls.obj
 0002:00008010       ??_C@_1M@KDHIHAEC@?$AAf?$AAr?$AA?9?$AAc?$AAh@ 10078010     libcpmt:winapinls.obj
 0002:0000801c       ??_C@_1M@MMBBFGAK@?$AAf?$AAr?$AA?9?$AAf?$AAr@ 1007801c     libcpmt:winapinls.obj
 0002:00008028       ??_C@_1M@PAFNENNF@?$AAf?$AAr?$AA?9?$AAl?$AAu@ 10078028     libcpmt:winapinls.obj
 0002:00008034       ??_C@_1M@EOHDJGDD@?$AAf?$AAr?$AA?9?$AAm?$AAc@ 10078034     libcpmt:winapinls.obj
 0002:00008040       ??_C@_1M@FAPLLOPF@?$AAg?$AAl?$AA?9?$AAe?$AAs@ 10078040     libcpmt:winapinls.obj
 0002:0000804c       ??_C@_1M@FOPBFLOO@?$AAg?$AAu?$AA?9?$AAi?$AAn@ 1007804c     libcpmt:winapinls.obj
 0002:00008058       ??_C@_1M@KBMCINPM@?$AAh?$AAe?$AA?9?$AAi?$AAl@ 10078058     libcpmt:winapinls.obj
 0002:00008064       ??_C@_1M@BBPHKFPJ@?$AAh?$AAi?$AA?9?$AAi?$AAn@ 10078064     libcpmt:winapinls.obj
 0002:00008070       ??_C@_1M@PMBNDPHD@?$AAh?$AAr?$AA?9?$AAb?$AAa@ 10078070     libcpmt:winapinls.obj
 0002:0000807c       ??_C@_1M@BPCKOEGE@?$AAh?$AAr?$AA?9?$AAh?$AAr@ 1007807c     libcpmt:winapinls.obj
 0002:00008088       ??_C@_1M@GACBMHKE@?$AAh?$AAu?$AA?9?$AAh?$AAu@ 10078088     libcpmt:winapinls.obj
 0002:00008094       ??_C@_1M@MILPAJJC@?$AAh?$AAy?$AA?9?$AAa?$AAm@ 10078094     libcpmt:winapinls.obj
 0002:000080a0       ??_C@_1M@BABBICEC@?$AAi?$AAd?$AA?9?$AAi?$AAd@ 100780a0     libcpmt:winapinls.obj
 0002:000080ac       ??_C@_1M@BIKNHHPF@?$AAi?$AAs?$AA?9?$AAi?$AAs@ 100780ac     libcpmt:winapinls.obj
 0002:000080b8       ??_C@_1M@NMPCJPHE@?$AAi?$AAt?$AA?9?$AAc?$AAh@ 100780b8     libcpmt:winapinls.obj
 0002:000080c4       ??_C@_1M@GHKGFEDF@?$AAi?$AAt?$AA?9?$AAi?$AAt@ 100780c4     libcpmt:winapinls.obj
 0002:000080d0       ??_C@_1M@NIEJCJJA@?$AAj?$AAa?$AA?9?$AAj?$AAp@ 100780d0     libcpmt:winapinls.obj
 0002:000080dc       ??_C@_1M@JILFNBIM@?$AAk?$AAa?$AA?9?$AAg?$AAe@ 100780dc     libcpmt:winapinls.obj
 0002:000080e8       ??_C@_1M@PACPMGPH@?$AAk?$AAk?$AA?9?$AAk?$AAz@ 100780e8     libcpmt:winapinls.obj
 0002:000080f4       ??_C@_1M@IELFGMHA@?$AAk?$AAn?$AA?9?$AAi?$AAn@ 100780f4     libcpmt:winapinls.obj
 0002:00008100       ??_C@_1M@DMHAEOGC@?$AAk?$AAo?$AA?9?$AAk?$AAr@ 10078100     libcpmt:winapinls.obj
 0002:0000810c       ??_C@_1O@IBBJHCH@?$AAk?$AAo?$AAk?$AA?9?$AAi?$AAn@ 1007810c     libcpmt:winapinls.obj
 0002:0000811c       ??_C@_1M@HBAHBIGA@?$AAk?$AAy?$AA?9?$AAk?$AAg@ 1007811c     libcpmt:winapinls.obj
 0002:00008128       ??_C@_1M@KPMILCJG@?$AAl?$AAt?$AA?9?$AAl?$AAt@ 10078128     libcpmt:winapinls.obj
 0002:00008134       ??_C@_1M@BDEKKCA@?$AAl?$AAv?$AA?9?$AAl?$AAv@ 10078134     libcpmt:winapinls.obj
 0002:00008140       ??_C@_1M@ELCKCCJJ@?$AAm?$AAi?$AA?9?$AAn?$AAz@ 10078140     libcpmt:winapinls.obj
 0002:0000814c       ??_C@_1M@CBOOLAPA@?$AAm?$AAk?$AA?9?$AAm?$AAk@ 1007814c     libcpmt:winapinls.obj
 0002:00008158       ??_C@_1M@GPHNBJKN@?$AAm?$AAl?$AA?9?$AAi?$AAn@ 10078158     libcpmt:winapinls.obj
 0002:00008164       ??_C@_1M@PABJILIG@?$AAm?$AAn?$AA?9?$AAm?$AAn@ 10078164     libcpmt:winapinls.obj
 0002:00008170       ??_C@_1M@FGBKKIPG@?$AAm?$AAr?$AA?9?$AAi?$AAn@ 10078170     libcpmt:winapinls.obj
 0002:0000817c       ??_C@_1M@NDBPDDAL@?$AAm?$AAs?$AA?9?$AAb?$AAn@ 1007817c     libcpmt:winapinls.obj
 0002:00008188       ??_C@_1M@OPIHOOPI@?$AAm?$AAs?$AA?9?$AAm?$AAy@ 10078188     libcpmt:winapinls.obj
 0002:00008194       ??_C@_1M@PPDBCNFM@?$AAm?$AAt?$AA?9?$AAm?$AAt@ 10078194     libcpmt:winapinls.obj
 0002:000081a0       ??_C@_1M@KDJDKMDD@?$AAn?$AAb?$AA?9?$AAn?$AAo@ 100781a0     libcpmt:winapinls.obj
 0002:000081ac       ??_C@_1M@KFCFLMJP@?$AAn?$AAl?$AA?9?$AAb?$AAe@ 100781ac     libcpmt:winapinls.obj
 0002:000081b8       ??_C@_1M@KPOPDDGO@?$AAn?$AAl?$AA?9?$AAn?$AAl@ 100781b8     libcpmt:winapinls.obj
 0002:000081c4       ??_C@_1M@LJKPEMLN@?$AAn?$AAn?$AA?9?$AAn?$AAo@ 100781c4     libcpmt:winapinls.obj
 0002:000081d0       ??_C@_1M@BDGHHBFL@?$AAn?$AAs?$AA?9?$AAz?$AAa@ 100781d0     libcpmt:winapinls.obj
 0002:000081dc       ??_C@_1M@IDEHOAP@?$AAp?$AAa?$AA?9?$AAi?$AAn@ 100781dc     libcpmt:winapinls.obj
 0002:000081e8       ??_C@_1M@HDBKGOGH@?$AAp?$AAl?$AA?9?$AAp?$AAl@ 100781e8     libcpmt:winapinls.obj
 0002:000081f4       ??_C@_1M@LJLLCMEH@?$AAp?$AAt?$AA?9?$AAb?$AAr@ 100781f4     libcpmt:winapinls.obj
 0002:00008200       ??_C@_1M@NCMONAAL@?$AAp?$AAt?$AA?9?$AAp?$AAt@ 10078200     libcpmt:winapinls.obj
 0002:0000820c       ??_C@_1O@EAKMAJDN@?$AAq?$AAu?$AAz?$AA?9?$AAb?$AAo@ 1007820c     libcpmt:winapinls.obj
 0002:0000821c       ??_C@_1O@BHHPIGDN@?$AAq?$AAu?$AAz?$AA?9?$AAe?$AAc@ 1007821c     libcpmt:winapinls.obj
 0002:0000822c       ??_C@_1O@GBAPEKMJ@?$AAq?$AAu?$AAz?$AA?9?$AAp?$AAe@ 1007822c     libcpmt:winapinls.obj
 0002:0000823c       ??_C@_1M@CLGLEFBO@?$AAr?$AAo?$AA?9?$AAr?$AAo@ 1007823c     libcpmt:winapinls.obj
 0002:00008248       ??_C@_1M@CEEDODME@?$AAr?$AAu?$AA?9?$AAr?$AAu@ 10078248     libcpmt:winapinls.obj
 0002:00008254       ??_C@_1M@HPKKKMPP@?$AAs?$AAa?$AA?9?$AAi?$AAn@ 10078254     libcpmt:winapinls.obj
 0002:00008260       ??_C@_1M@BKMAIGOJ@?$AAs?$AAe?$AA?9?$AAf?$AAi@ 10078260     libcpmt:winapinls.obj
 0002:0000826c       ??_C@_1M@NDPIFLFI@?$AAs?$AAe?$AA?9?$AAn?$AAo@ 1007826c     libcpmt:winapinls.obj
 0002:00008278       ??_C@_1M@DANKKHJ@?$AAs?$AAe?$AA?9?$AAs?$AAe@ 10078278     libcpmt:winapinls.obj
 0002:00008284       ??_C@_1M@PNBLONPJ@?$AAs?$AAk?$AA?9?$AAs?$AAk@ 10078284     libcpmt:winapinls.obj
 0002:00008290       ??_C@_1M@LFMODOAL@?$AAs?$AAl?$AA?9?$AAs?$AAi@ 10078290     libcpmt:winapinls.obj
 0002:0000829c       ??_C@_1O@DFKOMPG@?$AAs?$AAm?$AAa?$AA?9?$AAn?$AAo@ 1007829c     libcpmt:winapinls.obj
 0002:000082ac       ??_C@_1O@NDKPBNNH@?$AAs?$AAm?$AAa?$AA?9?$AAs?$AAe@ 100782ac     libcpmt:winapinls.obj
 0002:000082bc       ??_C@_1O@PLLKBHAB@?$AAs?$AAm?$AAj?$AA?9?$AAn?$AAo@ 100782bc     libcpmt:winapinls.obj
 0002:000082cc       ??_C@_1O@CLEPOGCA@?$AAs?$AAm?$AAj?$AA?9?$AAs?$AAe@ 100782cc     libcpmt:winapinls.obj
 0002:000082dc       ??_C@_1O@DLGJGKMK@?$AAs?$AAm?$AAn?$AA?9?$AAf?$AAi@ 100782dc     libcpmt:winapinls.obj
 0002:000082ec       ??_C@_1O@OJDJGAJC@?$AAs?$AAm?$AAs?$AA?9?$AAf?$AAi@ 100782ec     libcpmt:winapinls.obj
 0002:000082fc       ??_C@_1M@BOFOGHPB@?$AAs?$AAq?$AA?9?$AAa?$AAl@ 100782fc     libcpmt:winapinls.obj
 0002:00008308       ??_C@_1BG@LJBBIPGB@?$AAs?$AAr?$AA?9?$AAb?$AAa?$AA?9?$AAc?$AAy?$AAr?$AAl@ 10078308     libcpmt:winapinls.obj
 0002:00008320       ??_C@_1BG@JLBENFOE@?$AAs?$AAr?$AA?9?$AAb?$AAa?$AA?9?$AAl?$AAa?$AAt?$AAn@ 10078320     libcpmt:winapinls.obj
 0002:00008338       ??_C@_1BG@KODPNHE@?$AAs?$AAr?$AA?9?$AAs?$AAp?$AA?9?$AAc?$AAy?$AAr?$AAl@ 10078338     libcpmt:winapinls.obj
 0002:00008350       ??_C@_1BG@CIOGKHPB@?$AAs?$AAr?$AA?9?$AAs?$AAp?$AA?9?$AAl?$AAa?$AAt?$AAn@ 10078350     libcpmt:winapinls.obj
 0002:00008368       ??_C@_1M@NGFJLMAC@?$AAs?$AAv?$AA?9?$AAf?$AAi@ 10078368     libcpmt:winapinls.obj
 0002:00008374       ??_C@_1M@MPJEJAJC@?$AAs?$AAv?$AA?9?$AAs?$AAe@ 10078374     libcpmt:winapinls.obj
 0002:00008380       ??_C@_1M@MPNDHLFK@?$AAs?$AAw?$AA?9?$AAk?$AAe@ 10078380     libcpmt:winapinls.obj
 0002:0000838c       ??_C@_1O@KOHBJJI@?$AAs?$AAy?$AAr?$AA?9?$AAs?$AAy@ 1007838c     libcpmt:winapinls.obj
 0002:0000839c       ??_C@_1M@LDCEFHA@?$AAt?$AAa?$AA?9?$AAi?$AAn@ 1007839c     libcpmt:winapinls.obj
 0002:000083a8       ??_C@_1M@CNJOFAK@?$AAt?$AAe?$AA?9?$AAi?$AAn@ 100783a8     libcpmt:winapinls.obj
 0002:000083b4       ??_C@_1M@GNAECACD@?$AAt?$AAh?$AA?9?$AAt?$AAh@ 100783b4     libcpmt:winapinls.obj
 0002:000083c0       ??_C@_1M@CHBIHOJO@?$AAt?$AAn?$AA?9?$AAz?$AAa@ 100783c0     libcpmt:winapinls.obj
 0002:000083cc       ??_C@_1M@GCCMIGPJ@?$AAt?$AAr?$AA?9?$AAt?$AAr@ 100783cc     libcpmt:winapinls.obj
 0002:000083d8       ??_C@_1M@CELMCNBK@?$AAt?$AAt?$AA?9?$AAr?$AAu@ 100783d8     libcpmt:winapinls.obj
 0002:000083e4       ??_C@_1M@KLMCELGA@?$AAu?$AAk?$AA?9?$AAu?$AAa@ 100783e4     libcpmt:winapinls.obj
 0002:000083f0       ??_C@_1M@EPAJJAJF@?$AAu?$AAr?$AA?9?$AAp?$AAk@ 100783f0     libcpmt:winapinls.obj
 0002:000083fc       ??_C@_1BG@GEGPMCDJ@?$AAu?$AAz?$AA?9?$AAu?$AAz?$AA?9?$AAc?$AAy?$AAr?$AAl@ 100783fc     libcpmt:winapinls.obj
 0002:00008414       ??_C@_1BG@EGGKJILM@?$AAu?$AAz?$AA?9?$AAu?$AAz?$AA?9?$AAl?$AAa?$AAt?$AAn@ 10078414     libcpmt:winapinls.obj
 0002:0000842c       ??_C@_1M@GFOCLFF@?$AAv?$AAi?$AA?9?$AAv?$AAn@ 1007842c     libcpmt:winapinls.obj
 0002:00008438       ??_C@_1M@CPAMEDFI@?$AAx?$AAh?$AA?9?$AAz?$AAa@ 10078438     libcpmt:winapinls.obj
 0002:00008444       ??_C@_1O@EBKIFIGN@?$AAz?$AAh?$AA?9?$AAc?$AAh?$AAs@ 10078444     libcpmt:winapinls.obj
 0002:00008454       ??_C@_1O@NMHPGANE@?$AAz?$AAh?$AA?9?$AAc?$AAh?$AAt@ 10078454     libcpmt:winapinls.obj
 0002:00008464       ??_C@_1M@LPINJOMC@?$AAz?$AAh?$AA?9?$AAc?$AAn@ 10078464     libcpmt:winapinls.obj
 0002:00008470       ??_C@_1M@OCJEJODD@?$AAz?$AAh?$AA?9?$AAh?$AAk@ 10078470     libcpmt:winapinls.obj
 0002:0000847c       ??_C@_1M@DNDLJINH@?$AAz?$AAh?$AA?9?$AAm?$AAo@ 1007847c     libcpmt:winapinls.obj
 0002:00008488       ??_C@_1M@MBFDNDND@?$AAz?$AAh?$AA?9?$AAs?$AAg@ 10078488     libcpmt:winapinls.obj
 0002:00008494       ??_C@_1M@IMEPLEPE@?$AAz?$AAh?$AA?9?$AAt?$AAw@ 10078494     libcpmt:winapinls.obj
 0002:000084a0       ??_C@_1M@BBGHNHJP@?$AAz?$AAu?$AA?9?$AAz?$AAa@ 100784a0     libcpmt:winapinls.obj
 0002:000084ac       ??_C@_13IMODFHAA@?$AA?9@   100784ac     libcpmt:wlocale.obj
 0002:00008550       ??_7_com_error@@6B@        10078550     comsuppw:comraise.obj
 0002:00008558       ??_C@_1EC@JIJBPKFM@?$AAa?$AAp?$AAi?$AA?9?$AAm?$AAs?$AA?9?$AAw?$AAi?$AAn?$AA?9?$AAc?$AAo?$AAr?$AAe@ 10078558     LIBCMT:thread_safe_statics.obj
 0002:000085a0       ??_7type_info@@6B@         100785a0     LIBCMT:std_type_info_static.obj
 0002:000085ac       __pRawDllMain              100785ac     LIBCMT:dll_dllmain.obj
 0002:000085ac       __pDefaultRawDllMain       100785ac     LIBCMT:dll_dllmain.obj
 0002:000085b4       ??_7bad_array_new_length@std@@6B@ 100785b4     LIBCMT:throw_bad_alloc.obj
 0002:000085bc       ??_C@_0BF@KINCDENJ@bad?5array?5new?5length@ 100785bc     LIBCMT:throw_bad_alloc.obj
 0002:000085f4       __pDestructExceptionObject 100785f4     libvcruntime:ehhelpers.obj
 0002:000085fc       ??_7bad_exception@std@@6B@ 100785fc     libvcruntime:frame.obj
 0002:00008604       ??_C@_0O@DPKOEFFH@bad?5exception@ 10078604     libvcruntime:frame.obj
 0002:00008620       ??_C@_1DM@KHCHBNEB@?$AAa?$AAp?$AAi?$AA?9?$AAm?$AAs?$AA?9?$AAw?$AAi?$AAn?$AA?9?$AAc?$AAo?$AAr?$AAe@ 10078620     libvcruntime:winapi_downlevel.obj
 0002:0000865c       ??_C@_1DK@LPPGFMPP@?$AAa?$AAp?$AAi?$AA?9?$AAm?$AAs?$AA?9?$AAw?$AAi?$AAn?$AA?9?$AAc?$AAo?$AAr?$AAe@ 1007865c     libvcruntime:winapi_downlevel.obj
 0002:00008698       ??_C@_1BC@GDMECMAK@?$AAk?$AAe?$AAr?$AAn?$AAe?$AAl?$AA3?$AA2@ 10078698     libvcruntime:winapi_downlevel.obj
 0002:000086ac       ??_C@_1BA@PFFKHIOG@?$AAa?$AAp?$AAi?$AA?9?$AAm?$AAs?$AA?9@ 100786ac     libvcruntime:winapi_downlevel.obj
 0002:000086bc       ??_C@_1BA@IAIFMGEF@?$AAe?$AAx?$AAt?$AA?9?$AAm?$AAs?$AA?9@ 100786bc     libvcruntime:winapi_downlevel.obj
 0002:00008894       ??_C@_08EHJDFFNH@__based?$CI@ 10078894     libvcruntime:undname.obj
 0002:000088a0       ??_C@_07KOLFKCDI@__cdecl@  100788a0     libvcruntime:undname.obj
 0002:000088a8       ??_C@_08GHMPAG@__pascal@   100788a8     libvcruntime:undname.obj
 0002:000088b4       ??_C@_09IFJBGAPI@__stdcall@ 100788b4     libvcruntime:undname.obj
 0002:000088c0       ??_C@_0L@NPHFGOKO@__thiscall@ 100788c0     libvcruntime:undname.obj
 0002:000088cc       ??_C@_0L@JMKHOMEK@__fastcall@ 100788cc     libvcruntime:undname.obj
 0002:000088d8       ??_C@_0N@BCKKPABJ@__vectorcall@ 100788d8     libvcruntime:undname.obj
 0002:000088e8       ??_C@_09HIJEGCPM@__clrcall@ 100788e8     libvcruntime:undname.obj
 0002:000088f4       ??_C@_06GHPCKEAG@__eabi@   100788f4     libvcruntime:undname.obj
 0002:000088fc       ??_C@_09IOPIDJLG@__swift_1@ 100788fc     libvcruntime:undname.obj
 0002:00008908       ??_C@_09KFNFGKHF@__swift_2@ 10078908     libvcruntime:undname.obj
 0002:00008914       ??_C@_07JOMMBBKO@__ptr64@  10078914     libvcruntime:undname.obj
 0002:0000891c       ??_C@_0L@PILCLIHE@__restrict@ 1007891c     libvcruntime:undname.obj
 0002:00008928       ??_C@_0M@GFIIJFMG@__unaligned@ 10078928     libvcruntime:undname.obj
 0002:00008934       ??_C@_09DHDLOLLB@restrict?$CI@ 10078934     libvcruntime:undname.obj
 0002:00008940       ??_C@_04NIHEBCM@?5new@     10078940     libvcruntime:undname.obj
 0002:00008948       ??_C@_07FPCDHGMM@?5delete@ 10078948     libvcruntime:undname.obj
 0002:00008950       ??_C@_01NEMOKFLO@?$DN@     10078950     libvcruntime:undname.obj
 0002:00008954       ??_C@_02GPIOPFAK@?$DO?$DO@ 10078954     libvcruntime:undname.obj
 0002:00008958       ??_C@_02FODMEDOG@?$DM?$DM@ 10078958     libvcruntime:undname.obj
 0002:0000895c       ??_C@_01DCLJPIOD@?$CB@     1007895c     libvcruntime:undname.obj
 0002:00008960       ??_C@_02EGOFBIJA@?$DN?$DN@ 10078960     libvcruntime:undname.obj
 0002:00008964       ??_C@_02FDNJECIE@?$CB?$DN@ 10078964     libvcruntime:undname.obj
 0002:00008968       ??_C@_02GPECMEKF@?$FL?$FN@ 10078968     libvcruntime:undname.obj
 0002:0000896c       ??_C@_08LHJFAFGD@operator@ 1007896c     libvcruntime:undname.obj
 0002:00008978       ??_C@_02HBOOOICD@?9?$DO@   10078978     libvcruntime:undname.obj
 0002:0000897c       ??_C@_02ECNGHCIF@?$CL?$CL@ 1007897c     libvcruntime:undname.obj
 0002:00008980       ??_C@_02BAABKJLB@?9?9@     10078980     libvcruntime:undname.obj
 0002:00008984       ??_C@_01MIFGBAGJ@?$CL@     10078984     libvcruntime:undname.obj
 0002:00008988       ??_C@_01HNPIGOCE@?$CG@     10078988     libvcruntime:undname.obj
 0002:0000898c       ??_C@_03MNHNFDLC@?9?$DO?$CK@ 1007898c     libvcruntime:undname.obj
 0002:00008990       ??_C@_01KMDKNFGN@?1@       10078990     libvcruntime:undname.obj
 0002:00008994       ??_C@_01MNNFJEPP@?$DM@     10078994     libvcruntime:undname.obj
 0002:00008998       ??_C@_02EHCHHCKH@?$DM?$DN@ 10078998     libvcruntime:undname.obj
 0002:0000899c       ??_C@_01PPODPGHN@?$DO@     1007899c     libvcruntime:undname.obj
 0002:000089a0       ??_C@_02EEKDKGMJ@?$DO?$DN@ 100789a0     libvcruntime:undname.obj
 0002:000089a4       ??_C@_01IHBHIGKO@?0@       100789a4     libvcruntime:undname.obj
 0002:000089a8       ??_C@_02HCKGKOFO@?$CI?$CJ@ 100789a8     libvcruntime:undname.obj
 0002:000089ac       ??_C@_01PJKLJHI@?$HO@      100789ac     libvcruntime:undname.obj
 0002:000089b0       ??_C@_01JKBOJNNK@?$FO@     100789b0     libvcruntime:undname.obj
 0002:000089b4       ??_C@_01DNKMNLPK@?$HM@     100789b4     libvcruntime:undname.obj
 0002:000089b8       ??_C@_02PPKAJPJL@?$CG?$CG@ 100789b8     libvcruntime:undname.obj
 0002:000089bc       ??_C@_02NONPIBCD@?$HM?$HM@ 100789bc     libvcruntime:undname.obj
 0002:000089c0       ??_C@_02FPIMKNGF@?$CK?$DN@ 100789c0     libvcruntime:undname.obj
 0002:000089c4       ??_C@_02FOEOMHFC@?$CL?$DN@ 100789c4     libvcruntime:undname.obj
 0002:000089c8       ??_C@_02FKMDLLOA@?9?$DN@   100789c8     libvcruntime:undname.obj
 0002:000089cc       ??_C@_02FJEHGPIO@?1?$DN@   100789cc     libvcruntime:undname.obj
 0002:000089d0       ??_C@_02FENAOKFI@?$CF?$DN@ 100789d0     libvcruntime:undname.obj
 0002:000089d4       ??_C@_03IKFCCPFF@?$DO?$DO?$DN@ 100789d4     libvcruntime:undname.obj
 0002:000089d8       ??_C@_03CDNPDDLA@?$DM?$DM?$DN@ 100789d8     libvcruntime:undname.obj
 0002:000089dc       ??_C@_02FGJGFEAB@?$CG?$DN@ 100789dc     libvcruntime:undname.obj
 0002:000089e0       ??_C@_02DHLNPPGH@?$HM?$DN@ 100789e0     libvcruntime:undname.obj
 0002:000089e4       ??_C@_02MHEGNOJ@?$FO?$DN@  100789e4     libvcruntime:undname.obj
 0002:000089e8       ??_C@_09IFPLHPGF@?$GAvftable?8@ 100789e8     libvcruntime:undname.obj
 0002:000089f4       ??_C@_09BLBHBJP@?$GAvbtable?8@ 100789f4     libvcruntime:undname.obj
 0002:00008a00       ??_C@_07FEEIOKP@?$GAvcall?8@ 10078a00     libvcruntime:undname.obj
 0002:00008a08       ??_C@_08LLFFHHDJ@?$GAtypeof?8@ 10078a08     libvcruntime:undname.obj
 0002:00008a14       ??_C@_0BF@KDPPACIK@?$GAlocal?5static?5guard?8@ 10078a14     libvcruntime:undname.obj
 0002:00008a2c       ??_C@_08OBABFOLI@?$GAstring?8@ 10078a2c     libvcruntime:undname.obj
 0002:00008a38       ??_C@_0BD@JDLKDPAB@?$GAvbase?5destructor?8@ 10078a38     libvcruntime:undname.obj
 0002:00008a4c       ??_C@_0BN@DEGPLNFK@?$GAvector?5deleting?5destructor?8@ 10078a4c     libvcruntime:undname.obj
 0002:00008a6c       ??_C@_0BO@OBMKPJIG@?$GAdefault?5constructor?5closure?8@ 10078a6c     libvcruntime:undname.obj
 0002:00008a8c       ??_C@_0BN@IMDCHIKM@?$GAscalar?5deleting?5destructor?8@ 10078a8c     libvcruntime:undname.obj
 0002:00008aac       ??_C@_0BO@PFGOCPJJ@?$GAvector?5constructor?5iterator?8@ 10078aac     libvcruntime:undname.obj
 0002:00008acc       ??_C@_0BN@LFPFMEDL@?$GAvector?5destructor?5iterator?8@ 10078acc     libvcruntime:undname.obj
 0002:00008aec       ??_C@_0CE@IKBNEHA@?$GAvector?5vbase?5constructor?5itera@ 10078aec     libvcruntime:undname.obj
 0002:00008b10       ??_C@_0BL@NILFHHPC@?$GAvirtual?5displacement?5map?8@ 10078b10     libvcruntime:undname.obj
 0002:00008b2c       ??_C@_0CB@JONCMFFK@?$GAeh?5vector?5constructor?5iterator@ 10078b2c     libvcruntime:undname.obj
 0002:00008b50       ??_C@_0CA@GCEOPDGL@?$GAeh?5vector?5destructor?5iterator?8@ 10078b50     libvcruntime:undname.obj
 0002:00008b70       ??_C@_0CH@OOJPLCPH@?$GAeh?5vector?5vbase?5constructor?5it@ 10078b70     libvcruntime:undname.obj
 0002:00008b98       ??_C@_0BL@LLKPOHJI@?$GAcopy?5constructor?5closure?8@ 10078b98     libvcruntime:undname.obj
 0002:00008bb4       ??_C@_0BA@KBCDOMBN@?$GAudt?5returning?8@ 10078bb4     libvcruntime:undname.obj
 0002:00008bc4       ??_C@_03KLGMFNMG@?$GAEH@   10078bc4     libvcruntime:undname.obj
 0002:00008bc8       ??_C@_05KHLCHHI@?$GARTTI@  10078bc8     libvcruntime:undname.obj
 0002:00008bd0       ??_C@_0BA@KKLDJDLB@?$GAlocal?5vftable?8@ 10078bd0     libvcruntime:undname.obj
 0002:00008be0       ??_C@_0CE@IIHCMGGL@?$GAlocal?5vftable?5constructor?5clos@ 10078be0     libvcruntime:undname.obj
 0002:00008c04       ??_C@_06FHBGPFGH@?5new?$FL?$FN@ 10078c04     libvcruntime:undname.obj
 0002:00008c0c       ??_C@_09LBNFPBCA@?5delete?$FL?$FN@ 10078c0c     libvcruntime:undname.obj
 0002:00008c18       ??_C@_0P@HJKNJFNN@?$GAomni?5callsig?8@ 10078c18     libvcruntime:undname.obj
 0002:00008c28       ??_C@_0BL@CNOONJFP@?$GAplacement?5delete?5closure?8@ 10078c28     libvcruntime:undname.obj
 0002:00008c44       ??_C@_0BN@CKNJLHMB@?$GAplacement?5delete?$FL?$FN?5closure?8@ 10078c44     libvcruntime:undname.obj
 0002:00008c64       ??_C@_0CG@CFDHKGGD@?$GAmanaged?5vector?5constructor?5ite@ 10078c64     libvcruntime:undname.obj
 0002:00008c8c       ??_C@_0CF@IMGKMJNO@?$GAmanaged?5vector?5destructor?5iter@ 10078c8c     libvcruntime:undname.obj
 0002:00008cb4       ??_C@_0CG@HLDDJMAG@?$GAeh?5vector?5copy?5constructor?5ite@ 10078cb4     libvcruntime:undname.obj
 0002:00008cdc       ??_C@_0CM@FCBBDIGB@?$GAeh?5vector?5vbase?5copy?5construct@ 10078cdc     libvcruntime:undname.obj
 0002:00008d08       ??_C@_0BL@CLIPGLGB@?$GAdynamic?5initializer?5for?5?8@ 10078d08     libvcruntime:undname.obj
 0002:00008d24       ??_C@_0CB@PDBIFEP@?$GAdynamic?5atexit?5destructor?5for?5@ 10078d24     libvcruntime:undname.obj
 0002:00008d48       ??_C@_0CD@CGAJBKEJ@?$GAvector?5copy?5constructor?5iterat@ 10078d48     libvcruntime:undname.obj
 0002:00008d6c       ??_C@_0CJ@GJELGAMM@?$GAvector?5vbase?5copy?5constructor?5@ 10078d6c     libvcruntime:undname.obj
 0002:00008d98       ??_C@_0CL@FGIJHLCE@?$GAmanaged?5vector?5copy?5constructo@ 10078d98     libvcruntime:undname.obj
 0002:00008dc4       ??_C@_0BM@PMGGMLDN@?$GAlocal?5static?5thread?5guard?8@ 10078dc4     libvcruntime:undname.obj
 0002:00008de0       ??_C@_0N@BDNMDMOL@operator?5?$CC?$CC?5@ 10078de0     libvcruntime:undname.obj
 0002:00008df0       ??_C@_0BC@GGEBGALA@operator?5co_await@ 10078df0     libvcruntime:undname.obj
 0002:00008e04       ??_C@_0BC@DAFEJGAK@?5Type?5Descriptor?8@ 10078e04     libvcruntime:undname.obj
 0002:00008e18       ??_C@_0BM@LDKODKLH@?5Base?5Class?5Descriptor?5at?5?$CI@ 10078e18     libvcruntime:undname.obj
 0002:00008e34       ??_C@_0BD@LGICGFMM@?5Base?5Class?5Array?8@ 10078e34     libvcruntime:undname.obj
 0002:00008e48       ??_C@_0BN@MECKDCOJ@?5Class?5Hierarchy?5Descriptor?8@ 10078e48     libvcruntime:undname.obj
 0002:00008e68       ??_C@_0BK@CFCOFLF@?5Complete?5Object?5Locator?8@ 10078e68     libvcruntime:undname.obj
 0002:00009030       __real@3e54ae0c00000000    10079030     libucrt:log2f.obj
 0002:00009038       __real@3e5526e500000000    10079038     libucrt:log2f.obj
 0002:00009040       __real@3e7427de80000000    10079040     libucrt:log2f.obj
 0002:00009048       __real@3e7f7d1d00000000    10079048     libucrt:log2f.obj
 0002:00009050       __real@3f3504f3            10079050     libucrt:log2f.obj
 0002:00009058       __real@3fd32042a0000000    10079058     libucrt:log2f.obj
 0002:00009060       __real@3fd3441300000000    10079060     libucrt:log2f.obj
 0002:00009068       __real@3fd995c220000000    10079068     libucrt:log2f.obj
 0002:00009070       __real@3fdbcb7b00000000    10079070     libucrt:log2f.obj
 0002:00009078       __real@3fdbcb7b20000000    10079078     libucrt:log2f.obj
 0002:00009080       __real@3fe5555800000000    10079080     libucrt:log2f.obj
 0002:00009088       __real@3fe62e42c0000000    10079088     libucrt:log2f.obj
 0002:00009090       __real@3ff7154760000000    10079090     libucrt:log2f.obj
 0002:000093f8       _standard_lookup_table     100793f8     libucrt:output.obj
 0002:00009458       _format_validation_lookup_table 10079458     libucrt:output.obj
 0002:000094b4       ??_C@_1O@CEDCILHN@?$AA?$CI?$AAn?$AAu?$AAl?$AAl?$AA?$CJ@ 100794b4     libucrt:output.obj
 0002:000094c4       ??_C@_06OJHGLDPL@?$CInull?$CJ@ 100794c4     libucrt:output.obj
 0002:000094d0       __OP_FMODjmptab            100794d0     libucrt:87fmod_impl.obj
 0002:00009520       ?large_power_data@?1??multiply_by_power_of_ten@__crt_strtox@@YA_NAAUbig_integer@2@I@Z@4QBIB 10079520     libucrt:atof.obj
 0002:00009ec0       ?small_powers_of_ten@?1??multiply_by_power_of_ten@__crt_strtox@@YA_NAAUbig_integer@2@I@Z@4QBIB 10079ec0     libucrt:atof.obj
 0002:00009ee8       ??_C@_1GE@DPGDJKLM@?$AAm?$AAi?$AAn?$AAk?$AAe?$AAr?$AAn?$AAe?$AAl?$AA?2?$AAc?$AAr?$AAt?$AAs?$AA?2@ 10079ee8     libucrt:atof.obj
 0002:00009f50       ??_C@_1FM@FELNCOBF@?$AA_?$AA_?$AAc?$AAr?$AAt?$AA_?$AAs?$AAt?$AAr?$AAt?$AAo?$AAx?$AA?3?$AA?3?$AAf@ 10079f50     libucrt:atof.obj
 0002:00009fac       ??_C@_1BG@GEMHBGAF@?$AA_?$AAi?$AAs?$AA_?$AAd?$AAo?$AAu?$AAb?$AAl?$AAe@ 10079fac     libucrt:atof.obj
 0002:00009fc8       ??_C@_1FK@JOJELFFO@?$AA_?$AA_?$AAc?$AAr?$AAt?$AA_?$AAs?$AAt?$AAr?$AAt?$AAo?$AAx?$AA?3?$AA?3?$AAf@ 10079fc8     libucrt:atof.obj
 0002:0000a024       ??_C@_1BI@BANMPGJI@?$AA?$CB?$AA_?$AAi?$AAs?$AA_?$AAd?$AAo?$AAu?$AAb?$AAl?$AAe@ 1007a024     libucrt:atof.obj
 0002:0000a03c       ?inf_uppercase@?1???$parse_floating_point_possible_infinity@DV?$c_string_character_source@D@__crt_strtox@@PBD@__crt_strtox@@YA?AW4floating_point_parse_result@1@AADAAV?$c_string_character_source@D@1@PBD@Z@4QBDB 1007a03c     libucrt:atof.obj
 0002:0000a040       ?inf_lowercase@?1???$parse_floating_point_possible_infinity@DV?$c_string_character_source@D@__crt_strtox@@PBD@__crt_strtox@@YA?AW4floating_point_parse_result@1@AADAAV?$c_string_character_source@D@1@PBD@Z@4QBDB 1007a040     libucrt:atof.obj
 0002:0000a044       ?inity_uppercase@?1???$parse_floating_point_possible_infinity@DV?$c_string_character_source@D@__crt_strtox@@PBD@__crt_strtox@@YA?AW4floating_point_parse_result@1@AADAAV?$c_string_character_source@D@1@PBD@Z@4QBDB 1007a044     libucrt:atof.obj
 0002:0000a04c       ?inity_lowercase@?1???$parse_floating_point_possible_infinity@DV?$c_string_character_source@D@__crt_strtox@@PBD@__crt_strtox@@YA?AW4floating_point_parse_result@1@AADAAV?$c_string_character_source@D@1@PBD@Z@4QBDB 1007a04c     libucrt:atof.obj
 0002:0000a054       ?uppercase@?1???$parse_floating_point_possible_nan@DV?$c_string_character_source@D@__crt_strtox@@PBD@__crt_strtox@@YA?AW4floating_point_parse_result@1@AADAAV?$c_string_character_source@D@1@PBD@Z@4QBDB 1007a054     libucrt:atof.obj
 0002:0000a058       ?lowercase@?1???$parse_floating_point_possible_nan@DV?$c_string_character_source@D@__crt_strtox@@PBD@__crt_strtox@@YA?AW4floating_point_parse_result@1@AADAAV?$c_string_character_source@D@1@PBD@Z@4QBDB 1007a058     libucrt:atof.obj
 0002:0000a05c       ?uppercase@?1???$parse_floating_point_possible_nan_is_snan@DV?$c_string_character_source@D@__crt_strtox@@@__crt_strtox@@YA_NAADAAV?$c_string_character_source@D@1@@Z@4QBDB 1007a05c     libucrt:atof.obj
 0002:0000a064       ?lowercase@?1???$parse_floating_point_possible_nan_is_snan@DV?$c_string_character_source@D@__crt_strtox@@@__crt_strtox@@YA_NAADAAV?$c_string_character_source@D@1@@Z@4QBDB 1007a064     libucrt:atof.obj
 0002:0000a06c       ?uppercase@?1???$parse_floating_point_possible_nan_is_ind@DV?$c_string_character_source@D@__crt_strtox@@@__crt_strtox@@YA_NAADAAV?$c_string_character_source@D@1@@Z@4QBDB 1007a06c     libucrt:atof.obj
 0002:0000a070       ?lowercase@?1???$parse_floating_point_possible_nan_is_ind@DV?$c_string_character_source@D@__crt_strtox@@@__crt_strtox@@YA_NAADAAV?$c_string_character_source@D@1@@Z@4QBDB 1007a070     libucrt:atof.obj
 0002:0000a078       __real@8000000000000000    1007a078     libucrt:frexp.obj
 0002:0000a0a8       ___newctype                1007a0a8     libucrt:ctype.obj
 0002:0000a3a8       ___newclmap                1007a3a8     libucrt:ctype.obj
 0002:0000a528       ___newcumap                1007a528     libucrt:ctype.obj
 0002:0000a6a8       __wctype                   1007a6a8     libucrt:ctype.obj
 0002:0000a8b4       __half                     1007a8b4     libucrt:pow_impl.obj
 0002:0000a8bc       ??_C@_1M@PBPMMENC@?$AAa?$AAm?$AA?1?$AAp?$AAm@ 1007a8bc     libucrt:wcsftime.obj
 0002:0000a8c8       ??_C@_17BLFJJHMM@?$AAa?$AA?1?$AAp@ 1007a8c8     libucrt:wcsftime.obj
 0002:0000a8d0       ??_C@_13HOIJIPNN@?$AA?5@   1007a8d0     libucrt:wcsftime.obj
 0002:0000a8d4       ??_C@_13CGOKJPIL@?$AA?1@   1007a8d4     libucrt:wcsftime.obj
 0002:0000a8d8       ??_C@_13LBAGMAIH@?$AA?6@   1007a8d8     libucrt:wcsftime.obj
 0002:0000a8dc       ??_C@_13EBCNDICG@?$AA?3@   1007a8dc     libucrt:wcsftime.obj
 0002:0000a8e0       ??_C@_13KDLDGPGJ@?$AA?7@   1007a8e0     libucrt:wcsftime.obj
 0002:0000a8e4       ??_C@_13KJIIAINM@?$AA?$CL@ 1007a8e4     libucrt:wcsftime.obj
 0002:0000a8e8       ??_C@_13EJFHHPOP@?$AA?$CF@ 1007a8e8     libucrt:wcsftime.obj
 0002:0000a8f0       ___acrt_exception_action_table 1007a8f0     libucrt:exception_filter.obj
 0002:0000a980       ___acrt_signal_action_table_count 1007a980     libucrt:exception_filter.obj
 0002:0000a984       ___acrt_signal_action_first_fpe_index 1007a984     libucrt:exception_filter.obj
 0002:0000a988       ___acrt_signal_action_fpe_count 1007a988     libucrt:exception_filter.obj
 0002:0000a98c       ??_C@_1BI@BGOHAHKC@?$AAm?$AAs?$AAc?$AAo?$AAr?$AAe?$AAe?$AA?4?$AAd?$AAl?$AAl@ 1007a98c     libucrt:exit.obj
 0002:0000a9a4       ??_C@_0P@MIGLKIOC@CorExitProcess@ 1007a9a4     libucrt:exit.obj
 0002:0000aa50       ___acrt_cos_sin_ctable     1007aa50     libucrt:cos_sin_ctable.obj
 0002:0000b258       ??_C@_03MGHMBJCF@log@      1007b258     libucrt:libm_error.obj
 0002:0000b25c       ??_C@_05HGHHAHAP@log10@    1007b25c     libucrt:libm_error.obj
 0002:0000b264       ??_C@_03KHJOGHMM@exp@      1007b264     libucrt:libm_error.obj
 0002:0000b268       ??_C@_03JGHBODFD@pow@      1007b268     libucrt:libm_error.obj
 0002:0000b26c       ??_C@_04FIHNOPOL@asin@     1007b26c     libucrt:libm_error.obj
 0002:0000b274       ??_C@_04PDIFKINK@acos@     1007b274     libucrt:libm_error.obj
 0002:0000b27c       ??_C@_04EIAKFFMI@sqrt@     1007b27c     libucrt:libm_error.obj
 0002:0000b288       __FInf_C                   1007b288     libucrt:_values.obj
 0002:0000b290       __FNan_C                   1007b290     libucrt:_values.obj
 0002:0000b2a0       __OP_ATAN2jmptab           1007b2a0     libucrt:87triga.obj
 0002:0000b330       ___acrt_acos_asin_tbl_addr 1007b330     libucrt:acos_asin_tbl_addr.obj
 0002:0000c230       ___acrt_acos_asin_t_table  1007c230     libucrt:acos_asin_t_table.obj
 0002:0000ca30       ___acrt_pow_rcp_t1         1007ca30     libucrt:pow_tables.obj
 0002:0000ce40       ___acrt_pow_log2_t1        1007ce40     libucrt:pow_tables.obj
 0002:0000d650       ___acrt_pow_rcp_t2         1007d650     libucrt:pow_tables.obj
 0002:0000da60       ___acrt_pow_log2_t2        1007da60     libucrt:pow_tables.obj
 0002:0000e270       ___acrt_pow_rcp_t3         1007e270     libucrt:pow_tables.obj
 0002:0000ea80       ___acrt_pow_log2_t3        1007ea80     libucrt:pow_tables.obj
 0002:0000fa90       ___acrt_pow_clv            1007fa90     libucrt:pow_tables.obj
 0002:0000fab0       ___acrt_pow_exp2_tbl       1007fab0     libucrt:pow_tables.obj
 0002:000102f0       ??_C@_03OEIAHPBN@INF@      100802f0     libucrt:cvt.obj
 0002:000102f4       ??_C@_03OJHLLCGB@inf@      100802f4     libucrt:cvt.obj
 0002:000102f8       ??_C@_03LKNCIKJB@NAN@      100802f8     libucrt:cvt.obj
 0002:000102fc       ??_C@_03LHCJEHON@nan@      100802fc     libucrt:cvt.obj
 0002:00010300       ??_C@_09OFJJIMPC@NAN?$CISNAN?$CJ@ 10080300     libucrt:cvt.obj
 0002:0001030c       ??_C@_09IPFBKMDL@nan?$CIsnan?$CJ@ 1008030c     libucrt:cvt.obj
 0002:00010318       ??_C@_08IKHNHAJ@NAN?$CIIND?$CJ@ 10080318     libucrt:cvt.obj
 0002:00010324       ??_C@_08OFCDMILK@nan?$CIind?$CJ@ 10080324     libucrt:cvt.obj
 0002:00010330       ??_C@_05KLBDPFGC@e?$CL000@ 10080330     libucrt:cvt.obj
 0002:000103b8       ___lc_category             100803b8     libucrt:wsetlocale.obj
 0002:00010400       ??_C@_1O@GIFLHMA@?$AAL?$AAC?$AA_?$AAA?$AAL?$AAL@ 10080400     libucrt:wsetlocale.obj
 0002:00010410       ??_C@_1BG@PPOMIBNJ@?$AAL?$AAC?$AA_?$AAC?$AAO?$AAL?$AAL?$AAA?$AAT?$AAE@ 10080410     libucrt:wsetlocale.obj
 0002:00010428       ??_C@_1BC@FFJGAPJM@?$AAL?$AAC?$AA_?$AAC?$AAT?$AAY?$AAP?$AAE@ 10080428     libucrt:wsetlocale.obj
 0002:0001043c       ??_C@_1BI@PCKFNJFB@?$AAL?$AAC?$AA_?$AAM?$AAO?$AAN?$AAE?$AAT?$AAA?$AAR?$AAY@ 1008043c     libucrt:wsetlocale.obj
 0002:00010454       ??_C@_1BG@ENIEDKID@?$AAL?$AAC?$AA_?$AAN?$AAU?$AAM?$AAE?$AAR?$AAI?$AAC@ 10080454     libucrt:wsetlocale.obj
 0002:0001046c       ??_C@_1BA@HAAOMIIG@?$AAL?$AAC?$AA_?$AAT?$AAI?$AAM?$AAE@ 1008046c     libucrt:wsetlocale.obj
 0002:0001047c       ??_C@_15NBPDDFIP@?$AA?$DN?$AA?$DL@ 1008047c     libucrt:wsetlocale.obj
 0002:00010484       ??_C@_13PJJBFPED@?$AA?$DL@ 10080484     libucrt:wsetlocale.obj
 0002:00010488       ??_C@_13NMPKAAJP@?$AA?$DN@ 10080488     libucrt:wsetlocale.obj
 0002:0001048c       ??_C@_17EFJLDFDO@?$AA?9?$AA_?$AA?4@ 1008048c     libucrt:wsetlocale.obj
 0002:00010494       ??_C@_13FHBKNHDA@?$AAC@    10080494     libucrt:wsetlocale.obj
 0002:00010498       ??_C@_17MBJJLFDM@?$AA_?$AA?4?$AA?0@ 10080498     libucrt:wsetlocale.obj
 0002:000104a0       ??_C@_13ENNFDPBH@?$AA_@    100804a0     libucrt:wsetlocale.obj
 0002:000104a4       ??_C@_13JOFGPIOO@?$AA?4@   100804a4     libucrt:wsetlocale.obj
 0002:000104a8       ___lc_time_c               100804a8     libucrt:nlsdata.obj
 0002:0001060c       ??_C@_03KOEHGMDN@Sun@      1008060c     libucrt:nlsdata.obj
 0002:00010610       ??_C@_03PDAGKDH@Mon@       10080610     libucrt:nlsdata.obj
 0002:00010614       ??_C@_03NAGEINEP@Tue@      10080614     libucrt:nlsdata.obj
 0002:00010618       ??_C@_03MHOMLAJA@Wed@      10080618     libucrt:nlsdata.obj
 0002:0001061c       ??_C@_03IOFIKPDN@Thu@      1008061c     libucrt:nlsdata.obj
 0002:00010620       ??_C@_03IDIOELNC@Fri@      10080620     libucrt:nlsdata.obj
 0002:00010624       ??_C@_03FEFJNEK@Sat@       10080624     libucrt:nlsdata.obj
 0002:00010628       ??_C@_06OOPIFAJ@Sunday@    10080628     libucrt:nlsdata.obj
 0002:00010630       ??_C@_06JLEDEDGH@Monday@   10080630     libucrt:nlsdata.obj
 0002:00010638       ??_C@_07BAAGCFCM@Tuesday@  10080638     libucrt:nlsdata.obj
 0002:00010640       ??_C@_09DLIGFAKA@Wednesday@ 10080640     libucrt:nlsdata.obj
 0002:0001064c       ??_C@_08HACCIKIA@Thursday@ 1008064c     libucrt:nlsdata.obj
 0002:00010658       ??_C@_06JECMNKMI@Friday@   10080658     libucrt:nlsdata.obj
 0002:00010660       ??_C@_08INBOOONO@Saturday@ 10080660     libucrt:nlsdata.obj
 0002:0001066c       ??_C@_03JIHJHPIE@Jan@      1008066c     libucrt:nlsdata.obj
 0002:00010670       ??_C@_03HJBDCHOM@Feb@      10080670     libucrt:nlsdata.obj
 0002:00010674       ??_C@_03ODNJBKGA@Mar@      10080674     libucrt:nlsdata.obj
 0002:00010678       ??_C@_03LEOLGMJP@Apr@      10080678     libucrt:nlsdata.obj
 0002:0001067c       ??_C@_03CNMDKL@May@        1008067c     libucrt:nlsdata.obj
 0002:00010680       ??_C@_03IDFGHECI@Jun@      10080680     libucrt:nlsdata.obj
 0002:00010684       ??_C@_03LBGABGKK@Jul@      10080684     libucrt:nlsdata.obj
 0002:00010688       ??_C@_03IFJFEIGA@Aug@      10080688     libucrt:nlsdata.obj
 0002:0001068c       ??_C@_03GGCAPAJC@Sep@      1008068c     libucrt:nlsdata.obj
 0002:00010690       ??_C@_03BMAOKBAD@Oct@      10080690     libucrt:nlsdata.obj
 0002:00010694       ??_C@_03JPJOFNIA@Nov@      10080694     libucrt:nlsdata.obj
 0002:00010698       ??_C@_03MKABNOCG@Dec@      10080698     libucrt:nlsdata.obj
 0002:0001069c       ??_C@_07CGJPFGJA@January@  1008069c     libucrt:nlsdata.obj
 0002:000106a4       ??_C@_08GNJGEPFN@February@ 100806a4     libucrt:nlsdata.obj
 0002:000106b0       ??_C@_05HPCKOFNC@March@    100806b0     libucrt:nlsdata.obj
 0002:000106b8       ??_C@_05DMJDNLEJ@April@    100806b8     libucrt:nlsdata.obj
 0002:000106c0       ??_C@_04CNLMGBGM@June@     100806c0     libucrt:nlsdata.obj
 0002:000106c8       ??_C@_04MIEPOIFP@July@     100806c8     libucrt:nlsdata.obj
 0002:000106d0       ??_C@_06LBBHFDDG@August@   100806d0     libucrt:nlsdata.obj
 0002:000106d8       ??_C@_09BHHEALKD@September@ 100806d8     libucrt:nlsdata.obj
 0002:000106e4       ??_C@_07JJNFCEND@October@  100806e4     libucrt:nlsdata.obj
 0002:000106ec       ??_C@_08HCHEGEOA@November@ 100806ec     libucrt:nlsdata.obj
 0002:000106f8       ??_C@_08EDHMEBNP@December@ 100806f8     libucrt:nlsdata.obj
 0002:00010704       ??_C@_02DEDBPAFC@AM@       10080704     libucrt:nlsdata.obj
 0002:00010708       ??_C@_02CJNFDJBF@PM@       10080708     libucrt:nlsdata.obj
 0002:0001070c       ??_C@_08BPBNCDIB@MM?1dd?1yy@ 1008070c     libucrt:nlsdata.obj
 0002:00010718       ??_C@_0BE@CKGJFCPC@dddd?0?5MMMM?5dd?0?5yyyy@ 10080718     libucrt:nlsdata.obj
 0002:0001072c       ??_C@_08JCCMCCIL@HH?3mm?3ss@ 1008072c     libucrt:nlsdata.obj
 0002:00010738       ??_C@_17MBGCMIPB@?$AAS?$AAu?$AAn@ 10080738     libucrt:nlsdata.obj
 0002:00010740       ??_C@_17KBOMKBF@?$AAM?$AAo?$AAn@ 10080740     libucrt:nlsdata.obj
 0002:00010748       ??_C@_17BMKGEGOJ@?$AAT?$AAu?$AAe@ 10080748     libucrt:nlsdata.obj
 0002:00010750       ??_C@_17CJEDCEPE@?$AAW?$AAe?$AAd@ 10080750     libucrt:nlsdata.obj
 0002:00010758       ??_C@_17PDPHAADD@?$AAT?$AAh?$AAu@ 10080758     libucrt:nlsdata.obj
 0002:00010760       ??_C@_17HFOLPPLP@?$AAF?$AAr?$AAi@ 10080760     libucrt:nlsdata.obj
 0002:00010768       ??_C@_17GGIBDPIH@?$AAS?$AAa?$AAt@ 10080768     libucrt:nlsdata.obj
 0002:00010770       ??_C@_1O@IHNHDHPB@?$AAS?$AAu?$AAn?$AAd?$AAa?$AAy@ 10080770     libucrt:nlsdata.obj
 0002:00010780       ??_C@_1O@MMNBFLIA@?$AAM?$AAo?$AAn?$AAd?$AAa?$AAy@ 10080780     libucrt:nlsdata.obj
 0002:00010790       ??_C@_1BA@ENFBFFEK@?$AAT?$AAu?$AAe?$AAs?$AAd?$AAa?$AAy@ 10080790     libucrt:nlsdata.obj
 0002:000107a0       ??_C@_1BE@EBOGMDOH@?$AAW?$AAe?$AAd?$AAn?$AAe?$AAs?$AAd?$AAa?$AAy@ 100807a0     libucrt:nlsdata.obj
 0002:000107b4       ??_C@_1BC@HHMNLIHE@?$AAT?$AAh?$AAu?$AAr?$AAs?$AAd?$AAa?$AAy@ 100807b4     libucrt:nlsdata.obj
 0002:000107c8       ??_C@_1O@PDICJHAG@?$AAF?$AAr?$AAi?$AAd?$AAa?$AAy@ 100807c8     libucrt:nlsdata.obj
 0002:000107d8       ??_C@_1BC@ENMNNPAJ@?$AAS?$AAa?$AAt?$AAu?$AAr?$AAd?$AAa?$AAy@ 100807d8     libucrt:nlsdata.obj
 0002:000107ec       ??_C@_17DKNBKCHM@?$AAJ?$AAa?$AAn@ 100807ec     libucrt:nlsdata.obj
 0002:000107f4       ??_C@_17LMDJEKJN@?$AAF?$AAe?$AAb@ 100807f4     libucrt:nlsdata.obj
 0002:000107fc       ??_C@_17CKNLEDEC@?$AAM?$AAa?$AAr@ 100807fc     libucrt:nlsdata.obj
 0002:00010804       ??_C@_17LFPOIHDD@?$AAA?$AAp?$AAr@ 10080804     libucrt:nlsdata.obj
 0002:0001080c       ??_C@_17PNNKMEED@?$AAM?$AAa?$AAy@ 1008080c     libucrt:nlsdata.obj
 0002:00010814       ??_C@_17KCJGOCPB@?$AAJ?$AAu?$AAn@ 10080814     libucrt:nlsdata.obj
 0002:0001081c       ??_C@_17IJPCKHK@?$AAJ?$AAu?$AAl@ 1008081c     libucrt:nlsdata.obj
 0002:00010824       ??_C@_17ICPELBCN@?$AAA?$AAu?$AAg@ 10080824     libucrt:nlsdata.obj
 0002:0001082c       ??_C@_17HCHCOKMG@?$AAS?$AAe?$AAp@ 1008082c     libucrt:nlsdata.obj
 0002:00010834       ??_C@_17FNLKOI@?$AAO?$AAc?$AAt@ 10080834     libucrt:nlsdata.obj
 0002:0001083c       ??_C@_17BBDMLCIG@?$AAN?$AAo?$AAv@ 1008083c     libucrt:nlsdata.obj
 0002:00010844       ??_C@_17EGKACKIF@?$AAD?$AAe?$AAc@ 10080844     libucrt:nlsdata.obj
 0002:0001084c       ??_C@_1BA@EFMEIEBA@?$AAJ?$AAa?$AAn?$AAu?$AAa?$AAr?$AAy@ 1008084c     libucrt:nlsdata.obj
 0002:0001085c       ??_C@_1BC@JGDDFFAM@?$AAF?$AAe?$AAb?$AAr?$AAu?$AAa?$AAr?$AAy@ 1008085c     libucrt:nlsdata.obj
 0002:00010870       ??_C@_1M@IKEENEDF@?$AAM?$AAa?$AAr?$AAc?$AAh@ 10080870     libucrt:nlsdata.obj
 0002:0001087c       ??_C@_1M@GJNLMHFD@?$AAA?$AAp?$AAr?$AAi?$AAl@ 1008087c     libucrt:nlsdata.obj
 0002:00010888       ??_C@_19EPFLPGAP@?$AAJ?$AAu?$AAn?$AAe@ 10080888     libucrt:nlsdata.obj
 0002:00010894       ??_C@_19BIFMLPCD@?$AAJ?$AAu?$AAl?$AAy@ 10080894     libucrt:nlsdata.obj
 0002:000108a0       ??_C@_1O@PAHLKOAC@?$AAA?$AAu?$AAg?$AAu?$AAs?$AAt@ 100808a0     libucrt:nlsdata.obj
 0002:000108b0       ??_C@_1BE@DKAAMBJL@?$AAS?$AAe?$AAp?$AAt?$AAe?$AAm?$AAb?$AAe?$AAr@ 100808b0     libucrt:nlsdata.obj
 0002:000108c4       ??_C@_1BA@EPANDLNG@?$AAO?$AAc?$AAt?$AAo?$AAb?$AAe?$AAr@ 100808c4     libucrt:nlsdata.obj
 0002:000108d4       ??_C@_1BC@BGLIFPF@?$AAN?$AAo?$AAv?$AAe?$AAm?$AAb?$AAe?$AAr@ 100808d4     libucrt:nlsdata.obj
 0002:000108e8       ??_C@_1BC@FEMKIFH@?$AAD?$AAe?$AAc?$AAe?$AAm?$AAb?$AAe?$AAr@ 100808e8     libucrt:nlsdata.obj
 0002:000108fc       ??_C@_15ODEHAHHF@?$AAA?$AAM@ 100808fc     libucrt:nlsdata.obj
 0002:00010904       ??_C@_15CLMNNGEL@?$AAP?$AAM@ 10080904     libucrt:nlsdata.obj
 0002:0001090c       ??_C@_1BC@IEBCMHCM@?$AAM?$AAM?$AA?1?$AAd?$AAd?$AA?1?$AAy?$AAy@ 1008090c     libucrt:nlsdata.obj
 0002:00010920       ??_C@_1CI@KNAKOEBC@?$AAd?$AAd?$AAd?$AAd?$AA?0?$AA?5?$AAM?$AAM?$AAM?$AAM?$AA?5?$AAd?$AAd?$AA?0?$AA?5@ 10080920     libucrt:nlsdata.obj
 0002:00010948       ??_C@_1BC@GDGBMEMK@?$AAH?$AAH?$AA?3?$AAm?$AAm?$AA?3?$AAs?$AAs@ 10080948     libucrt:nlsdata.obj
 0002:000109b0       ??_C@_1EA@JGEFHKEI@?$AAa?$AAp?$AAi?$AA?9?$AAm?$AAs?$AA?9?$AAw?$AAi?$AAn?$AA?9?$AAc?$AAo?$AAr?$AAe@ 100809b0     libucrt:winapi_thunks.obj
 0002:000109f0       ??_C@_1DI@IJCEHOCB@?$AAa?$AAp?$AAi?$AA?9?$AAm?$AAs?$AA?9?$AAw?$AAi?$AAn?$AA?9?$AAc?$AAo?$AAr?$AAe@ 100809f0     libucrt:winapi_thunks.obj
 0002:00010a28       ??_C@_1EI@MPIAOHOC@?$AAa?$AAp?$AAi?$AA?9?$AAm?$AAs?$AA?9?$AAw?$AAi?$AAn?$AA?9?$AAc?$AAo?$AAr?$AAe@ 10080a28     libucrt:winapi_thunks.obj
 0002:00010a70       ??_C@_1FK@FPHCKFIE@?$AAa?$AAp?$AAi?$AA?9?$AAm?$AAs?$AA?9?$AAw?$AAi?$AAn?$AA?9?$AAc?$AAo?$AAr?$AAe@ 10080a70     libucrt:winapi_thunks.obj
 0002:00010ad0       ??_C@_1EM@DILCGIIO@?$AAa?$AAp?$AAi?$AA?9?$AAm?$AAs?$AA?9?$AAw?$AAi?$AAn?$AA?9?$AAc?$AAo?$AAr?$AAe@ 10080ad0     libucrt:winapi_thunks.obj
 0002:00010b1c       ??_C@_1DM@LNCGDDPN@?$AAa?$AAp?$AAi?$AA?9?$AAm?$AAs?$AA?9?$AAw?$AAi?$AAn?$AA?9?$AAc?$AAo?$AAr?$AAe@ 10080b1c     libucrt:winapi_thunks.obj
 0002:00010b58       ??_C@_1DO@FPAPJEMD@?$AAa?$AAp?$AAi?$AA?9?$AAm?$AAs?$AA?9?$AAw?$AAi?$AAn?$AA?9?$AAc?$AAo?$AAr?$AAe@ 10080b58     libucrt:winapi_thunks.obj
 0002:00010b98       ??_C@_1DK@NDHNAHIO@?$AAa?$AAp?$AAi?$AA?9?$AAm?$AAs?$AA?9?$AAw?$AAi?$AAn?$AA?9?$AAc?$AAo?$AAr?$AAe@ 10080b98     libucrt:winapi_thunks.obj
 0002:00010bd4       ??_C@_1DM@KGHDGBCM@?$AAa?$AAp?$AAi?$AA?9?$AAm?$AAs?$AA?9?$AAw?$AAi?$AAn?$AA?9?$AAc?$AAo?$AAr?$AAe@ 10080bd4     libucrt:winapi_thunks.obj
 0002:00010c10       ??_C@_1EO@IJIOEFOH@?$AAa?$AAp?$AAi?$AA?9?$AAm?$AAs?$AA?9?$AAw?$AAi?$AAn?$AA?9?$AAr?$AAt?$AAc?$AAo@ 10080c10     libucrt:winapi_thunks.obj
 0002:00010c60       ??_C@_1FG@HHGEKANL@?$AAa?$AAp?$AAi?$AA?9?$AAm?$AAs?$AA?9?$AAw?$AAi?$AAn?$AA?9?$AAs?$AAe?$AAc?$AAu@ 10080c60     libucrt:winapi_thunks.obj
 0002:00010cb8       ??_C@_1EG@DBIOJECG@?$AAe?$AAx?$AAt?$AA?9?$AAm?$AAs?$AA?9?$AAw?$AAi?$AAn?$AA?9?$AAn?$AAt?$AAu?$AAs@ 10080cb8     libucrt:winapi_thunks.obj
 0002:00010d00       ??_C@_1EO@FIHMJCLF@?$AAe?$AAx?$AAt?$AA?9?$AAm?$AAs?$AA?9?$AAw?$AAi?$AAn?$AA?9?$AAn?$AAt?$AAu?$AAs@ 10080d00     libucrt:winapi_thunks.obj
 0002:00010d50       ??_C@_1BC@DNHGCMLG@?$AAa?$AAd?$AAv?$AAa?$AAp?$AAi?$AA3?$AA2@ 10080d50     libucrt:winapi_thunks.obj
 0002:00010d64       ??_C@_1M@OAIMIKLP@?$AAn?$AAt?$AAd?$AAl?$AAl@ 10080d64     libucrt:winapi_thunks.obj
 0002:00010d70       ??_C@_1EG@DPGNFKGC@?$AAa?$AAp?$AAi?$AA?9?$AAm?$AAs?$AA?9?$AAw?$AAi?$AAn?$AA?9?$AAa?$AAp?$AAp?$AAm@ 10080d70     libucrt:winapi_thunks.obj
 0002:00010db8       ??_C@_1O@BCCLBEOE@?$AAu?$AAs?$AAe?$AAr?$AA3?$AA2@ 10080db8     libucrt:winapi_thunks.obj
 0002:00010dcc       ??_C@_0BA@FHFNEAED@AreFileApisANSI@ 10080dcc     libucrt:winapi_thunks.obj
 0002:00010dec       ??_C@_0BE@LJANKFHF@EnumSystemLocalesEx@ 10080dec     libucrt:winapi_thunks.obj
 0002:00010e28       ??_C@_0BA@EPCJIIPD@GetDateFormatEx@ 10080e28     libucrt:winapi_thunks.obj
 0002:00010e48       ??_C@_0BA@CIJJKCJJ@GetTimeFormatEx@ 10080e48     libucrt:winapi_thunks.obj
 0002:00010e60       ??_C@_0BJ@PBCCBIPI@GetUserDefaultLocaleName@ 10080e60     libucrt:winapi_thunks.obj
 0002:00010e8c       ??_C@_0BC@CELBKLLA@IsValidLocaleName@ 10080e8c     libucrt:winapi_thunks.obj
 0002:00010eb0       ??_C@_0BB@CDHDDLLP@LCIDToLocaleName@ 10080eb0     libucrt:winapi_thunks.obj
 0002:00010ecc       ??_C@_0BB@HBDEELFH@LocaleNameToLCID@ 10080ecc     libucrt:winapi_thunks.obj
 0002:00010ee4       ??_C@_0CF@OJOFEIGO@AppPolicyGetProcessTerminationM@ 10080ee4     libucrt:winapi_thunks.obj
 0002:00010f14       ??_C@_0BC@JEAENNKH@SystemFunction036@ 10080f14     libucrt:winapi_thunks.obj
 0002:00010f30       __indefinite               10080f30     libucrt:87disp.obj
 0002:00010f3a       __piby2                    10080f3a     libucrt:87disp.obj
 0002:00010f44       __piby4                    10080f44     libucrt:87disp.obj
 0002:00010f70       ?ccs@?1???$__acrt_stdio_parse_mode@D@@YA?AU__acrt_stdio_stream_mode@@QBD@Z@4QBDB 10080f70     libucrt:openfile.obj
 0002:00010f74       ?utf8_encoding@?1???$__acrt_stdio_parse_mode@D@@YA?AU__acrt_stdio_stream_mode@@QBD@Z@4QBDB 10080f74     libucrt:openfile.obj
 0002:00010f7c       ?utf16_encoding@?1???$__acrt_stdio_parse_mode@D@@YA?AU__acrt_stdio_stream_mode@@QBD@Z@4QBDB 10080f7c     libucrt:openfile.obj
 0002:00010f84       ?unicode_encoding@?1???$__acrt_stdio_parse_mode@D@@YA?AU__acrt_stdio_stream_mode@@QBD@Z@4QBDB 10080f84     libucrt:openfile.obj
 0002:00011078       ??_C@_04COOMCNPB@sinh@     10081078     libucrt:fpexcept.obj
 0002:00011080       ??_C@_04HPJJNFIM@cosh@     10081080     libucrt:fpexcept.obj
 0002:00011088       ??_C@_04FJHINJAO@tanh@     10081088     libucrt:fpexcept.obj
 0002:00011090       ??_C@_04MLLJIGOK@atan@     10081090     libucrt:fpexcept.obj
 0002:00011098       ??_C@_05KNGEOGJB@atan2@    10081098     libucrt:fpexcept.obj
 0002:000110a0       ??_C@_03BLEJJJBH@sin@      100810a0     libucrt:fpexcept.obj
 0002:000110a4       ??_C@_03LALBNOCG@cos@      100810a4     libucrt:fpexcept.obj
 0002:000110a8       ??_C@_03IIINPABG@tan@      100810a8     libucrt:fpexcept.obj
 0002:000110ac       ??_C@_04GFPJNGEK@ceil@     100810ac     libucrt:fpexcept.obj
 0002:000110b4       ??_C@_05PBJFFIGL@floor@    100810b4     libucrt:fpexcept.obj
 0002:000110bc       ??_C@_04ODHECPBC@fabs@     100810bc     libucrt:fpexcept.obj
 0002:000110c4       ??_C@_04EHEDPDJG@modf@     100810c4     libucrt:fpexcept.obj
 0002:000110cc       ??_C@_05CEJMAHNP@ldexp@    100810cc     libucrt:fpexcept.obj
 0002:000110d4       ??_C@_05KBKMEMPO@_cabs@    100810d4     libucrt:fpexcept.obj
 0002:000110dc       ??_C@_06MEIMCGCF@_hypot@   100810dc     libucrt:fpexcept.obj
 0002:000110e4       ??_C@_04KEPJIHGP@fmod@     100810e4     libucrt:fpexcept.obj
 0002:000110ec       ??_C@_05GKKHEGJL@frexp@    100810ec     libucrt:fpexcept.obj
 0002:000110f4       ??_C@_03MJLDFKDL@_y0@      100810f4     libucrt:fpexcept.obj
 0002:000110f8       ??_C@_03NAKIGLHK@_y1@      100810f8     libucrt:fpexcept.obj
 0002:000110fc       ??_C@_03ONILCKOB@_yn@      100810fc     libucrt:fpexcept.obj
 0002:00011100       ??_C@_05JGDBENOH@_logb@    10081100     libucrt:fpexcept.obj
 0002:00011108       ??_C@_0L@KDOEJCKC@_nextafter@ 10081108     libucrt:fpexcept.obj
 0002:00011118       __d_inf                    10081118     libucrt:util.obj
 0002:00011120       __d_max                    10081120     libucrt:util.obj
 0002:00011128       __d_mzero                  10081128     libucrt:util.obj
 0002:00011148       ??_C@_02CLFPBFFP@TZ@       10081148     libucrt:tzset.obj
 0002:00011210       __infinity                 10081210     libucrt:87tran.obj
 0002:0001121a       __minfinity                1008121a     libucrt:87tran.obj
 0002:00011224       __logemax                  10081224     libucrt:87tran.obj
 0002:0001124a       __OP_EXPjmptab             1008124a     libucrt:87tran.obj
 0002:00011278       __DEFAULT_CW_in_mem        10081278     libucrt:common.obj
 0002:0001127a       __pi_by_2_to_61            1008127a     libucrt:common.obj
 0002:000115a8       ??_C@_05DNEBIAHO@1?$CDINF@ 100815a8     libucrt:cfout.obj
 0002:000115b0       ??_C@_06IMKFLFPG@1?$CDQNAN@ 100815b0     libucrt:cfout.obj
 0002:000115b8       ??_C@_06PGGFOGJG@1?$CDSNAN@ 100815b8     libucrt:cfout.obj
 0002:000115c0       ??_C@_05PHHOCPM@1?$CDIND@  100815c0     libucrt:cfout.obj
 0002:000115c8       ___acrt_rg_language        100815c8     libucrt:get_qualified_locale.obj
 0002:000118d4       ___acrt_rg_language_count  100818d4     libucrt:get_qualified_locale.obj
 0002:000118d8       ___acrt_rg_country         100818d8     libucrt:get_qualified_locale.obj
 0002:000119ec       ___acrt_rg_country_count   100819ec     libucrt:get_qualified_locale.obj
 0002:000119f0       ??_C@_1BC@LLOKLNP@?$AAa?$AAm?$AAe?$AAr?$AAi?$AAc?$AAa?$AAn@ 100819f0     libucrt:get_qualified_locale.obj
 0002:00011a04       ??_C@_1CC@HEIGCDGG@?$AAa?$AAm?$AAe?$AAr?$AAi?$AAc?$AAa?$AAn?$AA?5?$AAe?$AAn?$AAg?$AAl?$AAi?$AAs@ 10081a04     libucrt:get_qualified_locale.obj
 0002:00011a28       ??_C@_1CC@IHCNOMIN@?$AAa?$AAm?$AAe?$AAr?$AAi?$AAc?$AAa?$AAn?$AA?9?$AAe?$AAn?$AAg?$AAl?$AAi?$AAs@ 10081a28     libucrt:get_qualified_locale.obj
 0002:00011a4c       ??_C@_1BG@GKAGPCGG@?$AAa?$AAu?$AAs?$AAt?$AAr?$AAa?$AAl?$AAi?$AAa?$AAn@ 10081a4c     libucrt:get_qualified_locale.obj
 0002:00011a64       ??_C@_1BA@GMENCENF@?$AAb?$AAe?$AAl?$AAg?$AAi?$AAa?$AAn@ 10081a64     libucrt:get_qualified_locale.obj
 0002:00011a74       ??_C@_1BC@PJMIIAAN@?$AAc?$AAa?$AAn?$AAa?$AAd?$AAi?$AAa?$AAn@ 10081a74     libucrt:get_qualified_locale.obj
 0002:00011a88       ??_C@_17NOIMNFBF@?$AAc?$AAh?$AAh@ 10081a88     libucrt:get_qualified_locale.obj
 0002:00011a90       ??_C@_17GGDALCHA@?$AAc?$AAh?$AAi@ 10081a90     libucrt:get_qualified_locale.obj
 0002:00011a98       ??_C@_1BA@NPNJKIBL@?$AAc?$AAh?$AAi?$AAn?$AAe?$AAs?$AAe@ 10081a98     libucrt:get_qualified_locale.obj
 0002:00011aa8       ??_C@_1CC@DINBAMMJ@?$AAc?$AAh?$AAi?$AAn?$AAe?$AAs?$AAe?$AA?9?$AAh?$AAo?$AAn?$AAg?$AAk?$AAo?$AAn@ 10081aa8     libucrt:get_qualified_locale.obj
 0002:00011acc       ??_C@_1CG@IOBJPACO@?$AAc?$AAh?$AAi?$AAn?$AAe?$AAs?$AAe?$AA?9?$AAs?$AAi?$AAm?$AAp?$AAl?$AAi?$AAf@ 10081acc     libucrt:get_qualified_locale.obj
 0002:00011af4       ??_C@_1CE@GAJNDCKG@?$AAc?$AAh?$AAi?$AAn?$AAe?$AAs?$AAe?$AA?9?$AAs?$AAi?$AAn?$AAg?$AAa?$AAp?$AAo@ 10081af4     libucrt:get_qualified_locale.obj
 0002:00011b18       ??_C@_1CI@PAJPIOOD@?$AAc?$AAh?$AAi?$AAn?$AAe?$AAs?$AAe?$AA?9?$AAt?$AAr?$AAa?$AAd?$AAi?$AAt?$AAi@ 10081b18     libucrt:get_qualified_locale.obj
 0002:00011b40       ??_C@_1BM@NILJBMMD@?$AAd?$AAu?$AAt?$AAc?$AAh?$AA?9?$AAb?$AAe?$AAl?$AAg?$AAi?$AAa?$AAn@ 10081b40     libucrt:get_qualified_locale.obj
 0002:00011b5c       ??_C@_1CC@OOJPJNEJ@?$AAe?$AAn?$AAg?$AAl?$AAi?$AAs?$AAh?$AA?9?$AAa?$AAm?$AAe?$AAr?$AAi?$AAc?$AAa@ 10081b5c     libucrt:get_qualified_locale.obj
 0002:00011b80       ??_C@_1BI@IOLFEEM@?$AAe?$AAn?$AAg?$AAl?$AAi?$AAs?$AAh?$AA?9?$AAa?$AAu?$AAs@ 10081b80     libucrt:get_qualified_locale.obj
 0002:00011b98       ??_C@_1BO@HFFNLENJ@?$AAe?$AAn?$AAg?$AAl?$AAi?$AAs?$AAh?$AA?9?$AAb?$AAe?$AAl?$AAi?$AAz?$AAe@ 10081b98     libucrt:get_qualified_locale.obj
 0002:00011bb8       ??_C@_1BI@HAPKJMPO@?$AAe?$AAn?$AAg?$AAl?$AAi?$AAs?$AAh?$AA?9?$AAc?$AAa?$AAn@ 10081bb8     libucrt:get_qualified_locale.obj
 0002:00011bd0       ??_C@_1CE@HLNDMIOJ@?$AAe?$AAn?$AAg?$AAl?$AAi?$AAs?$AAh?$AA?9?$AAc?$AAa?$AAr?$AAi?$AAb?$AAb?$AAe@ 10081bd0     libucrt:get_qualified_locale.obj
 0002:00011bf4       ??_C@_1BI@LDHJHHAC@?$AAe?$AAn?$AAg?$AAl?$AAi?$AAs?$AAh?$AA?9?$AAi?$AAr?$AAe@ 10081bf4     libucrt:get_qualified_locale.obj
 0002:00011c0c       ??_C@_1CA@NJMMCFOC@?$AAe?$AAn?$AAg?$AAl?$AAi?$AAs?$AAh?$AA?9?$AAj?$AAa?$AAm?$AAa?$AAi?$AAc?$AAa@ 10081c0c     libucrt:get_qualified_locale.obj
 0002:00011c2c       ??_C@_1BG@BHJEBBGG@?$AAe?$AAn?$AAg?$AAl?$AAi?$AAs?$AAh?$AA?9?$AAn?$AAz@ 10081c2c     libucrt:get_qualified_locale.obj
 0002:00011c44       ??_C@_1CK@FGOEJJCO@?$AAe?$AAn?$AAg?$AAl?$AAi?$AAs?$AAh?$AA?9?$AAs?$AAo?$AAu?$AAt?$AAh?$AA?5?$AAa@ 10081c44     libucrt:get_qualified_locale.obj
 0002:00011c70       ??_C@_1DE@PDBJPCJ@?$AAe?$AAn?$AAg?$AAl?$AAi?$AAs?$AAh?$AA?9?$AAt?$AAr?$AAi?$AAn?$AAi?$AAd?$AAa@ 10081c70     libucrt:get_qualified_locale.obj
 0002:00011ca4       ??_C@_1BG@JGCANDME@?$AAe?$AAn?$AAg?$AAl?$AAi?$AAs?$AAh?$AA?9?$AAu?$AAk@ 10081ca4     libucrt:get_qualified_locale.obj
 0002:00011cbc       ??_C@_1BG@DINKMLE@?$AAe?$AAn?$AAg?$AAl?$AAi?$AAs?$AAh?$AA?9?$AAu?$AAs@ 10081cbc     libucrt:get_qualified_locale.obj
 0002:00011cd4       ??_C@_1BI@NMFDBHJE@?$AAe?$AAn?$AAg?$AAl?$AAi?$AAs?$AAh?$AA?9?$AAu?$AAs?$AAa@ 10081cd4     libucrt:get_qualified_locale.obj
 0002:00011cec       ??_C@_1BO@OIHKJKII@?$AAf?$AAr?$AAe?$AAn?$AAc?$AAh?$AA?9?$AAb?$AAe?$AAl?$AAg?$AAi?$AAa?$AAn@ 10081cec     libucrt:get_qualified_locale.obj
 0002:00011d0c       ??_C@_1CA@NKAELJKI@?$AAf?$AAr?$AAe?$AAn?$AAc?$AAh?$AA?9?$AAc?$AAa?$AAn?$AAa?$AAd?$AAi?$AAa?$AAn@ 10081d0c     libucrt:get_qualified_locale.obj
 0002:00011d2c       ??_C@_1CE@MGKCNLGN@?$AAf?$AAr?$AAe?$AAn?$AAc?$AAh?$AA?9?$AAl?$AAu?$AAx?$AAe?$AAm?$AAb?$AAo?$AAu@ 10081d2c     libucrt:get_qualified_locale.obj
 0002:00011d50       ??_C@_1BK@CEGEAILM@?$AAf?$AAr?$AAe?$AAn?$AAc?$AAh?$AA?9?$AAs?$AAw?$AAi?$AAs?$AAs@ 10081d50     libucrt:get_qualified_locale.obj
 0002:00011d6c       ??_C@_1CA@PAFKEOCC@?$AAg?$AAe?$AAr?$AAm?$AAa?$AAn?$AA?9?$AAa?$AAu?$AAs?$AAt?$AAr?$AAi?$AAa?$AAn@ 10081d6c     libucrt:get_qualified_locale.obj
 0002:00011d8c       ??_C@_1CI@HCFHGOFD@?$AAg?$AAe?$AAr?$AAm?$AAa?$AAn?$AA?9?$AAl?$AAi?$AAc?$AAh?$AAt?$AAe?$AAn?$AAs@ 10081d8c     libucrt:get_qualified_locale.obj
 0002:00011db4       ??_C@_1CE@FEDDNPDG@?$AAg?$AAe?$AAr?$AAm?$AAa?$AAn?$AA?9?$AAl?$AAu?$AAx?$AAe?$AAm?$AAb?$AAo?$AAu@ 10081db4     libucrt:get_qualified_locale.obj
 0002:00011dd8       ??_C@_1BK@LIMINNMN@?$AAg?$AAe?$AAr?$AAm?$AAa?$AAn?$AA?9?$AAs?$AAw?$AAi?$AAs?$AAs@ 10081dd8     libucrt:get_qualified_locale.obj
 0002:00011df4       ??_C@_1BM@LGMDBEPD@?$AAi?$AAr?$AAi?$AAs?$AAh?$AA?9?$AAe?$AAn?$AAg?$AAl?$AAi?$AAs?$AAh@ 10081df4     libucrt:get_qualified_locale.obj
 0002:00011e10       ??_C@_1BM@NNCFBAEE@?$AAi?$AAt?$AAa?$AAl?$AAi?$AAa?$AAn?$AA?9?$AAs?$AAw?$AAi?$AAs?$AAs@ 10081e10     libucrt:get_qualified_locale.obj
 0002:00011e2c       ??_C@_1BE@FEDJNPIB@?$AAn?$AAo?$AAr?$AAw?$AAe?$AAg?$AAi?$AAa?$AAn@ 10081e2c     libucrt:get_qualified_locale.obj
 0002:00011e40       ??_C@_1CC@CILKDEIE@?$AAn?$AAo?$AAr?$AAw?$AAe?$AAg?$AAi?$AAa?$AAn?$AA?9?$AAb?$AAo?$AAk?$AAm?$AAa@ 10081e40     libucrt:get_qualified_locale.obj
 0002:00011e64       ??_C@_1CE@DHMMHEPL@?$AAn?$AAo?$AAr?$AAw?$AAe?$AAg?$AAi?$AAa?$AAn?$AA?9?$AAn?$AAy?$AAn?$AAo?$AAr@ 10081e64     libucrt:get_qualified_locale.obj
 0002:00011e88       ??_C@_1CK@OPNMHECD@?$AAp?$AAo?$AAr?$AAt?$AAu?$AAg?$AAu?$AAe?$AAs?$AAe?$AA?9?$AAb?$AAr?$AAa?$AAz@ 10081e88     libucrt:get_qualified_locale.obj
 0002:00011eb4       ??_C@_1CE@KEEHCDB@?$AAs?$AAp?$AAa?$AAn?$AAi?$AAs?$AAh?$AA?9?$AAa?$AAr?$AAg?$AAe?$AAn?$AAt?$AAi@ 10081eb4     libucrt:get_qualified_locale.obj
 0002:00011ed8       ??_C@_1CA@GIAOLHJD@?$AAs?$AAp?$AAa?$AAn?$AAi?$AAs?$AAh?$AA?9?$AAb?$AAo?$AAl?$AAi?$AAv?$AAi?$AAa@ 10081ed8     libucrt:get_qualified_locale.obj
 0002:00011ef8       ??_C@_1BM@OJNDFNPD@?$AAs?$AAp?$AAa?$AAn?$AAi?$AAs?$AAh?$AA?9?$AAc?$AAh?$AAi?$AAl?$AAe@ 10081ef8     libucrt:get_qualified_locale.obj
 0002:00011f14       ??_C@_1CC@OCOLPALL@?$AAs?$AAp?$AAa?$AAn?$AAi?$AAs?$AAh?$AA?9?$AAc?$AAo?$AAl?$AAo?$AAm?$AAb?$AAi@ 10081f14     libucrt:get_qualified_locale.obj
 0002:00011f38       ??_C@_1CG@BPOFMKBB@?$AAs?$AAp?$AAa?$AAn?$AAi?$AAs?$AAh?$AA?9?$AAc?$AAo?$AAs?$AAt?$AAa?$AA?5?$AAr@ 10081f38     libucrt:get_qualified_locale.obj
 0002:00011f60       ??_C@_1DG@IGOBAPBB@?$AAs?$AAp?$AAa?$AAn?$AAi?$AAs?$AAh?$AA?9?$AAd?$AAo?$AAm?$AAi?$AAn?$AAi?$AAc@ 10081f60     libucrt:get_qualified_locale.obj
 0002:00011f98       ??_C@_1CA@JHAPGEGI@?$AAs?$AAp?$AAa?$AAn?$AAi?$AAs?$AAh?$AA?9?$AAe?$AAc?$AAu?$AAa?$AAd?$AAo?$AAr@ 10081f98     libucrt:get_qualified_locale.obj
 0002:00011fb8       ??_C@_1CI@LAPALJPP@?$AAs?$AAp?$AAa?$AAn?$AAi?$AAs?$AAh?$AA?9?$AAe?$AAl?$AA?5?$AAs?$AAa?$AAl?$AAv@ 10081fb8     libucrt:get_qualified_locale.obj
 0002:00011fe0       ??_C@_1CE@PDGBOFOM@?$AAs?$AAp?$AAa?$AAn?$AAi?$AAs?$AAh?$AA?9?$AAg?$AAu?$AAa?$AAt?$AAe?$AAm?$AAa@ 10081fe0     libucrt:get_qualified_locale.obj
 0002:00012004       ??_C@_1CC@NBEBAODI@?$AAs?$AAp?$AAa?$AAn?$AAi?$AAs?$AAh?$AA?9?$AAh?$AAo?$AAn?$AAd?$AAu?$AAr?$AAa@ 10082004     libucrt:get_qualified_locale.obj
 0002:00012028       ??_C@_1CA@LLKGHBMF@?$AAs?$AAp?$AAa?$AAn?$AAi?$AAs?$AAh?$AA?9?$AAm?$AAe?$AAx?$AAi?$AAc?$AAa?$AAn@ 10082028     libucrt:get_qualified_locale.obj
 0002:00012048       ??_C@_1BO@LKNDOIGD@?$AAs?$AAp?$AAa?$AAn?$AAi?$AAs?$AAh?$AA?9?$AAm?$AAo?$AAd?$AAe?$AAr?$AAn@ 10082048     libucrt:get_qualified_locale.obj
 0002:00012068       ??_C@_1CE@NMDMOEEB@?$AAs?$AAp?$AAa?$AAn?$AAi?$AAs?$AAh?$AA?9?$AAn?$AAi?$AAc?$AAa?$AAr?$AAa?$AAg@ 10082068     libucrt:get_qualified_locale.obj
 0002:0001208c       ??_C@_1BO@LLCBEJGB@?$AAs?$AAp?$AAa?$AAn?$AAi?$AAs?$AAh?$AA?9?$AAp?$AAa?$AAn?$AAa?$AAm?$AAa@ 1008208c     libucrt:get_qualified_locale.obj
 0002:000120ac       ??_C@_1CC@FKPGGIHO@?$AAs?$AAp?$AAa?$AAn?$AAi?$AAs?$AAh?$AA?9?$AAp?$AAa?$AAr?$AAa?$AAg?$AAu?$AAa@ 100820ac     libucrt:get_qualified_locale.obj
 0002:000120d0       ??_C@_1BK@CDEIHOOP@?$AAs?$AAp?$AAa?$AAn?$AAi?$AAs?$AAh?$AA?9?$AAp?$AAe?$AAr?$AAu@ 100820d0     libucrt:get_qualified_locale.obj
 0002:000120ec       ??_C@_1CI@GAHAKKGP@?$AAs?$AAp?$AAa?$AAn?$AAi?$AAs?$AAh?$AA?9?$AAp?$AAu?$AAe?$AAr?$AAt?$AAo?$AA?5@ 100820ec     libucrt:get_qualified_locale.obj
 0002:00012114       ??_C@_1CA@NKJBCAGP@?$AAs?$AAp?$AAa?$AAn?$AAi?$AAs?$AAh?$AA?9?$AAu?$AAr?$AAu?$AAg?$AAu?$AAa?$AAy@ 10082114     libucrt:get_qualified_locale.obj
 0002:00012134       ??_C@_1CE@ODILCONM@?$AAs?$AAp?$AAa?$AAn?$AAi?$AAs?$AAh?$AA?9?$AAv?$AAe?$AAn?$AAe?$AAz?$AAu?$AAe@ 10082134     libucrt:get_qualified_locale.obj
 0002:00012158       ??_C@_1CA@OBNMCGFO@?$AAs?$AAw?$AAe?$AAd?$AAi?$AAs?$AAh?$AA?9?$AAf?$AAi?$AAn?$AAl?$AAa?$AAn?$AAd@ 10082158     libucrt:get_qualified_locale.obj
 0002:00012178       ??_C@_1M@PIPDDPPI@?$AAs?$AAw?$AAi?$AAs?$AAs@ 10082178     libucrt:get_qualified_locale.obj
 0002:00012184       ??_C@_15GMFIMNFM@?$AAu?$AAs@ 10082184     libucrt:get_qualified_locale.obj
 0002:0001218c       ??_C@_17HAEBFAGL@?$AAu?$AAs?$AAa@ 1008218c     libucrt:get_qualified_locale.obj
 0002:00012194       ??_C@_1BA@DPFJEPHB@?$AAa?$AAm?$AAe?$AAr?$AAi?$AAc?$AAa@ 10082194     libucrt:get_qualified_locale.obj
 0002:000121a4       ??_C@_1BA@ELOGGFK@?$AAb?$AAr?$AAi?$AAt?$AAa?$AAi?$AAn@ 100821a4     libucrt:get_qualified_locale.obj
 0002:000121b4       ??_C@_1M@GHBGIGDA@?$AAc?$AAh?$AAi?$AAn?$AAa@ 100821b4     libucrt:get_qualified_locale.obj
 0002:000121c0       ??_C@_1M@NCHEJOPO@?$AAc?$AAz?$AAe?$AAc?$AAh@ 100821c0     libucrt:get_qualified_locale.obj
 0002:000121cc       ??_C@_1BA@BKPAPBLA@?$AAe?$AAn?$AAg?$AAl?$AAa?$AAn?$AAd@ 100821cc     libucrt:get_qualified_locale.obj
 0002:000121dc       ??_C@_1BM@HKBCKIPC@?$AAg?$AAr?$AAe?$AAa?$AAt?$AA?5?$AAb?$AAr?$AAi?$AAt?$AAa?$AAi?$AAn@ 100821dc     libucrt:get_qualified_locale.obj
 0002:000121f8       ??_C@_1BA@PPCHPGJB@?$AAh?$AAo?$AAl?$AAl?$AAa?$AAn?$AAd@ 100821f8     libucrt:get_qualified_locale.obj
 0002:00012208       ??_C@_1BE@JBMPEGDG@?$AAh?$AAo?$AAn?$AAg?$AA?9?$AAk?$AAo?$AAn?$AAg@ 10082208     libucrt:get_qualified_locale.obj
 0002:0001221c       ??_C@_1BI@KOELBBPJ@?$AAn?$AAe?$AAw?$AA?9?$AAz?$AAe?$AAa?$AAl?$AAa?$AAn?$AAd@ 1008221c     libucrt:get_qualified_locale.obj
 0002:00012234       ??_C@_15HIEBHAIO@?$AAn?$AAz@ 10082234     libucrt:get_qualified_locale.obj
 0002:0001223c       ??_C@_1BC@CHBCPFPI@?$AAp?$AAr?$AA?5?$AAc?$AAh?$AAi?$AAn?$AAa@ 1008223c     libucrt:get_qualified_locale.obj
 0002:00012250       ??_C@_1BC@JAOIIFKD@?$AAp?$AAr?$AA?9?$AAc?$AAh?$AAi?$AAn?$AAa@ 10082250     libucrt:get_qualified_locale.obj
 0002:00012264       ??_C@_1BI@BEHPPHKC@?$AAp?$AAu?$AAe?$AAr?$AAt?$AAo?$AA?9?$AAr?$AAi?$AAc?$AAo@ 10082264     libucrt:get_qualified_locale.obj
 0002:0001227c       ??_C@_1O@PAEOFKDI@?$AAs?$AAl?$AAo?$AAv?$AAa?$AAk@ 1008227c     libucrt:get_qualified_locale.obj
 0002:0001228c       ??_C@_1BK@FIHMCKAM@?$AAs?$AAo?$AAu?$AAt?$AAh?$AA?5?$AAa?$AAf?$AAr?$AAi?$AAc?$AAa@ 1008228c     libucrt:get_qualified_locale.obj
 0002:000122a8       ??_C@_1BI@NAEOODKB@?$AAs?$AAo?$AAu?$AAt?$AAh?$AA?5?$AAk?$AAo?$AAr?$AAe?$AAa@ 100822a8     libucrt:get_qualified_locale.obj
 0002:000122c0       ??_C@_1BK@FBDGGIFF@?$AAs?$AAo?$AAu?$AAt?$AAh?$AA?9?$AAa?$AAf?$AAr?$AAi?$AAc?$AAa@ 100822c0     libucrt:get_qualified_locale.obj
 0002:000122dc       ??_C@_1BI@GHLEJDPK@?$AAs?$AAo?$AAu?$AAt?$AAh?$AA?9?$AAk?$AAo?$AAr?$AAe?$AAa@ 100822dc     libucrt:get_qualified_locale.obj
 0002:000122f4       ??_C@_1CE@PLHLOMJF@?$AAt?$AAr?$AAi?$AAn?$AAi?$AAd?$AAa?$AAd?$AA?5?$AA?$CG?$AA?5?$AAt?$AAo?$AAb?$AAa@ 100822f4     libucrt:get_qualified_locale.obj
 0002:00012318       ??_C@_1BO@MODIMHHI@?$AAu?$AAn?$AAi?$AAt?$AAe?$AAd?$AA?9?$AAk?$AAi?$AAn?$AAg?$AAd?$AAo?$AAm@ 10082318     libucrt:get_qualified_locale.obj
 0002:00012338       ??_C@_1BM@FFHJONBJ@?$AAu?$AAn?$AAi?$AAt?$AAe?$AAd?$AA?9?$AAs?$AAt?$AAa?$AAt?$AAe?$AAs@ 10082338     libucrt:get_qualified_locale.obj
 0002:00012354       ??_C@_19MPDNHKDG@?$AAu?$AAt?$AAf?$AA8@ 10082354     libucrt:get_qualified_locale.obj
 0002:00012360       ??_C@_17DNCLJFIF@?$AAA?$AAC?$AAP@ 10082360     libucrt:get_qualified_locale.obj
 0002:00012368       ??_C@_1M@FPEIIFAM@?$AAu?$AAt?$AAf?$AA?9?$AA8@ 10082368     libucrt:get_qualified_locale.obj
 0002:00012374       ??_C@_17CIKBIHLH@?$AAO?$AAC?$AAP@ 10082374     libucrt:get_qualified_locale.obj
 0002:0001237c       ___rglangidNotDefault      1008237c     libucrt:getqloc_downlevel.obj
 0002:000131d0       __days                     100831d0     libucrt:days.obj
 0002:00013204       __lpdays                   10083204     libucrt:days.obj
 0002:00013248       ??_C@_1BA@BALFACEM@?$AAC?$AAO?$AAN?$AAO?$AAU?$AAT?$AA$@ 10083248     libucrt:initcon.obj
 0002:00013360       ___acrt_log10_table_t      10083360     libucrt:log10_tables.obj
 0002:00013770       ___acrt_log10_table_cb     10083770     libucrt:log10_tables.obj
 0002:00013bd8       __load_config_used         10083bd8     LIBCMT:loadcfg.obj
 0002:00013c78       __tls_used                 10083c78     LIBCMT:tlssup.obj
 0002:00013c90       ??_R3ITraceFilter@SDK@@8   10083c90     Aimbot.obj
 0002:00013ca0       ??_R2ITraceFilter@SDK@@8   10083ca0     Aimbot.obj
 0002:00013ca8       ??_R1A@?0A@EA@ITraceFilter@SDK@@8 10083ca8     Aimbot.obj
 0002:00013cc4       ??_R4CTraceFilterOneEntity@SDK@@6B@ 10083cc4     Aimbot.obj
 0002:00013cd8       ??_R3CTraceFilterOneEntity@SDK@@8 10083cd8     Aimbot.obj
 0002:00013ce8       ??_R2CTraceFilterOneEntity@SDK@@8 10083ce8     Aimbot.obj
 0002:00013cf4       ??_R1A@?0A@EA@CTraceFilterOneEntity@SDK@@8 10083cf4     Aimbot.obj
 0002:00013d10       ??_R4CTraceFilterOneEntity2@SDK@@6B@ 10083d10     Aimbot.obj
 0002:00013d24       ??_R3CTraceFilterOneEntity2@SDK@@8 10083d24     Aimbot.obj
 0002:00013d34       ??_R2CTraceFilterOneEntity2@SDK@@8 10083d34     Aimbot.obj
 0002:00013d40       ??_R1A@?0A@EA@CTraceFilterOneEntity2@SDK@@8 10083d40     Aimbot.obj
 0002:00013d5c       ??_R4CTraceFilter@SDK@@6B@ 10083d5c     Antiaim.obj
 0002:00013d70       ??_R3CTraceFilter@SDK@@8   10083d70     Antiaim.obj
 0002:00013d80       ??_R2CTraceFilter@SDK@@8   10083d80     Antiaim.obj
 0002:00013d8c       ??_R1A@?0A@EA@CTraceFilter@SDK@@8 10083d8c     Antiaim.obj
 0002:00013da8       ??_R4CTraceWorldOnly@SDK@@6B@ 10083da8     Antiaim.obj
 0002:00013dbc       ??_R3CTraceWorldOnly@SDK@@8 10083dbc     Antiaim.obj
 0002:00013dcc       ??_R2CTraceWorldOnly@SDK@@8 10083dcc     Antiaim.obj
 0002:00013dd8       ??_R1A@?0A@EA@CTraceWorldOnly@SDK@@8 10083dd8     Antiaim.obj
 0002:00013df4       ??_R4exception@std@@6B@    10083df4     Autowall.obj
 0002:00013e08       ??_R3exception@std@@8      10083e08     Autowall.obj
 0002:00013e18       ??_R2exception@std@@8      10083e18     Autowall.obj
 0002:00013e20       ??_R1A@?0A@EA@exception@std@@8 10083e20     Autowall.obj
 0002:00013e3c       ??_R4logic_error@std@@6B@  10083e3c     Autowall.obj
 0002:00013e50       ??_R3logic_error@std@@8    10083e50     Autowall.obj
 0002:00013e60       ??_R2logic_error@std@@8    10083e60     Autowall.obj
 0002:00013e6c       ??_R1A@?0A@EA@logic_error@std@@8 10083e6c     Autowall.obj
 0002:00013e88       ??_R4IGameEventListener@SDK@@6B@ 10083e88     EventListeners.obj
 0002:00013e9c       ??_R3IGameEventListener@SDK@@8 10083e9c     EventListeners.obj
 0002:00013eac       ??_R2IGameEventListener@SDK@@8 10083eac     EventListeners.obj
 0002:00013eb4       ??_R1A@?0A@EA@IGameEventListener@SDK@@8 10083eb4     EventListeners.obj
 0002:00013ed0       ??_R4ItemPurchaseListener@MISC@FEATURES@@6B@ 10083ed0     EventListeners.obj
 0002:00013ee4       ??_R3ItemPurchaseListener@MISC@FEATURES@@8 10083ee4     EventListeners.obj
 0002:00013ef4       ??_R2ItemPurchaseListener@MISC@FEATURES@@8 10083ef4     EventListeners.obj
 0002:00013f00       ??_R1A@?0A@EA@ItemPurchaseListener@MISC@FEATURES@@8 10083f00     EventListeners.obj
 0002:00013f1c       ??_R4PlayerHurtListener@MISC@FEATURES@@6B@ 10083f1c     EventListeners.obj
 0002:00013f30       ??_R3PlayerHurtListener@MISC@FEATURES@@8 10083f30     EventListeners.obj
 0002:00013f40       ??_R2PlayerHurtListener@MISC@FEATURES@@8 10083f40     EventListeners.obj
 0002:00013f4c       ??_R1A@?0A@EA@PlayerHurtListener@MISC@FEATURES@@8 10083f4c     EventListeners.obj
 0002:00013f68       ??_R4BulletImpactListener@MISC@FEATURES@@6B@ 10083f68     EventListeners.obj
 0002:00013f7c       ??_R3BulletImpactListener@MISC@FEATURES@@8 10083f7c     EventListeners.obj
 0002:00013f8c       ??_R2BulletImpactListener@MISC@FEATURES@@8 10083f8c     EventListeners.obj
 0002:00013f98       ??_R1A@?0A@EA@BulletImpactListener@MISC@FEATURES@@8 10083f98     EventListeners.obj
 0002:00013fb4       ??_R4WeaponFireListener@MISC@FEATURES@@6B@ 10083fb4     EventListeners.obj
 0002:00013fc8       ??_R3WeaponFireListener@MISC@FEATURES@@8 10083fc8     EventListeners.obj
 0002:00013fd8       ??_R2WeaponFireListener@MISC@FEATURES@@8 10083fd8     EventListeners.obj
 0002:00013fe4       ??_R1A@?0A@EA@WeaponFireListener@MISC@FEATURES@@8 10083fe4     EventListeners.obj
 0002:00014000       ??_R4ios_base@std@@6B@     10084000     Misc.obj
 0002:00014014       ??_R3ios_base@std@@8       10084014     Misc.obj
 0002:00014024       ??_R2ios_base@std@@8       10084024     Misc.obj
 0002:00014030       ??_R1A@?0A@EA@ios_base@std@@8 10084030     Misc.obj
 0002:0001404c       ??_R17?0A@EA@?$_Iosb@H@std@@8 1008404c     Misc.obj
 0002:00014068       ??_R3?$_Iosb@H@std@@8      10084068     Misc.obj
 0002:00014078       ??_R2?$_Iosb@H@std@@8      10084078     Misc.obj
 0002:00014080       ??_R1A@?0A@EA@?$_Iosb@H@std@@8 10084080     Misc.obj
 0002:0001409c       ??_R4?$basic_ios@DU?$char_traits@D@std@@@std@@6B@ 1008409c     Misc.obj
 0002:000140b0       ??_R3?$basic_ios@DU?$char_traits@D@std@@@std@@8 100840b0     Misc.obj
 0002:000140c0       ??_R2?$basic_ios@DU?$char_traits@D@std@@@std@@8 100840c0     Misc.obj
 0002:000140d0       ??_R1A@?0A@EA@?$basic_ios@DU?$char_traits@D@std@@@std@@8 100840d0     Misc.obj
 0002:000140ec       ??_R4?$basic_streambuf@DU?$char_traits@D@std@@@std@@6B@ 100840ec     Misc.obj
 0002:00014100       ??_R3?$basic_streambuf@DU?$char_traits@D@std@@@std@@8 10084100     Misc.obj
 0002:00014110       ??_R2?$basic_streambuf@DU?$char_traits@D@std@@@std@@8 10084110     Misc.obj
 0002:00014118       ??_R1A@?0A@EA@?$basic_streambuf@DU?$char_traits@D@std@@@std@@8 10084118     Misc.obj
 0002:00014134       ??_R4?$basic_istream@DU?$char_traits@D@std@@@std@@6B@ 10084134     Misc.obj
 0002:00014148       ??_R3?$basic_istream@DU?$char_traits@D@std@@@std@@8 10084148     Misc.obj
 0002:00014158       ??_R2?$basic_istream@DU?$char_traits@D@std@@@std@@8 10084158     Misc.obj
 0002:0001416c       ??_R1A@?0A@EA@?$basic_istream@DU?$char_traits@D@std@@@std@@8 1008416c     Misc.obj
 0002:00014188       ??_R1A@A@3FA@?$basic_ios@DU?$char_traits@D@std@@@std@@8 10084188     Misc.obj
 0002:000141a4       ??_R1A@A@3EA@ios_base@std@@8 100841a4     Misc.obj
 0002:000141c0       ??_R17A@3EA@?$_Iosb@H@std@@8 100841c0     Misc.obj
 0002:000141dc       ??_R4?$basic_ostream@DU?$char_traits@D@std@@@std@@6B@ 100841dc     Misc.obj
 0002:000141f0       ??_R3?$basic_ostream@DU?$char_traits@D@std@@@std@@8 100841f0     Misc.obj
 0002:00014200       ??_R2?$basic_ostream@DU?$char_traits@D@std@@@std@@8 10084200     Misc.obj
 0002:00014214       ??_R1A@?0A@EA@?$basic_ostream@DU?$char_traits@D@std@@@std@@8 10084214     Misc.obj
 0002:00014230       ??_R4?$basic_iostream@DU?$char_traits@D@std@@@std@@6B@ 10084230     Misc.obj
 0002:00014244       ??_R3?$basic_iostream@DU?$char_traits@D@std@@@std@@8 10084244     Misc.obj
 0002:00014254       ??_R2?$basic_iostream@DU?$char_traits@D@std@@@std@@8 10084254     Misc.obj
 0002:0001427c       ??_R1A@?0A@EA@?$basic_iostream@DU?$char_traits@D@std@@@std@@8 1008427c     Misc.obj
 0002:00014298       ??_R1BA@?0A@EA@?$basic_ostream@DU?$char_traits@D@std@@@std@@8 10084298     Misc.obj
 0002:000142b4       ??_R4?$basic_filebuf@DU?$char_traits@D@std@@@std@@6B@ 100842b4     Misc.obj
 0002:000142c8       ??_R3?$basic_filebuf@DU?$char_traits@D@std@@@std@@8 100842c8     Misc.obj
 0002:000142d8       ??_R2?$basic_filebuf@DU?$char_traits@D@std@@@std@@8 100842d8     Misc.obj
 0002:000142e4       ??_R1A@?0A@EA@?$basic_filebuf@DU?$char_traits@D@std@@@std@@8 100842e4     Misc.obj
 0002:00014300       ??_R4?$basic_fstream@DU?$char_traits@D@std@@@std@@6B@ 10084300     Misc.obj
 0002:00014314       ??_R3?$basic_fstream@DU?$char_traits@D@std@@@std@@8 10084314     Misc.obj
 0002:00014324       ??_R2?$basic_fstream@DU?$char_traits@D@std@@@std@@8 10084324     Misc.obj
 0002:00014350       ??_R1A@?0A@EA@?$basic_fstream@DU?$char_traits@D@std@@@std@@8 10084350     Misc.obj
 0002:0001436c       ??_R4runtime_error@std@@6B@ 1008436c     Misc.obj
 0002:00014380       ??_R3runtime_error@std@@8  10084380     Misc.obj
 0002:00014390       ??_R2runtime_error@std@@8  10084390     Misc.obj
 0002:0001439c       ??_R1A@?0A@EA@runtime_error@std@@8 1008439c     Misc.obj
 0002:000143b8       ??_R4_Facet_base@std@@6B@  100843b8     Misc.obj
 0002:000143cc       ??_R3_Facet_base@std@@8    100843cc     Misc.obj
 0002:000143dc       ??_R2_Facet_base@std@@8    100843dc     Misc.obj
 0002:000143e4       ??_R1A@?0A@EA@_Facet_base@std@@8 100843e4     Misc.obj
 0002:00014400       ??_R1A@?0A@EA@facet@locale@std@@8 10084400     Misc.obj
 0002:0001441c       ??_R3facet@locale@std@@8   1008441c     Misc.obj
 0002:0001442c       ??_R2facet@locale@std@@8   1008442c     Misc.obj
 0002:0001443c       ??_R13?0A@EA@_Crt_new_delete@std@@8 1008443c     Misc.obj
 0002:00014458       ??_R3_Crt_new_delete@std@@8 10084458     Misc.obj
 0002:00014468       ??_R2_Crt_new_delete@std@@8 10084468     Misc.obj
 0002:00014470       ??_R1A@?0A@EA@_Crt_new_delete@std@@8 10084470     Misc.obj
 0002:0001448c       ??_R3codecvt_base@std@@8   1008448c     Misc.obj
 0002:0001449c       ??_R2codecvt_base@std@@8   1008449c     Misc.obj
 0002:000144b0       ??_R1A@?0A@EA@codecvt_base@std@@8 100844b0     Misc.obj
 0002:000144cc       ??_R3ctype_base@std@@8     100844cc     Misc.obj
 0002:000144dc       ??_R2ctype_base@std@@8     100844dc     Misc.obj
 0002:000144f0       ??_R1A@?0A@EA@ctype_base@std@@8 100844f0     Misc.obj
 0002:0001450c       ??_R4?$ctype@D@std@@6B@    1008450c     Misc.obj
 0002:00014520       ??_R3?$ctype@D@std@@8      10084520     Misc.obj
 0002:00014530       ??_R2?$ctype@D@std@@8      10084530     Misc.obj
 0002:00014548       ??_R1A@?0A@EA@?$ctype@D@std@@8 10084548     Misc.obj
 0002:00014564       ??_R3error_category@std@@8 10084564     Misc.obj
 0002:00014574       ??_R2error_category@std@@8 10084574     Misc.obj
 0002:0001457c       ??_R1A@?0A@EA@error_category@std@@8 1008457c     Misc.obj
 0002:00014598       ??_R4_System_error@std@@6B@ 10084598     Misc.obj
 0002:000145ac       ??_R3_System_error@std@@8  100845ac     Misc.obj
 0002:000145bc       ??_R2_System_error@std@@8  100845bc     Misc.obj
 0002:000145cc       ??_R1A@?0A@EA@_System_error@std@@8 100845cc     Misc.obj
 0002:000145e8       ??_R4system_error@std@@6B@ 100845e8     Misc.obj
 0002:000145fc       ??_R3system_error@std@@8   100845fc     Misc.obj
 0002:0001460c       ??_R2system_error@std@@8   1008460c     Misc.obj
 0002:00014620       ??_R1A@?0A@EA@system_error@std@@8 10084620     Misc.obj
 0002:0001463c       ??_R3_Generic_error_category@std@@8 1008463c     Misc.obj
 0002:0001464c       ??_R2_Generic_error_category@std@@8 1008464c     Misc.obj
 0002:00014658       ??_R1A@?0A@EA@_Generic_error_category@std@@8 10084658     Misc.obj
 0002:00014674       ??_R4_Iostream_error_category@std@@6B@ 10084674     Misc.obj
 0002:00014688       ??_R3_Iostream_error_category@std@@8 10084688     Misc.obj
 0002:00014698       ??_R2_Iostream_error_category@std@@8 10084698     Misc.obj
 0002:000146a8       ??_R1A@?0A@EA@_Iostream_error_category@std@@8 100846a8     Misc.obj
 0002:000146c4       ??_R4failure@ios_base@std@@6B@ 100846c4     Misc.obj
 0002:000146d8       ??_R3failure@ios_base@std@@8 100846d8     Misc.obj
 0002:000146e8       ??_R2failure@ios_base@std@@8 100846e8     Misc.obj
 0002:00014700       ??_R1A@?0A@EA@failure@ios_base@std@@8 10084700     Misc.obj
 0002:0001471c       ??_R4?$codecvt@DDU_Mbstatet@@@std@@6B@ 1008471c     Misc.obj
 0002:00014730       ??_R3?$codecvt@DDU_Mbstatet@@@std@@8 10084730     Misc.obj
 0002:00014740       ??_R2?$codecvt@DDU_Mbstatet@@@std@@8 10084740     Misc.obj
 0002:00014758       ??_R1A@?0A@EA@?$codecvt@DDU_Mbstatet@@@std@@8 10084758     Misc.obj
 0002:00014774       ??_R4?$basic_stringbuf@DU?$char_traits@D@std@@V?$allocator@D@2@@std@@6B@ 10084774     PPGUI_Commands.obj
 0002:00014788       ??_R3?$basic_stringbuf@DU?$char_traits@D@std@@V?$allocator@D@2@@std@@8 10084788     PPGUI_Commands.obj
 0002:00014798       ??_R2?$basic_stringbuf@DU?$char_traits@D@std@@V?$allocator@D@2@@std@@8 10084798     PPGUI_Commands.obj
 0002:000147a4       ??_R1A@?0A@EA@?$basic_stringbuf@DU?$char_traits@D@std@@V?$allocator@D@2@@std@@8 100847a4     PPGUI_Commands.obj
 0002:000147c0       ??_R4?$basic_stringstream@DU?$char_traits@D@std@@V?$allocator@D@2@@std@@6B@ 100847c0     PPGUI_Commands.obj
 0002:000147d4       ??_R3?$basic_stringstream@DU?$char_traits@D@std@@V?$allocator@D@2@@std@@8 100847d4     PPGUI_Commands.obj
 0002:000147e4       ??_R2?$basic_stringstream@DU?$char_traits@D@std@@V?$allocator@D@2@@std@@8 100847e4     PPGUI_Commands.obj
 0002:00014810       ??_R1A@?0A@EA@?$basic_stringstream@DU?$char_traits@D@std@@V?$allocator@D@2@@std@@8 10084810     PPGUI_Commands.obj
 0002:0001482c       ??_R4PPGUI_Command@PPGUI@@6B@ 1008482c     PPGUI_Commands.obj
 0002:00014840       ??_R3PPGUI_Command@PPGUI@@8 10084840     PPGUI_Commands.obj
 0002:00014850       ??_R2PPGUI_Command@PPGUI@@8 10084850     PPGUI_Commands.obj
 0002:00014858       ??_R1A@?0A@EA@PPGUI_Command@PPGUI@@8 10084858     PPGUI_Commands.obj
 0002:00014874       ??_R4PPGUI_Window_Command@PPGUI@@6B@ 10084874     PPGUI_Commands.obj
 0002:00014888       ??_R3PPGUI_Window_Command@PPGUI@@8 10084888     PPGUI_Commands.obj
 0002:00014898       ??_R2PPGUI_Window_Command@PPGUI@@8 10084898     PPGUI_Commands.obj
 0002:000148a4       ??_R1A@?0A@EA@PPGUI_Window_Command@PPGUI@@8 100848a4     PPGUI_Commands.obj
 0002:000148c0       ??_R4PPGUI_Checkbox_Command@PPGUI@@6B@ 100848c0     PPGUI_Commands.obj
 0002:000148d4       ??_R3PPGUI_Checkbox_Command@PPGUI@@8 100848d4     PPGUI_Commands.obj
 0002:000148e4       ??_R2PPGUI_Checkbox_Command@PPGUI@@8 100848e4     PPGUI_Commands.obj
 0002:000148f0       ??_R1A@?0A@EA@PPGUI_Checkbox_Command@PPGUI@@8 100848f0     PPGUI_Commands.obj
 0002:0001490c       ??_R4PPGUI_Button_Command@PPGUI@@6B@ 1008490c     PPGUI_Commands.obj
 0002:00014920       ??_R3PPGUI_Button_Command@PPGUI@@8 10084920     PPGUI_Commands.obj
 0002:00014930       ??_R2PPGUI_Button_Command@PPGUI@@8 10084930     PPGUI_Commands.obj
 0002:0001493c       ??_R1A@?0A@EA@PPGUI_Button_Command@PPGUI@@8 1008493c     PPGUI_Commands.obj
 0002:00014958       ??_R4PPGUI_Groupbox_Command@PPGUI@@6B@ 10084958     PPGUI_Commands.obj
 0002:0001496c       ??_R3PPGUI_Groupbox_Command@PPGUI@@8 1008496c     PPGUI_Commands.obj
 0002:0001497c       ??_R2PPGUI_Groupbox_Command@PPGUI@@8 1008497c     PPGUI_Commands.obj
 0002:00014988       ??_R1A@?0A@EA@PPGUI_Groupbox_Command@PPGUI@@8 10084988     PPGUI_Commands.obj
 0002:000149a4       ??_R4PPGUI_Slider_Command@PPGUI@@6B@ 100849a4     PPGUI_Commands.obj
 0002:000149b8       ??_R3PPGUI_Slider_Command@PPGUI@@8 100849b8     PPGUI_Commands.obj
 0002:000149c8       ??_R2PPGUI_Slider_Command@PPGUI@@8 100849c8     PPGUI_Commands.obj
 0002:000149d4       ??_R1A@?0A@EA@PPGUI_Slider_Command@PPGUI@@8 100849d4     PPGUI_Commands.obj
 0002:000149f0       ??_R4PPGUI_Separator_Command@PPGUI@@6B@ 100849f0     PPGUI_Commands.obj
 0002:00014a04       ??_R3PPGUI_Separator_Command@PPGUI@@8 10084a04     PPGUI_Commands.obj
 0002:00014a14       ??_R2PPGUI_Separator_Command@PPGUI@@8 10084a14     PPGUI_Commands.obj
 0002:00014a20       ??_R1A@?0A@EA@PPGUI_Separator_Command@PPGUI@@8 10084a20     PPGUI_Commands.obj
 0002:00014a3c       ??_R4PPGUI_Keybind_Command@PPGUI@@6B@ 10084a3c     PPGUI_Commands.obj
 0002:00014a50       ??_R3PPGUI_Keybind_Command@PPGUI@@8 10084a50     PPGUI_Commands.obj
 0002:00014a60       ??_R2PPGUI_Keybind_Command@PPGUI@@8 10084a60     PPGUI_Commands.obj
 0002:00014a6c       ??_R1A@?0A@EA@PPGUI_Keybind_Command@PPGUI@@8 10084a6c     PPGUI_Commands.obj
 0002:00014a88       ??_R4PPGUI_Text_Input_Command@PPGUI@@6B@ 10084a88     PPGUI_Commands.obj
 0002:00014a9c       ??_R3PPGUI_Text_Input_Command@PPGUI@@8 10084a9c     PPGUI_Commands.obj
 0002:00014aac       ??_R2PPGUI_Text_Input_Command@PPGUI@@8 10084aac     PPGUI_Commands.obj
 0002:00014ab8       ??_R1A@?0A@EA@PPGUI_Text_Input_Command@PPGUI@@8 10084ab8     PPGUI_Commands.obj
 0002:00014ad4       ??_R4PPGUI_Combobox_Command@PPGUI@@6B@ 10084ad4     PPGUI_Commands.obj
 0002:00014ae8       ??_R3PPGUI_Combobox_Command@PPGUI@@8 10084ae8     PPGUI_Commands.obj
 0002:00014af8       ??_R2PPGUI_Combobox_Command@PPGUI@@8 10084af8     PPGUI_Commands.obj
 0002:00014b04       ??_R1A@?0A@EA@PPGUI_Combobox_Command@PPGUI@@8 10084b04     PPGUI_Commands.obj
 0002:00014b20       ??_R4PPGUI_Multiselect_Combobox_Command@PPGUI@@6B@ 10084b20     PPGUI_Commands.obj
 0002:00014b34       ??_R3PPGUI_Multiselect_Combobox_Command@PPGUI@@8 10084b34     PPGUI_Commands.obj
 0002:00014b44       ??_R2PPGUI_Multiselect_Combobox_Command@PPGUI@@8 10084b44     PPGUI_Commands.obj
 0002:00014b50       ??_R1A@?0A@EA@PPGUI_Multiselect_Combobox_Command@PPGUI@@8 10084b50     PPGUI_Commands.obj
 0002:00014b6c       ??_R4PPGUI_Color_Picker_Command@PPGUI@@6B@ 10084b6c     PPGUI_Commands.obj
 0002:00014b80       ??_R3PPGUI_Color_Picker_Command@PPGUI@@8 10084b80     PPGUI_Commands.obj
 0002:00014b90       ??_R2PPGUI_Color_Picker_Command@PPGUI@@8 10084b90     PPGUI_Commands.obj
 0002:00014b9c       ??_R1A@?0A@EA@PPGUI_Color_Picker_Command@PPGUI@@8 10084b9c     PPGUI_Commands.obj
 0002:00014bb8       ??_R4PPGUI_Tab_Command@PPGUI@@6B@ 10084bb8     PPGUI_Commands.obj
 0002:00014bcc       ??_R3PPGUI_Tab_Command@PPGUI@@8 10084bcc     PPGUI_Commands.obj
 0002:00014bdc       ??_R2PPGUI_Tab_Command@PPGUI@@8 10084bdc     PPGUI_Commands.obj
 0002:00014be8       ??_R1A@?0A@EA@PPGUI_Tab_Command@PPGUI@@8 10084be8     PPGUI_Commands.obj
 0002:00014c04       ??_R4PPGUI_Tool_Tip_Command@PPGUI@@6B@ 10084c04     PPGUI_Commands.obj
 0002:00014c18       ??_R3PPGUI_Tool_Tip_Command@PPGUI@@8 10084c18     PPGUI_Commands.obj
 0002:00014c28       ??_R2PPGUI_Tool_Tip_Command@PPGUI@@8 10084c28     PPGUI_Commands.obj
 0002:00014c34       ??_R1A@?0A@EA@PPGUI_Tool_Tip_Command@PPGUI@@8 10084c34     PPGUI_Commands.obj
 0002:00014c50       ??_R4?$num_put@DV?$ostreambuf_iterator@DU?$char_traits@D@std@@@std@@@std@@6B@ 10084c50     PPGUI_Commands.obj
 0002:00014c64       ??_R3?$num_put@DV?$ostreambuf_iterator@DU?$char_traits@D@std@@@std@@@std@@8 10084c64     PPGUI_Commands.obj
 0002:00014c74       ??_R2?$num_put@DV?$ostreambuf_iterator@DU?$char_traits@D@std@@@std@@@std@@8 10084c74     PPGUI_Commands.obj
 0002:00014c88       ??_R1A@?0A@EA@?$num_put@DV?$ostreambuf_iterator@DU?$char_traits@D@std@@@std@@@std@@8 10084c88     PPGUI_Commands.obj
 0002:00014ca4       ??_R4?$numpunct@D@std@@6B@ 10084ca4     PPGUI_Commands.obj
 0002:00014cb8       ??_R3?$numpunct@D@std@@8   10084cb8     PPGUI_Commands.obj
 0002:00014cc8       ??_R2?$numpunct@D@std@@8   10084cc8     PPGUI_Commands.obj
 0002:00014cdc       ??_R1A@?0A@EA@?$numpunct@D@std@@8 10084cdc     PPGUI_Commands.obj
 0002:00014cf8       ??_R4bad_alloc@std@@6B@    10084cf8     libcpmt:xthrow.obj
 0002:00014d0c       ??_R3bad_alloc@std@@8      10084d0c     libcpmt:xthrow.obj
 0002:00014d1c       ??_R2bad_alloc@std@@8      10084d1c     libcpmt:xthrow.obj
 0002:00014d28       ??_R1A@?0A@EA@bad_alloc@std@@8 10084d28     libcpmt:xthrow.obj
 0002:00014d44       ??_R4length_error@std@@6B@ 10084d44     libcpmt:xthrow.obj
 0002:00014d58       ??_R3length_error@std@@8   10084d58     libcpmt:xthrow.obj
 0002:00014d68       ??_R2length_error@std@@8   10084d68     libcpmt:xthrow.obj
 0002:00014d78       ??_R1A@?0A@EA@length_error@std@@8 10084d78     libcpmt:xthrow.obj
 0002:00014d94       ??_R4out_of_range@std@@6B@ 10084d94     libcpmt:xthrow.obj
 0002:00014da8       ??_R3out_of_range@std@@8   10084da8     libcpmt:xthrow.obj
 0002:00014db8       ??_R2out_of_range@std@@8   10084db8     libcpmt:xthrow.obj
 0002:00014dc8       ??_R1A@?0A@EA@out_of_range@std@@8 10084dc8     libcpmt:xthrow.obj
 0002:00014de4       ??_R4_Locimp@locale@std@@6B@ 10084de4     libcpmt:locale0.obj
 0002:00014df8       ??_R3_Locimp@locale@std@@8 10084df8     libcpmt:locale0.obj
 0002:00014e08       ??_R2_Locimp@locale@std@@8 10084e08     libcpmt:locale0.obj
 0002:00014e1c       ??_R1A@?0A@EA@_Locimp@locale@std@@8 10084e1c     libcpmt:locale0.obj
 0002:00014e38       ??_R4type_info@@6B@        10084e38     LIBCMT:std_type_info_static.obj
 0002:00014e4c       ??_R3type_info@@8          10084e4c     LIBCMT:std_type_info_static.obj
 0002:00014e5c       ??_R2type_info@@8          10084e5c     LIBCMT:std_type_info_static.obj
 0002:00014e64       ??_R1A@?0A@EA@type_info@@8 10084e64     LIBCMT:std_type_info_static.obj
 0002:00014e80       ??_R4bad_array_new_length@std@@6B@ 10084e80     LIBCMT:throw_bad_alloc.obj
 0002:00014e94       ??_R3bad_array_new_length@std@@8 10084e94     LIBCMT:throw_bad_alloc.obj
 0002:00014ea4       ??_R2bad_array_new_length@std@@8 10084ea4     LIBCMT:throw_bad_alloc.obj
 0002:00014eb4       ??_R1A@?0A@EA@bad_array_new_length@std@@8 10084eb4     LIBCMT:throw_bad_alloc.obj
 0002:00014ed0       ??_R4bad_exception@std@@6B@ 10084ed0     libvcruntime:frame.obj
 0002:00014ee4       ??_R3bad_exception@std@@8  10084ee4     libvcruntime:frame.obj
 0002:00014ef4       ??_R2bad_exception@std@@8  10084ef4     libvcruntime:frame.obj
 0002:00014f00       ??_R1A@?0A@EA@bad_exception@std@@8 10084f00     libvcruntime:frame.obj
 0002:00014f20       ___safe_se_handler_table   10084f20     <linker-defined>
 0002:00015528       ___rtc_iaa                 10085528     LIBCMT:initsect.obj
 0002:0001552c       ___rtc_izz                 1008552c     LIBCMT:initsect.obj
 0002:00015530       ___rtc_taa                 10085530     LIBCMT:initsect.obj
 0002:00015534       ___rtc_tzz                 10085534     LIBCMT:initsect.obj
 0002:00015538       __tls_start                10085538     LIBCMT:tlssup.obj
 0002:0001553c       __Init_thread_epoch        1008553c     LIBCMT:thread_safe_statics.obj
 0002:00015540       __tls_end                  10085540     LIBCMT:tlssup.obj
 0002:000156ac       __CT??_R0?AVexception@std@@@8??0exception@std@@QAE@ABV01@@Z12 100856ac     Autowall.obj
 0002:000156c8       __CT??_R0?AVlogic_error@std@@@8??0logic_error@std@@QAE@ABV01@@Z12 100856c8     Autowall.obj
 0002:000163ac       __TI2?AVruntime_error@std@@ 100863ac     Misc.obj
 0002:000163bc       __CTA2?AVruntime_error@std@@ 100863bc     Misc.obj
 0002:000163c8       __CT??_R0?AVruntime_error@std@@@8??0runtime_error@std@@QAE@ABV01@@Z12 100863c8     Misc.obj
 0002:000163e4       __TI5?AVfailure@ios_base@std@@ 100863e4     Misc.obj
 0002:000163f4       __CTA5?AVfailure@ios_base@std@@ 100863f4     Misc.obj
 0002:0001640c       __CT??_R0?AVfailure@ios_base@std@@@8??0failure@ios_base@std@@QAE@ABV012@@Z20 1008640c     Misc.obj
 0002:00016428       __CT??_R0?AVsystem_error@std@@@8??0system_error@std@@QAE@ABV01@@Z20 10086428     Misc.obj
 0002:00016444       __CT??_R0?AV_System_error@std@@@8??0_System_error@std@@QAE@ABV01@@Z20 10086444     Misc.obj
 0002:00016718       __TI1?AVexception@std@@    10086718     SkinChanger.obj
 0002:00016728       __CTA1?AVexception@std@@   10086728     SkinChanger.obj
 0002:00017bc8       __TI2?AVbad_alloc@std@@    10087bc8     libcpmt:xthrow.obj
 0002:00017bd8       __CTA2?AVbad_alloc@std@@   10087bd8     libcpmt:xthrow.obj
 0002:00017be4       __CT??_R0?AVbad_alloc@std@@@8??0bad_alloc@std@@QAE@ABV01@@Z12 10087be4     libcpmt:xthrow.obj
 0002:00017c00       __TI3?AVlength_error@std@@ 10087c00     libcpmt:xthrow.obj
 0002:00017c10       __CTA3?AVlength_error@std@@ 10087c10     libcpmt:xthrow.obj
 0002:00017c20       __CT??_R0?AVlength_error@std@@@8??0length_error@std@@QAE@ABV01@@Z12 10087c20     libcpmt:xthrow.obj
 0002:00017c3c       __TI3?AVout_of_range@std@@ 10087c3c     libcpmt:xthrow.obj
 0002:00017c4c       __CTA3?AVout_of_range@std@@ 10087c4c     libcpmt:xthrow.obj
 0002:00017c5c       __CT??_R0?AVout_of_range@std@@@8??0out_of_range@std@@QAE@ABV01@@Z12 10087c5c     libcpmt:xthrow.obj
 0002:00017cfc       __TI1?AV_com_error@@       10087cfc     comsuppw:comraise.obj
 0002:00017d0c       __CTA1?AV_com_error@@      10087d0c     comsuppw:comraise.obj
 0002:00017d14       __CT??_R0?AV_com_error@@@8??0_com_error@@QAE@ABV0@@Z16 10087d14     comsuppw:comraise.obj
 0002:00017e0c       __TI3?AVbad_array_new_length@std@@ 10087e0c     LIBCMT:throw_bad_alloc.obj
 0002:00017e1c       __CTA3?AVbad_array_new_length@std@@ 10087e1c     LIBCMT:throw_bad_alloc.obj
 0002:00017e2c       __CT??_R0?AVbad_array_new_length@std@@@8??0bad_array_new_length@std@@QAE@ABV01@@Z12 10087e2c     LIBCMT:throw_bad_alloc.obj
 0002:00017f4c       __TI2?AVbad_exception@std@@ 10087f4c     libvcruntime:frame.obj
 0002:00017f5c       __CTA2?AVbad_exception@std@@ 10087f5c     libvcruntime:frame.obj
 0002:00017f68       __CT??_R0?AVbad_exception@std@@@8??0bad_exception@std@@QAE@ABV01@@Z12 10087f68     libvcruntime:frame.obj
 0002:000185ec       __IMPORT_DESCRIPTOR_KERNEL32 100885ec     kernel32:KERNEL32.dll
 0002:00018600       __IMPORT_DESCRIPTOR_USER32 10088600     user32:USER32.dll
 0002:00018614       __IMPORT_DESCRIPTOR_GDI32  10088614     gdi32:GDI32.dll
 0002:00018628       __IMPORT_DESCRIPTOR_OLEAUT32 10088628     oleaut32:OLEAUT32.dll
 0002:0001863c       __IMPORT_DESCRIPTOR_urlmon 1008863c     urlmon:urlmon.dll
 0002:00018650       __IMPORT_DESCRIPTOR_WINMM  10088650     Winmm:WINMM.dll
 0002:00018664       __NULL_IMPORT_DESCRIPTOR   10088664     kernel32:KERNEL32.dll
 0003:00000000       ?autostrafer@MISC@FEATURES@@3VAutostrafer@12@A 1008a000     Autostrafer.obj
 0003:0000004c       ?item_purchase_listener@MISC@FEATURES@@3VItemPurchaseListener@12@A 1008a04c     EventListeners.obj
 0003:00000050       ?player_hurt_listener@MISC@FEATURES@@3VPlayerHurtListener@12@A 1008a050     EventListeners.obj
 0003:00000054       ?bullet_impact_listener@MISC@FEATURES@@3VBulletImpactListener@12@A 1008a054     EventListeners.obj
 0003:00000058       ?weapon_fire_listener@MISC@FEATURES@@3VWeaponFireListener@12@A 1008a058     EventListeners.obj
 0003:0000005c       ?in_game_logger@MISC@FEATURES@@3VInGameLogger@12@A 1008a05c     InGameLogger.obj
 0003:00000090       ?hitsound_byte_array@@3PAEA 1008a090     Misc.obj
 0003:0000a36c       ?bullet_tracers@MISC@FEATURES@@3VBulletTracers@12@A 1009436c     Misc.obj
 0003:0000a37c       ?hitmarkers@MISC@FEATURES@@3VHitmarkers@12@A 1009437c     Misc.obj
 0003:0000a398       ?ragebot_configs@SETTINGS@@3VRagebotConfig@1@A 10094398     Configurations.obj
 0003:0000a480       ?world_color@VISUALS@FEATURES@@3VCColor@@A 10094480     World Textures.obj
 0003:0000a484       ?prop_color@VISUALS@FEATURES@@3VCColor@@A 10094484     World Textures.obj
 0003:0000a488       ?skybox_color@VISUALS@FEATURES@@3VCColor@@A 10094488     World Textures.obj
 0003:0000db90       ?menu@PPGUI@@3VPPGUI_Framework@1@A 10097b90     PPGUI.obj
 0003:0000e418       ?debugger@DEBUGGER@UTILS@@3VDebugger@12@A 10098418     Debugger.obj
 0003:0000e45c       ?synced_rainbow_color@GLOBAL@@3VCColor@@A 1009845c     variables.obj
 0003:0000e464       ?_Sync@ios_base@std@@0_NA  10098464     libcpmt:ios.obj
 0003:0000e468       ?_PJP_CPP_Copyright@@3PADA 10098468     libcpmt:iosptrs.obj
 0003:0000e4c0       ?__errorPfn@@3P6GXJPAUIErrorInfo@@@ZA 100984c0     comsuppw:comsupp.obj
 0003:0000e4c8       ?vtMissing@@3V_variant_t@@A 100984c8     comsuppw:comutil.obj
 0003:0000e4d8       __Init_global_epoch        100984d8     LIBCMT:thread_safe_statics.obj
 0003:0000e4e0       ___security_cookie_complement 100984e0     LIBCMT:gs_cookie.obj
 0003:0000e4e4       ___security_cookie         100984e4     LIBCMT:gs_cookie.obj
 0003:0000e4e8       __fltused                  100984e8     LIBCMT:fltused.obj
 0003:0000e4ec       ___scrt_native_dllmain_reason 100984ec     LIBCMT:utility.obj
 0003:0000e4f0       ___isa_enabled             100984f0     LIBCMT:cpu_disp.obj
 0003:0000e510       __NLG_Destination          10098510     libvcruntime:exsup.obj
 0003:0000e528       __iob                      10098528     libucrt:_file.obj
 0003:0000e5d0       ___acrt_lconv_c            100985d0     libucrt:localeconv.obj
 0003:0000e620       ___acrt_lconv              10098620     libucrt:localeconv.obj
 0003:0000e624       ___acrt_lconv_static_decimal 10098624     libucrt:localeconv.obj
 0003:0000e628       ___acrt_lconv_static_W_decimal 10098628     libucrt:localeconv.obj
 0003:0000e62c       __pctype                   1009862c     libucrt:ctype.obj
 0003:0000e630       __pwctype                  10098630     libucrt:ctype.obj
 0003:0000e640       ___abort_behavior          10098640     libucrt:abort.obj
 0003:0000e668       ___acrt_initial_locale_data 10098668     libucrt:nlsdata.obj
 0003:0000e720       ___acrt_initial_locale_pointers 10098720     libucrt:nlsdata.obj
 0003:0000e728       ___acrt_wide_c_locale_string 10098728     libucrt:nlsdata.obj
 0003:0000e72c       ___mb_cur_max              1009872c     libucrt:nlsdata.obj
 0003:0000e730       ___badioinfo               10098730     libucrt:ioinit.obj
 0003:0000e768       __lookuptrailbytes         10098768     libucrt:read.obj
 0003:0000e910       ___globallocalestatus      10098910     libucrt:glstatus.obj
 0003:0000e920       ___acrt_initial_multibyte_data 10098920     libucrt:mbctype.obj
 0003:0000ee50       ??_R0?AVITraceFilter@SDK@@@8 10098e50     Aimbot.obj
 0003:0000ee70       ??_R0?AVCTraceFilterOneEntity@SDK@@@8 10098e70     Aimbot.obj
 0003:0000ee98       ??_R0?AVCTraceFilterOneEntity2@SDK@@@8 10098e98     Aimbot.obj
 0003:0000eec4       ??_R0?AVCTraceFilter@SDK@@@8 10098ec4     Antiaim.obj
 0003:0000eee4       ??_R0?AVCTraceWorldOnly@SDK@@@8 10098ee4     Antiaim.obj
 0003:0000ef08       ??_R0?AVexception@std@@@8  10098f08     Autowall.obj
 0003:0000ef24       ??_R0?AVlogic_error@std@@@8 10098f24     Autowall.obj
 0003:0000ef44       ??_R0?AVIGameEventListener@SDK@@@8 10098f44     EventListeners.obj
 0003:0000ef6c       ??_R0?AVItemPurchaseListener@MISC@FEATURES@@@8 10098f6c     EventListeners.obj
 0003:0000efa0       ??_R0?AVPlayerHurtListener@MISC@FEATURES@@@8 10098fa0     EventListeners.obj
 0003:0000efd0       ??_R0?AVBulletImpactListener@MISC@FEATURES@@@8 10098fd0     EventListeners.obj
 0003:0000f004       ??_R0?AVWeaponFireListener@MISC@FEATURES@@@8 10099004     EventListeners.obj
 0003:0000f034       ??_R0?AVruntime_error@std@@@8 10099034     Misc.obj
 0003:0000f054       ??_R0?AVfailure@ios_base@std@@@8 10099054     Misc.obj
 0003:0000f078       ??_R0?AVsystem_error@std@@@8 10099078     Misc.obj
 0003:0000f098       ??_R0?AV_System_error@std@@@8 10099098     Misc.obj
 0003:0000f0b8       ??_R0?AVios_base@std@@@8   100990b8     Misc.obj
 0003:0000f0d4       ??_R0?AV?$_Iosb@H@std@@@8  100990d4     Misc.obj
 0003:0000f0f0       ??_R0?AV?$basic_ios@DU?$char_traits@D@std@@@std@@@8 100990f0     Misc.obj
 0003:0000f128       ??_R0?AV?$basic_streambuf@DU?$char_traits@D@std@@@std@@@8 10099128     Misc.obj
 0003:0000f164       ??_R0?AV?$basic_istream@DU?$char_traits@D@std@@@std@@@8 10099164     Misc.obj
 0003:0000f1a0       ??_R0?AV?$basic_ostream@DU?$char_traits@D@std@@@std@@@8 100991a0     Misc.obj
 0003:0000f1dc       ??_R0?AV?$basic_iostream@DU?$char_traits@D@std@@@std@@@8 100991dc     Misc.obj
 0003:0000f218       ??_R0?AV?$basic_filebuf@DU?$char_traits@D@std@@@std@@@8 10099218     Misc.obj
 0003:0000f254       ??_R0?AV?$basic_fstream@DU?$char_traits@D@std@@@std@@@8 10099254     Misc.obj
 0003:0000f290       ??_R0?AV_Facet_base@std@@@8 10099290     Misc.obj
 0003:0000f2b0       ??_R0?AVfacet@locale@std@@@8 100992b0     Misc.obj
 0003:0000f2d0       ??_R0?AU_Crt_new_delete@std@@@8 100992d0     Misc.obj
 0003:0000f2f4       ??_R0?AVcodecvt_base@std@@@8 100992f4     Misc.obj
 0003:0000f314       ??_R0?AUctype_base@std@@@8 10099314     Misc.obj
 0003:0000f334       ??_R0?AV?$ctype@D@std@@@8  10099334     Misc.obj
 0003:0000f350       ??_R0?AVerror_category@std@@@8 10099350     Misc.obj
 0003:0000f374       ??_R0?AV_Generic_error_category@std@@@8 10099374     Misc.obj
 0003:0000f3a0       ??_R0?AV_Iostream_error_category@std@@@8 100993a0     Misc.obj
 0003:0000f3cc       ??_R0?AV?$codecvt@DDU_Mbstatet@@@std@@@8 100993cc     Misc.obj
 0003:0000f3f8       ??_R0?AV?$basic_stringbuf@DU?$char_traits@D@std@@V?$allocator@D@2@@std@@@8 100993f8     PPGUI_Commands.obj
 0003:0000f448       ??_R0?AV?$basic_stringstream@DU?$char_traits@D@std@@V?$allocator@D@2@@std@@@8 10099448     PPGUI_Commands.obj
 0003:0000f498       ??_R0?AVPPGUI_Command@PPGUI@@@8 10099498     PPGUI_Commands.obj
 0003:0000f4bc       ??_R0?AVPPGUI_Window_Command@PPGUI@@@8 100994bc     PPGUI_Commands.obj
 0003:0000f4e8       ??_R0?AVPPGUI_Checkbox_Command@PPGUI@@@8 100994e8     PPGUI_Commands.obj
 0003:0000f514       ??_R0?AVPPGUI_Button_Command@PPGUI@@@8 10099514     PPGUI_Commands.obj
 0003:0000f540       ??_R0?AVPPGUI_Groupbox_Command@PPGUI@@@8 10099540     PPGUI_Commands.obj
 0003:0000f56c       ??_R0?AVPPGUI_Slider_Command@PPGUI@@@8 1009956c     PPGUI_Commands.obj
 0003:0000f598       ??_R0?AVPPGUI_Separator_Command@PPGUI@@@8 10099598     PPGUI_Commands.obj
 0003:0000f5c4       ??_R0?AVPPGUI_Keybind_Command@PPGUI@@@8 100995c4     PPGUI_Commands.obj
 0003:0000f5f0       ??_R0?AVPPGUI_Text_Input_Command@PPGUI@@@8 100995f0     PPGUI_Commands.obj
 0003:0000f620       ??_R0?AVPPGUI_Combobox_Command@PPGUI@@@8 10099620     PPGUI_Commands.obj
 0003:0000f64c       ??_R0?AVPPGUI_Multiselect_Combobox_Command@PPGUI@@@8 1009964c     PPGUI_Commands.obj
 0003:0000f684       ??_R0?AVPPGUI_Color_Picker_Command@PPGUI@@@8 10099684     PPGUI_Commands.obj
 0003:0000f6b4       ??_R0?AVPPGUI_Tab_Command@PPGUI@@@8 100996b4     PPGUI_Commands.obj
 0003:0000f6dc       ??_R0?AVPPGUI_Tool_Tip_Command@PPGUI@@@8 100996dc     PPGUI_Commands.obj
 0003:0000f708       ??_R0?AV?$num_put@DV?$ostreambuf_iterator@DU?$char_traits@D@std@@@std@@@std@@@8 10099708     PPGUI_Commands.obj
 0003:0000f75c       ??_R0?AV?$numpunct@D@std@@@8 1009975c     PPGUI_Commands.obj
 0003:0000f77c       ??_R0?AVbad_alloc@std@@@8  1009977c     libcpmt:xthrow.obj
 0003:0000f798       ??_R0?AVlength_error@std@@@8 10099798     libcpmt:xthrow.obj
 0003:0000f7b8       ??_R0?AVout_of_range@std@@@8 100997b8     libcpmt:xthrow.obj
 0003:0000f7d8       ??_R0?AV_Locimp@locale@std@@@8 100997d8     libcpmt:locale0.obj
 0003:0000f7fc       ??_R0?AV_com_error@@@8     100997fc     comsuppw:comraise.obj
 0003:0000f818       ??_R0?AVtype_info@@@8      10099818     LIBCMT:std_type_info_static.obj
 0003:0000f830       ??_R0?AVbad_array_new_length@std@@@8 10099830     LIBCMT:throw_bad_alloc.obj
 0003:0000f858       ??_R0?AVbad_exception@std@@@8 10099858     libvcruntime:frame.obj
 0003:0000f878       ?aimbot@RAGEBOT@FEATURES@@3VAimbot@12@A 10099878     Aimbot.obj
 0003:000bdc7c       ?random_float@?1???R<lambda_226465845abdf7192f61acb56475a920>@@QBEMMM@Z@4P6AMMM@ZA 10147c7c     Aimbot.obj
 0003:000bdc80       ?$TSS0@?1???R<lambda_226465845abdf7192f61acb56475a920>@@QBEMMM@Z@4HA 10147c80     Aimbot.obj
 0003:000bdc84       ?id@?$num_put@DV?$ostreambuf_iterator@DU?$char_traits@D@std@@@std@@@std@@2V0locale@2@A 10147c84     Aimbot.obj
 0003:000bdc88       ?id@?$numpunct@D@std@@2V0locale@2@A 10147c88     Aimbot.obj
 0003:000bdc90       ?rand_gen@?1??RandomNumber@MATH@@YAMMM@Z@4V?$mersenne_twister_engine@I$0CA@$0CHA@$0BIN@$0BP@$0JJAILANP@$0L@$0PPPPPPPP@$06$0JNCMFGIA@$0P@$0OPMGAAAA@$0BC@$0GMAHIJGF@@std@@A 10147c90     Antiaim.obj
 0003:000bf018       ?$TSS1@?1??RandomNumber@MATH@@YAMMM@Z@4HA 10149018     Antiaim.obj
 0003:000bf01c       ?antiaim@RAGEBOT@FEATURES@@3VAntiaim@12@A 1014901c     Antiaim.obj
 0003:000bf034       ?dwAddress@?1??UTIL_ClipTraceToPlayers@Autowall@RAGEBOT@FEATURES@@AAEXABVVector@@0IPAVITraceFilter@SDK@@PAUtrace_t@7@@Z@4KA 10149034     Autowall.obj
 0003:000bf038       ?$TSS0@?1??UTIL_ClipTraceToPlayers@Autowall@RAGEBOT@FEATURES@@AAEXABVVector@@0IPAVITraceFilter@SDK@@PAUtrace_t@7@@Z@4HA 10149038     Autowall.obj
 0003:000bf03c       ?autowall@RAGEBOT@FEATURES@@3VAutowall@12@A 1014903c     Autowall.obj
 0003:000bf048       ?func@?1??SetAbsOrigin@CBaseEntity@SDK@@QAEXVVector@@@Z@4P6EXPAV23@ABV4@@ZA 10149048     Backtracking.obj
 0003:000bf04c       ?func@?1??SetAbsAngles@CBaseEntity@SDK@@QAEXVVector@@@Z@4P6EXPAV23@ABV4@@ZA 1014904c     Backtracking.obj
 0003:000bf050       ?backtracking@RAGEBOT@FEATURES@@3VCBacktracking@12@A 10149050     Backtracking.obj
 0003:000bf3dc       ?box_esp@VISUALS@FEATURES@@3VCBoxESP@12@A 101493dc     BoxESP.obj
 0003:000bf3e0       ?_OptionsStorage@?1??__local_stdio_printf_options@@9@4_KA 101493e0     BoxESP.obj
 0003:000bf3e8       ?chams@VISUALS@FEATURES@@3VCChams@12@A 101493e8     Chams.obj
 0003:000bf434       ?circle_strafer@MISC@FEATURES@@3VCircleStrafer@12@A 10149434     CircleStrafer.obj
 0003:000bf438       ?engine_prediction@MISC@FEATURES@@3VEnginePrediction@12@A 10149438     EnginePrediction.obj
 0003:000bf4fd       ?fakewalk@RAGEBOT@FEATURES@@3VFakewalk@12@A 101494fd     Fakewalk.obj
 0003:000bf4fe       ?glow@VISUALS@FEATURES@@3VCGlow@12@A 101494fe     Glow.obj
 0003:000bf500       ?legit_aimbot@LEGITBOT@FEATURES@@3VLegitAimbot@12@A 10149500     Legitbot.obj
 0003:000bf524       ?set_clan_tag@?1???R<lambda_a6669d928a94ba27917059d5a85f90cd>@@QBE@PBD0@Z@4P6IX00@ZA 10149524     Misc.obj
 0003:000bf528       ?$TSS0@?1???R<lambda_a6669d928a94ba27917059d5a85f90cd>@@QBE@PBD0@Z@4HA 10149528     Misc.obj
 0003:000bf52c       ?id@?$codecvt@DDU_Mbstatet@@@std@@2V0locale@2@A 1014952c     Misc.obj
 0003:000bf530       ?_Stinit@?1??_Init@?$basic_filebuf@DU?$char_traits@D@std@@@std@@IAEXPAU_iobuf@@W4_Initfl@23@@Z@4U_Mbstatet@@A 10149530     Misc.obj
 0003:000bf538       ?_Psave@?$_Facetptr@V?$ctype@D@std@@@std@@2PBVfacet@locale@2@B 10149538     Misc.obj
 0003:000bf53c       ?_Flag@?1???$_Immortalize@V_Iostream_error_category@std@@@std@@YAAAV_Iostream_error_category@1@XZ@4PAXA 1014953c     Misc.obj
 0003:000bf540       ?_Storage@?1???$_Immortalize@V_Iostream_error_category@std@@@std@@YAAAV_Iostream_error_category@1@XZ@4T?$_Align_type@H$07@1@A 10149540     Misc.obj
 0003:000bf548       ?_Psave@?$_Facetptr@V?$codecvt@DDU_Mbstatet@@@std@@@std@@2PBVfacet@locale@2@B 10149548     Misc.obj
 0003:000bf54c       ?offset@?1??GetSequenceActivity@CBaseEntity@SDK@@QAEHH@Z@4KA 1014954c     Resolver.obj
 0003:000bf550       ?$TSS0@?1??GetSequenceActivity@CBaseEntity@SDK@@QAEHH@Z@4HA 10149550     Resolver.obj
 0003:000bf554       ?GetSequenceActivity@?1??0CBaseEntity@SDK@@QAEHH@Z@4P6IHPAXPAUstudiohdr_t@2@H@ZA 10149554     Resolver.obj
 0003:000bf558       ?$TSS1@?1??GetSequenceActivity@CBaseEntity@SDK@@QAEHH@Z@4HA 10149558     Resolver.obj
 0003:000bf560       ?resolver@RAGEBOT@FEATURES@@3VResolver@12@A 10149560     Resolver.obj
 0003:000cf478       ?main_configs@SETTINGS@@3VMainConfig@1@A 10159478     Configurations.obj
 0003:000cf660       ?skin_configs@SETTINGS@@3VSkinConfig@1@A 10159660     Configurations.obj
 0003:000d1c40       ?skeleton_esp@VISUALS@FEATURES@@3VSkeletonESP@12@A 1015bc40     SkeletonESP.obj
 0003:000d1c48       ?skin_changer@MISC@FEATURES@@3VSkinChanger@12@A 1015bc48     SkinChanger.obj
 0003:000ff274       ?visualize_backtrack@VISUALS@FEATURES@@3VVisualizeBacktrack@12@A 10189274     VisualizeBacktrack.obj
 0003:000ff278       ?player_time_dormant@VISUALS@FEATURES@@3PAMA 10189278     Visuals.obj
 0003:000ff378       ?player_time_not_dormant@VISUALS@FEATURES@@3PAMA 10189378     Visuals.obj
 0003:000ff47c       ?visuals_misc@VISUALS@FEATURES@@3VVisualsMisc@12@A 1018947c     VisualsMisc.obj
 0003:000ff4a8       ?prepared@VISUALS@FEATURES@@3_NA 101894a8     World Textures.obj
 0003:000ff4ac       ?world_opacity@VISUALS@FEATURES@@3MA 101894ac     World Textures.obj
 0003:000ff4b0       ?props_opacity@VISUALS@FEATURES@@3MA 101894b0     World Textures.obj
 0003:000ff4b4       ?skybox@VISUALS@FEATURES@@3HA 101894b4     World Textures.obj
 0003:000ff4b8       ?world_textures@VISUALS@FEATURES@@3VWorldTextures@12@A 101894b8     World Textures.obj
 0003:001016c4       ?ClientStateAddr@?1??GetClientState@IEngine@SDK@@SAIXZ@4IA 1018b6c4     Menu.obj
 0003:001016c8       ?$TSS0@?1??GetClientState@IEngine@SDK@@SAIXZ@4HA 1018b6c8     Menu.obj
 0003:001016cc       ?client_state@?1??ForceFullUpdate@IEngine@SDK@@SAXXZ@4IA 1018b6cc     Menu.obj
 0003:001016d0       ?$TSS0@?1??ForceFullUpdate@IEngine@SDK@@SAXXZ@4HA 1018b6d0     Menu.obj
 0003:00104360       ?_Psave@?$_Facetptr@V?$num_put@DV?$ostreambuf_iterator@DU?$char_traits@D@std@@@std@@@std@@@std@@2PBVfacet@locale@2@B 1018e360     PPGUI_Commands.obj
 0003:00104364       ?_Psave@?$_Facetptr@V?$numpunct@D@std@@@std@@2PBVfacet@locale@2@B 1018e364     PPGUI_Commands.obj
 0003:00104368       ?ppgui_attributes@PPGUI@@3PAMA 1018e368     PPGUI_Defines.obj
 0003:001043d8       ?ppgui_fonts@PPGUI@@3PAIA  1018e3d8     PPGUI_Defines.obj
 0003:00104428       ?ppgui_colors@PPGUI@@3PAVPPGUI_Color@HELPERS@1@A 1018e428     PPGUI_Defines.obj
 0003:00104528       ?ppgui_command_data_base@PPGUI@@3VPPGUI_Command_Data_Base@1@A 1018e528     PPGUI_Defines.obj
 0003:00104548       ?gCRC@SDK@@3VCCRC@1@A      1018e548     sdk.obj
 0003:0010454c       ?original_create_move@HOOKS@@3P6E_NPAXMPAVCUserCmd@SDK@@@ZA 1018e54c     hooks.obj
 0003:00104550       ?original_paint_traverse@HOOKS@@3P6EXPAXI_N1@ZA 1018e550     hooks.obj
 0003:00104554       ?original_frame_stage_notify@HOOKS@@3P6EXPAXH@ZA 1018e554     hooks.obj
 0003:00104558       ?original_draw_model_execute@HOOKS@@3P6EXPAXPAVIMatRenderContext@SDK@@ABUDrawModelState_t@3@ABUModelRenderInfo_t@3@PAUmatrix3x4_t@@@ZA 1018e558     hooks.obj
 0003:0010455c       ?original_scene_end@HOOKS@@3P6EXPAX@ZA 1018e55c     hooks.obj
 0003:00104560       ?original_trace_ray@HOOKS@@3P6EXPAXABURay_t@SDK@@IPAVITraceFilter@3@PAUtrace_t@3@@ZA 1018e560     hooks.obj
 0003:00104564       ?original_send_datagram@HOOKS@@3P6EHPAX0@ZA 1018e564     hooks.obj
 0003:00104568       ?original_override_view@HOOKS@@3P6EXPAXPAUCViewSetup@SDK@@@ZA 1018e568     hooks.obj
 0003:0010456c       ?original_setup_bones@HOOKS@@3P6E_NPAXPAUmatrix3x4_t@@HHM@ZA 1018e56c     hooks.obj
 0003:00104570       ?OriginalSequenceFn@HOOKS@@3PAXA 1018e570     hooks.obj
 0003:00104574       ?net_channel_hook_manager@HOOKS@@3VVMTHookManager@VMT@@A 1018e574     hooks.obj
 0003:00104588       ?trace_hook_manager@HOOKS@@3VVMTHookManager@VMT@@A 1018e588     hooks.obj
 0003:0010459c       ?setup_bones_hook_manager@HOOKS@@3VVMTHookManager@VMT@@A 1018e59c     hooks.obj
 0003:001045b4       ?client_mode_hook_manager@HOOKS@@3VVMTHookManager@VMT@@A 1018e5b4     hooks.obj
 0003:001045c8       ?render_view_hook_manager@HOOKS@@3VVMTHookManager@VMT@@A 1018e5c8     hooks.obj
 0003:001045dc       ?panel_hook_manager@HOOKS@@3VVMTHookManager@VMT@@A 1018e5dc     hooks.obj
 0003:001045f0       ?model_render_hook_manager@HOOKS@@3VVMTHookManager@VMT@@A 1018e5f0     hooks.obj
 0003:00104604       ?iclient_hook_manager@HOOKS@@3VVMTHookManager@VMT@@A 1018e604     hooks.obj
 0003:00104620       ?old_wnd_proc@INPUT@UTILS@@3JA 1018e620     input_handler.obj
 0003:00104628       ?input_handler@INPUT@UTILS@@3VInputHandler@12@A 1018e628     input_handler.obj
 0003:00104e48       ?Client@INTERFACES@@3PAVIClient@SDK@@A 1018ee48     interfaces.obj
 0003:00104e4c       ?Input@INTERFACES@@3PAVCInput@SDK@@A 1018ee4c     interfaces.obj
 0003:00104e50       ?Panel@INTERFACES@@3PAVCPanel@SDK@@A 1018ee50     interfaces.obj
 0003:00104e54       ?Surface@INTERFACES@@3PAVISurface@SDK@@A 1018ee54     interfaces.obj
 0003:00104e58       ?Engine@INTERFACES@@3PAVIEngine@SDK@@A 1018ee58     interfaces.obj
 0003:00104e5c       ?ClientEntityList@INTERFACES@@3PAVCClientEntityList@SDK@@A 1018ee5c     interfaces.obj
 0003:00104e60       ?Globals@INTERFACES@@3PAVCGlobalVars@SDK@@A 1018ee60     interfaces.obj
 0003:00104e64       ?DebugOverlay@INTERFACES@@3PAVIVDebugOverlay@SDK@@A 1018ee64     interfaces.obj
 0003:00104e68       ?Trace@INTERFACES@@3PAVCTrace@SDK@@A 1018ee68     interfaces.obj
 0003:00104e6c       ?ModelInfo@INTERFACES@@3PAVCModelInfo@SDK@@A 1018ee6c     interfaces.obj
 0003:00104e70       ?cvar@INTERFACES@@3PAVICVar@SDK@@A 1018ee70     interfaces.obj
 0003:00104e74       ?InputSystem@INTERFACES@@3PAVCInputSystem@SDK@@A 1018ee74     interfaces.obj
 0003:00104e78       ?ModelRender@INTERFACES@@3PAVCModelRender@SDK@@A 1018ee78     interfaces.obj
 0003:00104e7c       ?RenderView@INTERFACES@@3PAVCRenderView@SDK@@A 1018ee7c     interfaces.obj
 0003:00104e80       ?MaterialSystem@INTERFACES@@3PAVIMaterialSystem@SDK@@A 1018ee80     interfaces.obj
 0003:00104e84       ?PhysicsProps@INTERFACES@@3PAVIPhysicsProps@SDK@@A 1018ee84     interfaces.obj
 0003:00104e88       ?ClientMode@INTERFACES@@3PAVCClientMode@SDK@@A 1018ee88     interfaces.obj
 0003:00104e8c       ?GameEventManager@INTERFACES@@3PAVIGameEventManager@SDK@@A 1018ee8c     interfaces.obj
 0003:00104e90       ?GlowObjManager@INTERFACES@@3PAVCGlowObjectManager@SDK@@A 1018ee90     interfaces.obj
 0003:00104e94       ?GameMovement@INTERFACES@@3PAVIGameMovement@SDK@@A 1018ee94     interfaces.obj
 0003:00104e98       ?Prediction@INTERFACES@@3PAVCPrediction@SDK@@A 1018ee98     interfaces.obj
 0003:00104e9c       ?MoveHelper@INTERFACES@@3PAVIMoveHelper@SDK@@A 1018ee9c     interfaces.obj
 0003:00104fa5       ?netvar_manager@UTILS@@3VCNetvarManager@1@A 1018efa5     NetvarManager.obj
 0003:00104fa8       ?m_iHealth@OFFSETS@@3IA    1018efa8     offsets.obj
 0003:00104fac       ?m_fFlags@OFFSETS@@3IA     1018efac     offsets.obj
 0003:00104fb0       ?m_vecVelocity@OFFSETS@@3IA 1018efb0     offsets.obj
 0003:00104fb4       ?m_flLowerBodyYawTarget@OFFSETS@@3IA 1018efb4     offsets.obj
 0003:00104fb8       ?deadflag@OFFSETS@@3IA     1018efb8     offsets.obj
 0003:00104fbc       ?m_vecOrigin@OFFSETS@@3IA  1018efbc     offsets.obj
 0003:00104fc0       ?m_iTeamNum@OFFSETS@@3IA   1018efc0     offsets.obj
 0003:00104fc4       ?m_nTickBase@OFFSETS@@3IA  1018efc4     offsets.obj
 0003:00104fc8       ?m_bDormant@OFFSETS@@3IA   1018efc8     offsets.obj
 0003:00104fcc       ?animstate@OFFSETS@@3IA    1018efcc     offsets.obj
 0003:00104fd0       ?m_Collision@OFFSETS@@3IA  1018efd0     offsets.obj
 0003:00104fd4       ?m_angEyeAngles@OFFSETS@@3IA 1018efd4     offsets.obj
 0003:00104fd8       ?m_flSimulationTime@OFFSETS@@3IA 1018efd8     offsets.obj
 0003:00104fdc       ?m_vecViewOffset@OFFSETS@@3IA 1018efdc     offsets.obj
 0003:00104fe0       ?m_dwBoneMatrix@OFFSETS@@3IA 1018efe0     offsets.obj
 0003:00104fe4       ?m_aimPunchAngle@OFFSETS@@3IA 1018efe4     offsets.obj
 0003:00104fe8       ?m_bGunGameImmunity@OFFSETS@@3IA 1018efe8     offsets.obj
 0003:00104fec       ?m_nForceBone@OFFSETS@@3IA 1018efec     offsets.obj
 0003:00104ff0       ?m_flPoseParameter@OFFSETS@@3IA 1018eff0     offsets.obj
 0003:00104ff4       ?dwGlowObjectManager@OFFSETS@@3IA 1018eff4     offsets.obj
 0003:00104ff8       ?m_flNextPrimaryAttack@OFFSETS@@3IA 1018eff8     offsets.obj
 0003:00104ffc       ?m_flNextAttack@OFFSETS@@3IA 1018effc     offsets.obj
 0003:00105000       ?m_hActiveWeapon@OFFSETS@@3IA 1018f000     offsets.obj
 0003:00105004       ?m_ArmorValue@OFFSETS@@3IA 1018f004     offsets.obj
 0003:00105008       ?m_bHasHelmet@OFFSETS@@3IA 1018f008     offsets.obj
 0003:0010500c       ?m_bIsScoped@OFFSETS@@3IA  1018f00c     offsets.obj
 0003:00105010       ?ClientState@OFFSETS@@3IA  1018f010     offsets.obj
 0003:00105014       ?m_iItemDefinitionIndex@OFFSETS@@3IA 1018f014     offsets.obj
 0003:00105018       ?m_iItemIDHigh@OFFSETS@@3IA 1018f018     offsets.obj
 0003:0010501c       ?m_nFallbackPaintKit@OFFSETS@@3IA 1018f01c     offsets.obj
 0003:00105020       ?m_flFallbackWear@OFFSETS@@3IA 1018f020     offsets.obj
 0003:00105024       ?m_szCustomName@OFFSETS@@3IA 1018f024     offsets.obj
 0003:00105028       ?m_hMyWeapons@OFFSETS@@3IA 1018f028     offsets.obj
 0003:0010502c       ?m_nFallbackSeed@OFFSETS@@3IA 1018f02c     offsets.obj
 0003:00105030       ?m_nFallbackStatTrak@OFFSETS@@3IA 1018f030     offsets.obj
 0003:00105034       ?m_iEntityQuality@OFFSETS@@3IA 1018f034     offsets.obj
 0003:00105038       ?m_iAccountID@OFFSETS@@3IA 1018f038     offsets.obj
 0003:0010503c       ?m_flPostponeFireReadyTime@OFFSETS@@3IA 1018f03c     offsets.obj
 0003:00105040       ?m_iObserverMode@OFFSETS@@3IA 1018f040     offsets.obj
 0003:00105044       ?m_flFlashDuration@OFFSETS@@3IA 1018f044     offsets.obj
 0003:00105048       ?m_flThrowStrength@OFFSETS@@3IA 1018f048     offsets.obj
 0003:0010504c       ?m_bPinPulled@OFFSETS@@3IA 1018f04c     offsets.obj
 0003:00105050       ?m_bSpotted@OFFSETS@@3IA   1018f050     offsets.obj
 0003:00105054       ?m_flNextSecondaryAttack@OFFSETS@@3IA 1018f054     offsets.obj
 0003:00105058       ?m_fThrowTime@OFFSETS@@3IA 1018f058     offsets.obj
 0003:0010505c       ?m_MoveType@OFFSETS@@3IA   1018f05c     offsets.obj
 0003:00105060       ?m_iClip1@OFFSETS@@3IA     1018f060     offsets.obj
 0003:00105064       ?m_iPrimaryReserveAmmoCount@OFFSETS@@3IA 1018f064     offsets.obj
 0003:00105068       ?m_hViewModel@OFFSETS@@3IA 1018f068     offsets.obj
 0003:0010506c       ?m_nModelIndex@OFFSETS@@3IA 1018f06c     offsets.obj
 0003:00105070       ?m_hWeapon@OFFSETS@@3IA    1018f070     offsets.obj
 0003:00105074       ?m_hOwner@OFFSETS@@3IA     1018f074     offsets.obj
 0003:00105078       ?m_hWeaponWorldModel@OFFSETS@@3IA 1018f078     offsets.obj
 0003:0010507c       ?m_iViewModelIndex@OFFSETS@@3IA 1018f07c     offsets.obj
 0003:00105080       ?m_iWorldModelIndex@OFFSETS@@3IA 1018f080     offsets.obj
 0003:00105084       ?m_angRotation@OFFSETS@@3IA 1018f084     offsets.obj
 0003:00105088       ?render_queue@RENDER@@3VRenderQueue@1@A 1018f088     render.obj
 0003:0010509c       ?should_send_packet@GLOBAL@@3_NA 1018f09c     variables.obj
 0003:0010509d       ?disable_fake_lag@GLOBAL@@3_NA 1018f09d     variables.obj
 0003:0010509e       ?is_fakewalking@GLOBAL@@3_NA 1018f09e     variables.obj
 0003:0010509f       ?should_choke_packets@GLOBAL@@3_NA 1018f09f     variables.obj
 0003:001050a0       ?is_freestanding@GLOBAL@@3_NA 1018f0a0     variables.obj
 0003:001050a1       ?is_edging@GLOBAL@@3_NA    1018f0a1     variables.obj
 0003:001050a2       ?can_shoot_someone@GLOBAL@@3_NA 1018f0a2     variables.obj
 0003:001050a3       ?is_jumping@GLOBAL@@3_NA   1018f0a3     variables.obj
 0003:001050a4       ?do_max_fake_lag@GLOBAL@@3_NA 1018f0a4     variables.obj
 0003:001050a5       ?pressing_move@GLOBAL@@3_NA 1018f0a5     variables.obj
 0003:001050a6       ?testing_bool_1@GLOBAL@@3_NA 1018f0a6     variables.obj
 0003:001050a7       ?testing_bool_2@GLOBAL@@3_NA 1018f0a7     variables.obj
 0003:001050a8       ?choke_amount@GLOBAL@@3HA  1018f0a8     variables.obj
 0003:001050ac       ?cheat_start_time@GLOBAL@@3MA 1018f0ac     variables.obj
 0003:001050b0       ?lerp@GLOBAL@@3MA          1018f0b0     variables.obj
 0003:001050b4       ?testing_float_1@GLOBAL@@3MA 1018f0b4     variables.obj
 0003:001050b8       ?testing_float_2@GLOBAL@@3MA 1018f0b8     variables.obj
 0003:001050bc       ?last_cmd@GLOBAL@@3PAXA    1018f0bc     variables.obj
 0003:001050c0       ?menu_tab_font@FONTS@@3IA  1018f0c0     variables.obj
 0003:001050c4       ?menu_checkbox_font@FONTS@@3IA 1018f0c4     variables.obj
 0003:001050c8       ?menu_slider_font@FONTS@@3IA 1018f0c8     variables.obj
 0003:001050cc       ?menu_slider_value_font@FONTS@@3IA 1018f0cc     variables.obj
 0003:001050d0       ?menu_groupbox_font@FONTS@@3IA 1018f0d0     variables.obj
 0003:001050d4       ?menu_combobox_name_font@FONTS@@3IA 1018f0d4     variables.obj
 0003:001050d8       ?menu_combobox_value_font@FONTS@@3IA 1018f0d8     variables.obj
 0003:001050dc       ?menu_window_font@FONTS@@3IA 1018f0dc     variables.obj
 0003:001050e0       ?menu_separator_font@FONTS@@3IA 1018f0e0     variables.obj
 0003:001050e4       ?menu_window_blurr_font@FONTS@@3IA 1018f0e4     variables.obj
 0003:001050e8       ?menu_keybind_value_font@FONTS@@3IA 1018f0e8     variables.obj
 0003:001050ec       ?menu_keybind_name_font@FONTS@@3IA 1018f0ec     variables.obj
 0003:001050f0       ?menu_text_input_name_font@FONTS@@3IA 1018f0f0     variables.obj
 0003:001050f4       ?menu_text_input_value_font@FONTS@@3IA 1018f0f4     variables.obj
 0003:001050f8       ?menu_button_font@FONTS@@3IA 1018f0f8     variables.obj
 0003:001050fc       ?menu_colorpicker_font@FONTS@@3IA 1018f0fc     variables.obj
 0003:00105100       ?menu_tool_tip_font@FONTS@@3IA 1018f100     variables.obj
 0003:00105104       ?visuals_esp_font@FONTS@@3IA 1018f104     variables.obj
 0003:00105108       ?visuals_esp_font_small@FONTS@@3IA 1018f108     variables.obj
 0003:0010510c       ?lby_indicator_font@FONTS@@3IA 1018f10c     variables.obj
 0003:00105110       ?in_game_logging_font@FONTS@@3IA 1018f110     variables.obj
 0003:00105114       ?weapon_icon_font@FONTS@@3IA 1018f114     variables.obj
 0003:00105118       ?welcome_font@FONTS@@3IA   1018f118     variables.obj
 0003:0010511c       ?csgo_hwnd@GLOBAL@@3PAUHWND__@@A 1018f11c     variables.obj
 0003:00105120       ?real_angles@GLOBAL@@3VVector@@A 1018f120     variables.obj
 0003:0010512c       ?fake_angles@GLOBAL@@3VVector@@A 1018f12c     variables.obj
 0003:00105138       ?strafe_angles@GLOBAL@@3VVector@@A 1018f138     variables.obj
 0003:00105218       ?_Id_cnt@id@locale@std@@0HA 1018f218     libcpmt:locale0.obj
 0003:0010521c       ?_Clocptr@_Locimp@locale@std@@0PAV123@A 1018f21c     libcpmt:locale0.obj
 0003:00105220       ?id@?$ctype@G@std@@2V0locale@2@A 1018f220     libcpmt:locale0.obj
 0003:00105224       ?id@?$codecvt@_WDU_Mbstatet@@@std@@2V0locale@2@A 1018f224     libcpmt:locale0.obj
 0003:00105228       ?id@?$codecvt@GDU_Mbstatet@@@std@@2V0locale@2@A 1018f228     libcpmt:locale0.obj
 0003:0010522c       ?id@?$ctype@_W@std@@2V0locale@2@A 1018f22c     libcpmt:locale0.obj
 0003:00105230       ?id@?$ctype@D@std@@2V0locale@2@A 1018f230     libcpmt:locale0.obj
 0003:0010524c       ?_Index@ios_base@std@@0HA  1018f24c     libcpmt:ios.obj
 0003:00105290       ?cout@std@@3V?$basic_ostream@DU?$char_traits@D@std@@@1@A 1018f290     libcpmt:cout.obj
 0003:00105338       ?id@?$num_get@DV?$istreambuf_iterator@DU?$char_traits@D@std@@@std@@@std@@2V0locale@2@A 1018f338     libcpmt:locale.obj
 0003:0010533c       ?_Ptr_cin@std@@3PAV?$basic_istream@DU?$char_traits@D@std@@@1@A 1018f33c     libcpmt:iosptrs.obj
 0003:00105340       ?_Ptr_cout@std@@3PAV?$basic_ostream@DU?$char_traits@D@std@@@1@A 1018f340     libcpmt:iosptrs.obj
 0003:00105344       ?_Ptr_cerr@std@@3PAV?$basic_ostream@DU?$char_traits@D@std@@@1@A 1018f344     libcpmt:iosptrs.obj
 0003:00105348       ?_Ptr_clog@std@@3PAV?$basic_ostream@DU?$char_traits@D@std@@@1@A 1018f348     libcpmt:iosptrs.obj
 0003:0010534c       ?_Ptr_wcin@std@@3PAV?$basic_istream@_WU?$char_traits@_W@std@@@1@A 1018f34c     libcpmt:iosptrs.obj
 0003:00105350       ?_Ptr_wcout@std@@3PAV?$basic_ostream@_WU?$char_traits@_W@std@@@1@A 1018f350     libcpmt:iosptrs.obj
 0003:00105354       ?_Ptr_wcerr@std@@3PAV?$basic_ostream@_WU?$char_traits@_W@std@@@1@A 1018f354     libcpmt:iosptrs.obj
 0003:00105358       ?_Ptr_wclog@std@@3PAV?$basic_ostream@_WU?$char_traits@_W@std@@@1@A 1018f358     libcpmt:iosptrs.obj
 0003:00105388       ___encodedKERNEL32Functions 1018f388     libcpmt:winapisupp.obj
 0003:00105428       ?id@?$time_put@_WV?$ostreambuf_iterator@_WU?$char_traits@_W@std@@@std@@@std@@2V0locale@2@A 1018f428     libcpmt:wlocale.obj
 0003:0010542c       ?id@?$num_get@_WV?$istreambuf_iterator@_WU?$char_traits@_W@std@@@std@@@std@@2V0locale@2@A 1018f42c     libcpmt:wlocale.obj
 0003:00105430       ?id@?$num_put@_WV?$ostreambuf_iterator@_WU?$char_traits@_W@std@@@std@@@std@@2V0locale@2@A 1018f430     libcpmt:wlocale.obj
 0003:00105434       ?id@?$numpunct@_W@std@@2V0locale@2@A 1018f434     libcpmt:wlocale.obj
 0003:00105438       ?id@?$collate@_W@std@@2V0locale@2@A 1018f438     libcpmt:wlocale.obj
 0003:0010543c       ?id@?$messages@_W@std@@2V0locale@2@A 1018f43c     libcpmt:wlocale.obj
 0003:00105440       ?id@?$money_get@_WV?$istreambuf_iterator@_WU?$char_traits@_W@std@@@std@@@std@@2V0locale@2@A 1018f440     libcpmt:wlocale.obj
 0003:00105444       ?id@?$money_put@_WV?$ostreambuf_iterator@_WU?$char_traits@_W@std@@@std@@@std@@2V0locale@2@A 1018f444     libcpmt:wlocale.obj
 0003:00105448       ?id@?$moneypunct@_W$0A@@std@@2V0locale@2@A 1018f448     libcpmt:wlocale.obj
 0003:0010544c       ?id@?$moneypunct@_W$00@std@@2V0locale@2@A 1018f44c     libcpmt:wlocale.obj
 0003:00105450       ?id@?$time_get@_WV?$istreambuf_iterator@_WU?$char_traits@_W@std@@@std@@@std@@2V0locale@2@A 1018f450     libcpmt:wlocale.obj
 0003:00105454       ?id@?$num_get@GV?$istreambuf_iterator@GU?$char_traits@G@std@@@std@@@std@@2V0locale@2@A 1018f454     libcpmt:wlocale.obj
 0003:00105458       ?id@?$num_put@GV?$ostreambuf_iterator@GU?$char_traits@G@std@@@std@@@std@@2V0locale@2@A 1018f458     libcpmt:wlocale.obj
 0003:0010545c       ?id@?$numpunct@G@std@@2V0locale@2@A 1018f45c     libcpmt:wlocale.obj
 0003:00105460       ?id@?$collate@G@std@@2V0locale@2@A 1018f460     libcpmt:wlocale.obj
 0003:00105464       ?id@?$messages@G@std@@2V0locale@2@A 1018f464     libcpmt:wlocale.obj
 0003:00105468       ?id@?$money_get@GV?$istreambuf_iterator@GU?$char_traits@G@std@@@std@@@std@@2V0locale@2@A 1018f468     libcpmt:wlocale.obj
 0003:0010546c       ?id@?$money_put@GV?$ostreambuf_iterator@GU?$char_traits@G@std@@@std@@@std@@2V0locale@2@A 1018f46c     libcpmt:wlocale.obj
 0003:00105470       ?id@?$moneypunct@G$0A@@std@@2V0locale@2@A 1018f470     libcpmt:wlocale.obj
 0003:00105474       ?id@?$moneypunct@G$00@std@@2V0locale@2@A 1018f474     libcpmt:wlocale.obj
 0003:00105478       ?id@?$time_get@GV?$istreambuf_iterator@GU?$char_traits@G@std@@@std@@@std@@2V0locale@2@A 1018f478     libcpmt:wlocale.obj
 0003:0010547c       ?id@?$time_put@GV?$ostreambuf_iterator@GU?$char_traits@G@std@@@std@@@std@@2V0locale@2@A 1018f47c     libcpmt:wlocale.obj
 0003:00105480       ?id@?$collate@D@std@@2V0locale@2@A 1018f480     libcpmt:xlocale.obj
 0003:00105484       ?id@?$messages@D@std@@2V0locale@2@A 1018f484     libcpmt:xlocale.obj
 0003:00105488       ?id@?$money_get@DV?$istreambuf_iterator@DU?$char_traits@D@std@@@std@@@std@@2V0locale@2@A 1018f488     libcpmt:xlocale.obj
 0003:0010548c       ?id@?$money_put@DV?$ostreambuf_iterator@DU?$char_traits@D@std@@@std@@@std@@2V0locale@2@A 1018f48c     libcpmt:xlocale.obj
 0003:00105490       ?id@?$moneypunct@D$0A@@std@@2V0locale@2@A 1018f490     libcpmt:xlocale.obj
 0003:00105494       ?id@?$moneypunct@D$00@std@@2V0locale@2@A 1018f494     libcpmt:xlocale.obj
 0003:00105498       ?id@?$time_get@DV?$istreambuf_iterator@DU?$char_traits@D@std@@@std@@@std@@2V0locale@2@A 1018f498     libcpmt:xlocale.obj
 0003:0010549c       ?id@?$time_put@DV?$ostreambuf_iterator@DU?$char_traits@D@std@@@std@@@std@@2V0locale@2@A 1018f49c     libcpmt:xlocale.obj
 0003:001054c8       __tls_index                1018f4c8     LIBCMT:tlssup.obj
 0003:001054cc       ___scrt_current_native_startup_state 1018f4cc     LIBCMT:utility.obj
 0003:001054d0       ___scrt_native_startup_lock 1018f4d0     LIBCMT:utility.obj
 0003:00105810       ___scrt_debugger_hook_flag 1018f810     LIBCMT:utility_desktop.obj
 0003:00105814       ___isa_available           1018f814     LIBCMT:cpu_disp.obj
 0003:00105818       ___favor                   1018f818     LIBCMT:cpu_disp.obj
 0003:00105820       ?__type_info_root_node@@3U__type_info_node@@A 1018f820     LIBCMT:tncleanup.obj
 0003:00105828       ?_OptionsStorage@?1??__local_stdio_scanf_options@@9@4_KA 1018f828     LIBCMT:default_local_stdio_options.obj
 0003:00105830       ?__WinRTOutOfMemoryExceptionCallback@@3P6GPAXXZA 1018f830     libvcruntime:ehhelpers.obj
 0003:00105834       ___pPurecall               1018f834     libvcruntime:purevirt_data.obj
 0003:0010589c       ?pArgList@UnDecorator@@0PAVReplicator@@A 1018f89c     libvcruntime:undname.obj
 0003:001058a0       ?pZNameList@UnDecorator@@0PAVReplicator@@A 1018f8a0     libvcruntime:undname.obj
 0003:001058a4       ?pTemplateArgList@UnDecorator@@0PAVReplicator@@A 1018f8a4     libvcruntime:undname.obj
 0003:001058a8       ?gName@UnDecorator@@0PBDB  1018f8a8     libvcruntime:undname.obj
 0003:001058ac       ?name@UnDecorator@@0PBDB   1018f8ac     libvcruntime:undname.obj
 0003:001058b0       ?disableFlags@UnDecorator@@0KA 1018f8b0     libvcruntime:undname.obj
 0003:001058b4       ?fExplicitTemplateParams@UnDecorator@@0_NA 1018f8b4     libvcruntime:undname.obj
 0003:001058b5       ?fGetTemplateArgumentList@UnDecorator@@0_NA 1018f8b5     libvcruntime:undname.obj
 0003:001058b8       ?m_pGetParameter@UnDecorator@@0P6APADJ@ZA 1018f8b8     libvcruntime:undname.obj
 0003:001058bc       ?m_CHPENameOffset@UnDecorator@@0KA 1018f8bc     libvcruntime:undname.obj
 0003:001058c0       ?m_recursionLevel@UnDecorator@@0KA 1018f8c0     libvcruntime:undname.obj
 0003:001058dc       __nstream                  1018f8dc     libucrt:_file.obj
 0003:001058e0       ___piob                    1018f8e0     libucrt:_file.obj
 0003:001058e4       __cflush                   1018f8e4     libucrt:_file.obj
 0003:001058e8       ___acrt_lconv_static_null  1018f8e8     libucrt:localeconv.obj
 0003:001058ec       ___acrt_lconv_static_W_null 1018f8ec     libucrt:localeconv.obj
 0003:00105a50       ?c_exit_complete@?1???R<lambda_6e4b09c48022b2350581041d5f6b0c4c>@@QBE@XZ@4_NA 1018fa50     libucrt:exit.obj
 0003:00105b60       __environ_table            1018fb60     libucrt:environment_initialization.obj
 0003:00105b64       __wenviron_table           1018fb64     libucrt:environment_initialization.obj
 0003:00105b68       ___dcrt_initial_wide_environment 1018fb68     libucrt:environment_initialization.obj
 0003:00105b6c       ___dcrt_initial_narrow_environment 1018fb6c     libucrt:environment_initialization.obj
 0003:00105b70       ___acrt_atexit_table       1018fb70     libucrt:onexit.obj
 0003:00105b7c       ___acrt_at_quick_exit_table 1018fb7c     libucrt:onexit.obj
 0003:00105b98       ___acrt_stdout_buffer      1018fb98     libucrt:_sftbuf.obj
 0003:00105b9c       ___acrt_stderr_buffer      1018fb9c     libucrt:_sftbuf.obj
 0003:00105ba0       ___acrt_locale_changed_data 1018fba0     libucrt:wsetlocale.obj
 0003:00105ba4       ___acrt_current_locale_data 1018fba4     libucrt:nlsdata.obj
 0003:00105ba8       ___pioinfo                 1018fba8     libucrt:ioinit.obj
 0003:00105da8       __nhandle                  1018fda8     libucrt:ioinit.obj
 0003:00105e8c       ?_timezone@@3V?$dual_state_global@J@__crt_state_management@@A 1018fe8c     libucrt:timeset.obj
 0003:00105e90       ?_daylight@@3V?$dual_state_global@H@__crt_state_management@@A 1018fe90     libucrt:timeset.obj
 0003:00105e94       ?_dstbias@@3V?$dual_state_global@J@__crt_state_management@@A 1018fe94     libucrt:timeset.obj
 0003:00105f58       ___fastflag                1018ff58     libucrt:fp_flags.obj
 0003:00105f6c       __mbctype                  1018ff6c     libucrt:mbctype.obj
 0003:00105f70       __mbcasemap                1018ff70     libucrt:mbctype.obj
 0003:00105f74       ___acrt_current_multibyte_data 1018ff74     libucrt:mbctype.obj
 0003:00105f80       __pgmptr                   1018ff80     libucrt:argv_data.obj
 0003:00105f84       ___argc                    1018ff84     libucrt:argv_data.obj
 0003:00105f88       ___argv                    1018ff88     libucrt:argv_data.obj
 0003:00105f8c       ___wargv                   1018ff8c     libucrt:argv_data.obj
 0003:00105f90       __acmdln                   1018ff90     libucrt:argv_data.obj
 0003:00105f94       __wcmdln                   1018ff94     libucrt:argv_data.obj
 0003:00105f98       ___acrt_heap               1018ff98     libucrt:heap_handle.obj
 0003:00105fa4       __commode                  1018ffa4     libucrt:ncommode.obj
 0003:00105fb4       __umaskval                 1018ffb4     libucrt:umask.obj
 0003:00105fc0       __fmode                    1018ffc0     libucrt:txtmode.obj
 0003:00105fc4       ___dyn_tls_init_callback   1018ffc4     <common>
 0003:00105fc8       ___scrt_ucrt_dll_is_in_use 1018ffc8     <common>
 0003:00105fcc       ___use_sse2_mathfcns       1018ffcc     <common>
 0003:00105fd0       __pmatherr                 1018ffd0     <common>

 entry point at        0001:0004735d

 Static symbols

 0000:ffe67000       .debug$S                   10000000     kernel32:KERNEL32.dll
 0000:ffe67000       .debug$S                   10000000     Winmm:WINMM.dll
 0000:ffe67000       .debug$S                   10000000     Winmm:WINMM.dll
 0000:ffe67000       .debug$S                   10000000     urlmon:urlmon.dll
 0000:ffe67000       .debug$S                   10000000     oleaut32:OLEAUT32.dll
 0000:ffe67000       .debug$S                   10000000     kernel32:KERNEL32.dll
 0000:ffe67000       .debug$S                   10000000     kernel32:KERNEL32.dll
 0000:ffe67000       .debug$S                   10000000     oleaut32:OLEAUT32.dll
 0000:ffe67000       .debug$S                   10000000     oleaut32:OLEAUT32.dll
 0000:ffe67000       .debug$S                   10000000     oleaut32:OLEAUT32.dll
 0000:ffe67000       .debug$S                   10000000     oleaut32:OLEAUT32.dll
 0000:ffe67000       .debug$S                   10000000     oleaut32:OLEAUT32.dll
 0000:ffe67000       .debug$S                   10000000     oleaut32:OLEAUT32.dll
 0000:ffe67000       .debug$S                   10000000     kernel32:KERNEL32.dll
 0000:ffe67000       .debug$S                   10000000     kernel32:KERNEL32.dll
 0000:ffe67000       .debug$S                   10000000     kernel32:KERNEL32.dll
 0000:ffe67000       .debug$S                   10000000     kernel32:KERNEL32.dll
 0000:ffe67000       .debug$S                   10000000     kernel32:KERNEL32.dll
 0000:ffe67000       .debug$S                   10000000     kernel32:KERNEL32.dll
 0000:ffe67000       .debug$S                   10000000     kernel32:KERNEL32.dll
 0000:ffe67000       .debug$S                   10000000     kernel32:KERNEL32.dll
 0000:ffe67000       .debug$S                   10000000     kernel32:KERNEL32.dll
 0000:ffe67000       .debug$S                   10000000     kernel32:KERNEL32.dll
 0000:ffe67000       .debug$S                   10000000     kernel32:KERNEL32.dll
 0000:ffe67000       .debug$S                   10000000     kernel32:KERNEL32.dll
 0000:ffe67000       .debug$S                   10000000     kernel32:KERNEL32.dll
 0000:ffe67000       .debug$S                   10000000     kernel32:KERNEL32.dll
 0000:ffe67000       .debug$S                   10000000     kernel32:KERNEL32.dll
 0000:ffe67000       .debug$S                   10000000     kernel32:KERNEL32.dll
 0000:ffe67000       .debug$S                   10000000     kernel32:KERNEL32.dll
 0000:ffe67000       .debug$S                   10000000     kernel32:KERNEL32.dll
 0000:ffe67000       .debug$S                   10000000     kernel32:KERNEL32.dll
 0000:ffe67000       .debug$S                   10000000     kernel32:KERNEL32.dll
 0000:ffe67000       .debug$S                   10000000     kernel32:KERNEL32.dll
 0000:ffe67000       .debug$S                   10000000     kernel32:KERNEL32.dll
 0000:ffe67000       .debug$S                   10000000     kernel32:KERNEL32.dll
 0000:ffe67000       .debug$S                   10000000     kernel32:KERNEL32.dll
 0000:ffe67000       .debug$S                   10000000     kernel32:KERNEL32.dll
 0000:ffe67000       .debug$S                   10000000     kernel32:KERNEL32.dll
 0000:ffe67000       .debug$S                   10000000     kernel32:KERNEL32.dll
 0000:ffe67000       .debug$S                   10000000     kernel32:KERNEL32.dll
 0000:ffe67000       .debug$S                   10000000     kernel32:KERNEL32.dll
 0000:ffe67000       .debug$S                   10000000     kernel32:KERNEL32.dll
 0000:ffe67000       .debug$S                   10000000     kernel32:KERNEL32.dll
 0000:ffe67000       .debug$S                   10000000     kernel32:KERNEL32.dll
 0000:ffe67000       .debug$S                   10000000     kernel32:KERNEL32.dll
 0000:ffe67000       .debug$S                   10000000     kernel32:KERNEL32.dll
 0000:ffe67000       .debug$S                   10000000     kernel32:KERNEL32.dll
 0000:ffe67000       .debug$S                   10000000     kernel32:KERNEL32.dll
 0000:ffe67000       .debug$S                   10000000     kernel32:KERNEL32.dll
 0000:ffe67000       .debug$S                   10000000     kernel32:KERNEL32.dll
 0000:ffe67000       .debug$S                   10000000     kernel32:KERNEL32.dll
 0000:ffe67000       .debug$S                   10000000     kernel32:KERNEL32.dll
 0000:ffe67000       .debug$S                   10000000     kernel32:KERNEL32.dll
 0000:ffe67000       .debug$S                   10000000     kernel32:KERNEL32.dll
 0000:ffe67000       .debug$S                   10000000     kernel32:KERNEL32.dll
 0000:ffe67000       .debug$S                   10000000     kernel32:KERNEL32.dll
 0000:ffe67000       .debug$S                   10000000     kernel32:KERNEL32.dll
 0000:ffe67000       .debug$S                   10000000     kernel32:KERNEL32.dll
 0000:ffe67000       .debug$S                   10000000     kernel32:KERNEL32.dll
 0000:ffe67000       .debug$S                   10000000     kernel32:KERNEL32.dll
 0000:ffe67000       .debug$S                   10000000     kernel32:KERNEL32.dll
 0000:ffe67000       .debug$S                   10000000     kernel32:KERNEL32.dll
 0000:ffe67000       .debug$S                   10000000     kernel32:KERNEL32.dll
 0000:ffe67000       .debug$S                   10000000     kernel32:KERNEL32.dll
 0000:ffe67000       .debug$S                   10000000     kernel32:KERNEL32.dll
 0000:ffe67000       .debug$S                   10000000     Winmm:WINMM.dll
 0000:ffe67000       .debug$S                   10000000     kernel32:KERNEL32.dll
 0000:ffe67000       .debug$S                   10000000     kernel32:KERNEL32.dll
 0000:ffe67000       .debug$S                   10000000     kernel32:KERNEL32.dll
 0000:ffe67000       .debug$S                   10000000     kernel32:KERNEL32.dll
 0000:ffe67000       .debug$S                   10000000     kernel32:KERNEL32.dll
 0000:ffe67000       .debug$S                   10000000     kernel32:KERNEL32.dll
 0000:ffe67000       .debug$S                   10000000     kernel32:KERNEL32.dll
 0000:ffe67000       .debug$S                   10000000     kernel32:KERNEL32.dll
 0000:ffe67000       .debug$S                   10000000     kernel32:KERNEL32.dll
 0000:ffe67000       .debug$S                   10000000     kernel32:KERNEL32.dll
 0000:ffe67000       .debug$S                   10000000     kernel32:KERNEL32.dll
 0000:ffe67000       .debug$S                   10000000     kernel32:KERNEL32.dll
 0000:ffe67000       .debug$S                   10000000     kernel32:KERNEL32.dll
 0000:ffe67000       .debug$S                   10000000     kernel32:KERNEL32.dll
 0000:ffe67000       .debug$S                   10000000     kernel32:KERNEL32.dll
 0000:ffe67000       .debug$S                   10000000     kernel32:KERNEL32.dll
 0000:ffe67000       .debug$S                   10000000     kernel32:KERNEL32.dll
 0000:ffe67000       .debug$S                   10000000     kernel32:KERNEL32.dll
 0000:ffe67000       .debug$S                   10000000     kernel32:KERNEL32.dll
 0000:ffe67000       .debug$S                   10000000     kernel32:KERNEL32.dll
 0000:ffe67000       .debug$S                   10000000     kernel32:KERNEL32.dll
 0000:ffe67000       .debug$S                   10000000     kernel32:KERNEL32.dll
 0000:ffe67000       .debug$S                   10000000     kernel32:KERNEL32.dll
 0000:ffe67000       .debug$S                   10000000     kernel32:KERNEL32.dll
 0000:ffe67000       .debug$S                   10000000     kernel32:KERNEL32.dll
 0000:ffe67000       .debug$S                   10000000     kernel32:KERNEL32.dll
 0000:ffe67000       .debug$S                   10000000     kernel32:KERNEL32.dll
 0000:ffe67000       .debug$S                   10000000     kernel32:KERNEL32.dll
 0000:ffe67000       .debug$S                   10000000     kernel32:KERNEL32.dll
 0000:ffe67000       .debug$S                   10000000     kernel32:KERNEL32.dll
 0000:ffe67000       .debug$S                   10000000     kernel32:KERNEL32.dll
 0000:ffe67000       .debug$S                   10000000     kernel32:KERNEL32.dll
 0000:ffe67000       .debug$S                   10000000     kernel32:KERNEL32.dll
 0000:ffe67000       .debug$S                   10000000     kernel32:KERNEL32.dll
 0000:ffe67000       .debug$S                   10000000     kernel32:KERNEL32.dll
 0000:ffe67000       .debug$S                   10000000     kernel32:KERNEL32.dll
 0000:ffe67000       .debug$S                   10000000     kernel32:KERNEL32.dll
 0000:ffe67000       .debug$S                   10000000     kernel32:KERNEL32.dll
 0000:ffe67000       .debug$S                   10000000     kernel32:KERNEL32.dll
 0000:ffe67000       .debug$S                   10000000     kernel32:KERNEL32.dll
 0000:ffe67000       .debug$S                   10000000     kernel32:KERNEL32.dll
 0000:ffe67000       .debug$S                   10000000     kernel32:KERNEL32.dll
 0000:ffe67000       .debug$S                   10000000     kernel32:KERNEL32.dll
 0000:ffe67000       .debug$S                   10000000     kernel32:KERNEL32.dll
 0000:ffe67000       .debug$S                   10000000     kernel32:KERNEL32.dll
 0000:ffe67000       .debug$S                   10000000     kernel32:KERNEL32.dll
 0000:ffe67000       .debug$S                   10000000     kernel32:KERNEL32.dll
 0000:ffe67000       .debug$S                   10000000     kernel32:KERNEL32.dll
 0000:ffe67000       .debug$S                   10000000     user32:USER32.dll
 0000:ffe67000       .debug$S                   10000000     user32:USER32.dll
 0000:ffe67000       .debug$S                   10000000     user32:USER32.dll
 0000:ffe67000       .debug$S                   10000000     user32:USER32.dll
 0000:ffe67000       .debug$S                   10000000     user32:USER32.dll
 0000:ffe67000       .debug$S                   10000000     user32:USER32.dll
 0000:ffe67000       .debug$S                   10000000     user32:USER32.dll
 0000:ffe67000       .debug$S                   10000000     user32:USER32.dll
 0000:ffe67000       .debug$S                   10000000     user32:USER32.dll
 0000:ffe67000       .debug$S                   10000000     user32:USER32.dll
 0000:ffe67000       .debug$S                   10000000     gdi32:GDI32.dll
 0000:ffe67000       .debug$S                   10000000     oleaut32:OLEAUT32.dll
 0001:00000000       ??__Eaimbot@RAGEBOT@FEATURES@@YAXXZ 10001000 f   Aimbot.obj
 0001:00000030       ??__Ebacktracking@RAGEBOT@FEATURES@@YAXXZ 10001030 f   Backtracking.obj
 0001:000000e0       ??__Ebullet_impact_listener@MISC@FEATURES@@YAXXZ 100010e0 f   EventListeners.obj
 0001:000000f0       ??__Eitem_purchase_listener@MISC@FEATURES@@YAXXZ 100010f0 f   EventListeners.obj
 0001:00000100       ??__Eplayer_hurt_listener@MISC@FEATURES@@YAXXZ 10001100 f   EventListeners.obj
 0001:00000110       ??__Eweapon_fire_listener@MISC@FEATURES@@YAXXZ 10001110 f   EventListeners.obj
 0001:00000120       ??__Ein_game_logger@MISC@FEATURES@@YAXXZ 10001120 f   InGameLogger.obj
 0001:00000130       ??__Ebullet_tracers@MISC@FEATURES@@YAXXZ 10001130 f   Misc.obj
 0001:00000140       ??__Ehitmarkers@MISC@FEATURES@@YAXXZ 10001140 f   Misc.obj
 0001:00000150       ??__Eresolver@RAGEBOT@FEATURES@@YAXXZ 10001150 f   Resolver.obj
 0001:000001a0       ??__Emain_configs@SETTINGS@@YAXXZ 100011a0 f   Configurations.obj
 0001:000001b0       ??__Eskin_configs@SETTINGS@@YAXXZ 100011b0 f   Configurations.obj
 0001:00000220       ??__Eskin_changer@MISC@FEATURES@@YAXXZ 10001220 f   SkinChanger.obj
 0001:00000230       ??__Eworld_textures@VISUALS@FEATURES@@YAXXZ 10001230 f   World Textures.obj
 0001:00000240       ??__Emenu@PPGUI@@YAXXZ     10001240 f   PPGUI.obj
 0001:00000250       ??__Eppgui_colors@PPGUI@@YAXXZ 10001250 f   PPGUI_Defines.obj
 0001:00000280       ??__Eppgui_command_data_base@PPGUI@@YAXXZ 10001280 f   PPGUI_Defines.obj
 0001:00000320       ??__Edebugger@DEBUGGER@UTILS@@YAXXZ 10001320 f   Debugger.obj
 0001:00000330       ??__Eclient_mode_hook_manager@HOOKS@@YAXXZ 10001330 f   hooks.obj
 0001:00000350       ??__Eiclient_hook_manager@HOOKS@@YAXXZ 10001350 f   hooks.obj
 0001:00000370       ??__Elinegoesthrusmoke@@YAXXZ 10001370 f   hooks.obj
 0001:00000390       ??__Emodel_render_hook_manager@HOOKS@@YAXXZ 10001390 f   hooks.obj
 0001:000003b0       ??__Enet_channel_hook_manager@HOOKS@@YAXXZ 100013b0 f   hooks.obj
 0001:000003d0       ??__Epanel_hook_manager@HOOKS@@YAXXZ 100013d0 f   hooks.obj
 0001:000003f0       ??__Erender_view_hook_manager@HOOKS@@YAXXZ 100013f0 f   hooks.obj
 0001:00000410       ??__Esetup_bones_hook_manager@HOOKS@@YAXXZ 10001410 f   hooks.obj
 0001:00000430       ??__Etrace_hook_manager@HOOKS@@YAXXZ 10001430 f   hooks.obj
 0001:00000450       ??__Einput_handler@INPUT@UTILS@@YAXXZ 10001450 f   input_handler.obj
 0001:00000460       ??__Erender_queue@RENDER@@YAXXZ 10001460 f   render.obj
 0001:00000470       ??__Ecsgo_hwnd@GLOBAL@@YAXXZ 10001470 f   variables.obj
 0001:00000483       ??__Einitlocks@std@@YAXXZ  10001483 f   libcpmt:xlock.obj
 0001:00000499       ??__E_Fac_tidy_reg@std@@YAXXZ 10001499 f   libcpmt:locale0.obj
 0001:000004a5       ??__Eclassic_locale@std@@YAXXZ 100014a5 f   libcpmt:locale0.obj
 0001:000004b1       ??__Ecout@std@@YAXXZ       100014b1 f   libcpmt:cout.obj
 0001:000004d0       ??__Efout@std@@YAXXZ       100014d0 f   libcpmt:cout.obj
 0001:0000050a       ??__Einit_cout@std@@YAXXZ  1000150a f   libcpmt:cout.obj
 0001:00000514       ??__Einitlocks@@YAXXZ      10001514 f   libcpmt:cout.obj
 0001:0000052a       ??__Einit_atexit@@YAXXZ    1000152a f   libcpmt:iosptrs.obj
 0001:00000536       ??__Einitlocks@std@@YAXXZ  10001536 f   libcpmt:iosptrs.obj
 0001:00000550       ??__EvtMissing@@YAXXZ      10001550 f   comsuppw:comutil.obj
 0001:00000ed0       ??R<lambda_0cab095c76534eb198b5f50b5a00c77e>@@QBEXAAV?$vector@U?$pair@VVector@@H@std@@V?$allocator@U?$pair@VVector@@H@std@@@2@@std@@HM@Z 10001ed0 f   Aimbot.obj
 0001:00000f80       ??R<lambda_115b1d6c016fdc4669f69dce8f4024be>@@QBE?AV?$vector@U?$pair@VVector@@H@std@@V?$allocator@U?$pair@VVector@@H@std@@@2@@std@@_N@Z 10001f80 f   Aimbot.obj
 0001:00001480       ??R<lambda_226465845abdf7192f61acb56475a920>@@QBEMMM@Z 10002480 f   Aimbot.obj
 0001:00001510       ??R<lambda_6274d49b6fa3fb8d37bebe255f761e7f>@@QBEX_N@Z 10002510 f   Aimbot.obj
 0001:000015d0       ??R<lambda_aa7eae771a1e706dd80983d5858c8e0c>@@QBE_NABVPlayerResolveRecord@Resolver@RAGEBOT@FEATURES@@@Z 100025d0 f   Aimbot.obj
 0001:0000163c       $LN25                      1000263c     Aimbot.obj
 0001:00003ec0       _no_op_initialize          10004ec0 f i libucrt:wsetlocale.obj
 0001:00004bb0       ??1<lambda_b3df28b95d0018330c2d6f1c32534c64>@@QAE@XZ 10005bb0 f   Antiaim.obj
 0001:00004c70       ??R<lambda_149ec7548fba44f639f661a543689a1a>@@QBEMH_NM@Z 10005c70 f   Antiaim.obj
 0001:00004cb8       $LN13                      10005cb8     Antiaim.obj
 0001:00004cd0       ??R<lambda_2b5f5180946c1da13220f54fb41800ec>@@QBEMH_NM@Z 10005cd0 f   Antiaim.obj
 0001:00004d28       $LN14                      10005d28     Antiaim.obj
 0001:00004d40       ??R<lambda_658b4d7811d43194f49751d86a719d93>@@QBE_NAAM0@Z 10005d40 f   Antiaim.obj
 0001:00006190       ??R<lambda_6eb6d85b0b657499c89eb465e9103568>@@QBEM_N@Z 10007190 f   Antiaim.obj
 0001:00006360       ??R<lambda_adacd974840d3d95ab3ec2318437504b>@@QBE_NXZ 10007360 f   Antiaim.obj
 0001:000065b0       ??R<lambda_b3df28b95d0018330c2d6f1c32534c64>@@QBEHVVector@@@Z 100075b0 f   Antiaim.obj
 0001:00006730       ??R<lambda_ca1395ee6ee8d0693dfae009aada850d>@@QBEMXZ 10007730 f   Antiaim.obj
 0001:00006af0       ??R<lambda_df142c4a4b304cb02dd43135454f17eb>@@QBEMH@Z 10007af0 f   Antiaim.obj
 0001:00006b70       ??R<lambda_ef762df83468fcf4b9121a2eced62e1d>@@QBE_NAAM0@Z 10007b70 f   Antiaim.obj
 0001:00006e60       ??R<lambda_fe202057e3bc75116c903a49302ba59c>@@QBEMXZ 10007e60 f   Antiaim.obj
 0001:00008dac       $LN31                      10009dac     Autowall.obj
 0001:00008dc8       $LN32                      10009dc8     Autowall.obj
 0001:0000b8da       __catch$??$_Emplace_reallocate@AAY0N@$$CBDVCColor@@@?$vector@U?$pair@V?$basic_string@DU?$char_traits@D@std@@V?$allocator@D@2@@std@@VCColor@@@std@@V?$allocator@U?$pair@V?$basic_string@DU?$char_traits@D@std@@V?$allocator@D@2@@std@@VCColor@@@std@@@2@@std@@QAEPAU?$pair@V?$basic_string@DU?$char_traits@D@std@@V?$allocator@D@2@@std@@VCColor@@@1@QAU21@AAY0N@$$CBD$$QAVCColor@@@Z$0 1000c8da f i BoxESP.obj
 0001:0000bf70       ??R<lambda_7bab73d15b979bfd1c30ae24dcf8094e>@@QBEHVCColor@@@Z 1000cf70 f   BoxESP.obj
 0001:0000c040       ??R<lambda_8ca78e416b1deb9e9ca8a006b6192d87>@@QBE_NXZ 1000d040 f   BoxESP.obj
 0001:0000c210       $LN93                      1000d210     BoxESP.obj
 0001:0000c26c       $LN88                      1000d26c     BoxESP.obj
 0001:0000ee60       ??R<lambda_e6802c701946cc1fe85c386837962e60>@@QBEXVVector@@000AAM@Z 1000fe60 f   CircleStrafer.obj
 0001:00010a60       __catch$??$_Emplace_reallocate@ABULog@InGameLogger@MISC@FEATURES@@@?$vector@ULog@InGameLogger@MISC@FEATURES@@V?$allocator@ULog@InGameLogger@MISC@FEATURES@@@std@@@std@@QAEPAULog@InGameLogger@MISC@FEATURES@@QAU2345@ABU2345@@Z$0 10011a60 f i EventListeners.obj
 0001:00010c28       __catch$??$_Emplace_reallocate@ABV?$basic_string@DU?$char_traits@D@std@@V?$allocator@D@2@@std@@@?$vector@V?$basic_string@DU?$char_traits@D@std@@V?$allocator@D@2@@std@@V?$allocator@V?$basic_string@DU?$char_traits@D@std@@V?$allocator@D@2@@std@@@2@@std@@QAEPAV?$basic_string@DU?$char_traits@D@std@@V?$allocator@D@2@@1@QAV21@ABV21@@Z$0 10011c28 f i EventListeners.obj
 0001:000111e3       __catch$??0?$vector@V?$basic_string@DU?$char_traits@D@std@@V?$allocator@D@2@@std@@V?$allocator@V?$basic_string@DU?$char_traits@D@std@@V?$allocator@D@2@@std@@@2@@std@@QAE@ABV01@@Z$0 100121e3 f i EventListeners.obj
 0001:000125af       __catch$??$?6U?$char_traits@D@std@@@std@@YAAAV?$basic_ostream@DU?$char_traits@D@std@@@0@AAV10@PBD@Z$0 100135af f i Misc.obj
 0001:000129c2       __catch$??$_Emplace_reallocate@ABV?$vector@V?$basic_string@DU?$char_traits@D@std@@V?$allocator@D@2@@std@@V?$allocator@V?$basic_string@DU?$char_traits@D@std@@V?$allocator@D@2@@std@@@2@@std@@@?$vector@V?$vector@V?$basic_string@DU?$char_traits@D@std@@V?$allocator@D@2@@std@@V?$allocator@V?$basic_string@DU?$char_traits@D@std@@V?$allocator@D@2@@std@@@2@@std@@V?$allocator@V?$vector@V?$basic_string@DU?$char_traits@D@std@@V?$allocator@D@2@@std@@V?$allocator@V?$basic_string@DU?$char_traits@D@std@@V?$allocator@D@2@@std@@@2@@std@@@2@@std@@QAEPAV?$vector@V?$basic_string@DU?$char_traits@D@std@@V?$allocator@D@2@@std@@V?$allocator@V?$basic_string@DU?$char_traits@D@std@@V?$allocator@D@2@@std@@@2@@1@QAV21@ABV21@@Z$0 100139c2 f i Misc.obj
 0001:00012f3f       __catch$??$_Insert_hint@AAU?$pair@$$CBHPAX@std@@PAU?$_Tree_node@U?$pair@$$CBHPAX@std@@PAX@2@@?$_Tree@V?$_Tmap_traits@HPAXU?$less@H@std@@V?$allocator@U?$pair@$$CBHPAX@std@@@2@$0A@@std@@@std@@IAE?AV?$_Tree_iterator@V?$_Tree_val@U?$_Tree_simple_types@U?$pair@$$CBHPAX@std@@@std@@@std@@@1@V?$_Tree_const_iterator@V?$_Tree_val@U?$_Tree_simple_types@U?$pair@$$CBHPAX@std@@@std@@@std@@@1@AAU?$pair@$$CBHPAX@1@PAU?$_Tree_node@U?$pair@$$CBHPAX@std@@PAX@1@@Z$0 10013f3f f i Misc.obj
 0001:00013062       __catch$??$_Insert_nohint@AAU?$pair@$$CBHPAX@std@@PAU?$_Tree_node@U?$pair@$$CBHPAX@std@@PAX@2@@?$_Tree@V?$_Tmap_traits@HPAXU?$less@H@std@@V?$allocator@U?$pair@$$CBHPAX@std@@@2@$0A@@std@@@std@@IAE?AU?$pair@V?$_Tree_iterator@V?$_Tree_val@U?$_Tree_simple_types@U?$pair@$$CBHPAX@std@@@std@@@std@@@std@@_N@1@_NAAU?$pair@$$CBHPAX@1@PAU?$_Tree_node@U?$pair@$$CBHPAX@std@@PAX@1@@Z$0 10014062 f i Misc.obj
 0001:0001324d       __catch$??$getline@DU?$char_traits@D@std@@V?$allocator@D@2@@std@@YAAAV?$basic_istream@DU?$char_traits@D@std@@@0@$$QAV10@AAV?$basic_string@DU?$char_traits@D@std@@V?$allocator@D@2@@0@D@Z$0 1001424d f i Misc.obj
 0001:000143c0       ??R<lambda_2b454360143fe68a53aee6855408b19d>@@QBEPBDPBDM@Z 100153c0 f   Misc.obj
 0001:00014530       ??R<lambda_7411d79f4ee59d52de45b16a5109c3cd>@@QBE?AV?$vector@V?$vector@V?$basic_string@DU?$char_traits@D@std@@V?$allocator@D@2@@std@@V?$allocator@V?$basic_string@DU?$char_traits@D@std@@V?$allocator@D@2@@std@@@2@@std@@V?$allocator@V?$vector@V?$basic_string@DU?$char_traits@D@std@@V?$allocator@D@2@@std@@V?$allocator@V?$basic_string@DU?$char_traits@D@std@@V?$allocator@D@2@@std@@@2@@std@@@2@@std@@XZ 10015530 f   Misc.obj
 0001:00014750       ??R<lambda_8598c850d2f80c08bd6af5fc93c9f3cd>@@QBE@XZ 10015750 f   Misc.obj
 0001:00014a60       ??R<lambda_9b8261605b3730bd32a8ecba71e34e65>@@QBE?AVVector@@H@Z 10015a60 f   Misc.obj
 0001:00014ba0       ??R<lambda_a6669d928a94ba27917059d5a85f90cd>@@QBE@PBD0@Z 10015ba0 f   Misc.obj
 0001:00014d10       ??R<lambda_b58585d07ca0d6147613ae0d72d6a7d6>@@QBE?AV?$vector@V?$basic_string@DU?$char_traits@D@std@@V?$allocator@D@2@@std@@V?$allocator@V?$basic_string@DU?$char_traits@D@std@@V?$allocator@D@2@@std@@@2@@std@@V?$basic_string@DU?$char_traits@D@std@@V?$allocator@D@2@@2@@Z 10015d10 f   Misc.obj
 0001:00017d15       __catch$?_Ipfx@?$basic_istream@DU?$char_traits@D@std@@@std@@QAE_N_N@Z$0 10018d15 f i Misc.obj
 0001:00017e8b       __catch$?_Osfx@?$basic_ostream@DU?$char_traits@D@std@@@std@@QAEXXZ$0 10018e8b f i Misc.obj
 0001:00018100       _report_memory_leaks       10019100 f i libucrt:initialization.obj
 0001:00018100       _initialize_global_state_isolation 10019100 f i libucrt:initialization.obj
 0001:00018100       _uninitialize_c            10019100 f i libucrt:initialization.obj
 0001:00018100       _initialize_environment    10019100 f i libucrt:initialization.obj
 0001:00018100       _uninitialize_global_state_isolation 10019100 f i libucrt:initialization.obj
 0001:00018d24       __catch$?put@?$basic_ostream@DU?$char_traits@D@std@@@std@@QAEAAV12@D@Z$0 10019d24 f i Misc.obj
 0001:00028af3       __catch$?Do@SkinChanger@MISC@FEATURES@@QAEXXZ$0 10029af3 f   SkinChanger.obj
 0001:00028fc0       ??R<lambda_2f60984f3df694eaedcb4e1a12189376>@@QBEHABVVector@@0AAV1@M@Z 10029fc0 f   VisualsMisc.obj
 0001:000290c0       ??R<lambda_3f8d456383f60cea172b2cb947f6fb45>@@QBEMH@Z 1002a0c0 f   VisualsMisc.obj
 0001:00029110       $LN12                      1002a110     VisualsMisc.obj
 0001:00029120       $LN10                      1002a120     VisualsMisc.obj
 0001:00029140       ??R<lambda_7f5127423f924797da7c63e46c0ebfa5>@@QBEXVVector@@0@Z 1002a140 f   VisualsMisc.obj
 0001:00029978       $LN128                     1002a978     VisualsMisc.obj
 0001:0002c310       ??R<lambda_753ff23033665ab5252a14e3bc6bdd04>@@QBEXXZ 1002d310 f   Menu.obj
 0001:0002c370       ??R<lambda_dd82e866c72702136ef8f4717127e403>@@QBEXXZ 1002d370 f   Menu.obj
 0001:0002c440       ??R<lambda_ea7b150de2ea66b30a4447ae22c37d94>@@QBEXXZ 1002d440 f   Menu.obj
 0001:0002c810       ??R<lambda_ead7ad9128ed13ce27faa52c81d10309>@@QBEXXZ 1002d810 f   Menu.obj
 0001:0002e8fc       $LN545                     1002f8fc     Menu.obj
 0001:0002e90c       $LN546                     1002f90c     Menu.obj
 0001:0002ef4c       __catch$??$_Emplace_reallocate@ABVPPGUI_Command_Frame@PPGUI@@@?$vector@VPPGUI_Command_Frame@PPGUI@@V?$allocator@VPPGUI_Command_Frame@PPGUI@@@std@@@std@@QAEPAVPPGUI_Command_Frame@PPGUI@@QAV23@ABV23@@Z$0 1002ff4c f i PPGUI.obj
 0001:0002f1ec       __catch$??$_Insert@AAU?$pair@$$CBITPPGUI_Command_Data@PPGUI_Command_Data_Base@PPGUI@@@std@@V?$_List_unchecked_iterator@V?$_List_val@U?$_List_simple_types@U?$pair@$$CBITPPGUI_Command_Data@PPGUI_Command_Data_Base@PPGUI@@@std@@@std@@@std@@@2@@?$_Hash@V?$_Umap_traits@ITPPGUI_Command_Data@PPGUI_Command_Data_Base@PPGUI@@V?$_Uhash_compare@IU?$hash@I@std@@U?$equal_to@I@2@@std@@V?$allocator@U?$pair@$$CBITPPGUI_Command_Data@PPGUI_Command_Data_Base@PPGUI@@@std@@@5@$0A@@std@@@std@@IAE?AU?$pair@V?$_List_iterator@V?$_List_val@U?$_List_simple_types@U?$pair@$$CBITPPGUI_Command_Data@PPGUI_Command_Data_Base@PPGUI@@@std@@@std@@@std@@@std@@_N@1@AAU?$pair@$$CBITPPGUI_Command_Data@PPGUI_Command_Data_Base@PPGUI@@@1@V?$_List_unchecked_iterator@V?$_List_val@U?$_List_simple_types@U?$pair@$$CBITPPGUI_Command_Data@PPGUI_Command_Data_Base@PPGUI@@@std@@@std@@@std@@@1@@Z$2 100301ec f i PPGUI.obj
 0001:0002f9d0       $LN22                      100309d0     PPGUI_Commands.obj
 0001:0002f9d0       $LN22                      100309d0     PPGUI_Commands.obj
 0001:0002f9d0       $LN22                      100309d0     PPGUI.obj
 0001:0002f9d0       $LN22                      100309d0     PPGUI_Commands.obj
 0001:0002f9d0       $LN22                      100309d0     PPGUI_Commands.obj
 0001:0002f9d0       $LN22                      100309d0     PPGUI_Commands.obj
 0001:0002f9d0       $LN22                      100309d0     PPGUI_Commands.obj
 0001:0002f9d0       $LN22                      100309d0     PPGUI_Commands.obj
 0001:0002f9d0       $LN22                      100309d0     PPGUI_Commands.obj
 0001:0002f9d0       $LN22                      100309d0     PPGUI_Commands.obj
 0001:0002f9d0       $LN22                      100309d0     PPGUI_Commands.obj
 0001:000318b4       $LN20                      100328b4     PPGUI_Commands.obj
 0001:000318b4       $LN20                      100328b4     PPGUI_Commands.obj
 0001:000318b4       $LN20                      100328b4     PPGUI_Commands.obj
 0001:000318b4       $LN20                      100328b4     PPGUI_Commands.obj
 0001:000318b4       $LN20                      100328b4     PPGUI_Commands.obj
 0001:000318b4       $LN20                      100328b4     PPGUI_Commands.obj
 0001:000318b4       $LN20                      100328b4     PPGUI_Commands.obj
 0001:000318b4       $LN20                      100328b4     PPGUI_Commands.obj
 0001:000318b4       $LN20                      100328b4     PPGUI_Commands.obj
 0001:000318b4       $LN20                      100328b4     PPGUI_Commands.obj
 0001:000318b4       $LN20                      100328b4     PPGUI_Commands.obj
 0001:000318bc       $LN17                      100328bc     PPGUI_Commands.obj
 0001:000318bc       $LN17                      100328bc     PPGUI_Commands.obj
 0001:000318bc       $LN17                      100328bc     PPGUI_Commands.obj
 0001:000318bc       $LN17                      100328bc     PPGUI_Commands.obj
 0001:000318bc       $LN17                      100328bc     PPGUI_Commands.obj
 0001:000318bc       $LN17                      100328bc     PPGUI_Commands.obj
 0001:000318bc       $LN17                      100328bc     PPGUI_Commands.obj
 0001:000318bc       $LN17                      100328bc     PPGUI_Commands.obj
 0001:000318bc       $LN17                      100328bc     PPGUI_Commands.obj
 0001:000318bc       $LN17                      100328bc     PPGUI_Commands.obj
 0001:000318bc       $LN17                      100328bc     PPGUI_Commands.obj
 0001:00032836       __catch$??6?$basic_ostream@DU?$char_traits@D@std@@@std@@QAEAAV01@M@Z$0 10033836 f i PPGUI_Commands.obj
 0001:000328d0       ??R<lambda_07e8e09b926849ee5c09d399f814ef9d>@@QBE?AV?$basic_string@DU?$char_traits@D@std@@V?$allocator@D@2@@std@@MH@Z 100338d0 f   PPGUI_Commands.obj
 0001:00032b30       ??R<lambda_40cdd183d11bfbc899d0c97996b519ee>@@QBEXPBD@Z 10033b30 f   PPGUI_Commands.obj
 0001:00032b30       ??R<lambda_f7786c3b8487cbd3eaa26362862c6fd5>@@QBEXPBD@Z 10033b30 f   PPGUI_Commands.obj
 0001:00037680       $LN47                      10038680     PPGUI_Commands.obj
 0001:00037920       $LN89                      10038920     PPGUI_Commands.obj
 0001:00037a68       $LN87                      10038a68     PPGUI_Commands.obj
 0001:000382cc       $LN20                      100392cc     PPGUI_Commands.obj
 0001:000382fc       $LN18                      100392fc     PPGUI_Commands.obj
 0001:00039960       $LN124                     1003a960     PPGUI_Commands.obj
 0001:00039968       $LN117                     1003a968     PPGUI_Commands.obj
 0001:0003a7b8       __catch$?_Init@?$numpunct@D@std@@IAEXABV_Locinfo@2@_N@Z$0 1003b7b8 f i PPGUI_Commands.obj
 0001:0003c3f1       __catch$??$_Insert_string@DU?$char_traits@D@std@@I@std@@YAAAV?$basic_ostream@DU?$char_traits@D@std@@@0@AAV10@QBDI@Z$0 1003d3f1 f i Debugger.obj
 0001:0003de77       __catch$??6?$basic_ostream@DU?$char_traits@D@std@@@std@@QAEAAV01@PBX@Z$0 1003ee77 f i interfaces.obj
 0001:00043a2c       $LN14                      10044a2c     utils.obj
 0001:0004555f       _tidy_global               1004655f f   libcpmt:locale0.obj
 0001:00045820       ?spfun@std@@YAXAAVios_base@1@_J@Z 10046820 f   libcpmt:iomanip.obj
 0001:00045d34       ?initialize_pointers@@YAHXZ 10046d34 f   libcpmt:winapisupp.obj
 0001:00046499       ?__scrt_initialize_thread_safe_statics@@YAHXZ 10047499 f   LIBCMT:thread_safe_statics.obj
 0001:000464dd       ?__scrt_initialize_thread_safe_statics_platform_specific@@YAXXZ 100474dd f   LIBCMT:thread_safe_statics.obj
 0001:000465cc       ?__scrt_uninitialize_thread_safe_statics@@YAXXZ 100475cc f   LIBCMT:thread_safe_statics.obj
 0001:00046760       $$000000                   10047760     LIBCMT:chkstk.obj
 0001:00046922       ?find_pe_section@@YAPAU_IMAGE_SECTION_HEADER@@QAEI@Z 10047922 f   LIBCMT:utility.obj
 0001:00046e70       $$000000                   10047e70     LIBCMT:lldiv.obj
 0001:00046f20       $$000000                   10047f20     LIBCMT:lldvrm.obj
 0001:00047000       $$000000                   10048000     LIBCMT:llmul.obj
 0001:0004703d       ?dllmain_crt_dispatch@@YGHQAUHINSTANCE__@@KQAX@Z 1004803d f   LIBCMT:dll_dllmain.obj
 0001:00047090       ?dllmain_crt_process_attach@@YAHQAUHINSTANCE__@@QAX@Z 10048090 f   LIBCMT:dll_dllmain.obj
 0001:0004719a       ?dllmain_crt_process_detach@@YAH_N@Z 1004819a f   LIBCMT:dll_dllmain.obj
 0001:0004722c       ?dllmain_dispatch@@YAHQAUHINSTANCE__@@KQAX@Z 1004822c f   LIBCMT:dll_dllmain.obj
 0001:00047332       ?dllmain_raw@@YGHQAUHINSTANCE__@@KQAX@Z 10048332 f   LIBCMT:dll_dllmain.obj
 0001:00047450       $$000000                   10048450     LIBCMT:ulldvrm.obj
 0001:000474f0       $$000000                   100484f0     LIBCMT:alloca16.obj
 0001:00047520       $$000000                   10048520     LIBCMT:ulldiv.obj
 0001:00047700       $$000000                   10048700     LIBCMT:sehprolg4.obj
 0001:00047902       ___get_entropy             10048902 f   LIBCMT:gs_support.obj
 0001:00047e80       $$000000                   10048e80     libvcruntime:memcpy.obj
 0001:000480e4       TrailingUpVec              100490e4     libvcruntime:memcpy.obj
 0001:00048190       TrailingDownVec            10049190     libvcruntime:memcpy.obj
 0001:00048400       $$000000                   10049400     libvcruntime:memmove.obj
 0001:00048664       TrailingUpVec              10049664     libvcruntime:memmove.obj
 0001:00048710       TrailingDownVec            10049710     libvcruntime:memmove.obj
 0001:00048b40       $$000000                   10049b40     libvcruntime:memset.obj
 0001:00048ca0       $$000000                   10049ca0     libvcruntime:strstr.obj
 0001:00048f20       $$000000                   10049f20     libvcruntime:memchr.obj
 0001:00049ef1       $LN1285                    1004aef1     libvcruntime:memcmp.obj
 0001:00049f80       _ValidateLocalCookies      1004af80 f   libvcruntime:chandler4.obj
 0001:0004a35e       ??$BuildCatchObjectHelperInternal@V__FrameHandler3@@@@YAHPAUEHExceptionRecord@@PAXPBU_s_HandlerType@@PBU_s_CatchableType@@@Z 1004b35e f   libvcruntime:frame.obj
 0001:0004a49d       ??$BuildCatchObjectInternal@V__FrameHandler3@@@@YAXPAUEHExceptionRecord@@PAXPBU_s_HandlerType@@PBU_s_CatchableType@@@Z 1004b49d f   libvcruntime:frame.obj
 0001:0004a536       ??$CatchIt@V__FrameHandler3@@@@YAXPAUEHExceptionRecord@@PAUEHRegistrationNode@@PAU_CONTEXT@@PAXPBU_s_FuncInfo@@PBU_s_HandlerType@@PBU_s_CatchableType@@PBU_s_TryBlockMapEntry@@H1E@Z 1004b536 f   libvcruntime:frame.obj
 0001:0004a5b6       ??$FindHandler@V__FrameHandler3@@@@YAXPAUEHExceptionRecord@@PAUEHRegistrationNode@@PAU_CONTEXT@@PAXPBU_s_FuncInfo@@EH1@Z 1004b5b6 f   libvcruntime:frame.obj
 0001:0004a944       ??$FindHandlerForForeignException@V__FrameHandler3@@@@YAXPAUEHExceptionRecord@@PAUEHRegistrationNode@@PAU_CONTEXT@@PAXPBU_s_FuncInfo@@HH1@Z 1004b944 f   libvcruntime:frame.obj
 0001:0004ac37       ?CallCatchBlock@@YAPAXPAUEHExceptionRecord@@PAUEHRegistrationNode@@PAU_CONTEXT@@PBU_s_FuncInfo@@PAXHK@Z 1004bc37 f   libvcruntime:frame.obj
 0001:0004adfb       ?CallUnexpected@@YAXPBU_s_ESTypeList@@@Z 1004bdfb f   libvcruntime:frame.obj
 0001:0004ae1b       __catch$?CallUnexpected@@YAXPBU_s_ESTypeList@@@Z$0 1004be1b f   libvcruntime:frame.obj
 0001:0004ae35       ?ExFilterRethrow@@YAHPAU_EXCEPTION_POINTERS@@@Z 1004be35 f   libvcruntime:frame.obj
 0001:0004af7f       ?IsInExceptionSpec@@YAEPAUEHExceptionRecord@@PBU_s_ESTypeList@@@Z 1004bf7f f   libvcruntime:frame.obj
 0001:0004b050       $$000000                   1004c050     libvcruntime:lowhelpr.obj
 0001:0004b100       $$000000                   1004c100     libvcruntime:strchr.obj
 0001:0004b230       $$000000                   1004c230     libvcruntime:exsup4.obj
 0001:0004b2c0       __unwind_handler4          1004c2c0 f   libvcruntime:exsup4.obj
 0001:0004b402       ?try_get_first_available_module@@YAPAUHINSTANCE__@@QBW4module_id@?A0xa2817912@@0@Z 1004c402 f   libvcruntime:winapi_downlevel.obj
 0001:0004b4c6       ?try_get_function@@YAPAXW4function_id@?A0xa2817912@@QBDQBW4module_id@2@2@Z 1004c4c6 f   libvcruntime:winapi_downlevel.obj
 0001:0004b710       $$000000                   1004c710     libvcruntime:exsup.obj
 0001:0004b731       __unwind_handler           1004c731 f   libvcruntime:exsup.obj
 0001:0004bab0       $$000000                   1004cab0     libucrt:cos_sse2_precise.obj
 0001:0004bc70       $$000000                   1004cc70     libucrt:sin_sse2_precise.obj
 0001:0004be40       $$000000                   1004ce40     libucrt:sqrt_sse2_precise.obj
 0001:0004bf40       $$000000                   1004cf40     libucrt:floor_pentium4.obj
 0001:0004c1b0       $$000000                   1004d1b0     libucrt:ceil_pentium4.obj
 0001:0004c2d0       $$000000                   1004d2d0     libucrt:87ctriga.obj
 0001:0004c2e0       $$000000                   1004d2e0     libucrt:asin_sse2_precise.obj
 0001:0004c8e0       $$000000                   1004d8e0     libucrt:pow_sse2_precise.obj
 0001:0004d4bc       ??$?RV<lambda_c29ee0499b841886b80d843682cc403a>@@AAV<lambda_0be4ab1c2a6918fda4e39227d83ea893>@@V<lambda_5a3ed3da325c8ea037a470278c0f2d16>@@@?$__crt_seh_guarded_call@H@@QAEH$$QAV<lambda_c29ee0499b841886b80d843682cc403a>@@AAV<lambda_0be4ab1c2a6918fda4e39227d83ea893>@@$$QAV<lambda_5a3ed3da325c8ea037a470278c0f2d16>@@@Z 1004e4bc f   libucrt:output.obj
 0001:0004d517       ??$common_vsprintf@Vformat_validation_base@__crt_stdio_output@@D@@YAH_KQADIQBDQAU__crt_locale_pointers@@1@Z 1004e517 f   libucrt:output.obj
 0001:0004d695       ??$common_vsprintf@Vstandard_base@__crt_stdio_output@@D@@YAH_KQADIQBDQAU__crt_locale_pointers@@1@Z 1004e695 f   libucrt:output.obj
 0001:0004d813       ??$common_vsprintf_s@D@@YAH_KQADIQBDQAU__crt_locale_pointers@@1@Z 1004e813 f   libucrt:output.obj
 0001:0004dc29       ??R<lambda_0be4ab1c2a6918fda4e39227d83ea893>@@QBEHXZ 1004ec29 f   libucrt:output.obj
 0001:0004df89       $LN53                      1004ef89     libucrt:output.obj
 0001:0004e0ad       $LN51                      1004f0ad     libucrt:output.obj
 0001:0004e1c1       $LN53                      1004f1c1     libucrt:output.obj
 0001:0004eb16       $LN20                      1004fb16     libucrt:output.obj
 0001:0004eb2a       $LN17                      1004fb2a     libucrt:output.obj
 0001:0004f794       ??$?RV<lambda_2866be3712abc81a800a822484c830d8>@@AAV<lambda_39ca0ed439415581b5b15c265174cece>@@V<lambda_2b24c74d71094a6cd0cb82e44167d71b>@@@?$__crt_seh_guarded_call@X@@QAEX$$QAV<lambda_2866be3712abc81a800a822484c830d8>@@AAV<lambda_39ca0ed439415581b5b15c265174cece>@@$$QAV<lambda_2b24c74d71094a6cd0cb82e44167d71b>@@@Z 10050794 f   libucrt:fflush.obj
 0001:0004f820       ??$?RV<lambda_2cc53f568c5a2bb6f192f930a45d44ea>@@AAV<lambda_ab61a845afdef5b7c387490eaf3616ee>@@V<lambda_c2ffc0b7726aa6be21d5f0026187e748>@@@?$__crt_seh_guarded_call@X@@QAEX$$QAV<lambda_2cc53f568c5a2bb6f192f930a45d44ea>@@AAV<lambda_ab61a845afdef5b7c387490eaf3616ee>@@$$QAV<lambda_c2ffc0b7726aa6be21d5f0026187e748>@@@Z 10050820 f   libucrt:fflush.obj
 0001:0004f8cc       ??$?RV<lambda_6d20deecaf4856105ebacbad442d1079>@@AAV<lambda_9a32fed5bf61b6b509b2d3f6003082a1>@@V<lambda_63ea2239ed67c638ddbae41947fdf875>@@@?$__crt_seh_guarded_call@H@@QAEH$$QAV<lambda_6d20deecaf4856105ebacbad442d1079>@@AAV<lambda_9a32fed5bf61b6b509b2d3f6003082a1>@@$$QAV<lambda_63ea2239ed67c638ddbae41947fdf875>@@@Z 100508cc f   libucrt:fflush.obj
 0001:0004f92c       ?common_flush_all@@YAH_N@Z 1005092c f   libucrt:fflush.obj
 0001:0004f979       ?common_flush_all_should_try_to_flush_stream@@YA_NV__crt_stdio_stream@@QAH@Z 10050979 f   libucrt:fflush.obj
 0001:0004f9ac       ?is_stream_flushable_or_commitable@@YA_NJ@Z 100509ac f   libucrt:fflush.obj
 0001:0005004e       _memcpy_s                  1005104e f   libucrt:fread.obj
 0001:0005004e       _memcpy_s                  1005104e f   libucrt:atof.obj
 0001:0005004e       _memcpy_s                  1005104e f   libucrt:cfout.obj
 0001:0005004e       _memcpy_s                  1005104e f   libucrt:mbctype.obj
 0001:00050184       ?common_fseek@@YAHV__crt_stdio_stream@@_JH@Z 10051184 f   libucrt:fseek.obj
 0001:0005020f       ?common_fseek_binary_mode_read_only_fast_track_nolock@@YA_NV__crt_stdio_stream@@_JH@Z 1005120f f   libucrt:fseek.obj
 0001:000502e8       ?common_fseek_nolock@@YAHV__crt_stdio_stream@@_JH@Z 100512e8 f   libucrt:fseek.obj
 0001:000503fc       ??$?RV<lambda_4ac01c32aa5b53846f05d0620572872e>@@AAV<lambda_5856287d7ecd2be6c9197bb4007c3f6e>@@V<lambda_e7a9868ed898c75c0f0637692d94351a>@@@?$__crt_seh_guarded_call@I@@QAEI$$QAV<lambda_4ac01c32aa5b53846f05d0620572872e>@@AAV<lambda_5856287d7ecd2be6c9197bb4007c3f6e>@@$$QAV<lambda_e7a9868ed898c75c0f0637692d94351a>@@@Z 100513fc f   libucrt:fwrite.obj
 0001:00050457       ??R<lambda_5856287d7ecd2be6c9197bb4007c3f6e>@@QBEIXZ 10051457 f   libucrt:fwrite.obj
 0001:0005067e       ??$?RV<lambda_70c0770dcc4f6ec6272bb01dc82d3c91>@@AAV<lambda_ca71763b3c0644891230e4f79ea54fa6>@@V<lambda_ca266f0f09348b8765c113e3a39a2bc1>@@@?$__crt_seh_guarded_call@H@@QAEH$$QAV<lambda_70c0770dcc4f6ec6272bb01dc82d3c91>@@AAV<lambda_ca71763b3c0644891230e4f79ea54fa6>@@$$QAV<lambda_ca266f0f09348b8765c113e3a39a2bc1>@@@Z 1005167e f   libucrt:setvbuf.obj
 0001:000506d9       ??R<lambda_ca71763b3c0644891230e4f79ea54fa6>@@QBEHXZ 100516d9 f   libucrt:setvbuf.obj
 0001:00050773       ?set_buffer@@YAHV__crt_stdio_stream@@QADIH@Z 10051773 f   libucrt:setvbuf.obj
 0001:000509a0       $$000000                   100519a0     libucrt:87fmod_impl.obj
 0001:00051336       ??$__acrt_convert_wcs_mbs_cp@D_WV<lambda_62f6974d9771e494a5ea317cc32e971c>@@U__crt_win32_buffer_internal_dynamic_resizing@@@@YAHQBDAAV?$__crt_win32_buffer@_WU__crt_win32_buffer_internal_dynamic_resizing@@@@ABV<lambda_62f6974d9771e494a5ea317cc32e971c>@@I@Z 10052336 f   libucrt:unlink.obj
 0001:00051526       ??$common_freopen@D@@YAHQAPAU_iobuf@@QBD1V__crt_stdio_stream@@H@Z 10052526 f   libucrt:freopen.obj
 0001:00051790       $$000000                   10052790     libucrt:strcspn.obj
 0001:00051874       ??$common_atof_l@D@@YANQBDQAU__crt_locale_pointers@@@Z 10052874 f   libucrt:atof.obj
 0001:0005209b       $LN37                      1005309b     libucrt:atof.obj
 0001:000520c3       ??R<lambda_32aa245da1b5b882fa96db788295c8b2>@@QBE_NXZ 100530c3 f   libucrt:atof.obj
 0001:00054a74       ??$common_localtime_s@_J@@YAHQAUtm@@QB_J@Z 10055a74 f   libucrt:localtime.obj
 0001:00054d2a       ??$__acrt_convert_wcs_mbs_cp@_WDV<lambda_0fec1a7b3f42a53036604e18c2d5e07e>@@U__crt_win32_buffer_no_resizing@@@@YAHQB_WAAV?$__crt_win32_buffer@DU__crt_win32_buffer_no_resizing@@@@ABV<lambda_0fec1a7b3f42a53036604e18c2d5e07e>@@I@Z 10055d2a f   libucrt:strftime.obj
 0001:00054d2a       ??$__acrt_convert_wcs_mbs_cp@_WDV<lambda_0fec1a7b3f42a53036604e18c2d5e07e>@@U__crt_win32_buffer_no_resizing@@@@YAHQB_WAAV?$__crt_win32_buffer@DU__crt_win32_buffer_no_resizing@@@@ABV<lambda_0fec1a7b3f42a53036604e18c2d5e07e>@@I@Z 10055d2a f   libucrt:getmodulefilenamea.obj
 0001:00054f65       ?fperrraise_with@@YAXHK@Z  10055f65 f   libucrt:_test.obj
 0001:00055119       ?_mbstowcs_l_helper@@YAIPA_WPBDIPAU__crt_locale_pointers@@@Z 10056119 f   libucrt:mbstowcs.obj
 0001:00055adb       ??$?RV<lambda_646e26742ed01d5bc03234f44bb6d3d3>@@AAV<lambda_b37934c380d97b75fd242ea49540127a>@@V<lambda_bbd9d45274666fbb50f81a29ad795c13>@@@?$__crt_seh_guarded_call@PAD@@QAEPAD$$QAV<lambda_646e26742ed01d5bc03234f44bb6d3d3>@@AAV<lambda_b37934c380d97b75fd242ea49540127a>@@$$QAV<lambda_bbd9d45274666fbb50f81a29ad795c13>@@@Z 10056adb f   libucrt:setlocale.obj
 0001:00055b36       ??R<lambda_b37934c380d97b75fd242ea49540127a>@@QBEPADXZ 10056b36 f   libucrt:setlocale.obj
 0001:00055c9a       _call_wsetlocale           10056c9a f   libucrt:setlocale.obj
 0001:00055d6d       ??$common_fsopen@D@@YAPAU_iobuf@@QBD0H@Z 10056d6d f   libucrt:fopen.obj
 0001:00055e50       $$000000                   10056e50     libucrt:pow_impl.obj
 0001:00056455       ?compute_iso_week@@YAHHHH@Z 10057455 f   libucrt:wcsftime.obj
 0001:0005649e       ?compute_iso_week_internal@@YAHHHH@Z 1005749e f   libucrt:wcsftime.obj
 0001:00056533       ?compute_iso_year@@YAHHHH@Z 10057533 f   libucrt:wcsftime.obj
 0001:0005655e       ?expand_time@@YA_NPAU__crt_locale_pointers@@_WPBUtm@@PAPA_WPAIPBU__crt_lc_time_data@@_N@Z 1005755e f   libucrt:wcsftime.obj
 0001:00056f56       $LN191                     10057f56     libucrt:wcsftime.obj
 0001:00056f76       ?store_number@@YAXHHQAPA_WQAI_W@Z 10057f76 f   libucrt:wcsftime.obj
 0001:0005700a       ?store_number_without_lead_zeroes@@YAXHQAPA_WQAI@Z 1005800a f   libucrt:wcsftime.obj
 0001:00057076       ?store_string@@YAXPB_WQAPA_WQAI@Z 10058076 f   libucrt:wcsftime.obj
 0001:000570a7       ?store_winword@@YA_NQAU__crt_locale_pointers@@HQBUtm@@QAPA_WQAIQBU__crt_lc_time_data@@@Z 100580a7 f   libucrt:wcsftime.obj
 0001:00057880       ??$?RV<lambda_03b1d95aef87969028cfba75ccab2455>@@AAV<lambda_6e4b09c48022b2350581041d5f6b0c4c>@@V<lambda_22bdf7517842c4b3e53723af5aa32b9e>@@@?$__crt_seh_guarded_call@X@@QAEX$$QAV<lambda_03b1d95aef87969028cfba75ccab2455>@@AAV<lambda_6e4b09c48022b2350581041d5f6b0c4c>@@$$QAV<lambda_22bdf7517842c4b3e53723af5aa32b9e>@@@Z 10058880 f   libucrt:exit.obj
 0001:000578cd       ??R<lambda_6e4b09c48022b2350581041d5f6b0c4c>@@QBE@XZ 100588cd f   libucrt:exit.obj
 0001:000579a7       ?atexit_exception_filter@@YAHK@Z 100589a7 f   libucrt:exit.obj
 0001:000579ba       ?common_exit@@YAXHW4_crt_exit_cleanup_mode@@W4_crt_exit_return_mode@@@Z 100589ba f   libucrt:exit.obj
 0001:00057a1e       ?exit_or_terminate_process@@YAXI@Z 10058a1e f   libucrt:exit.obj
 0001:00057a60       ?is_managed_app@@YA_NXZ    10058a60 f   libucrt:exit.obj
 0001:00057aa3       ?try_cor_exit_process@@YAXI@Z 10058aa3 f   libucrt:exit.obj
 0001:00057b31       ??$common_configure_argv@D@@YAHW4_crt_argv_mode@@@Z 10058b31 f   libucrt:argv_parsing.obj
 0001:00057c67       ??$parse_command_line@D@@YAXPADPAPAD0PAI2@Z 10058c67 f   libucrt:argv_parsing.obj
 0001:00057e38       ??$common_get_or_create_environment_nolock@D@@YAPAPADXZ 10058e38 f   libucrt:environment_initialization.obj
 0001:00057e64       ??$common_initialize_environment_nolock@D@@YAHXZ 10058e64 f   libucrt:environment_initialization.obj
 0001:00057eb7       ??$create_environment@D@@YAQAPADQAD@Z 10058eb7 f   libucrt:environment_initialization.obj
 0001:00057f87       ??$free_environment@D@@YAXQAPAD@Z 10058f87 f   libucrt:environment_initialization.obj
 0001:00057f87       ??$free_environment@_W@@YAXQAPA_W@Z 10058f87 f   libucrt:environment_initialization.obj
 0001:00057fb6       ??$initialize_environment_by_cloning_nolock@D@@YAHXZ 10058fb6 f   libucrt:environment_initialization.obj
 0001:00058062       ??$uninitialize_environment_internal@D@@YAXAAPAPAD@Z 10059062 f   libucrt:environment_initialization.obj
 0001:0005807d       ??$uninitialize_environment_internal@_W@@YAXAAPAPA_W@Z 1005907d f   libucrt:environment_initialization.obj
 0001:000580d9       ??$?RV<lambda_69a2805e680e0e292e8ba93315fe43a8>@@AAV<lambda_f03950bc5685219e0bcd2087efbe011e>@@V<lambda_03fcd07e894ec930e3f35da366ca99d6>@@@?$__crt_seh_guarded_call@H@@QAEH$$QAV<lambda_69a2805e680e0e292e8ba93315fe43a8>@@AAV<lambda_f03950bc5685219e0bcd2087efbe011e>@@$$QAV<lambda_03fcd07e894ec930e3f35da366ca99d6>@@@Z 100590d9 f   libucrt:onexit.obj
 0001:00058134       ??$?RV<lambda_8e746cf0007f6ed984d6f78af1fec997>@@AAV<lambda_22ebabd17bc4fa466a2aca6d8deb888d>@@V<lambda_18ed0c0b38a6dc0daf1e7ac6d6adf05e>@@@?$__crt_seh_guarded_call@H@@QAEH$$QAV<lambda_8e746cf0007f6ed984d6f78af1fec997>@@AAV<lambda_22ebabd17bc4fa466a2aca6d8deb888d>@@$$QAV<lambda_18ed0c0b38a6dc0daf1e7ac6d6adf05e>@@@Z 10059134 f   libucrt:onexit.obj
 0001:000581ae       ??R<lambda_22ebabd17bc4fa466a2aca6d8deb888d>@@QBEHXZ 100591ae f   libucrt:onexit.obj
 0001:000582d7       ??R<lambda_f03950bc5685219e0bcd2087efbe011e>@@QBEHXZ 100592d7 f   libucrt:onexit.obj
 0001:00058450       _initialize_global_variables 10059450 f   libucrt:initialization.obj
 0001:0005845d       _initialize_c              1005945d f   libucrt:initialization.obj
 0001:00058477       _uninitialize_environment  10059477 f   libucrt:initialization.obj
 0001:0005847f       _initialize_pointers       1005947f f   libucrt:initialization.obj
 0001:000584ad       _uninitialize_vcruntime    100594ad f   libucrt:initialization.obj
 0001:000584b6       _uninitialize_allocated_memory 100594b6 f   libucrt:initialization.obj
 0001:000584cd       _uninitialize_allocated_io_buffers 100594cd f   libucrt:initialization.obj
 0001:0005851d       ??R<lambda_af42a3ee9806e9a7305d451646e05244>@@QBEXAAPAU__crt_multibyte_data@@@Z 1005951d f   libucrt:initialization.obj
 0001:00058700       $$000000                   10059700     libucrt:strncmp.obj
 0001:00058778       ??$?RV<lambda_15ade71b0218206bbe3333a0c9b79046>@@AAV<lambda_da44e0f8b0f19ba52fefafb335991732>@@V<lambda_207f2d024fc103971653565357d6cd41>@@@?$__crt_seh_guarded_call@X@@QAEX$$QAV<lambda_15ade71b0218206bbe3333a0c9b79046>@@AAV<lambda_da44e0f8b0f19ba52fefafb335991732>@@$$QAV<lambda_207f2d024fc103971653565357d6cd41>@@@Z 10059778 f   libucrt:per_thread_data.obj
 0001:000587ca       ??$?RV<lambda_38edbb1296d33220d7e4dd0ed76b244a>@@AAV<lambda_5ce1d447e08cb34b2473517608e21441>@@V<lambda_fb385d3da700c9147fc39e65dd577a8c>@@@?$__crt_seh_guarded_call@X@@QAEX$$QAV<lambda_38edbb1296d33220d7e4dd0ed76b244a>@@AAV<lambda_5ce1d447e08cb34b2473517608e21441>@@$$QAV<lambda_fb385d3da700c9147fc39e65dd577a8c>@@@Z 100597ca f   libucrt:per_thread_data.obj
 0001:00058835       ??$?RV<lambda_6affb1475c98b40b75cdec977db92e3c>@@AAV<lambda_b8d4b9c228a6ecc3f80208dbb4b4a104>@@V<lambda_608742c3c92a14382c1684fc64f96c88>@@@?$__crt_seh_guarded_call@X@@QAEX$$QAV<lambda_6affb1475c98b40b75cdec977db92e3c>@@AAV<lambda_b8d4b9c228a6ecc3f80208dbb4b4a104>@@$$QAV<lambda_608742c3c92a14382c1684fc64f96c88>@@@Z 10059835 f   libucrt:per_thread_data.obj
 0001:0005888a       ??$?RV<lambda_a7e850c220f1c8d1e6efeecdedd162c6>@@AAV<lambda_46720907175c18b6c9d2717bc0d2d362>@@V<lambda_9048902d66e8d99359bc9897bbb930a8>@@@?$__crt_seh_guarded_call@X@@QAEX$$QAV<lambda_a7e850c220f1c8d1e6efeecdedd162c6>@@AAV<lambda_46720907175c18b6c9d2717bc0d2d362>@@$$QAV<lambda_9048902d66e8d99359bc9897bbb930a8>@@@Z 1005988a f   libucrt:per_thread_data.obj
 0001:000588e4       ?construct_ptd@@YAXQAU__acrt_ptd@@QAPAU__crt_locale_data@@@Z 100598e4 f   libucrt:per_thread_data.obj
 0001:0005897d       ?destroy_fls@@YGXPAX@Z     1005997d f   libucrt:per_thread_data.obj
 0001:0005899e       ?destroy_ptd@@YAXQAU__acrt_ptd@@@Z 1005999e f   libucrt:per_thread_data.obj
 0001:00058a6b       ?replace_current_thread_locale_nolock@@YAXQAU__acrt_ptd@@QAU__crt_locale_data@@@Z 10059a6b f   libucrt:per_thread_data.obj
 0001:00058d40       $$000000                   10059d40     libucrt:cos_impl.obj
 0001:00058e30       $$000000                   10059e30     libucrt:sin_impl.obj
 0001:00059110       $$000000                   1005a110     libucrt:sqrt.obj
 0001:00059320       $$000000                   1005a320     libucrt:87triga.obj
 0001:000593e0       $$000000                   1005a3e0     libucrt:87cdisp.obj
 0001:00059680       $$000000                   1005a680     libucrt:asin_impl.obj
 0001:00059b9e       ?fp_format_a@@YAHQBNPADIQADIH_NIQAU__crt_locale_pointers@@@Z 1005ab9e f   libucrt:cvt.obj
 0001:00059eb7       ?fp_format_e@@YAHQBNQADI1IH_NIQAU__crt_locale_pointers@@@Z 1005aeb7 f   libucrt:cvt.obj
 0001:00059f59       ?fp_format_e_internal@@YAHQADIH_NIQAU_strflt@@1QAU__crt_locale_pointers@@@Z 1005af59 f   libucrt:cvt.obj
 0001:0005a0a1       ?fp_format_f@@YAHQBNQADI1IHQAU__crt_locale_pointers@@@Z 1005b0a1 f   libucrt:cvt.obj
 0001:0005a12c       ?fp_format_f_internal@@YAHQADIHQAU_strflt@@_NQAU__crt_locale_pointers@@@Z 1005b12c f   libucrt:cvt.obj
 0001:0005a1fd       ?fp_format_g@@YAHQBNQADI1IH_NIQAU__crt_locale_pointers@@@Z 1005b1fd f   libucrt:cvt.obj
 0001:0005a2be       ?fp_format_nan_or_infinity@@YAHW4__acrt_fp_class@@_NPADI1@Z 1005b2be f   libucrt:cvt.obj
 0001:0005a353       ?shift_bytes@@YAXQADI0H@Z  1005b353 f   libucrt:cvt.obj
 0001:0005a5eb       ??$?RV<lambda_135d2772fca65dc1248eeaa1b56e886a>@@AAV<lambda_2a444430fde8c29194d880d93eed5e8f>@@AAV<lambda_8dff2cf36a5417162780cd64fa2883ef>@@@?$__crt_seh_guarded_call@X@@QAEX$$QAV<lambda_135d2772fca65dc1248eeaa1b56e886a>@@AAV<lambda_2a444430fde8c29194d880d93eed5e8f>@@AAV<lambda_8dff2cf36a5417162780cd64fa2883ef>@@@Z 1005b5eb f   libucrt:wsetlocale.obj
 0001:0005a630       ??$?RV<lambda_4fdada1b837b2abbf20876fac97688ad>@@AAV<lambda_b57350f2640456a0859d250846f69caf>@@V<lambda_eed5e4f92b5b7d55fa22c48c484aaa54>@@@?$__crt_seh_guarded_call@X@@QAEX$$QAV<lambda_4fdada1b837b2abbf20876fac97688ad>@@AAV<lambda_b57350f2640456a0859d250846f69caf>@@$$QAV<lambda_eed5e4f92b5b7d55fa22c48c484aaa54>@@@Z 1005b630 f   libucrt:wsetlocale.obj
 0001:0005a67d       ??$?RV<lambda_e5124f882df8998aaf41531e079ba474>@@AAV<lambda_3e16ef9562a7dcce91392c22ab16ea36>@@V<lambda_e25ca0880e6ef98be67edffd8c599615>@@@?$__crt_seh_guarded_call@X@@QAEX$$QAV<lambda_e5124f882df8998aaf41531e079ba474>@@AAV<lambda_3e16ef9562a7dcce91392c22ab16ea36>@@$$QAV<lambda_e25ca0880e6ef98be67edffd8c599615>@@@Z 1005b67d f   libucrt:wsetlocale.obj
 0001:0005a765       ??R<lambda_2a444430fde8c29194d880d93eed5e8f>@@QBE@XZ 1005b765 f   libucrt:wsetlocale.obj
 0001:0005a7cf       ??R<lambda_b57350f2640456a0859d250846f69caf>@@QBEXXZ 1005b7cf f   libucrt:wsetlocale.obj
 0001:0005ab98       __copytlocinfo_nolock      1005bb98 f   libucrt:wsetlocale.obj
 0001:0005abc7       __expandlocale             1005bbc7 f   libucrt:wsetlocale.obj
 0001:0005b051       __wsetlocale_get_all       1005c051 f   libucrt:wsetlocale.obj
 0001:0005b1ec       __wsetlocale_nolock        1005c1ec f   libucrt:wsetlocale.obj
 0001:0005b4dc       __wsetlocale_set_cat       1005c4dc f   libucrt:wsetlocale.obj
 0001:0005b8a3       _get_default_code_page     1005c8a3 f   libucrt:wsetlocale.obj
 0001:0005b8d2       _parse_bcp47               1005c8d2 f   libucrt:wsetlocale.obj
 0001:0005babc       _parse_bcp47_code_page     1005cabc f   libucrt:wsetlocale.obj
 0001:0005bafb       _parse_bcp47_language      1005cafb f   libucrt:wsetlocale.obj
 0001:0005bb6d       _parse_bcp47_region        1005cb6d f   libucrt:wsetlocale.obj
 0001:0005bc26       _parse_bcp47_script        1005cc26 f   libucrt:wsetlocale.obj
 0001:0005bc96       _string_is_alpha           1005cc96 f   libucrt:wsetlocale.obj
 0001:0005bcd3       ?initialize_inherited_file_handles_nolock@@YAXXZ 1005ccd3 f   libucrt:ioinit.obj
 0001:0005bd89       ?initialize_stdio_handles_nolock@@YAXXZ 1005cd89 f   libucrt:ioinit.obj
 0001:0005bf26       ?<lambda_invoker_stdcall>@<lambda_29d3c280b90b41c2ae070ffca879996a>@@CGHPA_W@Z 1005cf26 f   libucrt:winapi_thunks.obj
 0001:0005bf33       ??$?RV<lambda_6b4b7855443974f2b4b77000ea21c99c>@@AAV<lambda_8f7d3b162ab39427f4fa9995c67a7986>@@V<lambda_cc9a5ba8a5d8428b9634eab82665e5dc>@@@?$__crt_seh_guarded_call@H@@QAEH$$QAV<lambda_6b4b7855443974f2b4b77000ea21c99c>@@AAV<lambda_8f7d3b162ab39427f4fa9995c67a7986>@@$$QAV<lambda_cc9a5ba8a5d8428b9634eab82665e5dc>@@@Z 1005cf33 f   libucrt:winapi_thunks.obj
 0001:0005bfaf       ??R<lambda_29d3c280b90b41c2ae070ffca879996a>@@QBEHPA_W@Z 1005cfaf f   libucrt:winapi_thunks.obj
 0001:0005bfde       ?try_get_AreFileApisANSI@@YAP6GHXZXZ 1005cfde f   libucrt:winapi_thunks.obj
 0001:0005bffa       ?try_get_CompareStringEx@@YAP6GHPB_WK0H0HPAU_nlsversioninfo@@PAXJ@ZXZ 1005cffa f   libucrt:winapi_thunks.obj
 0001:0005c014       ?try_get_EnumSystemLocalesEx@@YAP6GHP6GHPA_WKJ@ZKJPAX@ZXZ 1005d014 f   libucrt:winapi_thunks.obj
 0001:0005c02e       ?try_get_GetDateFormatEx@@YAP6GHPB_WKPBU_SYSTEMTIME@@0PA_WH0@ZXZ 1005d02e f   libucrt:winapi_thunks.obj
 0001:0005c048       ?try_get_GetLocaleInfoEx@@YAP6GHPB_WKPA_WH@ZXZ 1005d048 f   libucrt:winapi_thunks.obj
 0001:0005c062       ?try_get_GetTimeFormatEx@@YAP6GHPB_WKPBU_SYSTEMTIME@@0PA_WH@ZXZ 1005d062 f   libucrt:winapi_thunks.obj
 0001:0005c07c       ?try_get_GetUserDefaultLocaleName@@YAP6GHPA_WH@ZXZ 1005d07c f   libucrt:winapi_thunks.obj
 0001:0005c096       ?try_get_IsValidLocaleName@@YAP6GHPB_W@ZXZ 1005d096 f   libucrt:winapi_thunks.obj
 0001:0005c0b0       ?try_get_LCIDToLocaleName@@YAP6GHKPA_WHK@ZXZ 1005d0b0 f   libucrt:winapi_thunks.obj
 0001:0005c0ca       ?try_get_LCMapStringEx@@YAP6GHPB_WK0HPA_WHPAU_nlsversioninfo@@PAXJ@ZXZ 1005d0ca f   libucrt:winapi_thunks.obj
 0001:0005c0e4       ?try_get_LocaleNameToLCID@@YAP6GKPB_WK@ZXZ 1005d0e4 f   libucrt:winapi_thunks.obj
 0001:0005c0fe       ?try_get_first_available_module@@YAPAUHINSTANCE__@@QBW4module_id@?A0x391cf84c@@0@Z 1005d0fe f   libucrt:winapi_thunks.obj
 0001:0005c1c5       ?try_get_function@@YAPAXW4function_id@?A0x391cf84c@@QBDQBW4module_id@2@2@Z 1005d1c5 f   libucrt:winapi_thunks.obj
 0001:0005c88c       ??$?RV<lambda_218ce3db14220d0be481dae8ef3383b6>@@AAV<lambda_628dfdc04ba53c8bfc02c9951375f3f5>@@V<lambda_57dc472bd5c9d5f3b2cbca59b8a843ae>@@@?$__crt_seh_guarded_call@H@@QAEH$$QAV<lambda_218ce3db14220d0be481dae8ef3383b6>@@AAV<lambda_628dfdc04ba53c8bfc02c9951375f3f5>@@$$QAV<lambda_57dc472bd5c9d5f3b2cbca59b8a843ae>@@@Z 1005d88c f   libucrt:close.obj
 0001:0005cae5       ?find_or_allocate_unused_stream_nolock@@YA?AV__crt_stdio_stream@@XZ 1005dae5 f   libucrt:stream.obj
 0001:0005cba7       ??$?RV<lambda_9e9de3de5fa147e2223d7db92bc10aa6>@@AAV<lambda_38ce7e780aa69e748d6df282ebc68efe>@@V<lambda_8ca6da459f0f6780f1cff60fdc3d00e5>@@@?$__crt_seh_guarded_call@H@@QAEH$$QAV<lambda_9e9de3de5fa147e2223d7db92bc10aa6>@@AAV<lambda_38ce7e780aa69e748d6df282ebc68efe>@@$$QAV<lambda_8ca6da459f0f6780f1cff60fdc3d00e5>@@@Z 1005dba7 f   libucrt:commit.obj
 0001:0005ccc6       ?write_double_translated_ansi_nolock@@YA?AUwrite_result@?A0x17268360@@HQBDI@Z 1005dcc6 f   libucrt:write.obj
 0001:0005d070       ?write_double_translated_unicode_nolock@@YA?AUwrite_result@?A0x17268360@@QBDI@Z 1005e070 f   libucrt:write.obj
 0001:0005d0d8       ?write_requires_double_translation_nolock@@YA_NH@Z 1005e0d8 f   libucrt:write.obj
 0001:0005d149       ?write_text_ansi_nolock@@YA?AUwrite_result@?A0x17268360@@HQBDI@Z 1005e149 f   libucrt:write.obj
 0001:0005d224       ?write_text_utf16le_nolock@@YA?AUwrite_result@?A0x17268360@@HQBDI@Z 1005e224 f   libucrt:write.obj
 0001:0005d30d       ?write_text_utf8_nolock@@YA?AUwrite_result@?A0x17268360@@HQBDI@Z 1005e30d f   libucrt:write.obj
 0001:0005d713       ??$common_refill_and_read_nolock@D@@YAHV__crt_stdio_stream@@@Z 1005e713 f   libucrt:_filbuf.obj
 0001:0005d8a8       ??$common_ftell@_J@@YA_JV__crt_stdio_stream@@@Z 1005e8a8 f   libucrt:ftell.obj
 0001:0005d928       ??$common_ftell_nolock@_J@@YA_JV__crt_stdio_stream@@@Z 1005e928 f   libucrt:ftell.obj
 0001:0005daac       ?common_ftell_read_mode_nolock@@YA_JV__crt_stdio_stream@@_J1@Z 1005eaac f   libucrt:ftell.obj
 0001:0005dc6b       ?common_ftell_translated_utf8_nolock@@YA_JV__crt_stdio_stream@@_J@Z 1005ec6b f   libucrt:ftell.obj
 0001:0005de04       ?count_newline_bytes@@YA_JQBD0W4__crt_lowio_text_mode@@@Z 1005ee04 f   libucrt:ftell.obj
 0001:0005de98       ??$common_flush_and_write_nolock@D@@YAHHV__crt_stdio_stream@@@Z 1005ee98 f   libucrt:_flsbuf.obj
 0001:0005dfad       ??$write_buffer_nolock@D@@YA_NDV__crt_stdio_stream@@@Z 1005efad f   libucrt:_flsbuf.obj
 0001:0005e079       ?stream_is_at_end_of_file_nolock@@YA_NV__crt_stdio_stream@@@Z 1005f079 f   libucrt:_flsbuf.obj
 0001:0005e109       ??$translate_text_mode_nolock@D@@YAHHQADI@Z 1005f109 f   libucrt:read.obj
 0001:0005e26a       ??$translate_text_mode_nolock@_W@@YAHHQA_WI@Z 1005f26a f   libucrt:read.obj
 0001:0005e43b       ?translate_ansi_or_utf8_nolock@@YAHHQADIQA_WI@Z 1005f43b f   libucrt:read.obj
 0001:0005e592       ?translate_utf16_from_console_nolock@@YAHHQA_WI@Z 1005f592 f   libucrt:read.obj
 0001:0005ead1       ??$common_lseek@_J@@YA_JH_JH@Z 1005fad1 f   libucrt:lseek.obj
 0001:0005ebdd       ??$common_lseek_nolock@_J@@YA_JH_JH@Z 1005fbdd f   libucrt:lseek.obj
 0001:0005ecf0       $$000000                   1005fcf0     libucrt:87disp.obj
 0001:0005f346       ??$common_openfile@D@@YAPAU_iobuf@@QBD0HV__crt_stdio_stream@@@Z 10060346 f   libucrt:openfile.obj
 0001:0005f522       ?__acrt_LCMapStringA_stat@@YAHPAU__crt_locale_pointers@@PB_WKPBDHPADHHH@Z 10060522 f   libucrt:lcmapstringa.obj
 0001:00060149       ??$common_gmtime_s@_J@@YAHQAUtm@@QB_J@Z 10061149 f   libucrt:gmtime.obj
 0001:00060293       ?compute_year@@YAHAA_JAA_N@Z 10061293 f   libucrt:gmtime.obj
 0001:00060395       ?_isindst_nolock@@YAHQAUtm@@@Z 10061395 f   libucrt:tzset.obj
 0001:000605af       ?cvtdate@@YAXW4transition_type@?A0x7639d0b4@@W4date_type@2@HHHHHHHHH@Z 100615af f   libucrt:tzset.obj
 0001:000606ef       ?tzset_from_environment_nolock@@YAXPAD@Z 100616ef f   libucrt:tzset.obj
 0001:000608ca       ?tzset_from_system_nolock@@YAXXZ 100618ca f   libucrt:tzset.obj
 0001:00060a25       ?tzset_nolock@@YAXXZ       10061a25 f   libucrt:tzset.obj
 0001:00060ceb       ?to_abstract_control@@YA?AW4__acrt_fenv_abstract_control@@W4__acrt_fenv_machine_sse_control@@@Z 10061ceb f   libucrt:_fenvutils.obj
 0001:00060da7       ?to_abstract_control@@YA?AW4__acrt_fenv_abstract_control@@W4__acrt_fenv_machine_x87_control@@@Z 10061da7 f   libucrt:_fenvutils.obj
 0001:00060e60       ?to_machine_sse_control@@YA?AW4__acrt_fenv_machine_sse_control@@W4__acrt_fenv_abstract_control@@@Z 10061e60 f   libucrt:_fenvutils.obj
 0001:00060f2d       ?to_machine_x87_control@@YA?AW4__acrt_fenv_machine_x87_control@@W4__acrt_fenv_abstract_control@@@Z 10061f2d f   libucrt:_fenvutils.obj
 0001:000612cb       ??R<lambda_3d301b9e52f5099be73030e1f0bf487e>@@QBEIPBD@Z 100622cb f   libucrt:mbrtowc.obj
 0001:00061432       ?InternalGetLocaleInfoA@@YAHQAU__crt_locale_pointers@@QB_WKQADH@Z 10062432 f   libucrt:getlocaleinfoa.obj
 0001:000617c4       ?_wcstombs_l_helper@@YAIPADPB_WIPAU__crt_locale_pointers@@@Z 100627c4 f   libucrt:wcstombs.obj
 0001:00061c50       $$000000                   10062c50     libucrt:pow_pentium4.obj
 0001:00062770       $$000000                   10063770     libucrt:87tran.obj
 0001:00062980       $$000000                   10063980     libucrt:genexcep.obj
 0001:000629e0       $$000000                   100639e0     libucrt:common.obj
 0001:00062cff       ??$?RV<lambda_cbab9ec6f41b0180b23cc171c22676b0>@@AAV<lambda_44731a7d0e6d81c3e6aa82d741081786>@@V<lambda_4b292cb8dd18144e164572427af410ab>@@@?$__crt_seh_guarded_call@P6AXH@Z@@QAEP6AXH@Z$$QAV<lambda_cbab9ec6f41b0180b23cc171c22676b0>@@AAV<lambda_44731a7d0e6d81c3e6aa82d741081786>@@$$QAV<lambda_4b292cb8dd18144e164572427af410ab>@@@Z 10063cff f   libucrt:signal.obj
 0001:00062d63       ?get_global_action_nolock@@YAPAP6AXH@ZH@Z 10063d63 f   libucrt:signal.obj
 0001:00062da5       ?siglookup@@YAPAU__crt_signal_action_t@@HQAU1@@Z 10063da5 f   libucrt:signal.obj
 0001:000631c4       ?<lambda_invoker_cdecl>@<lambda_838c7f62c73c983481e27c09e84b0b5d>@@CAHPBX0@Z 100641c4 f   libucrt:argv_wildcards.obj
 0001:000631dc       ??$__acrt_convert_wcs_mbs_cp@_WDV<lambda_28bda7af82a03b66c1cb3803a755f95d>@@U__crt_win32_buffer_internal_dynamic_resizing@@@@YAHQB_WAAV?$__crt_win32_buffer@DU__crt_win32_buffer_internal_dynamic_resizing@@@@ABV<lambda_28bda7af82a03b66c1cb3803a755f95d>@@I@Z 100641dc f   libucrt:argv_wildcards.obj
 0001:000632ab       ??$common_expand_argv_wildcards@D@@YAHQAPADQAPAPAD@Z 100642ab f   libucrt:argv_wildcards.obj
 0001:0006349a       ??$copy_and_add_argument_to_buffer@D@@YAHQBD0IAAV?$argument_list@D@?A0x5f5c8891@@@Z 1006449a f   libucrt:argv_wildcards.obj
 0001:0006354b       ??$expand_argument_wildcards@D@@YAHQAD0AAV?$argument_list@D@?A0x5f5c8891@@@Z 1006454b f   libucrt:argv_wildcards.obj
 0001:000637de       ?expand_if_necessary@?$argument_list@D@?A0x5f5c8891@@AAEHXZ 100647de f   libucrt:argv_wildcards.obj
 0001:00063911       ??$?RV<lambda_ceb1ee4838e85a9d631eb091e2fbe199>@@AAV<lambda_ae742caa10f662c28703da3d2ea5e57e>@@V<lambda_cd08b5d6af4937fe54fc07d0c9bf6b37>@@@?$__crt_seh_guarded_call@X@@QAEX$$QAV<lambda_ceb1ee4838e85a9d631eb091e2fbe199>@@AAV<lambda_ae742caa10f662c28703da3d2ea5e57e>@@$$QAV<lambda_cd08b5d6af4937fe54fc07d0c9bf6b37>@@@Z 10064911 f   libucrt:mbctype.obj
 0001:0006395e       ??R<lambda_ae742caa10f662c28703da3d2ea5e57e>@@QBEXXZ 1006495e f   libucrt:mbctype.obj
 0001:000639e1       ?CPtoLocaleName@@YAPB_WH@Z 100649e1 f   libucrt:mbctype.obj
 0001:00063a1f       ?getSystemCP@@YAHH@Z       10064a1f f   libucrt:mbctype.obj
 0001:00063a90       ?setSBCS@@YAXPAU__crt_multibyte_data@@@Z 10064a90 f   libucrt:mbctype.obj
 0001:00063af5       ?setSBUpLow@@YAXPAU__crt_multibyte_data@@@Z 10064af5 f   libucrt:mbctype.obj
 0001:00063c76       ?setmbcp_internal@@YAHH_NQAU__acrt_ptd@@QAPAU__crt_multibyte_data@@@Z 10064c76 f   libucrt:mbctype.obj
 0001:00063d8f       ?update_thread_multibyte_data_internal@@YAPAU__crt_multibyte_data@@QAU__acrt_ptd@@QAPAU1@@Z 10064d8f f   libucrt:mbctype.obj
 0001:0006407e       ?x_ismbbtype_l@@YAHPAU__crt_locale_pointers@@IHH@Z 1006507e f   libucrt:ismbbyte.obj
 0001:00064106       ?find_end_of_double_null_terminated_sequence@@YAPB_WQB_W@Z 10065106 f   libucrt:get_environment_from_os.obj
 0001:000641c1       ??$common_set_variable_in_environment_nolock@D@@YAHQADH@Z 100651c1 f   libucrt:setenv.obj
 0001:000643ff       ??$copy_environment@D@@YAPAPADQAPAD@Z 100653ff f   libucrt:setenv.obj
 0001:000644af       ??$ensure_current_environment_is_not_initial_environment_nolock@D@@YAXXZ 100654af f   libucrt:setenv.obj
 0001:000644c9       ??$find_in_environment_nolock@D@@YAHQBDI@Z 100654c9 f   libucrt:setenv.obj
 0001:00064a40       $$000000                   10065a40     libucrt:cos_pentium4.obj
 0001:00064bf0       $$000000                   10065bf0     libucrt:sin_pentium4.obj
 0001:00064dc0       $$000000                   10065dc0     libucrt:sqrt_impl.obj
 0001:00065070       $$000000                   10066070     libucrt:asin_pentium4.obj
 0001:00067259       ?free_crt_array_internal@@YAXQAPBXI@Z 10068259 f   libucrt:inittime.obj
 0001:00067291       ?initialize_lc_time@@YA_NQAU__crt_lc_time_data@@QAU__crt_locale_data@@@Z 10068291 f   libucrt:inittime.obj
 0001:000676e1       ??$common_tcsncat_s@_W@@YAHQA_WIQB_WI@Z 100686e1 f   libucrt:wcsncat_s.obj
 0001:000677d3       ??$common_tcsncpy_s@_W@@YAHQA_WIQB_WI@Z 100687d3 f   libucrt:wcsncpy_s.obj
 0001:00067950       _GetLocaleNameFromDefault  10068950 f   libucrt:get_qualified_locale.obj
 0001:000679d7       _GetLocaleNameFromLangCountry 100689d7 f   libucrt:get_qualified_locale.obj
 0001:00067a70       _GetLocaleNameFromLanguage 10068a70 f   libucrt:get_qualified_locale.obj
 0001:00067ac9       _GetPrimaryLen             10068ac9 f   libucrt:get_qualified_locale.obj
 0001:00067afd       _LangCountryEnumProcEx@12  10068afd f   libucrt:get_qualified_locale.obj
 0001:00067ddd       _LanguageEnumProcEx@12     10068ddd f   libucrt:get_qualified_locale.obj
 0001:00067e9c       _ProcessCodePage           10068e9c f   libucrt:get_qualified_locale.obj
 0001:00067f92       _TestDefaultCountry        10068f92 f   libucrt:get_qualified_locale.obj
 0001:00067fdf       _TranslateName             10068fdf f   libucrt:get_qualified_locale.obj
 0001:00068247       _CountryEnumProc@4         10069247 f   libucrt:getqloc_downlevel.obj
 0001:000682ee       _GetLcidFromCountry        100692ee f   libucrt:getqloc_downlevel.obj
 0001:00068339       _GetLcidFromLangCountry    10069339 f   libucrt:getqloc_downlevel.obj
 0001:000683d4       _GetLcidFromLanguage       100693d4 f   libucrt:getqloc_downlevel.obj
 0001:00068433       _GetPrimaryLen             10069433 f   libucrt:getqloc_downlevel.obj
 0001:0006845f       _LangCountryEnumProc@4     1006945f f   libucrt:getqloc_downlevel.obj
 0001:000686b2       _LanguageEnumProc@4        100696b2 f   libucrt:getqloc_downlevel.obj
 0001:00068787       _LcidFromHexString         10069787 f   libucrt:getqloc_downlevel.obj
 0001:000687d8       _ProcessCodePage           100697d8 f   libucrt:getqloc_downlevel.obj
 0001:000688b9       _TestDefaultCountry        100698b9 f   libucrt:getqloc_downlevel.obj
 0001:000688de       _TestDefaultLanguage       100698de f   libucrt:getqloc_downlevel.obj
 0001:0006894c       _TranslateName             1006994c f   libucrt:getqloc_downlevel.obj
 0001:00068fd6       ?GetTableIndexFromLocaleName@@YAHPB_W@Z 10069fd6 f   libucrt:lcidtoname_downlevel.obj
 0001:000693eb       ??$common_sopen_dispatch@D@@YAHQBDHHHQAHH@Z 1006a3eb f   libucrt:open.obj
 0001:000694ac       ?configure_text_mode@@YAHHUfile_options@?A0xa9d50aae@@HAAW4__crt_lowio_text_mode@@@Z 1006a4ac f   libucrt:open.obj
 0001:000696ff       ?create_file@@YAPAXQB_WQAU_SECURITY_ATTRIBUTES@@Ufile_options@?A0xa9d50aae@@@Z 1006a6ff f   libucrt:open.obj
 0001:00069724       ?decode_open_create_flags@@YAKH@Z 1006a724 f   libucrt:open.obj
 0001:00069794       ?decode_options@@YA?AUfile_options@?A0xa9d50aae@@HHH@Z 1006a794 f   libucrt:open.obj
 0001:0006990e       ?truncate_ctrl_z_if_present@@YAHH@Z 1006a90e f   libucrt:open.obj
 0001:00069d70       ??$common_getenv_nolock@D@@YAPADQBD@Z 1006ad70 f   libucrt:getenv.obj
 0001:00069ddd       ??$common_getenv_s@D@@YAHQAIQADIQBD@Z 1006addd f   libucrt:getenv.obj
 0001:00069e3c       ??$common_getenv_s_nolock@D@@YAHQAIQADIQBD@Z 1006ae3c f   libucrt:getenv.obj
 0001:00069eed       ??$common_tcsncpy_s@D@@YAHQADIQBDI@Z 1006aeed f   libucrt:strncpy_s.obj
 0001:0006a320       ?swap@@YAXPAD0I@Z          1006b320 f   libucrt:qsort.obj
 0001:0006a7b0       $$000000                   1006b7b0     libucrt:strpbrk.obj
 0001:0006a894       ?initialize_multibyte@@YAHXZ 1006b894 f   libucrt:multibyte_initializer.obj
 0001:0006ab20       $$000000                   1006bb20     libucrt:log10_impl.obj
 0001:0006ac30       ??$common_xtox@K_W@@YAHKQA_WII_N@Z 1006bc30 f   libucrt:xtoa.obj
 0001:0006ace3       ??$common_xtox_s@K_W@@YAHKQA_WII_N@Z 1006bce3 f   libucrt:xtoa.obj
 0001:0006ad8e       ?__dcrt_lowio_initialize_console_output@@YAXXZ 1006bd8e f   libucrt:initcon.obj
 0001:0006ae40       $$000000                   1006be40     libucrt:_strnicm.obj
 0001:0006b232       ?InternalCompareStringA@@YAHPAU__crt_locale_pointers@@PB_WKPBDH2HH@Z 1006c232 f   libucrt:comparestringa.obj
 0001:0006b5f0       $$000000                   1006c5f0     libucrt:log10_pentium4.obj
 0001:0006b9e0       $$000000                   1006c9e0     LIBCMT:llshl.obj
 0001:0006ba00       $$000000                   1006ca00     LIBCMT:ullshr.obj
 0001:0006ba20       $$000000                   1006ca20     LIBCMT:llrem.obj
 0001:0006bae0       $$000000                   1006cae0     LIBCMT:ftol2.obj
 0001:0006bba0       $$000000                   1006cba0     libvcruntime:strrchr.obj
 0001:0006bda0       __unwindfunclet$??R<lambda_115b1d6c016fdc4669f69dce8f4024be>@@QBE?AV?$vector@U?$pair@VVector@@H@std@@V?$allocator@U?$pair@VVector@@H@std@@@2@@std@@_N@Z$0 1006cda0 f   Aimbot.obj
 0001:0006bda8       __ehhandler$??R<lambda_115b1d6c016fdc4669f69dce8f4024be>@@QBE?AV?$vector@U?$pair@VVector@@H@std@@V?$allocator@U?$pair@VVector@@H@std@@@2@@std@@_N@Z 1006cda8 f   Aimbot.obj
 0001:0006bdd0       __unwindfunclet$?Do@Aimbot@RAGEBOT@FEATURES@@QAEXPAVCUserCmd@SDK@@@Z$0 1006cdd0 f   Aimbot.obj
 0001:0006bddb       __ehhandler$?Do@Aimbot@RAGEBOT@FEATURES@@QAEXPAVCUserCmd@SDK@@@Z 1006cddb f   Aimbot.obj
 0001:0006be10       __unwindfunclet$?DoHitscan@Aimbot@RAGEBOT@FEATURES@@AAE_NPAVCBaseEntity@SDK@@ABUBacktracking_Record@23@AAVVector@@AAH@Z$3 1006ce10 f   Aimbot.obj
 0001:0006be18       __unwindfunclet$?DoHitscan@Aimbot@RAGEBOT@FEATURES@@AAE_NPAVCBaseEntity@SDK@@ABUBacktracking_Record@23@AAVVector@@AAH@Z$0 1006ce18 f   Aimbot.obj
 0001:0006be20       __unwindfunclet$?DoHitscan@Aimbot@RAGEBOT@FEATURES@@AAE_NPAVCBaseEntity@SDK@@ABUBacktracking_Record@23@AAVVector@@AAH@Z$5 1006ce20 f   Aimbot.obj
 0001:0006be28       __unwindfunclet$?DoHitscan@Aimbot@RAGEBOT@FEATURES@@AAE_NPAVCBaseEntity@SDK@@ABUBacktracking_Record@23@AAVVector@@AAH@Z$1 1006ce28 f   Aimbot.obj
 0001:0006be30       __unwindfunclet$?DoHitscan@Aimbot@RAGEBOT@FEATURES@@AAE_NPAVCBaseEntity@SDK@@ABUBacktracking_Record@23@AAVVector@@AAH@Z$2 1006ce30 f   Aimbot.obj
 0001:0006be38       __ehhandler$?DoHitscan@Aimbot@RAGEBOT@FEATURES@@AAE_NPAVCBaseEntity@SDK@@ABUBacktracking_Record@23@AAVVector@@AAH@Z 1006ce38 f   Aimbot.obj
 0001:0006be60       __unwindfunclet$??R<lambda_658b4d7811d43194f49751d86a719d93>@@QBE_NAAM0@Z$0 1006ce60 f   Antiaim.obj
 0001:0006be6b       __unwindfunclet$??R<lambda_658b4d7811d43194f49751d86a719d93>@@QBE_NAAM0@Z$1 1006ce6b f   Antiaim.obj
 0001:0006be76       __ehhandler$??R<lambda_658b4d7811d43194f49751d86a719d93>@@QBE_NAAM0@Z 1006ce76 f   Antiaim.obj
 0001:0006bea0       __unwindfunclet$?RandomNumber@MATH@@YAMMM@Z$1 1006cea0 f   Antiaim.obj
 0001:0006beac       __ehhandler$?RandomNumber@MATH@@YAMMM@Z 1006ceac f   Antiaim.obj
 0001:0006bed0       __unwindfunclet$?CalculateDamage@Autowall@RAGEBOT@FEATURES@@QAE?AUAutowall_Return_Info@123@VVector@@0PAVCBaseEntity@SDK@@1H@Z$0 1006ced0 f   Autowall.obj
 0001:0006bedc       __ehhandler$?CalculateDamage@Autowall@RAGEBOT@FEATURES@@QAE?AUAutowall_Return_Info@123@VVector@@0PAVCBaseEntity@SDK@@1H@Z 1006cedc f   Autowall.obj
 0001:0006bf10       __unwindfunclet$?CanPenetrate@Autowall@RAGEBOT@FEATURES@@AAE_NPAVCBaseEntity@SDK@@AAUAutowall_Info@123@PAUWeapon_Info@5@@Z$1 1006cf10 f   Autowall.obj
 0001:0006bf29       __unwindfunclet$?CanPenetrate@Autowall@RAGEBOT@FEATURES@@AAE_NPAVCBaseEntity@SDK@@AAUAutowall_Info@123@PAUWeapon_Info@5@@Z$0 1006cf29 f   Autowall.obj
 0001:0006bf35       __ehhandler$?CanPenetrate@Autowall@RAGEBOT@FEATURES@@AAE_NPAVCBaseEntity@SDK@@AAUAutowall_Info@123@PAUWeapon_Info@5@@Z 1006cf35 f   Autowall.obj
 0001:0006bf60       __unwindfunclet$??__Ebacktracking@RAGEBOT@FEATURES@@YAXXZ$0 1006cf60 f   Backtracking.obj
 0001:0006bf6a       __ehhandler$??__Ebacktracking@RAGEBOT@FEATURES@@YAXXZ 1006cf6a f   Backtracking.obj
 0001:0006bf90       __ehhandler$??__Fbacktracking@RAGEBOT@FEATURES@@YAXXZ 1006cf90 f   Backtracking.obj
 0001:0006bf90       __ehhandler$??__Fweapon_fire_listener@MISC@FEATURES@@YAXXZ 1006cf90 f   EventListeners.obj
 0001:0006bf90       __ehhandler$??__Fbullet_impact_listener@MISC@FEATURES@@YAXXZ 1006cf90 f   EventListeners.obj
 0001:0006bf90       __ehhandler$??__Fitem_purchase_listener@MISC@FEATURES@@YAXXZ 1006cf90 f   EventListeners.obj
 0001:0006bf90       __ehhandler$??__Fplayer_hurt_listener@MISC@FEATURES@@YAXXZ 1006cf90 f   EventListeners.obj
 0001:0006bfb0       __unwindfunclet$?ApplyRestore@CBacktracking@RAGEBOT@FEATURES@@QAEXPAVCBaseEntity@SDK@@M@Z$0 1006cfb0 f   Backtracking.obj
 0001:0006bfbc       __ehhandler$?ApplyRestore@CBacktracking@RAGEBOT@FEATURES@@QAEXPAVCBaseEntity@SDK@@M@Z 1006cfbc f   Backtracking.obj
 0001:0006bfe0       __unwindfunclet$?GetLerpTicks@CBacktracking@RAGEBOT@FEATURES@@SAHXZ$0 1006cfe0 f   Backtracking.obj
 0001:0006bfec       __unwindfunclet$?GetLerpTicks@CBacktracking@RAGEBOT@FEATURES@@SAHXZ$1 1006cfec f   Backtracking.obj
 0001:0006bff8       __unwindfunclet$?GetLerpTicks@CBacktracking@RAGEBOT@FEATURES@@SAHXZ$2 1006cff8 f   Backtracking.obj
 0001:0006c004       __ehhandler$?GetLerpTicks@CBacktracking@RAGEBOT@FEATURES@@SAHXZ 1006d004 f   Backtracking.obj
 0001:0006c020       __unwindfunclet$?GetPriorityRecords@CBacktracking@RAGEBOT@FEATURES@@QAE?AV?$vector@UBacktracking_Record@RAGEBOT@FEATURES@@V?$allocator@UBacktracking_Record@RAGEBOT@FEATURES@@@std@@@std@@PAVCBaseEntity@SDK@@@Z$0 1006d020 f   Backtracking.obj
 0001:0006c02b       __unwindfunclet$?GetPriorityRecords@CBacktracking@RAGEBOT@FEATURES@@QAE?AV?$vector@UBacktracking_Record@RAGEBOT@FEATURES@@V?$allocator@UBacktracking_Record@RAGEBOT@FEATURES@@@std@@@std@@PAVCBaseEntity@SDK@@@Z$2 1006d02b f   Backtracking.obj
 0001:0006c036       __ehhandler$?GetPriorityRecords@CBacktracking@RAGEBOT@FEATURES@@QAE?AV?$vector@UBacktracking_Record@RAGEBOT@FEATURES@@V?$allocator@UBacktracking_Record@RAGEBOT@FEATURES@@@std@@@std@@PAVCBaseEntity@SDK@@@Z 1006d036 f   Backtracking.obj
 0001:0006c060       __unwindfunclet$?GetValidRecords@CBacktracking@RAGEBOT@FEATURES@@QAE?AV?$vector@UBacktracking_Record@RAGEBOT@FEATURES@@V?$allocator@UBacktracking_Record@RAGEBOT@FEATURES@@@std@@@std@@PAVCBaseEntity@SDK@@@Z$0 1006d060 f   Backtracking.obj
 0001:0006c079       __ehhandler$?GetValidRecords@CBacktracking@RAGEBOT@FEATURES@@QAE?AV?$vector@UBacktracking_Record@RAGEBOT@FEATURES@@V?$allocator@UBacktracking_Record@RAGEBOT@FEATURES@@@std@@@std@@PAVCBaseEntity@SDK@@@Z 1006d079 f   Backtracking.obj
 0001:0006c0a0       __ehhandler$??$_Emplace_reallocate@AAY0N@$$CBDVCColor@@@?$vector@U?$pair@V?$basic_string@DU?$char_traits@D@std@@V?$allocator@D@2@@std@@VCColor@@@std@@V?$allocator@U?$pair@V?$basic_string@DU?$char_traits@D@std@@V?$allocator@D@2@@std@@VCColor@@@std@@@2@@std@@QAEPAU?$pair@V?$basic_string@DU?$char_traits@D@std@@V?$allocator@D@2@@std@@VCColor@@@1@QAU21@AAY0N@$$CBD$$QAVCColor@@@Z 1006d0a0 f   BoxESP.obj
 0001:0006c0c0       __unwindfunclet$?DrawBoxInfo@CBoxESP@VISUALS@FEATURES@@AAEXPAVCBaseEntity@SDK@@VCColor@@PAVVector@@_N33@Z$0 1006d0c0 f   BoxESP.obj
 0001:0006c0cb       __unwindfunclet$?DrawBoxInfo@CBoxESP@VISUALS@FEATURES@@AAEXPAVCBaseEntity@SDK@@VCColor@@PAVVector@@_N33@Z$1 1006d0cb f   BoxESP.obj
 0001:0006c0d6       __unwindfunclet$?DrawBoxInfo@CBoxESP@VISUALS@FEATURES@@AAEXPAVCBaseEntity@SDK@@VCColor@@PAVVector@@_N33@Z$2 1006d0d6 f   BoxESP.obj
 0001:0006c0e1       __unwindfunclet$?DrawBoxInfo@CBoxESP@VISUALS@FEATURES@@AAEXPAVCBaseEntity@SDK@@VCColor@@PAVVector@@_N33@Z$3 1006d0e1 f   BoxESP.obj
 0001:0006c0ec       __ehhandler$?DrawBoxInfo@CBoxESP@VISUALS@FEATURES@@AAEXPAVCBaseEntity@SDK@@VCColor@@PAVVector@@_N33@Z 1006d0ec f   BoxESP.obj
 0001:0006c120       __unwindfunclet$?DrawHealthBar@CBoxESP@VISUALS@FEATURES@@AAEXPAVCBaseEntity@SDK@@PAVVector@@H@Z$0 1006d120 f   BoxESP.obj
 0001:0006c128       __unwindfunclet$?DrawHealthBar@CBoxESP@VISUALS@FEATURES@@AAEXPAVCBaseEntity@SDK@@PAVVector@@H@Z$1 1006d128 f   BoxESP.obj
 0001:0006c130       __ehhandler$?DrawHealthBar@CBoxESP@VISUALS@FEATURES@@AAEXPAVCBaseEntity@SDK@@PAVVector@@H@Z 1006d130 f   BoxESP.obj
 0001:0006c150       __unwindfunclet$?CreateMaterial@CChams@VISUALS@FEATURES@@QAEPAVIMaterial@SDK@@_N00@Z$18 1006d150 f   Chams.obj
 0001:0006c15b       __unwindfunclet$?CreateMaterial@CChams@VISUALS@FEATURES@@QAEPAVIMaterial@SDK@@_N00@Z$7 1006d15b f   Chams.obj
 0001:0006c166       __unwindfunclet$?CreateMaterial@CChams@VISUALS@FEATURES@@QAEPAVIMaterial@SDK@@_N00@Z$24 1006d166 f   Chams.obj
 0001:0006c171       __unwindfunclet$?CreateMaterial@CChams@VISUALS@FEATURES@@QAEPAVIMaterial@SDK@@_N00@Z$25 1006d171 f   Chams.obj
 0001:0006c17c       __unwindfunclet$?CreateMaterial@CChams@VISUALS@FEATURES@@QAEPAVIMaterial@SDK@@_N00@Z$0 1006d17c f   Chams.obj
 0001:0006c188       __unwindfunclet$?CreateMaterial@CChams@VISUALS@FEATURES@@QAEPAVIMaterial@SDK@@_N00@Z$1 1006d188 f   Chams.obj
 0001:0006c193       __unwindfunclet$?CreateMaterial@CChams@VISUALS@FEATURES@@QAEPAVIMaterial@SDK@@_N00@Z$2 1006d193 f   Chams.obj
 0001:0006c19e       __unwindfunclet$?CreateMaterial@CChams@VISUALS@FEATURES@@QAEPAVIMaterial@SDK@@_N00@Z$3 1006d19e f   Chams.obj
 0001:0006c1a9       __unwindfunclet$?CreateMaterial@CChams@VISUALS@FEATURES@@QAEPAVIMaterial@SDK@@_N00@Z$4 1006d1a9 f   Chams.obj
 0001:0006c1b4       __unwindfunclet$?CreateMaterial@CChams@VISUALS@FEATURES@@QAEPAVIMaterial@SDK@@_N00@Z$5 1006d1b4 f   Chams.obj
 0001:0006c1bf       __unwindfunclet$?CreateMaterial@CChams@VISUALS@FEATURES@@QAEPAVIMaterial@SDK@@_N00@Z$19 1006d1bf f   Chams.obj
 0001:0006c1cb       __unwindfunclet$?CreateMaterial@CChams@VISUALS@FEATURES@@QAEPAVIMaterial@SDK@@_N00@Z$26 1006d1cb f   Chams.obj
 0001:0006c1d7       __ehhandler$?CreateMaterial@CChams@VISUALS@FEATURES@@QAEPAVIMaterial@SDK@@_N00@Z 1006d1d7 f   Chams.obj
 0001:0006c200       __unwindfunclet$?DrawBacktrackPlayer@CChams@VISUALS@FEATURES@@AAEXPAVCBaseEntity@SDK@@@Z$0 1006d200 f   Chams.obj
 0001:0006c208       __ehhandler$?DrawBacktrackPlayer@CChams@VISUALS@FEATURES@@AAEXPAVCBaseEntity@SDK@@@Z 1006d208 f   Chams.obj
 0001:0006c230       __unwindfunclet$??$_Emplace_reallocate@ABULog@InGameLogger@MISC@FEATURES@@@?$vector@ULog@InGameLogger@MISC@FEATURES@@V?$allocator@ULog@InGameLogger@MISC@FEATURES@@@std@@@std@@QAEPAULog@InGameLogger@MISC@FEATURES@@QAU2345@ABU2345@@Z$3 1006d230 f   EventListeners.obj
 0001:0006c238       __ehhandler$??$_Emplace_reallocate@ABULog@InGameLogger@MISC@FEATURES@@@?$vector@ULog@InGameLogger@MISC@FEATURES@@V?$allocator@ULog@InGameLogger@MISC@FEATURES@@@std@@@std@@QAEPAULog@InGameLogger@MISC@FEATURES@@QAU2345@ABU2345@@Z 1006d238 f   EventListeners.obj
 0001:0006c260       __ehhandler$??$_Emplace_reallocate@ABV?$basic_string@DU?$char_traits@D@std@@V?$allocator@D@2@@std@@@?$vector@V?$basic_string@DU?$char_traits@D@std@@V?$allocator@D@2@@std@@V?$allocator@V?$basic_string@DU?$char_traits@D@std@@V?$allocator@D@2@@std@@@2@@std@@QAEPAV?$basic_string@DU?$char_traits@D@std@@V?$allocator@D@2@@1@QAV21@ABV21@@Z 1006d260 f   EventListeners.obj
 0001:0006c280       __unwindfunclet$??$emplace@ABULog@InGameLogger@MISC@FEATURES@@@?$vector@ULog@InGameLogger@MISC@FEATURES@@V?$allocator@ULog@InGameLogger@MISC@FEATURES@@@std@@@std@@QAE?AV?$_Vector_iterator@V?$_Vector_val@U?$_Simple_types@ULog@InGameLogger@MISC@FEATURES@@@std@@@std@@@1@V?$_Vector_const_iterator@V?$_Vector_val@U?$_Simple_types@ULog@InGameLogger@MISC@FEATURES@@@std@@@std@@@1@ABULog@InGameLogger@MISC@FEATURES@@@Z$2 1006d280 f   EventListeners.obj
 0001:0006c288       __unwindfunclet$??$emplace@ABULog@InGameLogger@MISC@FEATURES@@@?$vector@ULog@InGameLogger@MISC@FEATURES@@V?$allocator@ULog@InGameLogger@MISC@FEATURES@@@std@@@std@@QAE?AV?$_Vector_iterator@V?$_Vector_val@U?$_Simple_types@ULog@InGameLogger@MISC@FEATURES@@@std@@@std@@@1@V?$_Vector_const_iterator@V?$_Vector_val@U?$_Simple_types@ULog@InGameLogger@MISC@FEATURES@@@std@@@std@@@1@ABULog@InGameLogger@MISC@FEATURES@@@Z$5 1006d288 f   EventListeners.obj
 0001:0006c290       __ehhandler$??$emplace@ABULog@InGameLogger@MISC@FEATURES@@@?$vector@ULog@InGameLogger@MISC@FEATURES@@V?$allocator@ULog@InGameLogger@MISC@FEATURES@@@std@@@std@@QAE?AV?$_Vector_iterator@V?$_Vector_val@U?$_Simple_types@ULog@InGameLogger@MISC@FEATURES@@@std@@@std@@@1@V?$_Vector_const_iterator@V?$_Vector_val@U?$_Simple_types@ULog@InGameLogger@MISC@FEATURES@@@std@@@std@@@1@ABULog@InGameLogger@MISC@FEATURES@@@Z 1006d290 f   EventListeners.obj
 0001:0006c2b0       __unwindfunclet$??0?$vector@V?$basic_string@DU?$char_traits@D@std@@V?$allocator@D@2@@std@@V?$allocator@V?$basic_string@DU?$char_traits@D@std@@V?$allocator@D@2@@std@@@2@@std@@QAE@ABV01@@Z$2 1006d2b0 f   EventListeners.obj
 0001:0006c2b8       __ehhandler$??0?$vector@V?$basic_string@DU?$char_traits@D@std@@V?$allocator@D@2@@std@@V?$allocator@V?$basic_string@DU?$char_traits@D@std@@V?$allocator@D@2@@std@@@2@@std@@QAE@ABV01@@Z 1006d2b8 f   EventListeners.obj
 0001:0006c2e0       __unwindfunclet$??0Log@InGameLogger@MISC@FEATURES@@QAE@ABU0123@@Z$1 1006d2e0 f   EventListeners.obj
 0001:0006c2e8       __ehhandler$??0Log@InGameLogger@MISC@FEATURES@@QAE@ABU0123@@Z 1006d2e8 f   EventListeners.obj
 0001:0006c310       __unwindfunclet$??0Log@InGameLogger@MISC@FEATURES@@QAE@XZ$0 1006d310 f   EventListeners.obj
 0001:0006c318       __ehhandler$??0Log@InGameLogger@MISC@FEATURES@@QAE@XZ 1006d318 f   EventListeners.obj
 0001:0006c340       __ehhandler$??_GWeaponFireListener@MISC@FEATURES@@UAEPAXI@Z 1006d340 f   EventListeners.obj
 0001:0006c340       __ehhandler$??_GBulletImpactListener@MISC@FEATURES@@UAEPAXI@Z 1006d340 f   EventListeners.obj
 0001:0006c340       __ehhandler$??_GPlayerHurtListener@MISC@FEATURES@@UAEPAXI@Z 1006d340 f   EventListeners.obj
 0001:0006c340       __ehhandler$??_D?$basic_fstream@DU?$char_traits@D@std@@@std@@QAEXXZ 1006d340 f   Misc.obj
 0001:0006c340       __ehhandler$??_G?$basic_istream@DU?$char_traits@D@std@@@std@@UAEPAXI@Z 1006d340 f   Misc.obj
 0001:0006c340       __ehhandler$??1sentry@?$basic_ostream@DU?$char_traits@D@std@@@std@@QAE@XZ 1006d340 f   Misc.obj
 0001:0006c340       __ehhandler$??_G?$basic_ostream@DU?$char_traits@D@std@@@std@@UAEPAXI@Z 1006d340 f   Misc.obj
 0001:0006c340       __ehhandler$??_G?$basic_ios@DU?$char_traits@D@std@@@std@@UAEPAXI@Z 1006d340 f   Misc.obj
 0001:0006c340       __ehhandler$??_GItemPurchaseListener@MISC@FEATURES@@UAEPAXI@Z 1006d340 f   EventListeners.obj
 0001:0006c340       __ehhandler$??_Gios_base@std@@UAEPAXI@Z 1006d340 f   Misc.obj
 0001:0006c340       __ehhandler$??_D?$basic_stringstream@DU?$char_traits@D@std@@V?$allocator@D@2@@std@@QAEXXZ 1006d340 f   PPGUI_Commands.obj
 0001:0006c340       __ehhandler$??1?$basic_stringbuf@DU?$char_traits@D@std@@V?$allocator@D@2@@std@@UAE@XZ 1006d340 f   PPGUI_Commands.obj
 0001:0006c360       __unwindfunclet$?AddLog@InGameLogger@MISC@FEATURES@@QAEXULog@123@@Z$0 1006d360 f   EventListeners.obj
 0001:0006c368       __ehhandler$?AddLog@InGameLogger@MISC@FEATURES@@QAEXULog@123@@Z 1006d368 f   EventListeners.obj
 0001:0006c390       __unwindfunclet$?FireGameEvent@ItemPurchaseListener@MISC@FEATURES@@UAEXPAVIGameEvent@SDK@@@Z$0 1006d390 f   EventListeners.obj
 0001:0006c39b       __ehhandler$?FireGameEvent@ItemPurchaseListener@MISC@FEATURES@@UAEXPAVIGameEvent@SDK@@@Z 1006d39b f   EventListeners.obj
 0001:0006c3d0       __unwindfunclet$?FireGameEvent@PlayerHurtListener@MISC@FEATURES@@UAEXPAVIGameEvent@SDK@@@Z$0 1006d3d0 f   EventListeners.obj
 0001:0006c3db       __unwindfunclet$?FireGameEvent@PlayerHurtListener@MISC@FEATURES@@UAEXPAVIGameEvent@SDK@@@Z$11 1006d3db f   EventListeners.obj
 0001:0006c3e3       __ehhandler$?FireGameEvent@PlayerHurtListener@MISC@FEATURES@@UAEXPAVIGameEvent@SDK@@@Z 1006d3e3 f   EventListeners.obj
 0001:0006c410       __unwindfunclet$?InitializeEventListeners@MISC@FEATURES@@YAXXZ$0 1006d410 f   EventListeners.obj
 0001:0006c418       __unwindfunclet$?InitializeEventListeners@MISC@FEATURES@@YAXXZ$1 1006d418 f   EventListeners.obj
 0001:0006c420       __unwindfunclet$?InitializeEventListeners@MISC@FEATURES@@YAXXZ$2 1006d420 f   EventListeners.obj
 0001:0006c428       __unwindfunclet$?InitializeEventListeners@MISC@FEATURES@@YAXXZ$3 1006d428 f   EventListeners.obj
 0001:0006c430       __ehhandler$?InitializeEventListeners@MISC@FEATURES@@YAXXZ 1006d430 f   EventListeners.obj
 0001:0006c460       __unwindfunclet$?CreateF@RENDER@@YAIV?$basic_string@DU?$char_traits@D@std@@V?$allocator@D@2@@std@@HHHHH@Z$0 1006d460 f   render.obj
 0001:0006c460       __unwindfunclet$?PushBack@ColorLine@MISC@FEATURES@@QAEXV?$basic_string@DU?$char_traits@D@std@@V?$allocator@D@2@@std@@VCColor@@@Z$0 1006d460 f   EventListeners.obj
 0001:0006c468       __ehhandler$?PushBack@ColorLine@MISC@FEATURES@@QAEXV?$basic_string@DU?$char_traits@D@std@@V?$allocator@D@2@@std@@VCColor@@@Z 1006d468 f   EventListeners.obj
 0001:0006c468       __ehhandler$?CreateF@RENDER@@YAIV?$basic_string@DU?$char_traits@D@std@@V?$allocator@D@2@@std@@HHHHH@Z 1006d468 f   render.obj
 0001:0006c490       __unwindfunclet$?Do@InGameLogger@MISC@FEATURES@@QAEXXZ$3 1006d490 f   InGameLogger.obj
 0001:0006c498       __unwindfunclet$?Do@InGameLogger@MISC@FEATURES@@QAEXXZ$0 1006d498 f   InGameLogger.obj
 0001:0006c4a0       __ehhandler$?Do@InGameLogger@MISC@FEATURES@@QAEXXZ 1006d4a0 f   InGameLogger.obj
 0001:0006c4c0       __unwindfunclet$??$?6U?$char_traits@D@std@@@std@@YAAAV?$basic_ostream@DU?$char_traits@D@std@@@0@AAV10@PBD@Z$3 1006d4c0 f   Misc.obj
 0001:0006c4c8       __unwindfunclet$??$?6U?$char_traits@D@std@@@std@@YAAAV?$basic_ostream@DU?$char_traits@D@std@@@0@AAV10@PBD@Z$2 1006d4c8 f   Misc.obj
 0001:0006c4d0       __ehhandler$??$?6U?$char_traits@D@std@@@std@@YAAAV?$basic_ostream@DU?$char_traits@D@std@@@0@AAV10@PBD@Z 1006d4d0 f   Misc.obj
 0001:0006c4f0       __ehhandler$??$_Emplace_reallocate@ABV?$vector@V?$basic_string@DU?$char_traits@D@std@@V?$allocator@D@2@@std@@V?$allocator@V?$basic_string@DU?$char_traits@D@std@@V?$allocator@D@2@@std@@@2@@std@@@?$vector@V?$vector@V?$basic_string@DU?$char_traits@D@std@@V?$allocator@D@2@@std@@V?$allocator@V?$basic_string@DU?$char_traits@D@std@@V?$allocator@D@2@@std@@@2@@std@@V?$allocator@V?$vector@V?$basic_string@DU?$char_traits@D@std@@V?$allocator@D@2@@std@@V?$allocator@V?$basic_string@DU?$char_traits@D@std@@V?$allocator@D@2@@std@@@2@@std@@@2@@std@@QAEPAV?$vector@V?$basic_string@DU?$char_traits@D@std@@V?$allocator@D@2@@std@@V?$allocator@V?$basic_string@DU?$char_traits@D@std@@V?$allocator@D@2@@std@@@2@@1@QAV21@ABV21@@Z 1006d4f0 f   Misc.obj
 0001:0006c510       __ehhandler$??$_Insert_hint@AAU?$pair@$$CBHPAX@std@@PAU?$_Tree_node@U?$pair@$$CBHPAX@std@@PAX@2@@?$_Tree@V?$_Tmap_traits@HPAXU?$less@H@std@@V?$allocator@U?$pair@$$CBHPAX@std@@@2@$0A@@std@@@std@@IAE?AV?$_Tree_iterator@V?$_Tree_val@U?$_Tree_simple_types@U?$pair@$$CBHPAX@std@@@std@@@std@@@1@V?$_Tree_const_iterator@V?$_Tree_val@U?$_Tree_simple_types@U?$pair@$$CBHPAX@std@@@std@@@std@@@1@AAU?$pair@$$CBHPAX@1@PAU?$_Tree_node@U?$pair@$$CBHPAX@std@@PAX@1@@Z 1006d510 f   Misc.obj
 0001:0006c530       __ehhandler$??$_Insert_nohint@AAU?$pair@$$CBHPAX@std@@PAU?$_Tree_node@U?$pair@$$CBHPAX@std@@PAX@2@@?$_Tree@V?$_Tmap_traits@HPAXU?$less@H@std@@V?$allocator@U?$pair@$$CBHPAX@std@@@2@$0A@@std@@@std@@IAE?AU?$pair@V?$_Tree_iterator@V?$_Tree_val@U?$_Tree_simple_types@U?$pair@$$CBHPAX@std@@@std@@@std@@@std@@_N@1@_NAAU?$pair@$$CBHPAX@1@PAU?$_Tree_node@U?$pair@$$CBHPAX@std@@PAX@1@@Z 1006d530 f   Misc.obj
 0001:0006c550       __unwindfunclet$??$getline@DU?$char_traits@D@std@@V?$allocator@D@2@@std@@YAAAV?$basic_istream@DU?$char_traits@D@std@@@0@$$QAV10@AAV?$basic_string@DU?$char_traits@D@std@@V?$allocator@D@2@@0@D@Z$3 1006d550 f   Misc.obj
 0001:0006c558       __unwindfunclet$??$getline@DU?$char_traits@D@std@@V?$allocator@D@2@@std@@YAAAV?$basic_istream@DU?$char_traits@D@std@@@0@$$QAV10@AAV?$basic_string@DU?$char_traits@D@std@@V?$allocator@D@2@@0@D@Z$2 1006d558 f   Misc.obj
 0001:0006c560       __ehhandler$??$getline@DU?$char_traits@D@std@@V?$allocator@D@2@@std@@YAAAV?$basic_istream@DU?$char_traits@D@std@@@0@$$QAV10@AAV?$basic_string@DU?$char_traits@D@std@@V?$allocator@D@2@@0@D@Z 1006d560 f   Misc.obj
 0001:0006c580       __unwindfunclet$??$use_facet@V?$codecvt@DDU_Mbstatet@@@std@@@std@@YAABV?$codecvt@DDU_Mbstatet@@@0@ABVlocale@0@@Z$0 1006d580 f   Misc.obj
 0001:0006c588       __unwindfunclet$??$use_facet@V?$codecvt@DDU_Mbstatet@@@std@@@std@@YAABV?$codecvt@DDU_Mbstatet@@@0@ABVlocale@0@@Z$3 1006d588 f   Misc.obj
 0001:0006c597       __unwindfunclet$??$use_facet@V?$codecvt@DDU_Mbstatet@@@std@@@std@@YAABV?$codecvt@DDU_Mbstatet@@@0@ABVlocale@0@@Z$1 1006d597 f   Misc.obj
 0001:0006c59f       __ehhandler$??$use_facet@V?$codecvt@DDU_Mbstatet@@@std@@@std@@YAABV?$codecvt@DDU_Mbstatet@@@0@ABVlocale@0@@Z 1006d59f f   Misc.obj
 0001:0006c5c0       __unwindfunclet$??$use_facet@V?$ctype@D@std@@@std@@YAABV?$ctype@D@0@ABVlocale@0@@Z$0 1006d5c0 f   Misc.obj
 0001:0006c5c8       __unwindfunclet$??$use_facet@V?$ctype@D@std@@@std@@YAABV?$ctype@D@0@ABVlocale@0@@Z$3 1006d5c8 f   Misc.obj
 0001:0006c5d7       __unwindfunclet$??$use_facet@V?$ctype@D@std@@@std@@YAABV?$ctype@D@0@ABVlocale@0@@Z$1 1006d5d7 f   Misc.obj
 0001:0006c5df       __ehhandler$??$use_facet@V?$ctype@D@std@@@std@@YAABV?$ctype@D@0@ABVlocale@0@@Z 1006d5df f   Misc.obj
 0001:0006c600       __unwindfunclet$??0?$basic_fstream@DU?$char_traits@D@std@@@std@@QAE@PBDHH@Z$0 1006d600 f   Misc.obj
 0001:0006c61c       __unwindfunclet$??0?$basic_fstream@DU?$char_traits@D@std@@@std@@QAE@PBDHH@Z$4 1006d61c f   Misc.obj
 0001:0006c627       __unwindfunclet$??0?$basic_fstream@DU?$char_traits@D@std@@@std@@QAE@PBDHH@Z$1 1006d627 f   Misc.obj
 0001:0006c632       __unwindfunclet$??0?$basic_fstream@DU?$char_traits@D@std@@@std@@QAE@PBDHH@Z$2 1006d632 f   Misc.obj
 0001:0006c63d       __unwindfunclet$??0?$basic_fstream@DU?$char_traits@D@std@@@std@@QAE@PBDHH@Z$11 1006d63d f   Misc.obj
 0001:0006c645       __ehhandler$??0?$basic_fstream@DU?$char_traits@D@std@@@std@@QAE@PBDHH@Z 1006d645 f   Misc.obj
 0001:0006c660       __unwindfunclet$??0_Locinfo@std@@QAE@PBD@Z$0 1006d660 f   Misc.obj
 0001:0006c668       __unwindfunclet$??0_Locinfo@std@@QAE@PBD@Z$1 1006d668 f   Misc.obj
 0001:0006c673       __unwindfunclet$??0_Locinfo@std@@QAE@PBD@Z$2 1006d673 f   Misc.obj
 0001:0006c67e       __unwindfunclet$??0_Locinfo@std@@QAE@PBD@Z$3 1006d67e f   Misc.obj
 0001:0006c689       __unwindfunclet$??0_Locinfo@std@@QAE@PBD@Z$4 1006d689 f   Misc.obj
 0001:0006c694       __unwindfunclet$??0_Locinfo@std@@QAE@PBD@Z$5 1006d694 f   Misc.obj
 0001:0006c69f       __unwindfunclet$??0_Locinfo@std@@QAE@PBD@Z$6 1006d69f f   Misc.obj
 0001:0006c6aa       __ehhandler$??0_Locinfo@std@@QAE@PBD@Z 1006d6aa f   Misc.obj
 0001:0006c6d0       __unwindfunclet$??0_System_error@std@@IAE@Verror_code@1@ABV?$basic_string@DU?$char_traits@D@std@@V?$allocator@D@2@@1@@Z$3 1006d6d0 f   Misc.obj
 0001:0006c6d8       __unwindfunclet$??0_System_error@std@@IAE@Verror_code@1@ABV?$basic_string@DU?$char_traits@D@std@@V?$allocator@D@2@@1@@Z$4 1006d6d8 f   Misc.obj
 0001:0006c6e0       __ehhandler$??0_System_error@std@@IAE@Verror_code@1@ABV?$basic_string@DU?$char_traits@D@std@@V?$allocator@D@2@@1@@Z 1006d6e0 f   Misc.obj
 0001:0006c710       __unwindfunclet$??0failure@ios_base@std@@QAE@PBDABVerror_code@2@@Z$1 1006d710 f   Misc.obj
 0001:0006c718       __ehhandler$??0failure@ios_base@std@@QAE@PBDABVerror_code@2@@Z 1006d718 f   Misc.obj
 0001:0006c740       __unwindfunclet$??0sentry@?$basic_ostream@DU?$char_traits@D@std@@@std@@QAE@AAV12@@Z$0 1006d740 f   Misc.obj
 0001:0006c748       __ehhandler$??0sentry@?$basic_ostream@DU?$char_traits@D@std@@@std@@QAE@AAV12@@Z 1006d748 f   Misc.obj
 0001:0006c770       __ehhandler$??1?$basic_filebuf@DU?$char_traits@D@std@@@std@@UAE@XZ 1006d770 f   Misc.obj
 0001:0006c770       __ehhandler$??_G?$basic_streambuf@DU?$char_traits@D@std@@@std@@UAEPAXI@Z 1006d770 f   Misc.obj
 0001:0006c770       __ehhandler$??_G?$basic_iostream@DU?$char_traits@D@std@@@std@@UAEPAXI@Z 1006d770 f   Misc.obj
 0001:0006c790       __ehhandler$??1sentry@?$basic_istream@DU?$char_traits@D@std@@@std@@QAE@XZ 1006d790 f   Misc.obj
 0001:0006c790       __ehhandler$??1?$basic_ios@DU?$char_traits@D@std@@@std@@UAE@XZ 1006d790 f   Misc.obj
 0001:0006c790       __ehhandler$??_D?$basic_ostream@DU?$char_traits@D@std@@@std@@QAEXXZ 1006d790 f   libcpmt:cout.obj
 0001:0006c7b0       __ehhandler$??1_Init_atexit@@QAE@XZ 1006d7b0 f   libcpmt:iosptrs.obj
 0001:0006c7b0       __ehhandler$??1_Locinfo@std@@QAE@XZ 1006d7b0 f   Misc.obj
 0001:0006c7b0       __ehhandler$??1_Locimp@locale@std@@MAE@XZ 1006d7b0 f   libcpmt:locale0.obj
 0001:0006c7d0       __ehhandler$??1_Sentry_base@?$basic_ostream@DU?$char_traits@D@std@@@std@@QAE@XZ 1006d7d0 f   Misc.obj
 0001:0006c7d0       __ehhandler$??1locale@std@@QAE@XZ 1006d7d0 f   Misc.obj
 0001:0006c7d0       __ehhandler$??1_Sentry_base@?$basic_istream@DU?$char_traits@D@std@@@std@@QAE@XZ 1006d7d0 f   Misc.obj
 0001:0006c7f0       __unwindfunclet$??R<lambda_7411d79f4ee59d52de45b16a5109c3cd>@@QBE?AV?$vector@V?$vector@V?$basic_string@DU?$char_traits@D@std@@V?$allocator@D@2@@std@@V?$allocator@V?$basic_string@DU?$char_traits@D@std@@V?$allocator@D@2@@std@@@2@@std@@V?$allocator@V?$vector@V?$basic_string@DU?$char_traits@D@std@@V?$allocator@D@2@@std@@V?$allocator@V?$basic_string@DU?$char_traits@D@std@@V?$allocator@D@2@@std@@@2@@std@@@2@@std@@XZ$0 1006d7f0 f   Misc.obj
 0001:0006c809       __unwindfunclet$??R<lambda_7411d79f4ee59d52de45b16a5109c3cd>@@QBE?AV?$vector@V?$vector@V?$basic_string@DU?$char_traits@D@std@@V?$allocator@D@2@@std@@V?$allocator@V?$basic_string@DU?$char_traits@D@std@@V?$allocator@D@2@@std@@@2@@std@@V?$allocator@V?$vector@V?$basic_string@DU?$char_traits@D@std@@V?$allocator@D@2@@std@@V?$allocator@V?$basic_string@DU?$char_traits@D@std@@V?$allocator@D@2@@std@@@2@@std@@@2@@std@@XZ$1 1006d809 f   Misc.obj
 0001:0006c811       __unwindfunclet$??R<lambda_7411d79f4ee59d52de45b16a5109c3cd>@@QBE?AV?$vector@V?$vector@V?$basic_string@DU?$char_traits@D@std@@V?$allocator@D@2@@std@@V?$allocator@V?$basic_string@DU?$char_traits@D@std@@V?$allocator@D@2@@std@@@2@@std@@V?$allocator@V?$vector@V?$basic_string@DU?$char_traits@D@std@@V?$allocator@D@2@@std@@V?$allocator@V?$basic_string@DU?$char_traits@D@std@@V?$allocator@D@2@@std@@@2@@std@@@2@@std@@XZ$3 1006d811 f   Misc.obj
 0001:0006c819       __ehhandler$??R<lambda_7411d79f4ee59d52de45b16a5109c3cd>@@QBE?AV?$vector@V?$vector@V?$basic_string@DU?$char_traits@D@std@@V?$allocator@D@2@@std@@V?$allocator@V?$basic_string@DU?$char_traits@D@std@@V?$allocator@D@2@@std@@@2@@std@@V?$allocator@V?$vector@V?$basic_string@DU?$char_traits@D@std@@V?$allocator@D@2@@std@@V?$allocator@V?$basic_string@DU?$char_traits@D@std@@V?$allocator@D@2@@std@@@2@@std@@@2@@std@@XZ 1006d819 f   Misc.obj
 0001:0006c840       __unwindfunclet$??R<lambda_a6669d928a94ba27917059d5a85f90cd>@@QBE@PBD0@Z$0 1006d840 f   Misc.obj
 0001:0006c84c       __unwindfunclet$??R<lambda_a6669d928a94ba27917059d5a85f90cd>@@QBE@PBD0@Z$1 1006d84c f   Misc.obj
 0001:0006c854       __unwindfunclet$??R<lambda_a6669d928a94ba27917059d5a85f90cd>@@QBE@PBD0@Z$2 1006d854 f   Misc.obj
 0001:0006c85c       __unwindfunclet$??R<lambda_a6669d928a94ba27917059d5a85f90cd>@@QBE@PBD0@Z$3 1006d85c f   Misc.obj
 0001:0006c864       __ehhandler$??R<lambda_a6669d928a94ba27917059d5a85f90cd>@@QBE@PBD0@Z 1006d864 f   Misc.obj
 0001:0006c890       __unwindfunclet$??R<lambda_b58585d07ca0d6147613ae0d72d6a7d6>@@QBE?AV?$vector@V?$basic_string@DU?$char_traits@D@std@@V?$allocator@D@2@@std@@V?$allocator@V?$basic_string@DU?$char_traits@D@std@@V?$allocator@D@2@@std@@@2@@std@@V?$basic_string@DU?$char_traits@D@std@@V?$allocator@D@2@@2@@Z$0 1006d890 f   Misc.obj
 0001:0006c898       __unwindfunclet$??R<lambda_b58585d07ca0d6147613ae0d72d6a7d6>@@QBE?AV?$vector@V?$basic_string@DU?$char_traits@D@std@@V?$allocator@D@2@@std@@V?$allocator@V?$basic_string@DU?$char_traits@D@std@@V?$allocator@D@2@@std@@@2@@std@@V?$basic_string@DU?$char_traits@D@std@@V?$allocator@D@2@@2@@Z$1 1006d898 f   Misc.obj
 0001:0006c8a0       __unwindfunclet$??R<lambda_b58585d07ca0d6147613ae0d72d6a7d6>@@QBE?AV?$vector@V?$basic_string@DU?$char_traits@D@std@@V?$allocator@D@2@@std@@V?$allocator@V?$basic_string@DU?$char_traits@D@std@@V?$allocator@D@2@@std@@@2@@std@@V?$basic_string@DU?$char_traits@D@std@@V?$allocator@D@2@@2@@Z$3 1006d8a0 f   Misc.obj
 0001:0006c8a8       __unwindfunclet$??R<lambda_b58585d07ca0d6147613ae0d72d6a7d6>@@QBE?AV?$vector@V?$basic_string@DU?$char_traits@D@std@@V?$allocator@D@2@@std@@V?$allocator@V?$basic_string@DU?$char_traits@D@std@@V?$allocator@D@2@@std@@@2@@std@@V?$basic_string@DU?$char_traits@D@std@@V?$allocator@D@2@@2@@Z$4 1006d8a8 f   Misc.obj
 0001:0006c8b0       __ehhandler$??R<lambda_b58585d07ca0d6147613ae0d72d6a7d6>@@QBE?AV?$vector@V?$basic_string@DU?$char_traits@D@std@@V?$allocator@D@2@@std@@V?$allocator@V?$basic_string@DU?$char_traits@D@std@@V?$allocator@D@2@@std@@@2@@std@@V?$basic_string@DU?$char_traits@D@std@@V?$allocator@D@2@@2@@Z 1006d8b0 f   Misc.obj
 0001:0006c8e0       __unwindfunclet$?ClantagChanger@MISC@FEATURES@@YAXXZ$2 1006d8e0 f   Misc.obj
 0001:0006c8e8       __unwindfunclet$?ClantagChanger@MISC@FEATURES@@YAXXZ$1 1006d8e8 f   Misc.obj
 0001:0006c8f0       __ehhandler$?ClantagChanger@MISC@FEATURES@@YAXXZ 1006d8f0 f   Misc.obj
 0001:0006c920       __unwindfunclet$?LoadUserConfig@MISC@FEATURES@@YAXXZ$0 1006d920 f   Misc.obj
 0001:0006c92b       __unwindfunclet$?LoadUserConfig@MISC@FEATURES@@YAXXZ$1 1006d92b f   Misc.obj
 0001:0006c936       __unwindfunclet$?LoadUserConfig@MISC@FEATURES@@YAXXZ$4 1006d936 f   Misc.obj
 0001:0006c93e       __unwindfunclet$?LoadUserConfig@MISC@FEATURES@@YAXXZ$3 1006d93e f   Misc.obj
 0001:0006c946       __unwindfunclet$?LoadUserConfig@MISC@FEATURES@@YAXXZ$2 1006d946 f   Misc.obj
 0001:0006c94e       __ehhandler$?LoadUserConfig@MISC@FEATURES@@YAXXZ 1006d94e f   Misc.obj
 0001:0006c970       __unwindfunclet$?_Ipfx@?$basic_istream@DU?$char_traits@D@std@@@std@@QAE_N_N@Z$2 1006d970 f   Misc.obj
 0001:0006c978       __ehhandler$?_Ipfx@?$basic_istream@DU?$char_traits@D@std@@@std@@QAE_N_N@Z 1006d978 f   Misc.obj
 0001:0006c9a0       __ehhandler$?_Osfx@?$basic_ostream@DU?$char_traits@D@std@@@std@@QAEXXZ 1006d9a0 f   Misc.obj
 0001:0006c9c0       __unwindfunclet$?flush@?$basic_ostream@DU?$char_traits@D@std@@@std@@QAEAAV12@XZ$0 1006d9c0 f   Misc.obj
 0001:0006c9c8       __ehhandler$?flush@?$basic_ostream@DU?$char_traits@D@std@@@std@@QAEAAV12@XZ 1006d9c8 f   Misc.obj
 0001:0006c9f0       __unwindfunclet$?put@?$basic_ostream@DU?$char_traits@D@std@@@std@@QAEAAV12@D@Z$3 1006d9f0 f   Misc.obj
 0001:0006c9f8       __unwindfunclet$?put@?$basic_ostream@DU?$char_traits@D@std@@@std@@QAEAAV12@D@Z$2 1006d9f8 f   Misc.obj
 0001:0006ca00       __ehhandler$?put@?$basic_ostream@DU?$char_traits@D@std@@@std@@QAEAAV12@D@Z 1006da00 f   Misc.obj
 0001:0006ca20       __unwindfunclet$?uflow@?$basic_filebuf@DU?$char_traits@D@std@@@std@@MAEHXZ$0 1006da20 f   Misc.obj
 0001:0006ca28       __ehhandler$?uflow@?$basic_filebuf@DU?$char_traits@D@std@@@std@@MAEHXZ 1006da28 f   Misc.obj
 0001:0006ca50       __unwindfunclet$?widen@?$basic_ios@DU?$char_traits@D@std@@@std@@QBEDD@Z$0 1006da50 f   Misc.obj
 0001:0006ca58       __ehhandler$?widen@?$basic_ios@DU?$char_traits@D@std@@@std@@QBEDD@Z 1006da58 f   Misc.obj
 0001:0006ca80       __unwindfunclet$??$?HDU?$char_traits@D@std@@V?$allocator@D@1@@std@@YA?AV?$basic_string@DU?$char_traits@D@std@@V?$allocator@D@2@@0@QBDABV10@@Z$0 1006da80 f   Resolver.obj
 0001:0006ca99       __ehhandler$??$?HDU?$char_traits@D@std@@V?$allocator@D@1@@std@@YA?AV?$basic_string@DU?$char_traits@D@std@@V?$allocator@D@2@@0@QBDABV10@@Z 1006da99 f   Resolver.obj
 0001:0006cac0       __unwindfunclet$??0Log@InGameLogger@MISC@FEATURES@@QAE@V?$basic_string@DU?$char_traits@D@std@@V?$allocator@D@2@@std@@VCColor@@@Z$0 1006dac0 f   Resolver.obj
 0001:0006cac8       __unwindfunclet$??0Log@InGameLogger@MISC@FEATURES@@QAE@V?$basic_string@DU?$char_traits@D@std@@V?$allocator@D@2@@std@@VCColor@@@Z$1 1006dac8 f   Resolver.obj
 0001:0006cad0       __unwindfunclet$??0Log@InGameLogger@MISC@FEATURES@@QAE@V?$basic_string@DU?$char_traits@D@std@@V?$allocator@D@2@@std@@VCColor@@@Z$4 1006dad0 f   Resolver.obj
 0001:0006cad8       __unwindfunclet$??0Log@InGameLogger@MISC@FEATURES@@QAE@V?$basic_string@DU?$char_traits@D@std@@V?$allocator@D@2@@std@@VCColor@@@Z$5 1006dad8 f   Resolver.obj
 0001:0006cae0       __unwindfunclet$??0Log@InGameLogger@MISC@FEATURES@@QAE@V?$basic_string@DU?$char_traits@D@std@@V?$allocator@D@2@@std@@VCColor@@@Z$6 1006dae0 f   Resolver.obj
 0001:0006cae8       __ehhandler$??0Log@InGameLogger@MISC@FEATURES@@QAE@V?$basic_string@DU?$char_traits@D@std@@V?$allocator@D@2@@std@@VCColor@@@Z 1006dae8 f   Resolver.obj
 0001:0006cb10       __unwindfunclet$?EventCallback@Resolver@RAGEBOT@FEATURES@@QAEXPAVIGameEvent@SDK@@@Z$2 1006db10 f   Resolver.obj
 0001:0006cb18       __unwindfunclet$?EventCallback@Resolver@RAGEBOT@FEATURES@@QAEXPAVIGameEvent@SDK@@@Z$0 1006db18 f   Resolver.obj
 0001:0006cb20       __unwindfunclet$?EventCallback@Resolver@RAGEBOT@FEATURES@@QAEXPAVIGameEvent@SDK@@@Z$1 1006db20 f   Resolver.obj
 0001:0006cb28       __ehhandler$?EventCallback@Resolver@RAGEBOT@FEATURES@@QAEXPAVIGameEvent@SDK@@@Z 1006db28 f   Resolver.obj
 0001:0006cb50       __unwindfunclet$?ProcessSnapShots@Resolver@RAGEBOT@FEATURES@@AAEXXZ$0 1006db50 f   Resolver.obj
 0001:0006cb58       __unwindfunclet$?ProcessSnapShots@Resolver@RAGEBOT@FEATURES@@AAEXXZ$3 1006db58 f   Resolver.obj
 0001:0006cb60       __ehhandler$?ProcessSnapShots@Resolver@RAGEBOT@FEATURES@@AAEXXZ 1006db60 f   Resolver.obj
 0001:0006cb90       __unwindfunclet$?ResolveYaw@Resolver@RAGEBOT@FEATURES@@AAEXPAVCBaseEntity@SDK@@@Z$0 1006db90 f   Resolver.obj
 0001:0006cb98       __ehhandler$?ResolveYaw@Resolver@RAGEBOT@FEATURES@@AAEXPAVCBaseEntity@SDK@@@Z 1006db98 f   Resolver.obj
 0001:0006cbc0       __unwindfunclet$?TranslateResolveRecord@Resolver@RAGEBOT@FEATURES@@QAE?AV?$basic_string@DU?$char_traits@D@std@@V?$allocator@D@2@@std@@G@Z$0 1006dbc0 f   Resolver.obj
 0001:0006cbc8       __unwindfunclet$?TranslateResolveRecord@Resolver@RAGEBOT@FEATURES@@QAE?AV?$basic_string@DU?$char_traits@D@std@@V?$allocator@D@2@@std@@G@Z$1 1006dbc8 f   Resolver.obj
 0001:0006cbd0       __unwindfunclet$?TranslateResolveRecord@Resolver@RAGEBOT@FEATURES@@QAE?AV?$basic_string@DU?$char_traits@D@std@@V?$allocator@D@2@@std@@G@Z$2 1006dbd0 f   Resolver.obj
 0001:0006cbd8       __unwindfunclet$?TranslateResolveRecord@Resolver@RAGEBOT@FEATURES@@QAE?AV?$basic_string@DU?$char_traits@D@std@@V?$allocator@D@2@@std@@G@Z$3 1006dbd8 f   Resolver.obj
 0001:0006cbe0       __unwindfunclet$?TranslateResolveRecord@Resolver@RAGEBOT@FEATURES@@QAE?AV?$basic_string@DU?$char_traits@D@std@@V?$allocator@D@2@@std@@G@Z$4 1006dbe0 f   Resolver.obj
 0001:0006cbe8       __unwindfunclet$?TranslateResolveRecord@Resolver@RAGEBOT@FEATURES@@QAE?AV?$basic_string@DU?$char_traits@D@std@@V?$allocator@D@2@@std@@G@Z$5 1006dbe8 f   Resolver.obj
 0001:0006cbf0       __unwindfunclet$?TranslateResolveRecord@Resolver@RAGEBOT@FEATURES@@QAE?AV?$basic_string@DU?$char_traits@D@std@@V?$allocator@D@2@@std@@G@Z$6 1006dbf0 f   Resolver.obj
 0001:0006cbf8       __unwindfunclet$?TranslateResolveRecord@Resolver@RAGEBOT@FEATURES@@QAE?AV?$basic_string@DU?$char_traits@D@std@@V?$allocator@D@2@@std@@G@Z$7 1006dbf8 f   Resolver.obj
 0001:0006cc00       __unwindfunclet$?TranslateResolveRecord@Resolver@RAGEBOT@FEATURES@@QAE?AV?$basic_string@DU?$char_traits@D@std@@V?$allocator@D@2@@std@@G@Z$8 1006dc00 f   Resolver.obj
 0001:0006cc08       __unwindfunclet$?TranslateResolveRecord@Resolver@RAGEBOT@FEATURES@@QAE?AV?$basic_string@DU?$char_traits@D@std@@V?$allocator@D@2@@std@@G@Z$9 1006dc08 f   Resolver.obj
 0001:0006cc10       __unwindfunclet$?TranslateResolveRecord@Resolver@RAGEBOT@FEATURES@@QAE?AV?$basic_string@DU?$char_traits@D@std@@V?$allocator@D@2@@std@@G@Z$10 1006dc10 f   Resolver.obj
 0001:0006cc18       __unwindfunclet$?TranslateResolveRecord@Resolver@RAGEBOT@FEATURES@@QAE?AV?$basic_string@DU?$char_traits@D@std@@V?$allocator@D@2@@std@@G@Z$12 1006dc18 f   Resolver.obj
 0001:0006cc20       __unwindfunclet$?TranslateResolveRecord@Resolver@RAGEBOT@FEATURES@@QAE?AV?$basic_string@DU?$char_traits@D@std@@V?$allocator@D@2@@std@@G@Z$13 1006dc20 f   Resolver.obj
 0001:0006cc39       __ehhandler$?TranslateResolveRecord@Resolver@RAGEBOT@FEATURES@@QAE?AV?$basic_string@DU?$char_traits@D@std@@V?$allocator@D@2@@std@@G@Z 1006dc39 f   Resolver.obj
 0001:0006cc60       __unwindfunclet$?UpdateResolveRecord@Resolver@RAGEBOT@FEATURES@@AAEXPAVCBaseEntity@SDK@@@Z$0 1006dc60 f   Resolver.obj
 0001:0006cc6c       __ehhandler$?UpdateResolveRecord@Resolver@RAGEBOT@FEATURES@@AAEXPAVCBaseEntity@SDK@@@Z 1006dc6c f   Resolver.obj
 0001:0006cca0       __unwindfunclet$?CreateConfig@Configuration@SETTINGS@@SA_NPBD0@Z$0 1006dca0 f   Configurations.obj
 0001:0006ccab       __ehhandler$?CreateConfig@Configuration@SETTINGS@@SA_NPBD0@Z 1006dcab f   Configurations.obj
 0001:0006cce0       __unwindfunclet$?Load@Configuration@SETTINGS@@QAE_NPBDI@Z$0 1006dce0 f   Configurations.obj
 0001:0006cceb       __unwindfunclet$?Load@Configuration@SETTINGS@@QAE_NPBDI@Z$1 1006dceb f   Configurations.obj
 0001:0006ccf6       __ehhandler$?Load@Configuration@SETTINGS@@QAE_NPBDI@Z 1006dcf6 f   Configurations.obj
 0001:0006cd20       __unwindfunclet$?Save@Configuration@SETTINGS@@QAE_NPBDI@Z$0 1006dd20 f   Configurations.obj
 0001:0006cd2b       __ehhandler$?Save@Configuration@SETTINGS@@QAE_NPBDI@Z 1006dd2b f   Configurations.obj
 0001:0006cd60       __unwindfunclet$?Do@SkinChanger@MISC@FEATURES@@QAEXXZ$2 1006dd60 f   SkinChanger.obj
 0001:0006cd6b       __ehhandler$?Do@SkinChanger@MISC@FEATURES@@QAEXXZ 1006dd6b f   SkinChanger.obj
 0001:0006cda0       __unwindfunclet$?Do@VisualizeBacktrack@VISUALS@FEATURES@@QAEXXZ$0 1006dda0 f   VisualizeBacktrack.obj
 0001:0006cda8       __ehhandler$?Do@VisualizeBacktrack@VISUALS@FEATURES@@QAEXXZ 1006dda8 f   VisualizeBacktrack.obj
 0001:0006cdd0       __unwindfunclet$?DrawGrenadePrediction@VisualsMisc@VISUALS@FEATURES@@AAEXXZ$0 1006ddd0 f   VisualsMisc.obj
 0001:0006cddc       __unwindfunclet$?DrawGrenadePrediction@VisualsMisc@VISUALS@FEATURES@@AAEXXZ$1 1006dddc f   VisualsMisc.obj
 0001:0006cde8       __unwindfunclet$?DrawGrenadePrediction@VisualsMisc@VISUALS@FEATURES@@AAEXXZ$2 1006dde8 f   VisualsMisc.obj
 0001:0006cdf4       __ehhandler$?DrawGrenadePrediction@VisualsMisc@VISUALS@FEATURES@@AAEXXZ 1006ddf4 f   VisualsMisc.obj
 0001:0006ce20       __unwindfunclet$?DoFSN@WorldTextures@VISUALS@FEATURES@@QAEXXZ$0 1006de20 f   World Textures.obj
 0001:0006ce2c       __ehhandler$?DoFSN@WorldTextures@VISUALS@FEATURES@@QAEXXZ 1006de2c f   World Textures.obj
 0001:0006ce50       __unwindfunclet$?ForceFullUpdate@IEngine@SDK@@SAXXZ$0 1006de50 f   Menu.obj
 0001:0006ce5c       __unwindfunclet$?ForceFullUpdate@IEngine@SDK@@SAXXZ$1 1006de5c f   Menu.obj
 0001:0006ce68       __unwindfunclet$?ForceFullUpdate@IEngine@SDK@@SAXXZ$2 1006de68 f   Menu.obj
 0001:0006ce70       __unwindfunclet$?ForceFullUpdate@IEngine@SDK@@SAXXZ$3 1006de70 f   Menu.obj
 0001:0006ce78       __ehhandler$?ForceFullUpdate@IEngine@SDK@@SAXXZ 1006de78 f   Menu.obj
 0001:0006cea0       __ehhandler$??$_Emplace_reallocate@ABVPPGUI_Command_Frame@PPGUI@@@?$vector@VPPGUI_Command_Frame@PPGUI@@V?$allocator@VPPGUI_Command_Frame@PPGUI@@@std@@@std@@QAEPAVPPGUI_Command_Frame@PPGUI@@QAV23@ABV23@@Z 1006dea0 f   PPGUI.obj
 0001:0006cec0       __ehhandler$??$_Insert@AAU?$pair@$$CBITPPGUI_Command_Data@PPGUI_Command_Data_Base@PPGUI@@@std@@V?$_List_unchecked_iterator@V?$_List_val@U?$_List_simple_types@U?$pair@$$CBITPPGUI_Command_Data@PPGUI_Command_Data_Base@PPGUI@@@std@@@std@@@std@@@2@@?$_Hash@V?$_Umap_traits@ITPPGUI_Command_Data@PPGUI_Command_Data_Base@PPGUI@@V?$_Uhash_compare@IU?$hash@I@std@@U?$equal_to@I@2@@std@@V?$allocator@U?$pair@$$CBITPPGUI_Command_Data@PPGUI_Command_Data_Base@PPGUI@@@std@@@5@$0A@@std@@@std@@IAE?AU?$pair@V?$_List_iterator@V?$_List_val@U?$_List_simple_types@U?$pair@$$CBITPPGUI_Command_Data@PPGUI_Command_Data_Base@PPGUI@@@std@@@std@@@std@@@std@@_N@1@AAU?$pair@$$CBITPPGUI_Command_Data@PPGUI_Command_Data_Base@PPGUI@@@1@V?$_List_unchecked_iterator@V?$_List_val@U?$_List_simple_types@U?$pair@$$CBITPPGUI_Command_Data@PPGUI_Command_Data_Base@PPGUI@@@std@@@std@@@std@@@1@@Z 1006dec0 f   PPGUI.obj
 0001:0006cee0       __unwindfunclet$??0PPGUI_Command_Frame@PPGUI@@QAE@PAVPPGUI_Command@1@H@Z$0 1006dee0 f   PPGUI.obj
 0001:0006ceeb       __ehhandler$??0PPGUI_Command_Frame@PPGUI@@QAE@PAVPPGUI_Command@1@H@Z 1006deeb f   PPGUI.obj
 0001:0006cf10       __unwindfunclet$?EndFrame@PPGUI_Framework@PPGUI@@QAEXXZ$0 1006df10 f   PPGUI.obj
 0001:0006cf18       __ehhandler$?EndFrame@PPGUI_Framework@PPGUI@@QAEXXZ 1006df18 f   PPGUI.obj
 0001:0006cf40       __unwindfunclet$?PPGUI_BeginGroupbox@PPGUI@@YAXPBDHH_N@Z$0 1006df40 f   PPGUI.obj
 0001:0006cf52       __unwindfunclet$?PPGUI_BeginGroupbox@PPGUI@@YAXPBDHH_N@Z$1 1006df52 f   PPGUI.obj
 0001:0006cf5a       __ehhandler$?PPGUI_BeginGroupbox@PPGUI@@YAXPBDHH_N@Z 1006df5a f   PPGUI.obj
 0001:0006cf80       __unwindfunclet$?PPGUI_BeginWindow@PPGUI@@YAXPBDVPPGUI_Vector2D@HELPERS@1@1H@Z$0 1006df80 f   PPGUI.obj
 0001:0006cf92       __unwindfunclet$?PPGUI_BeginWindow@PPGUI@@YAXPBDVPPGUI_Vector2D@HELPERS@1@1H@Z$1 1006df92 f   PPGUI.obj
 0001:0006cf9a       __ehhandler$?PPGUI_BeginWindow@PPGUI@@YAXPBDVPPGUI_Vector2D@HELPERS@1@1H@Z 1006df9a f   PPGUI.obj
 0001:0006cfc0       __unwindfunclet$?PPGUI_Button@PPGUI@@YA_NPBD_N@Z$0 1006dfc0 f   PPGUI.obj
 0001:0006cfd2       __ehhandler$?PPGUI_Button@PPGUI@@YA_NPBD_N@Z 1006dfd2 f   PPGUI.obj
 0001:0006cff0       __unwindfunclet$?PPGUI_Checkbox@PPGUI@@YA_NPBDAA_N_N@Z$0 1006dff0 f   PPGUI.obj
 0001:0006cff0       __unwindfunclet$?PPGUI_TextInput@PPGUI@@YAPBDPBDPAD_N@Z$0 1006dff0 f   PPGUI.obj
 0001:0006d002       __ehhandler$?PPGUI_TextInput@PPGUI@@YAPBDPBDPAD_N@Z 1006e002 f   PPGUI.obj
 0001:0006d002       __ehhandler$?PPGUI_Checkbox@PPGUI@@YA_NPBDAA_N_N@Z 1006e002 f   PPGUI.obj
 0001:0006d020       __unwindfunclet$?PPGUI_ColorPicker@PPGUI@@YAXPBDAAE111_N@Z$0 1006e020 f   PPGUI.obj
 0001:0006d032       __ehhandler$?PPGUI_ColorPicker@PPGUI@@YAXPBDAAE111_N@Z 1006e032 f   PPGUI.obj
 0001:0006d050       __unwindfunclet$?PPGUI_Combobox@PPGUI@@YAHPBDHPAY0BAA@DAAH_N@Z$0 1006e050 f   PPGUI.obj
 0001:0006d062       __ehhandler$?PPGUI_Combobox@PPGUI@@YAHPBDHPAY0BAA@DAAH_N@Z 1006e062 f   PPGUI.obj
 0001:0006d080       __unwindfunclet$?PPGUI_EndWindow@PPGUI@@YAXXZ$0 1006e080 f   PPGUI.obj
 0001:0006d088       __ehhandler$?PPGUI_EndWindow@PPGUI@@YAXXZ 1006e088 f   PPGUI.obj
 0001:0006d0b0       __unwindfunclet$?PPGUI_Keybind@PPGUI@@YAHPBDAAH_N@Z$0 1006e0b0 f   PPGUI.obj
 0001:0006d0c2       __ehhandler$?PPGUI_Keybind@PPGUI@@YAHPBDAAH_N@Z 1006e0c2 f   PPGUI.obj
 0001:0006d0e0       __unwindfunclet$?PPGUI_MultiselectCombobox@PPGUI@@YAXPBDHPAY0BAA@DPA_N_N@Z$0 1006e0e0 f   PPGUI.obj
 0001:0006d0f2       __ehhandler$?PPGUI_MultiselectCombobox@PPGUI@@YAXPBDHPAY0BAA@DPA_N_N@Z 1006e0f2 f   PPGUI.obj
 0001:0006d110       __unwindfunclet$?PPGUI_Separator@PPGUI@@YAXPBD_N@Z$0 1006e110 f   PPGUI.obj
 0001:0006d122       __ehhandler$?PPGUI_Separator@PPGUI@@YAXPBD_N@Z 1006e122 f   PPGUI.obj
 0001:0006d140       __unwindfunclet$?PPGUI_Slider@PPGUI@@YAMPBD0MMAAMH_N@Z$0 1006e140 f   PPGUI.obj
 0001:0006d152       __ehhandler$?PPGUI_Slider@PPGUI@@YAMPBD0MMAAMH_N@Z 1006e152 f   PPGUI.obj
 0001:0006d170       __unwindfunclet$?PPGUI_Tab@PPGUI@@YAHHPAY0BAA@DAAH_N@Z$0 1006e170 f   PPGUI.obj
 0001:0006d182       __ehhandler$?PPGUI_Tab@PPGUI@@YAHHPAY0BAA@DAAH_N@Z 1006e182 f   PPGUI.obj
 0001:0006d1a0       __unwindfunclet$?PPGUI_ToolTip@PPGUI@@YAXPBDHVPPGUI_Vector2D@HELPERS@1@@Z$0 1006e1a0 f   PPGUI.obj
 0001:0006d1b2       __ehhandler$?PPGUI_ToolTip@PPGUI@@YAXPBDHVPPGUI_Vector2D@HELPERS@1@@Z 1006e1b2 f   PPGUI.obj
 0001:0006d1d0       __unwindfunclet$??$use_facet@V?$numpunct@D@std@@@std@@YAABV?$numpunct@D@0@ABVlocale@0@@Z$0 1006e1d0 f   PPGUI_Commands.obj
 0001:0006d1d8       __unwindfunclet$??$use_facet@V?$numpunct@D@std@@@std@@YAABV?$numpunct@D@0@ABVlocale@0@@Z$3 1006e1d8 f   PPGUI_Commands.obj
 0001:0006d1e7       __unwindfunclet$??$use_facet@V?$numpunct@D@std@@@std@@YAABV?$numpunct@D@0@ABVlocale@0@@Z$4 1006e1e7 f   PPGUI_Commands.obj
 0001:0006d200       __unwindfunclet$??$use_facet@V?$numpunct@D@std@@@std@@YAABV?$numpunct@D@0@ABVlocale@0@@Z$5 1006e200 f   PPGUI_Commands.obj
 0001:0006d208       __unwindfunclet$??$use_facet@V?$numpunct@D@std@@@std@@YAABV?$numpunct@D@0@ABVlocale@0@@Z$1 1006e208 f   PPGUI_Commands.obj
 0001:0006d210       __ehhandler$??$use_facet@V?$numpunct@D@std@@@std@@YAABV?$numpunct@D@0@ABVlocale@0@@Z 1006e210 f   PPGUI_Commands.obj
 0001:0006d230       __unwindfunclet$??0?$basic_iostream@DU?$char_traits@D@std@@@std@@QAE@PAV?$basic_streambuf@DU?$char_traits@D@std@@@1@@Z$0 1006e230 f   PPGUI_Commands.obj
 0001:0006d24c       __unwindfunclet$??0?$basic_iostream@DU?$char_traits@D@std@@@std@@QAE@PAV?$basic_streambuf@DU?$char_traits@D@std@@@1@@Z$5 1006e24c f   PPGUI_Commands.obj
 0001:0006d254       __unwindfunclet$??0?$basic_iostream@DU?$char_traits@D@std@@@std@@QAE@PAV?$basic_streambuf@DU?$char_traits@D@std@@@1@@Z$1 1006e254 f   PPGUI_Commands.obj
 0001:0006d25f       __ehhandler$??0?$basic_iostream@DU?$char_traits@D@std@@@std@@QAE@PAV?$basic_streambuf@DU?$char_traits@D@std@@@1@@Z 1006e25f f   PPGUI_Commands.obj
 0001:0006d280       __unwindfunclet$??0PPGUI_Separator_Command@PPGUI@@QAE@PBDVPPGUI_Vector2D@HELPERS@1@1_N@Z$0 1006e280 f   PPGUI_Commands.obj
 0001:0006d280       __unwindfunclet$??0PPGUI_Button_Command@PPGUI@@QAE@PBDVPPGUI_Vector2D@HELPERS@1@1_N@Z$0 1006e280 f   PPGUI_Commands.obj
 0001:0006d280       __unwindfunclet$??0PPGUI_Color_Picker_Command@PPGUI@@QAE@PBDVPPGUI_Vector2D@HELPERS@1@1AAE222_N@Z$0 1006e280 f   PPGUI_Commands.obj
 0001:0006d280       __unwindfunclet$??0PPGUI_Keybind_Command@PPGUI@@QAE@PBDAAHVPPGUI_Vector2D@HELPERS@1@2_N@Z$0 1006e280 f   PPGUI_Commands.obj
 0001:0006d280       __unwindfunclet$??0PPGUI_Text_Input_Command@PPGUI@@QAE@PBDVPPGUI_Vector2D@HELPERS@1@1PAD_N@Z$0 1006e280 f   PPGUI_Commands.obj
 0001:0006d280       __unwindfunclet$??0PPGUI_Checkbox_Command@PPGUI@@QAE@PBDAA_NVPPGUI_Vector2D@HELPERS@1@2_N@Z$0 1006e280 f   PPGUI_Commands.obj
 0001:0006d280       __unwindfunclet$??0PPGUI_Multiselect_Combobox_Command@PPGUI@@QAE@PBDVPPGUI_Vector2D@HELPERS@1@1PAY0BAA@DPA_NH_N@Z$0 1006e280 f   PPGUI_Commands.obj
 0001:0006d280       __unwindfunclet$??0PPGUI_Groupbox_Command@PPGUI@@QAE@PBDVPPGUI_Vector2D@HELPERS@1@1_N@Z$0 1006e280 f   PPGUI_Commands.obj
 0001:0006d288       __ehhandler$??0PPGUI_Groupbox_Command@PPGUI@@QAE@PBDVPPGUI_Vector2D@HELPERS@1@1_N@Z 1006e288 f   PPGUI_Commands.obj
 0001:0006d288       __ehhandler$??0PPGUI_Checkbox_Command@PPGUI@@QAE@PBDAA_NVPPGUI_Vector2D@HELPERS@1@2_N@Z 1006e288 f   PPGUI_Commands.obj
 0001:0006d288       __ehhandler$??0PPGUI_Separator_Command@PPGUI@@QAE@PBDVPPGUI_Vector2D@HELPERS@1@1_N@Z 1006e288 f   PPGUI_Commands.obj
 0001:0006d288       __ehhandler$??0PPGUI_Keybind_Command@PPGUI@@QAE@PBDAAHVPPGUI_Vector2D@HELPERS@1@2_N@Z 1006e288 f   PPGUI_Commands.obj
 0001:0006d288       __ehhandler$??0PPGUI_Text_Input_Command@PPGUI@@QAE@PBDVPPGUI_Vector2D@HELPERS@1@1PAD_N@Z 1006e288 f   PPGUI_Commands.obj
 0001:0006d288       __ehhandler$??0PPGUI_Multiselect_Combobox_Command@PPGUI@@QAE@PBDVPPGUI_Vector2D@HELPERS@1@1PAY0BAA@DPA_NH_N@Z 1006e288 f   PPGUI_Commands.obj
 0001:0006d288       __ehhandler$??0PPGUI_Button_Command@PPGUI@@QAE@PBDVPPGUI_Vector2D@HELPERS@1@1_N@Z 1006e288 f   PPGUI_Commands.obj
 0001:0006d288       __ehhandler$??0PPGUI_Color_Picker_Command@PPGUI@@QAE@PBDVPPGUI_Vector2D@HELPERS@1@1AAE222_N@Z 1006e288 f   PPGUI_Commands.obj
 0001:0006d2b0       __unwindfunclet$??0PPGUI_Combobox_Command@PPGUI@@QAE@PBDVPPGUI_Vector2D@HELPERS@1@1PAY0BAA@DHAAH_N@Z$0 1006e2b0 f   PPGUI_Commands.obj
 0001:0006d2b0       __unwindfunclet$??0PPGUI_Tab_Command@PPGUI@@QAE@VPPGUI_Vector2D@HELPERS@1@0AAHPAY0BAA@DH_N@Z$0 1006e2b0 f   PPGUI_Commands.obj
 0001:0006d2b0       __unwindfunclet$??0PPGUI_Window_Command@PPGUI@@QAE@PBDVPPGUI_Vector2D@HELPERS@1@1@Z$0 1006e2b0 f   PPGUI_Commands.obj
 0001:0006d2b8       __ehhandler$??0PPGUI_Window_Command@PPGUI@@QAE@PBDVPPGUI_Vector2D@HELPERS@1@1@Z 1006e2b8 f   PPGUI_Commands.obj
 0001:0006d2b8       __ehhandler$??0PPGUI_Tab_Command@PPGUI@@QAE@VPPGUI_Vector2D@HELPERS@1@0AAHPAY0BAA@DH_N@Z 1006e2b8 f   PPGUI_Commands.obj
 0001:0006d2b8       __ehhandler$??0PPGUI_Combobox_Command@PPGUI@@QAE@PBDVPPGUI_Vector2D@HELPERS@1@1PAY0BAA@DHAAH_N@Z 1006e2b8 f   PPGUI_Commands.obj
 0001:0006d2e0       __unwindfunclet$??0PPGUI_Slider_Command@PPGUI@@QAE@PBD0MMAAMH_NVPPGUI_Vector2D@HELPERS@1@3@Z$0 1006e2e0 f   PPGUI_Commands.obj
 0001:0006d2e8       __ehhandler$??0PPGUI_Slider_Command@PPGUI@@QAE@PBD0MMAAMH_NVPPGUI_Vector2D@HELPERS@1@3@Z 1006e2e8 f   PPGUI_Commands.obj
 0001:0006d310       __unwindfunclet$??0PPGUI_Tool_Tip_Command@PPGUI@@QAE@PBDHVPPGUI_Vector2D@HELPERS@1@PAVPPGUI_Command@1@@Z$0 1006e310 f   PPGUI_Commands.obj
 0001:0006d318       __ehhandler$??0PPGUI_Tool_Tip_Command@PPGUI@@QAE@PBDHVPPGUI_Vector2D@HELPERS@1@PAVPPGUI_Command@1@@Z 1006e318 f   PPGUI_Commands.obj
 0001:0006d340       __unwindfunclet$??6?$basic_ostream@DU?$char_traits@D@std@@@std@@QAEAAV01@M@Z$2 1006e340 f   PPGUI_Commands.obj
 0001:0006d348       __unwindfunclet$??6?$basic_ostream@DU?$char_traits@D@std@@@std@@QAEAAV01@M@Z$3 1006e348 f   PPGUI_Commands.obj
 0001:0006d350       __unwindfunclet$??6?$basic_ostream@DU?$char_traits@D@std@@@std@@QAEAAV01@M@Z$6 1006e350 f   PPGUI_Commands.obj
 0001:0006d358       __unwindfunclet$??6?$basic_ostream@DU?$char_traits@D@std@@@std@@QAEAAV01@M@Z$9 1006e358 f   PPGUI_Commands.obj
 0001:0006d367       __unwindfunclet$??6?$basic_ostream@DU?$char_traits@D@std@@@std@@QAEAAV01@M@Z$7 1006e367 f   PPGUI_Commands.obj
 0001:0006d36f       __ehhandler$??6?$basic_ostream@DU?$char_traits@D@std@@@std@@QAEAAV01@M@Z 1006e36f f   PPGUI_Commands.obj
 0001:0006d390       __unwindfunclet$??R<lambda_07e8e09b926849ee5c09d399f814ef9d>@@QBE?AV?$basic_string@DU?$char_traits@D@std@@V?$allocator@D@2@@std@@MH@Z$2 1006e390 f   PPGUI_Commands.obj
 0001:0006d3a9       __unwindfunclet$??R<lambda_07e8e09b926849ee5c09d399f814ef9d>@@QBE?AV?$basic_string@DU?$char_traits@D@std@@V?$allocator@D@2@@std@@MH@Z$3 1006e3a9 f   PPGUI_Commands.obj
 0001:0006d3b4       __unwindfunclet$??R<lambda_07e8e09b926849ee5c09d399f814ef9d>@@QBE?AV?$basic_string@DU?$char_traits@D@std@@V?$allocator@D@2@@std@@MH@Z$0 1006e3b4 f   PPGUI_Commands.obj
 0001:0006d3bf       __unwindfunclet$??R<lambda_07e8e09b926849ee5c09d399f814ef9d>@@QBE?AV?$basic_string@DU?$char_traits@D@std@@V?$allocator@D@2@@std@@MH@Z$8 1006e3bf f   PPGUI_Commands.obj
 0001:0006d3db       __ehhandler$??R<lambda_07e8e09b926849ee5c09d399f814ef9d>@@QBE?AV?$basic_string@DU?$char_traits@D@std@@V?$allocator@D@2@@std@@MH@Z 1006e3db f   PPGUI_Commands.obj
 0001:0006d400       __unwindfunclet$?Draw@PPGUI_Window_Command@PPGUI@@UAEXXZ$1 1006e400 f   PPGUI_Commands.obj
 0001:0006d40c       __ehhandler$?Draw@PPGUI_Window_Command@PPGUI@@UAEXXZ 1006e40c f   PPGUI_Commands.obj
 0001:0006d440       __unwindfunclet$?_Fput@?$num_put@DV?$ostreambuf_iterator@DU?$char_traits@D@std@@@std@@@std@@ABA?AV?$ostreambuf_iterator@DU?$char_traits@D@std@@@2@V32@AAVios_base@2@DPBDI@Z$0 1006e440 f   PPGUI_Commands.obj
 0001:0006d448       __unwindfunclet$?_Fput@?$num_put@DV?$ostreambuf_iterator@DU?$char_traits@D@std@@@std@@@std@@ABA?AV?$ostreambuf_iterator@DU?$char_traits@D@std@@@2@V32@AAVios_base@2@DPBDI@Z$1 1006e448 f   PPGUI_Commands.obj
 0001:0006d450       __unwindfunclet$?_Fput@?$num_put@DV?$ostreambuf_iterator@DU?$char_traits@D@std@@@std@@@std@@ABA?AV?$ostreambuf_iterator@DU?$char_traits@D@std@@@2@V32@AAVios_base@2@DPBDI@Z$2 1006e450 f   PPGUI_Commands.obj
 0001:0006d458       __unwindfunclet$?_Fput@?$num_put@DV?$ostreambuf_iterator@DU?$char_traits@D@std@@@std@@@std@@ABA?AV?$ostreambuf_iterator@DU?$char_traits@D@std@@@2@V32@AAVios_base@2@DPBDI@Z$3 1006e458 f   PPGUI_Commands.obj
 0001:0006d460       __ehhandler$?_Fput@?$num_put@DV?$ostreambuf_iterator@DU?$char_traits@D@std@@@std@@@std@@ABA?AV?$ostreambuf_iterator@DU?$char_traits@D@std@@@2@V32@AAVios_base@2@DPBDI@Z 1006e460 f   PPGUI_Commands.obj
 0001:0006d490       __ehhandler$?_Init@?$numpunct@D@std@@IAEXABV_Locinfo@2@_N@Z 1006e490 f   PPGUI_Commands.obj
 0001:0006d4b0       __unwindfunclet$?_Iput@?$num_put@DV?$ostreambuf_iterator@DU?$char_traits@D@std@@@std@@@std@@ABA?AV?$ostreambuf_iterator@DU?$char_traits@D@std@@@2@V32@AAVios_base@2@DPADI@Z$0 1006e4b0 f   PPGUI_Commands.obj
 0001:0006d4b8       __unwindfunclet$?_Iput@?$num_put@DV?$ostreambuf_iterator@DU?$char_traits@D@std@@@std@@@std@@ABA?AV?$ostreambuf_iterator@DU?$char_traits@D@std@@@2@V32@AAVios_base@2@DPADI@Z$1 1006e4b8 f   PPGUI_Commands.obj
 0001:0006d4c0       __unwindfunclet$?_Iput@?$num_put@DV?$ostreambuf_iterator@DU?$char_traits@D@std@@@std@@@std@@ABA?AV?$ostreambuf_iterator@DU?$char_traits@D@std@@@2@V32@AAVios_base@2@DPADI@Z$2 1006e4c0 f   PPGUI_Commands.obj
 0001:0006d4c8       __unwindfunclet$?_Iput@?$num_put@DV?$ostreambuf_iterator@DU?$char_traits@D@std@@@std@@@std@@ABA?AV?$ostreambuf_iterator@DU?$char_traits@D@std@@@2@V32@AAVios_base@2@DPADI@Z$3 1006e4c8 f   PPGUI_Commands.obj
 0001:0006d4d0       __ehhandler$?_Iput@?$num_put@DV?$ostreambuf_iterator@DU?$char_traits@D@std@@@std@@@std@@ABA?AV?$ostreambuf_iterator@DU?$char_traits@D@std@@@2@V32@AAVios_base@2@DPADI@Z 1006e4d0 f   PPGUI_Commands.obj
 0001:0006d500       __unwindfunclet$?do_put@?$num_put@DV?$ostreambuf_iterator@DU?$char_traits@D@std@@@std@@@std@@MBE?AV?$ostreambuf_iterator@DU?$char_traits@D@std@@@2@V32@AAVios_base@2@DO@Z$0 1006e500 f   PPGUI_Commands.obj
 0001:0006d500       __unwindfunclet$?do_put@?$num_put@DV?$ostreambuf_iterator@DU?$char_traits@D@std@@@std@@@std@@MBE?AV?$ostreambuf_iterator@DU?$char_traits@D@std@@@2@V32@AAVios_base@2@DN@Z$0 1006e500 f   PPGUI_Commands.obj
 0001:0006d508       __ehhandler$?do_put@?$num_put@DV?$ostreambuf_iterator@DU?$char_traits@D@std@@@std@@@std@@MBE?AV?$ostreambuf_iterator@DU?$char_traits@D@std@@@2@V32@AAVios_base@2@DN@Z 1006e508 f   PPGUI_Commands.obj
 0001:0006d508       __ehhandler$?do_put@?$num_put@DV?$ostreambuf_iterator@DU?$char_traits@D@std@@@std@@@std@@MBE?AV?$ostreambuf_iterator@DU?$char_traits@D@std@@@2@V32@AAVios_base@2@DO@Z 1006e508 f   PPGUI_Commands.obj
 0001:0006d530       __unwindfunclet$?do_put@?$num_put@DV?$ostreambuf_iterator@DU?$char_traits@D@std@@@std@@@std@@MBE?AV?$ostreambuf_iterator@DU?$char_traits@D@std@@@2@V32@AAVios_base@2@D_N@Z$0 1006e530 f   PPGUI_Commands.obj
 0001:0006d538       __unwindfunclet$?do_put@?$num_put@DV?$ostreambuf_iterator@DU?$char_traits@D@std@@@std@@@std@@MBE?AV?$ostreambuf_iterator@DU?$char_traits@D@std@@@2@V32@AAVios_base@2@D_N@Z$1 1006e538 f   PPGUI_Commands.obj
 0001:0006d540       __ehhandler$?do_put@?$num_put@DV?$ostreambuf_iterator@DU?$char_traits@D@std@@@std@@@std@@MBE?AV?$ostreambuf_iterator@DU?$char_traits@D@std@@@2@V32@AAVios_base@2@D_N@Z 1006e540 f   PPGUI_Commands.obj
 0001:0006d570       __unwindfunclet$??__Eppgui_command_data_base@PPGUI@@YAXXZ$2 1006e570 f   PPGUI_Defines.obj
 0001:0006d57b       __unwindfunclet$??__Eppgui_command_data_base@PPGUI@@YAXXZ$3 1006e57b f   PPGUI_Defines.obj
 0001:0006d586       __ehhandler$??__Eppgui_command_data_base@PPGUI@@YAXXZ 1006e586 f   PPGUI_Defines.obj
 0001:0006d5b0       __unwindfunclet$??$_Insert_string@DU?$char_traits@D@std@@I@std@@YAAAV?$basic_ostream@DU?$char_traits@D@std@@@0@AAV10@QBDI@Z$3 1006e5b0 f   Debugger.obj
 0001:0006d5b8       __unwindfunclet$??$_Insert_string@DU?$char_traits@D@std@@I@std@@YAAAV?$basic_ostream@DU?$char_traits@D@std@@@0@AAV10@QBDI@Z$2 1006e5b8 f   Debugger.obj
 0001:0006d5c0       __ehhandler$??$_Insert_string@DU?$char_traits@D@std@@I@std@@YAAAV?$basic_ostream@DU?$char_traits@D@std@@@0@AAV10@QBDI@Z 1006e5c0 f   Debugger.obj
 0001:0006d5e0       __unwindfunclet$?HookedPaintTraverse@HOOKS@@YGXH_N0@Z$0 1006e5e0 f   hooks.obj
 0001:0006d5e8       __ehhandler$?HookedPaintTraverse@HOOKS@@YGXH_N0@Z 1006e5e8 f   hooks.obj
 0001:0006d610       __unwindfunclet$?HookedSceneEnd@HOOKS@@YIXPAX0@Z$0 1006e610 f   hooks.obj
 0001:0006d618       __unwindfunclet$?HookedSceneEnd@HOOKS@@YIXPAX0@Z$1 1006e618 f   hooks.obj
 0001:0006d620       __ehhandler$?HookedSceneEnd@HOOKS@@YIXPAX0@Z 1006e620 f   hooks.obj
 0001:0006d650       __unwindfunclet$?InitHooks@HOOKS@@YAXXZ$0 1006e650 f   hooks.obj
 0001:0006d658       __unwindfunclet$?InitHooks@HOOKS@@YAXXZ$2 1006e658 f   hooks.obj
 0001:0006d660       __unwindfunclet$?InitHooks@HOOKS@@YAXXZ$4 1006e660 f   hooks.obj
 0001:0006d668       __unwindfunclet$?InitHooks@HOOKS@@YAXXZ$6 1006e668 f   hooks.obj
 0001:0006d670       __unwindfunclet$?InitHooks@HOOKS@@YAXXZ$8 1006e670 f   hooks.obj
 0001:0006d678       __unwindfunclet$?InitHooks@HOOKS@@YAXXZ$10 1006e678 f   hooks.obj
 0001:0006d680       __unwindfunclet$?InitHooks@HOOKS@@YAXXZ$12 1006e680 f   hooks.obj
 0001:0006d688       __ehhandler$?InitHooks@HOOKS@@YAXXZ 1006e688 f   hooks.obj
 0001:0006d6b0       __unwindfunclet$?InitNetvarHooks@HOOKS@@YAXXZ$0 1006e6b0 f   hooks.obj
 0001:0006d6b8       __unwindfunclet$?InitNetvarHooks@HOOKS@@YAXXZ$2 1006e6b8 f   hooks.obj
 0001:0006d6c0       __unwindfunclet$?InitNetvarHooks@HOOKS@@YAXXZ$4 1006e6c0 f   hooks.obj
 0001:0006d6c8       __ehhandler$?InitNetvarHooks@HOOKS@@YAXXZ 1006e6c8 f   hooks.obj
 0001:0006d6f0       __unwindfunclet$??6?$basic_ostream@DU?$char_traits@D@std@@@std@@QAEAAV01@PBX@Z$4 1006e6f0 f   interfaces.obj
 0001:0006d6f8       __unwindfunclet$??6?$basic_ostream@DU?$char_traits@D@std@@@std@@QAEAAV01@PBX@Z$2 1006e6f8 f   interfaces.obj
 0001:0006d700       __unwindfunclet$??6?$basic_ostream@DU?$char_traits@D@std@@@std@@QAEAAV01@PBX@Z$3 1006e700 f   interfaces.obj
 0001:0006d708       __unwindfunclet$??6?$basic_ostream@DU?$char_traits@D@std@@@std@@QAEAAV01@PBX@Z$7 1006e708 f   interfaces.obj
 0001:0006d710       __unwindfunclet$??6?$basic_ostream@DU?$char_traits@D@std@@@std@@QAEAAV01@PBX@Z$10 1006e710 f   interfaces.obj
 0001:0006d71f       __unwindfunclet$??6?$basic_ostream@DU?$char_traits@D@std@@@std@@QAEAAV01@PBX@Z$8 1006e71f f   interfaces.obj
 0001:0006d727       __ehhandler$??6?$basic_ostream@DU?$char_traits@D@std@@@std@@QAEAAV01@PBX@Z 1006e727 f   interfaces.obj
 0001:0006d750       __unwindfunclet$?FindInterface@INTERFACES@@YAPAXPBD0@Z$1 1006e750 f   interfaces.obj
 0001:0006d75b       __unwindfunclet$?FindInterface@INTERFACES@@YAPAXPBD0@Z$3 1006e75b f   interfaces.obj
 0001:0006d766       __ehhandler$?FindInterface@INTERFACES@@YAPAXPBD0@Z 1006e766 f   interfaces.obj
 0001:0006d790       __unwindfunclet$?InitInterfaces@INTERFACES@@YAXXZ$0 1006e790 f   interfaces.obj
 0001:0006d798       __unwindfunclet$?InitInterfaces@INTERFACES@@YAXXZ$1 1006e798 f   interfaces.obj
 0001:0006d7a0       __unwindfunclet$?InitInterfaces@INTERFACES@@YAXXZ$2 1006e7a0 f   interfaces.obj
 0001:0006d7a8       __unwindfunclet$?InitInterfaces@INTERFACES@@YAXXZ$3 1006e7a8 f   interfaces.obj
 0001:0006d7b0       __unwindfunclet$?InitInterfaces@INTERFACES@@YAXXZ$4 1006e7b0 f   interfaces.obj
 0001:0006d7b8       __unwindfunclet$?InitInterfaces@INTERFACES@@YAXXZ$5 1006e7b8 f   interfaces.obj
 0001:0006d7c0       __unwindfunclet$?InitInterfaces@INTERFACES@@YAXXZ$6 1006e7c0 f   interfaces.obj
 0001:0006d7c8       __unwindfunclet$?InitInterfaces@INTERFACES@@YAXXZ$7 1006e7c8 f   interfaces.obj
 0001:0006d7d0       __unwindfunclet$?InitInterfaces@INTERFACES@@YAXXZ$8 1006e7d0 f   interfaces.obj
 0001:0006d7d8       __unwindfunclet$?InitInterfaces@INTERFACES@@YAXXZ$9 1006e7d8 f   interfaces.obj
 0001:0006d7e0       __unwindfunclet$?InitInterfaces@INTERFACES@@YAXXZ$10 1006e7e0 f   interfaces.obj
 0001:0006d7e8       __unwindfunclet$?InitInterfaces@INTERFACES@@YAXXZ$11 1006e7e8 f   interfaces.obj
 0001:0006d7f0       __unwindfunclet$?InitInterfaces@INTERFACES@@YAXXZ$12 1006e7f0 f   interfaces.obj
 0001:0006d7f8       __unwindfunclet$?InitInterfaces@INTERFACES@@YAXXZ$13 1006e7f8 f   interfaces.obj
 0001:0006d800       __unwindfunclet$?InitInterfaces@INTERFACES@@YAXXZ$14 1006e800 f   interfaces.obj
 0001:0006d808       __unwindfunclet$?InitInterfaces@INTERFACES@@YAXXZ$15 1006e808 f   interfaces.obj
 0001:0006d810       __unwindfunclet$?InitInterfaces@INTERFACES@@YAXXZ$16 1006e810 f   interfaces.obj
 0001:0006d818       __unwindfunclet$?InitInterfaces@INTERFACES@@YAXXZ$17 1006e818 f   interfaces.obj
 0001:0006d820       __unwindfunclet$?InitInterfaces@INTERFACES@@YAXXZ$18 1006e820 f   interfaces.obj
 0001:0006d828       __unwindfunclet$?InitInterfaces@INTERFACES@@YAXXZ$19 1006e828 f   interfaces.obj
 0001:0006d830       __unwindfunclet$?InitInterfaces@INTERFACES@@YAXXZ$20 1006e830 f   interfaces.obj
 0001:0006d838       __unwindfunclet$?InitInterfaces@INTERFACES@@YAXXZ$21 1006e838 f   interfaces.obj
 0001:0006d840       __unwindfunclet$?InitInterfaces@INTERFACES@@YAXXZ$22 1006e840 f   interfaces.obj
 0001:0006d848       __unwindfunclet$?InitInterfaces@INTERFACES@@YAXXZ$23 1006e848 f   interfaces.obj
 0001:0006d850       __unwindfunclet$?InitInterfaces@INTERFACES@@YAXXZ$24 1006e850 f   interfaces.obj
 0001:0006d858       __unwindfunclet$?InitInterfaces@INTERFACES@@YAXXZ$25 1006e858 f   interfaces.obj
 0001:0006d860       __unwindfunclet$?InitInterfaces@INTERFACES@@YAXXZ$26 1006e860 f   interfaces.obj
 0001:0006d868       __unwindfunclet$?InitInterfaces@INTERFACES@@YAXXZ$27 1006e868 f   interfaces.obj
 0001:0006d870       __unwindfunclet$?InitInterfaces@INTERFACES@@YAXXZ$28 1006e870 f   interfaces.obj
 0001:0006d878       __unwindfunclet$?InitInterfaces@INTERFACES@@YAXXZ$29 1006e878 f   interfaces.obj
 0001:0006d880       __unwindfunclet$?InitInterfaces@INTERFACES@@YAXXZ$30 1006e880 f   interfaces.obj
 0001:0006d888       __unwindfunclet$?InitInterfaces@INTERFACES@@YAXXZ$31 1006e888 f   interfaces.obj
 0001:0006d890       __unwindfunclet$?InitInterfaces@INTERFACES@@YAXXZ$32 1006e890 f   interfaces.obj
 0001:0006d898       __unwindfunclet$?InitInterfaces@INTERFACES@@YAXXZ$33 1006e898 f   interfaces.obj
 0001:0006d8a0       __ehhandler$?InitInterfaces@INTERFACES@@YAXXZ 1006e8a0 f   interfaces.obj
 0001:0006d8d0       __unwindfunclet$??0?$basic_fstream@DU?$char_traits@D@std@@@std@@QAE@XZ$0 1006e8d0 f   logging.obj
 0001:0006d8ec       __unwindfunclet$??0?$basic_fstream@DU?$char_traits@D@std@@@std@@QAE@XZ$4 1006e8ec f   logging.obj
 0001:0006d8f7       __unwindfunclet$??0?$basic_fstream@DU?$char_traits@D@std@@@std@@QAE@XZ$1 1006e8f7 f   logging.obj
 0001:0006d902       __ehhandler$??0?$basic_fstream@DU?$char_traits@D@std@@@std@@QAE@XZ 1006e902 f   logging.obj
 0001:0006d920       __unwindfunclet$?Log@UTILS@@YAXV?$basic_string@DU?$char_traits@D@std@@V?$allocator@D@2@@std@@@Z$0 1006e920 f   logging.obj
 0001:0006d928       __unwindfunclet$?Log@UTILS@@YAXV?$basic_string@DU?$char_traits@D@std@@V?$allocator@D@2@@std@@@Z$1 1006e928 f   logging.obj
 0001:0006d933       __ehhandler$?Log@UTILS@@YAXV?$basic_string@DU?$char_traits@D@std@@V?$allocator@D@2@@std@@@Z 1006e933 f   logging.obj
 0001:0006d960       __unwindfunclet$?open@?$basic_fstream@DU?$char_traits@D@std@@@std@@QAEXPBDHH@Z$0 1006e960 f   logging.obj
 0001:0006d968       __ehhandler$?open@?$basic_fstream@DU?$char_traits@D@std@@@std@@QAEXPBDHH@Z 1006e968 f   logging.obj
 0001:0006d990       __unwindfunclet$?GetOffset@CNetvarManager@UTILS@@QAEIV?$basic_string@DU?$char_traits@D@std@@V?$allocator@D@2@@std@@0@Z$0 1006e990 f   NetvarManager.obj
 0001:0006d998       __unwindfunclet$?GetOffset@CNetvarManager@UTILS@@QAEIV?$basic_string@DU?$char_traits@D@std@@V?$allocator@D@2@@std@@0@Z$1 1006e998 f   NetvarManager.obj
 0001:0006d9a0       __unwindfunclet$?GetOffset@CNetvarManager@UTILS@@QAEIV?$basic_string@DU?$char_traits@D@std@@V?$allocator@D@2@@std@@0@Z$2 1006e9a0 f   NetvarManager.obj
 0001:0006d9a8       __ehhandler$?GetOffset@CNetvarManager@UTILS@@QAEIV?$basic_string@DU?$char_traits@D@std@@V?$allocator@D@2@@std@@0@Z 1006e9a8 f   NetvarManager.obj
 0001:0006d9d0       __unwindfunclet$?Hook@CNetvarManager@UTILS@@QAEPAXV?$basic_string@DU?$char_traits@D@std@@V?$allocator@D@2@@std@@0P6AXPBVCRecvProxyData@SDK@@PAX2@Z@Z$0 1006e9d0 f   NetvarManager.obj
 0001:0006d9d8       __unwindfunclet$?Hook@CNetvarManager@UTILS@@QAEPAXV?$basic_string@DU?$char_traits@D@std@@V?$allocator@D@2@@std@@0P6AXPBVCRecvProxyData@SDK@@PAX2@Z@Z$1 1006e9d8 f   NetvarManager.obj
 0001:0006d9e0       __unwindfunclet$?Hook@CNetvarManager@UTILS@@QAEPAXV?$basic_string@DU?$char_traits@D@std@@V?$allocator@D@2@@std@@0P6AXPBVCRecvProxyData@SDK@@PAX2@Z@Z$2 1006e9e0 f   NetvarManager.obj
 0001:0006d9e8       __unwindfunclet$?Hook@CNetvarManager@UTILS@@QAEPAXV?$basic_string@DU?$char_traits@D@std@@V?$allocator@D@2@@std@@0P6AXPBVCRecvProxyData@SDK@@PAX2@Z@Z$3 1006e9e8 f   NetvarManager.obj
 0001:0006d9f0       __ehhandler$?Hook@CNetvarManager@UTILS@@QAEPAXV?$basic_string@DU?$char_traits@D@std@@V?$allocator@D@2@@std@@0P6AXPBVCRecvProxyData@SDK@@PAX2@Z@Z 1006e9f0 f   NetvarManager.obj
 0001:0006da20       __unwindfunclet$?RecursivelyFindOffset@CNetvarManager@UTILS@@AAEIPAURecvTable@SDK@@V?$basic_string@DU?$char_traits@D@std@@V?$allocator@D@2@@std@@1@Z$0 1006ea20 f   NetvarManager.obj
 0001:0006da28       __unwindfunclet$?RecursivelyFindOffset@CNetvarManager@UTILS@@AAEIPAURecvTable@SDK@@V?$basic_string@DU?$char_traits@D@std@@V?$allocator@D@2@@std@@1@Z$1 1006ea28 f   NetvarManager.obj
 0001:0006da30       __unwindfunclet$?RecursivelyFindOffset@CNetvarManager@UTILS@@AAEIPAURecvTable@SDK@@V?$basic_string@DU?$char_traits@D@std@@V?$allocator@D@2@@std@@1@Z$6 1006ea30 f   NetvarManager.obj
 0001:0006da38       __unwindfunclet$?RecursivelyFindOffset@CNetvarManager@UTILS@@AAEIPAURecvTable@SDK@@V?$basic_string@DU?$char_traits@D@std@@V?$allocator@D@2@@std@@1@Z$2 1006ea38 f   NetvarManager.obj
 0001:0006da40       __unwindfunclet$?RecursivelyFindOffset@CNetvarManager@UTILS@@AAEIPAURecvTable@SDK@@V?$basic_string@DU?$char_traits@D@std@@V?$allocator@D@2@@std@@1@Z$3 1006ea40 f   NetvarManager.obj
 0001:0006da48       __unwindfunclet$?RecursivelyFindOffset@CNetvarManager@UTILS@@AAEIPAURecvTable@SDK@@V?$basic_string@DU?$char_traits@D@std@@V?$allocator@D@2@@std@@1@Z$4 1006ea48 f   NetvarManager.obj
 0001:0006da50       __ehhandler$?RecursivelyFindOffset@CNetvarManager@UTILS@@AAEIPAURecvTable@SDK@@V?$basic_string@DU?$char_traits@D@std@@V?$allocator@D@2@@std@@1@Z 1006ea50 f   NetvarManager.obj
 0001:0006da80       __unwindfunclet$?InitOffsets@OFFSETS@@YAXXZ$0 1006ea80 f   offsets.obj
 0001:0006da88       __unwindfunclet$?InitOffsets@OFFSETS@@YAXXZ$1 1006ea88 f   offsets.obj
 0001:0006da93       __unwindfunclet$?InitOffsets@OFFSETS@@YAXXZ$2 1006ea93 f   offsets.obj
 0001:0006da9b       __unwindfunclet$?InitOffsets@OFFSETS@@YAXXZ$4 1006ea9b f   offsets.obj
 0001:0006daa3       __unwindfunclet$?InitOffsets@OFFSETS@@YAXXZ$5 1006eaa3 f   offsets.obj
 0001:0006daae       __unwindfunclet$?InitOffsets@OFFSETS@@YAXXZ$6 1006eaae f   offsets.obj
 0001:0006dab6       __unwindfunclet$?InitOffsets@OFFSETS@@YAXXZ$8 1006eab6 f   offsets.obj
 0001:0006dabe       __unwindfunclet$?InitOffsets@OFFSETS@@YAXXZ$9 1006eabe f   offsets.obj
 0001:0006dac9       __unwindfunclet$?InitOffsets@OFFSETS@@YAXXZ$10 1006eac9 f   offsets.obj
 0001:0006dad1       __unwindfunclet$?InitOffsets@OFFSETS@@YAXXZ$12 1006ead1 f   offsets.obj
 0001:0006dad9       __unwindfunclet$?InitOffsets@OFFSETS@@YAXXZ$13 1006ead9 f   offsets.obj
 0001:0006dae4       __unwindfunclet$?InitOffsets@OFFSETS@@YAXXZ$14 1006eae4 f   offsets.obj
 0001:0006daec       __unwindfunclet$?InitOffsets@OFFSETS@@YAXXZ$16 1006eaec f   offsets.obj
 0001:0006daf4       __unwindfunclet$?InitOffsets@OFFSETS@@YAXXZ$17 1006eaf4 f   offsets.obj
 0001:0006daff       __unwindfunclet$?InitOffsets@OFFSETS@@YAXXZ$18 1006eaff f   offsets.obj
 0001:0006db07       __unwindfunclet$?InitOffsets@OFFSETS@@YAXXZ$20 1006eb07 f   offsets.obj
 0001:0006db0f       __unwindfunclet$?InitOffsets@OFFSETS@@YAXXZ$21 1006eb0f f   offsets.obj
 0001:0006db1a       __unwindfunclet$?InitOffsets@OFFSETS@@YAXXZ$22 1006eb1a f   offsets.obj
 0001:0006db22       __unwindfunclet$?InitOffsets@OFFSETS@@YAXXZ$24 1006eb22 f   offsets.obj
 0001:0006db2a       __unwindfunclet$?InitOffsets@OFFSETS@@YAXXZ$25 1006eb2a f   offsets.obj
 0001:0006db35       __unwindfunclet$?InitOffsets@OFFSETS@@YAXXZ$26 1006eb35 f   offsets.obj
 0001:0006db3d       __unwindfunclet$?InitOffsets@OFFSETS@@YAXXZ$28 1006eb3d f   offsets.obj
 0001:0006db45       __unwindfunclet$?InitOffsets@OFFSETS@@YAXXZ$29 1006eb45 f   offsets.obj
 0001:0006db50       __unwindfunclet$?InitOffsets@OFFSETS@@YAXXZ$30 1006eb50 f   offsets.obj
 0001:0006db58       __unwindfunclet$?InitOffsets@OFFSETS@@YAXXZ$32 1006eb58 f   offsets.obj
 0001:0006db60       __unwindfunclet$?InitOffsets@OFFSETS@@YAXXZ$33 1006eb60 f   offsets.obj
 0001:0006db6b       __unwindfunclet$?InitOffsets@OFFSETS@@YAXXZ$34 1006eb6b f   offsets.obj
 0001:0006db73       __unwindfunclet$?InitOffsets@OFFSETS@@YAXXZ$36 1006eb73 f   offsets.obj
 0001:0006db7b       __unwindfunclet$?InitOffsets@OFFSETS@@YAXXZ$37 1006eb7b f   offsets.obj
 0001:0006db86       __unwindfunclet$?InitOffsets@OFFSETS@@YAXXZ$38 1006eb86 f   offsets.obj
 0001:0006db8e       __unwindfunclet$?InitOffsets@OFFSETS@@YAXXZ$40 1006eb8e f   offsets.obj
 0001:0006db96       __unwindfunclet$?InitOffsets@OFFSETS@@YAXXZ$41 1006eb96 f   offsets.obj
 0001:0006dba1       __unwindfunclet$?InitOffsets@OFFSETS@@YAXXZ$42 1006eba1 f   offsets.obj
 0001:0006dba9       __unwindfunclet$?InitOffsets@OFFSETS@@YAXXZ$44 1006eba9 f   offsets.obj
 0001:0006dbb1       __unwindfunclet$?InitOffsets@OFFSETS@@YAXXZ$45 1006ebb1 f   offsets.obj
 0001:0006dbbc       __unwindfunclet$?InitOffsets@OFFSETS@@YAXXZ$46 1006ebbc f   offsets.obj
 0001:0006dbc4       __unwindfunclet$?InitOffsets@OFFSETS@@YAXXZ$48 1006ebc4 f   offsets.obj
 0001:0006dbcc       __unwindfunclet$?InitOffsets@OFFSETS@@YAXXZ$49 1006ebcc f   offsets.obj
 0001:0006dbd7       __unwindfunclet$?InitOffsets@OFFSETS@@YAXXZ$50 1006ebd7 f   offsets.obj
 0001:0006dbdf       __unwindfunclet$?InitOffsets@OFFSETS@@YAXXZ$52 1006ebdf f   offsets.obj
 0001:0006dbe7       __unwindfunclet$?InitOffsets@OFFSETS@@YAXXZ$53 1006ebe7 f   offsets.obj
 0001:0006dbf2       __unwindfunclet$?InitOffsets@OFFSETS@@YAXXZ$54 1006ebf2 f   offsets.obj
 0001:0006dbfa       __unwindfunclet$?InitOffsets@OFFSETS@@YAXXZ$56 1006ebfa f   offsets.obj
 0001:0006dc02       __unwindfunclet$?InitOffsets@OFFSETS@@YAXXZ$57 1006ec02 f   offsets.obj
 0001:0006dc0d       __unwindfunclet$?InitOffsets@OFFSETS@@YAXXZ$58 1006ec0d f   offsets.obj
 0001:0006dc15       __unwindfunclet$?InitOffsets@OFFSETS@@YAXXZ$60 1006ec15 f   offsets.obj
 0001:0006dc1d       __unwindfunclet$?InitOffsets@OFFSETS@@YAXXZ$61 1006ec1d f   offsets.obj
 0001:0006dc28       __unwindfunclet$?InitOffsets@OFFSETS@@YAXXZ$62 1006ec28 f   offsets.obj
 0001:0006dc30       __unwindfunclet$?InitOffsets@OFFSETS@@YAXXZ$64 1006ec30 f   offsets.obj
 0001:0006dc38       __unwindfunclet$?InitOffsets@OFFSETS@@YAXXZ$65 1006ec38 f   offsets.obj
 0001:0006dc43       __unwindfunclet$?InitOffsets@OFFSETS@@YAXXZ$66 1006ec43 f   offsets.obj
 0001:0006dc4b       __unwindfunclet$?InitOffsets@OFFSETS@@YAXXZ$68 1006ec4b f   offsets.obj
 0001:0006dc53       __unwindfunclet$?InitOffsets@OFFSETS@@YAXXZ$69 1006ec53 f   offsets.obj
 0001:0006dc5e       __unwindfunclet$?InitOffsets@OFFSETS@@YAXXZ$70 1006ec5e f   offsets.obj
 0001:0006dc66       __unwindfunclet$?InitOffsets@OFFSETS@@YAXXZ$72 1006ec66 f   offsets.obj
 0001:0006dc6e       __unwindfunclet$?InitOffsets@OFFSETS@@YAXXZ$73 1006ec6e f   offsets.obj
 0001:0006dc79       __unwindfunclet$?InitOffsets@OFFSETS@@YAXXZ$74 1006ec79 f   offsets.obj
 0001:0006dc81       __unwindfunclet$?InitOffsets@OFFSETS@@YAXXZ$76 1006ec81 f   offsets.obj
 0001:0006dc89       __unwindfunclet$?InitOffsets@OFFSETS@@YAXXZ$77 1006ec89 f   offsets.obj
 0001:0006dc94       __unwindfunclet$?InitOffsets@OFFSETS@@YAXXZ$78 1006ec94 f   offsets.obj
 0001:0006dc9c       __unwindfunclet$?InitOffsets@OFFSETS@@YAXXZ$80 1006ec9c f   offsets.obj
 0001:0006dca4       __unwindfunclet$?InitOffsets@OFFSETS@@YAXXZ$81 1006eca4 f   offsets.obj
 0001:0006dcaf       __unwindfunclet$?InitOffsets@OFFSETS@@YAXXZ$82 1006ecaf f   offsets.obj
 0001:0006dcb7       __unwindfunclet$?InitOffsets@OFFSETS@@YAXXZ$84 1006ecb7 f   offsets.obj
 0001:0006dcbf       __unwindfunclet$?InitOffsets@OFFSETS@@YAXXZ$85 1006ecbf f   offsets.obj
 0001:0006dcca       __unwindfunclet$?InitOffsets@OFFSETS@@YAXXZ$86 1006ecca f   offsets.obj
 0001:0006dcd2       __unwindfunclet$?InitOffsets@OFFSETS@@YAXXZ$88 1006ecd2 f   offsets.obj
 0001:0006dcda       __unwindfunclet$?InitOffsets@OFFSETS@@YAXXZ$89 1006ecda f   offsets.obj
 0001:0006dce5       __unwindfunclet$?InitOffsets@OFFSETS@@YAXXZ$90 1006ece5 f   offsets.obj
 0001:0006dced       __unwindfunclet$?InitOffsets@OFFSETS@@YAXXZ$92 1006eced f   offsets.obj
 0001:0006dcf5       __unwindfunclet$?InitOffsets@OFFSETS@@YAXXZ$93 1006ecf5 f   offsets.obj
 0001:0006dd00       __unwindfunclet$?InitOffsets@OFFSETS@@YAXXZ$94 1006ed00 f   offsets.obj
 0001:0006dd08       __unwindfunclet$?InitOffsets@OFFSETS@@YAXXZ$96 1006ed08 f   offsets.obj
 0001:0006dd10       __unwindfunclet$?InitOffsets@OFFSETS@@YAXXZ$97 1006ed10 f   offsets.obj
 0001:0006dd1b       __unwindfunclet$?InitOffsets@OFFSETS@@YAXXZ$98 1006ed1b f   offsets.obj
 0001:0006dd23       __unwindfunclet$?InitOffsets@OFFSETS@@YAXXZ$100 1006ed23 f   offsets.obj
 0001:0006dd2b       __unwindfunclet$?InitOffsets@OFFSETS@@YAXXZ$101 1006ed2b f   offsets.obj
 0001:0006dd36       __unwindfunclet$?InitOffsets@OFFSETS@@YAXXZ$102 1006ed36 f   offsets.obj
 0001:0006dd3e       __unwindfunclet$?InitOffsets@OFFSETS@@YAXXZ$104 1006ed3e f   offsets.obj
 0001:0006dd49       __unwindfunclet$?InitOffsets@OFFSETS@@YAXXZ$105 1006ed49 f   offsets.obj
 0001:0006dd54       __unwindfunclet$?InitOffsets@OFFSETS@@YAXXZ$106 1006ed54 f   offsets.obj
 0001:0006dd5c       __unwindfunclet$?InitOffsets@OFFSETS@@YAXXZ$108 1006ed5c f   offsets.obj
 0001:0006dd67       __unwindfunclet$?InitOffsets@OFFSETS@@YAXXZ$109 1006ed67 f   offsets.obj
 0001:0006dd72       __unwindfunclet$?InitOffsets@OFFSETS@@YAXXZ$110 1006ed72 f   offsets.obj
 0001:0006dd7d       __unwindfunclet$?InitOffsets@OFFSETS@@YAXXZ$112 1006ed7d f   offsets.obj
 0001:0006dd88       __unwindfunclet$?InitOffsets@OFFSETS@@YAXXZ$113 1006ed88 f   offsets.obj
 0001:0006dd93       __unwindfunclet$?InitOffsets@OFFSETS@@YAXXZ$114 1006ed93 f   offsets.obj
 0001:0006dd9e       __unwindfunclet$?InitOffsets@OFFSETS@@YAXXZ$116 1006ed9e f   offsets.obj
 0001:0006dda9       __unwindfunclet$?InitOffsets@OFFSETS@@YAXXZ$117 1006eda9 f   offsets.obj
 0001:0006ddb4       __unwindfunclet$?InitOffsets@OFFSETS@@YAXXZ$118 1006edb4 f   offsets.obj
 0001:0006ddbf       __unwindfunclet$?InitOffsets@OFFSETS@@YAXXZ$120 1006edbf f   offsets.obj
 0001:0006ddca       __unwindfunclet$?InitOffsets@OFFSETS@@YAXXZ$121 1006edca f   offsets.obj
 0001:0006ddd5       __unwindfunclet$?InitOffsets@OFFSETS@@YAXXZ$122 1006edd5 f   offsets.obj
 0001:0006dde0       __unwindfunclet$?InitOffsets@OFFSETS@@YAXXZ$124 1006ede0 f   offsets.obj
 0001:0006ddeb       __unwindfunclet$?InitOffsets@OFFSETS@@YAXXZ$125 1006edeb f   offsets.obj
 0001:0006ddf6       __unwindfunclet$?InitOffsets@OFFSETS@@YAXXZ$126 1006edf6 f   offsets.obj
 0001:0006de01       __unwindfunclet$?InitOffsets@OFFSETS@@YAXXZ$128 1006ee01 f   offsets.obj
 0001:0006de0c       __unwindfunclet$?InitOffsets@OFFSETS@@YAXXZ$129 1006ee0c f   offsets.obj
 0001:0006de17       __unwindfunclet$?InitOffsets@OFFSETS@@YAXXZ$130 1006ee17 f   offsets.obj
 0001:0006de22       __unwindfunclet$?InitOffsets@OFFSETS@@YAXXZ$132 1006ee22 f   offsets.obj
 0001:0006de2d       __unwindfunclet$?InitOffsets@OFFSETS@@YAXXZ$133 1006ee2d f   offsets.obj
 0001:0006de38       __unwindfunclet$?InitOffsets@OFFSETS@@YAXXZ$134 1006ee38 f   offsets.obj
 0001:0006de43       __unwindfunclet$?InitOffsets@OFFSETS@@YAXXZ$136 1006ee43 f   offsets.obj
 0001:0006de4e       __unwindfunclet$?InitOffsets@OFFSETS@@YAXXZ$137 1006ee4e f   offsets.obj
 0001:0006de59       __unwindfunclet$?InitOffsets@OFFSETS@@YAXXZ$138 1006ee59 f   offsets.obj
 0001:0006de64       __unwindfunclet$?InitOffsets@OFFSETS@@YAXXZ$140 1006ee64 f   offsets.obj
 0001:0006de6f       __unwindfunclet$?InitOffsets@OFFSETS@@YAXXZ$141 1006ee6f f   offsets.obj
 0001:0006de7a       __unwindfunclet$?InitOffsets@OFFSETS@@YAXXZ$142 1006ee7a f   offsets.obj
 0001:0006de85       __unwindfunclet$?InitOffsets@OFFSETS@@YAXXZ$144 1006ee85 f   offsets.obj
 0001:0006de90       __unwindfunclet$?InitOffsets@OFFSETS@@YAXXZ$145 1006ee90 f   offsets.obj
 0001:0006de9b       __unwindfunclet$?InitOffsets@OFFSETS@@YAXXZ$146 1006ee9b f   offsets.obj
 0001:0006dea6       __unwindfunclet$?InitOffsets@OFFSETS@@YAXXZ$148 1006eea6 f   offsets.obj
 0001:0006deb1       __unwindfunclet$?InitOffsets@OFFSETS@@YAXXZ$149 1006eeb1 f   offsets.obj
 0001:0006debc       __unwindfunclet$?InitOffsets@OFFSETS@@YAXXZ$150 1006eebc f   offsets.obj
 0001:0006dec7       __unwindfunclet$?InitOffsets@OFFSETS@@YAXXZ$152 1006eec7 f   offsets.obj
 0001:0006ded2       __unwindfunclet$?InitOffsets@OFFSETS@@YAXXZ$153 1006eed2 f   offsets.obj
 0001:0006dedd       __unwindfunclet$?InitOffsets@OFFSETS@@YAXXZ$154 1006eedd f   offsets.obj
 0001:0006dee8       __unwindfunclet$?InitOffsets@OFFSETS@@YAXXZ$156 1006eee8 f   offsets.obj
 0001:0006def3       __unwindfunclet$?InitOffsets@OFFSETS@@YAXXZ$157 1006eef3 f   offsets.obj
 0001:0006defe       __unwindfunclet$?InitOffsets@OFFSETS@@YAXXZ$158 1006eefe f   offsets.obj
 0001:0006df09       __unwindfunclet$?InitOffsets@OFFSETS@@YAXXZ$160 1006ef09 f   offsets.obj
 0001:0006df14       __unwindfunclet$?InitOffsets@OFFSETS@@YAXXZ$161 1006ef14 f   offsets.obj
 0001:0006df1f       __unwindfunclet$?InitOffsets@OFFSETS@@YAXXZ$162 1006ef1f f   offsets.obj
 0001:0006df2a       __unwindfunclet$?InitOffsets@OFFSETS@@YAXXZ$164 1006ef2a f   offsets.obj
 0001:0006df35       __unwindfunclet$?InitOffsets@OFFSETS@@YAXXZ$165 1006ef35 f   offsets.obj
 0001:0006df40       __unwindfunclet$?InitOffsets@OFFSETS@@YAXXZ$166 1006ef40 f   offsets.obj
 0001:0006df4b       __unwindfunclet$?InitOffsets@OFFSETS@@YAXXZ$168 1006ef4b f   offsets.obj
 0001:0006df56       __unwindfunclet$?InitOffsets@OFFSETS@@YAXXZ$169 1006ef56 f   offsets.obj
 0001:0006df61       __unwindfunclet$?InitOffsets@OFFSETS@@YAXXZ$170 1006ef61 f   offsets.obj
 0001:0006df6c       __unwindfunclet$?InitOffsets@OFFSETS@@YAXXZ$172 1006ef6c f   offsets.obj
 0001:0006df77       __unwindfunclet$?InitOffsets@OFFSETS@@YAXXZ$173 1006ef77 f   offsets.obj
 0001:0006df82       __unwindfunclet$?InitOffsets@OFFSETS@@YAXXZ$174 1006ef82 f   offsets.obj
 0001:0006df8d       __unwindfunclet$?InitOffsets@OFFSETS@@YAXXZ$176 1006ef8d f   offsets.obj
 0001:0006df98       __unwindfunclet$?InitOffsets@OFFSETS@@YAXXZ$177 1006ef98 f   offsets.obj
 0001:0006dfa3       __unwindfunclet$?InitOffsets@OFFSETS@@YAXXZ$178 1006efa3 f   offsets.obj
 0001:0006dfae       __unwindfunclet$?InitOffsets@OFFSETS@@YAXXZ$180 1006efae f   offsets.obj
 0001:0006dfb9       __unwindfunclet$?InitOffsets@OFFSETS@@YAXXZ$181 1006efb9 f   offsets.obj
 0001:0006dfc4       __unwindfunclet$?InitOffsets@OFFSETS@@YAXXZ$182 1006efc4 f   offsets.obj
 0001:0006dfcf       __ehhandler$?InitOffsets@OFFSETS@@YAXXZ 1006efcf f   offsets.obj
 0001:0006e000       __unwindfunclet$?DrawF@RENDER@@YAXHHI_N0VCColor@@V?$basic_string@DU?$char_traits@D@std@@V?$allocator@D@2@@std@@@Z$0 1006f000 f   render.obj
 0001:0006e008       __unwindfunclet$?DrawF@RENDER@@YAXHHI_N0VCColor@@V?$basic_string@DU?$char_traits@D@std@@V?$allocator@D@2@@std@@@Z$1 1006f008 f   render.obj
 0001:0006e010       __ehhandler$?DrawF@RENDER@@YAXHHI_N0VCColor@@V?$basic_string@DU?$char_traits@D@std@@V?$allocator@D@2@@std@@@Z 1006f010 f   render.obj
 0001:0006e030       __unwindfunclet$?DrawFilledCircle@RENDER@@YAXHHHHVCColor@@@Z$0 1006f030 f   render.obj
 0001:0006e038       __unwindfunclet$?DrawFilledCircle@RENDER@@YAXHHHHVCColor@@@Z$2 1006f038 f   render.obj
 0001:0006e040       __unwindfunclet$?DrawFilledCircle@RENDER@@YAXHHHHVCColor@@@Z$3 1006f040 f   render.obj
 0001:0006e04c       __ehhandler$?DrawFilledCircle@RENDER@@YAXHHHHVCColor@@@Z 1006f04c f   render.obj
 0001:0006e070       __unwindfunclet$?GetTextSize@RENDER@@YA?AVVector2D@@IV?$basic_string@DU?$char_traits@D@std@@V?$allocator@D@2@@std@@@Z$0 1006f070 f   render.obj
 0001:0006e078       __unwindfunclet$?GetTextSize@RENDER@@YA?AVVector2D@@IV?$basic_string@DU?$char_traits@D@std@@V?$allocator@D@2@@std@@@Z$1 1006f078 f   render.obj
 0001:0006e080       __ehhandler$?GetTextSize@RENDER@@YA?AVVector2D@@IV?$basic_string@DU?$char_traits@D@std@@V?$allocator@D@2@@std@@@Z 1006f080 f   render.obj
 0001:0006e0a0       __unwindfunclet$?TexturedPolygon@RENDER@@YAXHV?$vector@UVertex_t@SDK@@V?$allocator@UVertex_t@SDK@@@std@@@std@@VCColor@@@Z$0 1006f0a0 f   render.obj
 0001:0006e0a8       __unwindfunclet$?TexturedPolygon@RENDER@@YAXHV?$vector@UVertex_t@SDK@@V?$allocator@UVertex_t@SDK@@@std@@@std@@VCColor@@@Z$1 1006f0a8 f   render.obj
 0001:0006e0b4       __ehhandler$?TexturedPolygon@RENDER@@YAXHV?$vector@UVertex_t@SDK@@V?$allocator@UVertex_t@SDK@@@std@@@std@@VCColor@@@Z 1006f0b4 f   render.obj
 0001:0006e0d0       __unwindfunclet$?InitFonts@FONTS@@YAXXZ$0 1006f0d0 f   variables.obj
 0001:0006e0d8       __unwindfunclet$?InitFonts@FONTS@@YAXXZ$3 1006f0d8 f   variables.obj
 0001:0006e0e0       __ehhandler$?InitFonts@FONTS@@YAXXZ 1006f0e0 f   variables.obj
 0001:0006e110       __ehhandler$?clear@?$_Tree@V?$_Tmap_traits@HPAXU?$less@H@std@@V?$allocator@U?$pair@$$CBHPAX@std@@@2@$0A@@std@@@std@@QAEXXZ 1006f110 f   vmt.obj
 0001:0006e12b       __ehhandler$??1_Fac_node@std@@QAE@XZ 1006f12b f   libcpmt:locale0.obj
 0001:0006e146       __unwindfunclet$?_Init@locale@std@@CAPAV_Locimp@12@_N@Z$0 1006f146 f   libcpmt:locale0.obj
 0001:0006e14e       __ehhandler$?_Init@locale@std@@CAPAV_Locimp@12@_N@Z 1006f14e f   libcpmt:locale0.obj
 0001:0006e169       __unwindfunclet$?_Locimp_dtor@_Locimp@locale@std@@CAXPAV123@@Z$0 1006f169 f   libcpmt:locale0.obj
 0001:0006e171       __ehhandler$?_Locimp_dtor@_Locimp@locale@std@@CAXPAV123@@Z 1006f171 f   libcpmt:locale0.obj
 0001:0006e18c       __unwindfunclet$??0?$basic_ostream@DU?$char_traits@D@std@@@std@@QAE@PAV?$basic_streambuf@DU?$char_traits@D@std@@@1@_N@Z$0 1006f18c f   libcpmt:cout.obj
 0001:0006e1a8       __ehhandler$??0?$basic_ostream@DU?$char_traits@D@std@@@std@@QAE@PAV?$basic_streambuf@DU?$char_traits@D@std@@@1@_N@Z 1006f1a8 f   libcpmt:cout.obj
 0001:0006e1c3       __ehhandler$??0?$basic_streambuf@DU?$char_traits@D@std@@@std@@IAE@XZ 1006f1c3 f   libcpmt:cout.obj
 0001:0006e1c3       __ehhandler$?_Init@ios_base@std@@IAEXXZ 1006f1c3 f   libcpmt:cout.obj
 0001:0006e1de       __ehhandler$?__scrt_initialize_thread_safe_statics_platform_specific@@YAXXZ 1006f1de f   LIBCMT:thread_safe_statics.obj
 0001:0006e1f9       __ehhandler$?CallUnexpected@@YAXPBU_s_ESTypeList@@@Z 1006f1f9 f   libvcruntime:frame.obj
 0001:0006e214       __unwindfunclet$?_wcstombs_l_helper@@YAIPADPB_WIPAU__crt_locale_pointers@@@Z$0 1006f214 f   libucrt:wcstombs.obj
 0001:0006e21c       __ehhandler$?_wcstombs_l_helper@@YAIPADPB_WIPAU__crt_locale_pointers@@@Z 1006f21c f   libucrt:wcstombs.obj
 0001:0006e250       ??__Fbacktracking@RAGEBOT@FEATURES@@YAXXZ 1006f250 f   Backtracking.obj
 0001:0006e2b0       ??__Ftmp@?1??CreateMaterial@CChams@VISUALS@FEATURES@@QAEPAVIMaterial@SDK@@_N00@Z@YAXXZ 1006f2b0 f   Chams.obj
 0001:0006e310       ??__Fbullet_impact_listener@MISC@FEATURES@@YAXXZ 1006f310 f   EventListeners.obj
 0001:0006e370       ??__Fitem_purchase_listener@MISC@FEATURES@@YAXXZ 1006f370 f   EventListeners.obj
 0001:0006e3d0       ??__Fplayer_hurt_listener@MISC@FEATURES@@YAXXZ 1006f3d0 f   EventListeners.obj
 0001:0006e430       ??__Fweapon_fire_listener@MISC@FEATURES@@YAXXZ 1006f430 f   EventListeners.obj
 0001:0006e490       ??__Fin_game_logger@MISC@FEATURES@@YAXXZ 1006f490 f   InGameLogger.obj
 0001:0006e4a0       ??__Fbullet_tracers@MISC@FEATURES@@YAXXZ 1006f4a0 f   Misc.obj
 0001:0006e500       ??__Fhitmarkers@MISC@FEATURES@@YAXXZ 1006f500 f   Misc.obj
 0001:0006e560       ??__Fresolver@RAGEBOT@FEATURES@@YAXXZ 1006f560 f   Resolver.obj
 0001:0006e580       ??__Fmenu@PPGUI@@YAXXZ     1006f580 f   PPGUI.obj
 0001:0006e5f0       ??__Fppgui_command_data_base@PPGUI@@YAXXZ 1006f5f0 f   PPGUI_Defines.obj
 0001:0006e600       ??__Fdebugger@DEBUGGER@UTILS@@YAXXZ 1006f600 f   Debugger.obj
 0001:0006e660       ??__Fclient_mode_hook_manager@HOOKS@@YAXXZ 1006f660 f   hooks.obj
 0001:0006e670       ??__Ficlient_hook_manager@HOOKS@@YAXXZ 1006f670 f   hooks.obj
 0001:0006e680       ??__Fmodel_render_hook_manager@HOOKS@@YAXXZ 1006f680 f   hooks.obj
 0001:0006e690       ??__Fnet_channel_hook_manager@HOOKS@@YAXXZ 1006f690 f   hooks.obj
 0001:0006e6a0       ??__Fpanel_hook_manager@HOOKS@@YAXXZ 1006f6a0 f   hooks.obj
 0001:0006e6b0       ??__Frender_view_hook_manager@HOOKS@@YAXXZ 1006f6b0 f   hooks.obj
 0001:0006e6c0       ??__Fsetup_bones_hook_manager@HOOKS@@YAXXZ 1006f6c0 f   hooks.obj
 0001:0006e6d0       ??__Ftrace_hook_manager@HOOKS@@YAXXZ 1006f6d0 f   hooks.obj
 0001:0006e6e0       ??__Finput_handler@INPUT@UTILS@@YAXXZ 1006f6e0 f   input_handler.obj
 0001:0006e740       ??__Frender_queue@RENDER@@YAXXZ 1006f740 f   render.obj
 0001:0006e74a       ??__Finitlocks@std@@YAXXZ  1006f74a f   libcpmt:xlock.obj
 0001:0006e754       ??__F_Fac_tidy_reg@std@@YAXXZ 1006f754 f   libcpmt:locale0.obj
 0001:0006e75e       ??__Fclassic_locale@std@@YAXXZ 1006f75e f   libcpmt:locale0.obj
 0001:0006e768       ??__Fcout@std@@YAXXZ       1006f768 f   libcpmt:cout.obj
 0001:0006e772       ??__Ffout@std@@YAXXZ       1006f772 f   libcpmt:cout.obj
 0001:0006e77c       ??__Finitlocks@@YAXXZ      1006f77c f   libcpmt:cout.obj
 0001:0006e786       ??__Finit_atexit@@YAXXZ    1006f786 f   libcpmt:iosptrs.obj
 0001:0006e790       ??__Finitlocks@std@@YAXXZ  1006f790 f   libcpmt:iosptrs.obj
 0001:0006e7a0       ??__FvtMissing@@YAXXZ      1006f7a0 f   comsuppw:comutil.obj
 0002:000001e0       ?initlocks$initializer$@std@@3P6AXXZA 100701e0     libcpmt:xlock.obj
 0002:000001e4       ?initlocks$initializer$@@3P6AXXZA 100701e4     libcpmt:cout.obj
 0002:000001e8       ?fout$initializer$@std@@3P6AXXZA 100701e8     libcpmt:cout.obj
 0002:000001ec       ?cout$initializer$@std@@3P6AXXZA 100701ec     libcpmt:cout.obj
 0002:000001f0       ?init_cout$initializer$@std@@3P6AXXZA 100701f0     libcpmt:cout.obj
 0002:000001f4       ?initlocks$initializer$@std@@3P6AXXZA 100701f4     libcpmt:iosptrs.obj
 0002:000001f8       ?init_atexit$initializer$@@3P6AXXZA 100701f8     libcpmt:iosptrs.obj
 0002:000001fc       ?_Fac_tidy_reg$initializer$@std@@3P6AXXZA 100701fc     libcpmt:locale0.obj
 0002:00000200       ?classic_locale$initializer$@std@@3P6AXXZA 10070200     libcpmt:locale0.obj
 0002:00000204       ?aimbot$initializer$@RAGEBOT@FEATURES@@3P6AXXZA 10070204     Aimbot.obj
 0002:00000208       ?backtracking$initializer$@RAGEBOT@FEATURES@@3P6AXXZA 10070208     Backtracking.obj
 0002:0000020c       ?item_purchase_listener$initializer$@MISC@FEATURES@@3P6AXXZA 1007020c     EventListeners.obj
 0002:00000210       ?player_hurt_listener$initializer$@MISC@FEATURES@@3P6AXXZA 10070210     EventListeners.obj
 0002:00000214       ?bullet_impact_listener$initializer$@MISC@FEATURES@@3P6AXXZA 10070214     EventListeners.obj
 0002:00000218       ?weapon_fire_listener$initializer$@MISC@FEATURES@@3P6AXXZA 10070218     EventListeners.obj
 0002:0000021c       ?in_game_logger$initializer$@MISC@FEATURES@@3P6AXXZA 1007021c     InGameLogger.obj
 0002:00000220       ?bullet_tracers$initializer$@MISC@FEATURES@@3P6AXXZA 10070220     Misc.obj
 0002:00000224       ?hitmarkers$initializer$@MISC@FEATURES@@3P6AXXZA 10070224     Misc.obj
 0002:00000228       ?resolver$initializer$@RAGEBOT@FEATURES@@3P6AXXZA 10070228     Resolver.obj
 0002:0000022c       ?skin_configs$initializer$@SETTINGS@@3P6AXXZA 1007022c     Configurations.obj
 0002:00000230       ?main_configs$initializer$@SETTINGS@@3P6AXXZA 10070230     Configurations.obj
 0002:00000234       ?skin_changer$initializer$@MISC@FEATURES@@3P6AXXZA 10070234     SkinChanger.obj
 0002:00000238       ?world_textures$initializer$@VISUALS@FEATURES@@3P6AXXZA 10070238     World Textures.obj
 0002:0000023c       ?menu$initializer$@PPGUI@@3P6AXXZA 1007023c     PPGUI.obj
 0002:00000240       ?ppgui_colors$initializer$@PPGUI@@3P6AXXZA 10070240     PPGUI_Defines.obj
 0002:00000244       ?ppgui_command_data_base$initializer$@PPGUI@@3P6AXXZA 10070244     PPGUI_Defines.obj
 0002:00000248       ?debugger$initializer$@DEBUGGER@UTILS@@3P6AXXZA 10070248     Debugger.obj
 0002:0000024c       ?linegoesthrusmoke$initializer$@@3P6AXXZA 1007024c     hooks.obj
 0002:00000250       ?iclient_hook_manager$initializer$@HOOKS@@3P6AXXZA 10070250     hooks.obj
 0002:00000254       ?panel_hook_manager$initializer$@HOOKS@@3P6AXXZA 10070254     hooks.obj
 0002:00000258       ?model_render_hook_manager$initializer$@HOOKS@@3P6AXXZA 10070258     hooks.obj
 0002:0000025c       ?render_view_hook_manager$initializer$@HOOKS@@3P6AXXZA 1007025c     hooks.obj
 0002:00000260       ?trace_hook_manager$initializer$@HOOKS@@3P6AXXZA 10070260     hooks.obj
 0002:00000264       ?net_channel_hook_manager$initializer$@HOOKS@@3P6AXXZA 10070264     hooks.obj
 0002:00000268       ?client_mode_hook_manager$initializer$@HOOKS@@3P6AXXZA 10070268     hooks.obj
 0002:0000026c       ?setup_bones_hook_manager$initializer$@HOOKS@@3P6AXXZA 1007026c     hooks.obj
 0002:00000270       ?input_handler$initializer$@INPUT@UTILS@@3P6AXXZA 10070270     input_handler.obj
 0002:00000274       ?render_queue$initializer$@RENDER@@3P6AXXZA 10070274     render.obj
 0002:00000278       ?csgo_hwnd$initializer$@GLOBAL@@3P6AXXZA 10070278     variables.obj
 0002:0000027c       ?vtMissing$initializer$@@3P6AXXZA 1007027c     comsuppw:comutil.obj
 0002:00000288       ?pinit@@3P6AHXZA           10070288     libcpmt:winapisupp.obj
 0002:0000028c       ?__scrt_initialize_tss_var@@3P6AHXZA 1007028c     LIBCMT:thread_safe_statics.obj
 0002:00000a90       ?file_path@?1??LoadUserConfig@MISC@FEATURES@@YAXXZ@4QBDB 10070a90     Misc.obj
 0002:000054b0       ?_Sys_errtab@std@@3QBU_Sys_errtab_t@1@B 100754b0     libcpmt:syserror.obj
 0002:00005720       ?_Win_errtab@std@@3QBU_Win_errtab_t@1@B 10075720     libcpmt:syserror.obj
 0002:00005fb8       ?mods@?1??_Xfsopen@std@@YAPAU_iobuf@@PBDHH@Z@4QBQBDB 10075fb8     libcpmt:fiopen.obj
 0002:000063f8       ?LcidToLocaleNameTable@@3QBULcidToLocaleName@@B 100763f8     libcpmt:winapinls.obj
 0002:00006b18       ?LocaleNameToIndexTable@@3QBULocaleNameIndex@@B 10076b18     libcpmt:winapinls.obj
 0002:000084b0       _digits                    100784b0     libcpmt:xstoul.obj
 0002:000084d8       _ndigs                     100784d8     libcpmt:xstoul.obj
 0002:00008500       _digits                    10078500     libcpmt:xstoull.obj
 0002:00008528       _ndigs                     10078528     libcpmt:xstoull.obj
 0002:000085a4       _GS_ExceptionPointers      100785a4     LIBCMT:gs_report.obj
 0002:000085d4       ?ExceptionTemplate@?1??_CxxThrowException@@9@8@4UEHExceptionRecord@@B 100785d4     libvcruntime:throw.obj
 0002:00008614       ?module_names@?A0xa2817912@@3QBQB_WB 10078614     libvcruntime:winapi_downlevel.obj
 0002:000086cc       ?candidate_modules@?1??try_get_FlsAlloc@@YAP6GKP6GXPAX@Z@ZXZ@4QBW4module_id@?A0xa2817912@@B 100786cc     libvcruntime:winapi_downlevel.obj
 0002:000086d4       ?candidate_modules@?1??try_get_FlsFree@@YAP6GHK@ZXZ@4QBW4module_id@?A0xa2817912@@B 100786d4     libvcruntime:winapi_downlevel.obj
 0002:000086dc       ?candidate_modules@?1??try_get_FlsGetValue@@YAP6GPAXK@ZXZ@4QBW4module_id@?A0xa2817912@@B 100786dc     libvcruntime:winapi_downlevel.obj
 0002:000086e4       ?candidate_modules@?1??try_get_FlsSetValue@@YAP6GHKPAX@ZXZ@4QBW4module_id@?A0xa2817912@@B 100786e4     libvcruntime:winapi_downlevel.obj
 0002:000086ec       ?candidate_modules@?1??try_get_InitializeCriticalSectionEx@@YAP6GHPAU_RTL_CRITICAL_SECTION@@KK@ZXZ@4QBW4module_id@?A0xa2817912@@B 100786ec     libvcruntime:winapi_downlevel.obj
 0002:000086f8       ?tokenTable@@3QBQBDB       100786f8     libvcruntime:undname.obj
 0002:00008738       ?nameTable@@3QBQBDB        10078738     libvcruntime:undname.obj
 0002:00008880       ?rttiTable@@3QBQBDB        10078880     libvcruntime:undname.obj
 0002:00008e90       SC_1                       10078e90     libucrt:cos_sse2_precise.obj
 0002:00008ea0       SC_2                       10078ea0     libucrt:cos_sse2_precise.obj
 0002:00008eb0       SC_3                       10078eb0     libucrt:cos_sse2_precise.obj
 0002:00008ec0       SC_4                       10078ec0     libucrt:cos_sse2_precise.obj
 0002:00008ed0       PI32INV                    10078ed0     libucrt:cos_sse2_precise.obj
 0002:00008ed8       SHIFTER                    10078ed8     libucrt:cos_sse2_precise.obj
 0002:00008ee0       P_2                        10078ee0     libucrt:cos_sse2_precise.obj
 0002:00008ef0       P_1                        10078ef0     libucrt:cos_sse2_precise.obj
 0002:00008ef8       P_3                        10078ef8     libucrt:cos_sse2_precise.obj
 0002:00008f00       TWO_POW_55                 10078f00     libucrt:cos_sse2_precise.obj
 0002:00008f08       TWO_POW_M55                10078f08     libucrt:cos_sse2_precise.obj
 0002:00008f10       ALL_ONES                   10078f10     libucrt:cos_sse2_precise.obj
 0002:00008f18       NEG_ZERO                   10078f18     libucrt:cos_sse2_precise.obj
 0002:00008f20       ONE                        10078f20     libucrt:cos_sse2_precise.obj
 0002:00008f30       SIGN_MASK                  10078f30     libucrt:cos_sse2_precise.obj
 0002:00008f40       SC_1                       10078f40     libucrt:sin_sse2_precise.obj
 0002:00008f50       SC_2                       10078f50     libucrt:sin_sse2_precise.obj
 0002:00008f60       SC_3                       10078f60     libucrt:sin_sse2_precise.obj
 0002:00008f70       SC_4                       10078f70     libucrt:sin_sse2_precise.obj
 0002:00008f80       PI32INV                    10078f80     libucrt:sin_sse2_precise.obj
 0002:00008f88       SHIFTER                    10078f88     libucrt:sin_sse2_precise.obj
 0002:00008f90       P_2                        10078f90     libucrt:sin_sse2_precise.obj
 0002:00008fa0       P_1                        10078fa0     libucrt:sin_sse2_precise.obj
 0002:00008fa8       P_3                        10078fa8     libucrt:sin_sse2_precise.obj
 0002:00008fb0       TWO_POW_55                 10078fb0     libucrt:sin_sse2_precise.obj
 0002:00008fb8       TWO_POW_M55                10078fb8     libucrt:sin_sse2_precise.obj
 0002:00008fc0       ALL_ONES                   10078fc0     libucrt:sin_sse2_precise.obj
 0002:00008fc8       NEG_ZERO                   10078fc8     libucrt:sin_sse2_precise.obj
 0002:00008fd0       ONE                        10078fd0     libucrt:sin_sse2_precise.obj
 0002:00008fe0       _One                       10078fe0     libucrt:floor_pentium4.obj
 0002:00008ff0       _Bns                       10078ff0     libucrt:floor_pentium4.obj
 0002:00009000       _NegOne                    10079000     libucrt:floor_pentium4.obj
 0002:00009010       _NegZero                   10079010     libucrt:floor_pentium4.obj
 0002:00009020       _S                         10079020     libucrt:floor_pentium4.obj
 0002:000090a0       _One                       100790a0     libucrt:ceil_pentium4.obj
 0002:000090b0       _Bns                       100790b0     libucrt:ceil_pentium4.obj
 0002:000090c0       _Zero                      100790c0     libucrt:ceil_pentium4.obj
 0002:000090d0       _S                         100790d0     libucrt:ceil_pentium4.obj
 0002:000090e0       _NegZero                   100790e0     libucrt:ceil_pentium4.obj
 0002:000090f0       Shifter                    100790f0     libucrt:asin_sse2_precise.obj
 0002:00009100       PI_BY_2                    10079100     libucrt:asin_sse2_precise.obj
 0002:00009110       SIGNMASK                   10079110     libucrt:asin_sse2_precise.obj
 0002:00009120       HALFMASK                   10079120     libucrt:asin_sse2_precise.obj
 0002:00009130       HALFMASK2                  10079130     libucrt:asin_sse2_precise.obj
 0002:00009138       cv                         10079138     libucrt:asin_sse2_precise.obj
 0002:00009150       cv2                        10079150     libucrt:asin_sse2_precise.obj
 0002:00009190       ABSVALMASK                 10079190     libucrt:asin_sse2_precise.obj
 0002:00009198       TMASK                      10079198     libucrt:asin_sse2_precise.obj
 0002:000091a0       ONEMASK                    100791a0     libucrt:asin_sse2_precise.obj
 0002:000091a8       EMIN                       100791a8     libucrt:asin_sse2_precise.obj
 0002:000091b0       MAX_ARG                    100791b0     libucrt:asin_sse2_precise.obj
 0002:000091b8       MIN_ARG                    100791b8     libucrt:asin_sse2_precise.obj
 0002:000091c0       INF                        100791c0     libucrt:asin_sse2_precise.obj
 0002:000091c8       ZERO                       100791c8     libucrt:asin_sse2_precise.obj
 0002:000091d0       Shifter                    100791d0     libucrt:pow_sse2_precise.obj
 0002:000091e0       SIGMASK                    100791e0     libucrt:pow_sse2_precise.obj
 0002:000091f0       ONEMASK                    100791f0     libucrt:pow_sse2_precise.obj
 0002:00009200       ABSVALMASK                 10079200     libucrt:pow_sse2_precise.obj
 0002:00009210       cev                        10079210     libucrt:pow_sse2_precise.obj
 0002:00009238       HALFSIG                    10079238     libucrt:pow_sse2_precise.obj
 0002:00009240       LHN                        10079240     libucrt:pow_sse2_precise.obj
 0002:00009248       sNaN                       10079248     libucrt:pow_sse2_precise.obj
 0002:00009250       INF                        10079250     libucrt:pow_sse2_precise.obj
 0002:00009258       NEG_INF                    10079258     libucrt:pow_sse2_precise.obj
 0002:00009260       NEG_ZERO                   10079260     libucrt:pow_sse2_precise.obj
 0002:00009268       NEG_BIG                    10079268     libucrt:pow_sse2_precise.obj
 0002:00009270       POS_BIG                    10079270     libucrt:pow_sse2_precise.obj
 0002:00009278       EMIN                       10079278     libucrt:pow_sse2_precise.obj
 0002:00009280       QIND                       10079280     libucrt:pow_sse2_precise.obj
 0002:00009290       ?errtable@@3QBUerrentry@?A0x31fdb9ec@@B 10079290     libucrt:errno.obj
 0002:00009e28       ?large_power_indices@?1??multiply_by_power_of_ten@__crt_strtox@@YA_NAAUbig_integer@2@I@Z@4QBUunpack_index@?1??12@YA_N0I@Z@B 10079e28     libucrt:atof.obj
 0002:0000a080       ?mask@?P@??_fd_int@@9@4QBGB 1007a080     libucrt:_test.obj
 0002:0000a0a0       ?sub@?P@??_fd_int@@9@4QBIB 1007a0a0     libucrt:_test.obj
 0002:0000a8b0       POW_name                   1007a8b0     libucrt:pow_impl.obj
 0002:0000a9b8       ___acrt_initializers       1007a9b8     libucrt:initialization.obj
 0002:0000aa40       _NAME_                     1007aa40     libucrt:cos_impl.obj
 0002:0000b250       _NAME_                     1007b250     libucrt:sin_impl.obj
 0002:0000b2f0       DblMax                     1007b2f0     libucrt:87cdisp.obj
 0002:0000b2f8       DblMin                     1007b2f8     libucrt:87cdisp.obj
 0002:0000b300       IeeeAdjO                   1007b300     libucrt:87cdisp.obj
 0002:0000b308       IeeeAdjU                   1007b308     libucrt:87cdisp.obj
 0002:0000b310       _infinity                  1007b310     libucrt:87cdisp.obj
 0002:0000b318       _zero                      1007b318     libucrt:87cdisp.obj
 0002:0000b320       _NAME_                     1007b320     libucrt:asin_impl.obj
 0002:000102b0       ?strings@?1??fp_format_nan_or_infinity@@YAHW4__acrt_fp_class@@_NPADI1@Z@4QAY03QBDA 100802b0     libucrt:cvt.obj
 0002:00010338       __first_127char            10080338     libucrt:wsetlocale.obj
 0002:00010960       ?module_names@?A0x391cf84c@@3QBQB_WB 10080960     libucrt:winapi_thunks.obj
 0002:00010dc8       ?candidate_modules@?1??try_get_AreFileApisANSI@@YAP6GHXZXZ@4QBW4module_id@?A0x391cf84c@@B 10080dc8     libucrt:winapi_thunks.obj
 0002:00010ddc       ?candidate_modules@?1??try_get_CompareStringEx@@YAP6GHPB_WK0H0HPAU_nlsversioninfo@@PAXJ@ZXZ@4QBW4module_id@?A0x391cf84c@@B 10080ddc     libucrt:winapi_thunks.obj
 0002:00010de4       ?candidate_modules@?1??try_get_EnumSystemLocalesEx@@YAP6GHP6GHPA_WKJ@ZKJPAX@ZXZ@4QBW4module_id@?A0x391cf84c@@B 10080de4     libucrt:winapi_thunks.obj
 0002:00010e00       ?candidate_modules@?1??try_get_FlsAlloc@@YAP6GKP6GXPAX@Z@ZXZ@4QBW4module_id@?A0x391cf84c@@B 10080e00     libucrt:winapi_thunks.obj
 0002:00010e08       ?candidate_modules@?1??try_get_FlsFree@@YAP6GHK@ZXZ@4QBW4module_id@?A0x391cf84c@@B 10080e08     libucrt:winapi_thunks.obj
 0002:00010e10       ?candidate_modules@?1??try_get_FlsGetValue@@YAP6GPAXK@ZXZ@4QBW4module_id@?A0x391cf84c@@B 10080e10     libucrt:winapi_thunks.obj
 0002:00010e18       ?candidate_modules@?1??try_get_FlsSetValue@@YAP6GHKPAX@ZXZ@4QBW4module_id@?A0x391cf84c@@B 10080e18     libucrt:winapi_thunks.obj
 0002:00010e20       ?candidate_modules@?1??try_get_GetDateFormatEx@@YAP6GHPB_WKPBU_SYSTEMTIME@@0PA_WH0@ZXZ@4QBW4module_id@?A0x391cf84c@@B 10080e20     libucrt:winapi_thunks.obj
 0002:00010e38       ?candidate_modules@?1??try_get_GetLocaleInfoEx@@YAP6GHPB_WKPA_WH@ZXZ@4QBW4module_id@?A0x391cf84c@@B 10080e38     libucrt:winapi_thunks.obj
 0002:00010e40       ?candidate_modules@?1??try_get_GetTimeFormatEx@@YAP6GHPB_WKPBU_SYSTEMTIME@@0PA_WH@ZXZ@4QBW4module_id@?A0x391cf84c@@B 10080e40     libucrt:winapi_thunks.obj
 0002:00010e58       ?candidate_modules@?1??try_get_GetUserDefaultLocaleName@@YAP6GHPA_WH@ZXZ@4QBW4module_id@?A0x391cf84c@@B 10080e58     libucrt:winapi_thunks.obj
 0002:00010e7c       ?candidate_modules@?1??try_get_InitializeCriticalSectionEx@@YAP6GHPAU_RTL_CRITICAL_SECTION@@KK@ZXZ@4QBW4module_id@?A0x391cf84c@@B 10080e7c     libucrt:winapi_thunks.obj
 0002:00010e84       ?candidate_modules@?1??try_get_IsValidLocaleName@@YAP6GHPB_W@ZXZ@4QBW4module_id@?A0x391cf84c@@B 10080e84     libucrt:winapi_thunks.obj
 0002:00010ea0       ?candidate_modules@?1??try_get_LCMapStringEx@@YAP6GHPB_WK0HPA_WHPAU_nlsversioninfo@@PAXJ@ZXZ@4QBW4module_id@?A0x391cf84c@@B 10080ea0     libucrt:winapi_thunks.obj
 0002:00010ea8       ?candidate_modules@?1??try_get_LCIDToLocaleName@@YAP6GHKPA_WHK@ZXZ@4QBW4module_id@?A0x391cf84c@@B 10080ea8     libucrt:winapi_thunks.obj
 0002:00010ec4       ?candidate_modules@?1??try_get_LocaleNameToLCID@@YAP6GKPB_WK@ZXZ@4QBW4module_id@?A0x391cf84c@@B 10080ec4     libucrt:winapi_thunks.obj
 0002:00010ee0       ?candidate_modules@?1??try_get_AppPolicyGetProcessTerminationMethod@@YAP6GJPAXPAW4AppPolicyProcessTerminationMethod@@@ZXZ@4QBW4module_id@?A0x391cf84c@@B 10080ee0     libucrt:winapi_thunks.obj
 0002:00010f0c       ?candidate_modules@?1??try_get_SystemFunction036@@YAP6GEPAXK@ZXZ@4QBW4module_id@?A0x391cf84c@@B 10080f0c     libucrt:winapi_thunks.obj
 0002:00010f4e       One                        10080f4e     libucrt:87disp.obj
 0002:00010f56       Three                      10080f56     libucrt:87disp.obj
 0002:00010f5e       XAMtoTagTab                10080f5e     libucrt:87disp.obj
 0002:00010f90       ?_names@?1??_get_fname@@9@9 10080f90     libucrt:fpexcept.obj
 0002:00011130       _over                      10081130     libucrt:fpctrl.obj
 0002:0001113c       _under                     1008113c     libucrt:fpctrl.obj
 0002:00011150       Shifter                    10081150     libucrt:pow_pentium4.obj
 0002:00011160       SIGMASK                    10081160     libucrt:pow_pentium4.obj
 0002:00011170       ONEMASK                    10081170     libucrt:pow_pentium4.obj
 0002:00011180       ABSVALMASK                 10081180     libucrt:pow_pentium4.obj
 0002:00011190       cev                        10081190     libucrt:pow_pentium4.obj
 0002:000111b8       HALFSIG                    100811b8     libucrt:pow_pentium4.obj
 0002:000111c0       LHN                        100811c0     libucrt:pow_pentium4.obj
 0002:000111c8       sNaN                       100811c8     libucrt:pow_pentium4.obj
 0002:000111d0       INF                        100811d0     libucrt:pow_pentium4.obj
 0002:000111d8       NEG_INF                    100811d8     libucrt:pow_pentium4.obj
 0002:000111e0       NEG_ZERO                   100811e0     libucrt:pow_pentium4.obj
 0002:000111e8       NEG_BIG                    100811e8     libucrt:pow_pentium4.obj
 0002:000111f0       POS_BIG                    100811f0     libucrt:pow_pentium4.obj
 0002:000111f8       EMIN                       100811f8     libucrt:pow_pentium4.obj
 0002:00011200       QIND                       10081200     libucrt:pow_pentium4.obj
 0002:0001122e       _log2max                   1008122e     libucrt:87tran.obj
 0002:00011238       _smallarg                  10081238     libucrt:87tran.obj
 0002:00011242       _half                      10081242     libucrt:87tran.obj
 0002:00011270       One                        10081270     libucrt:common.obj
 0002:00011284       DblMax                     10081284     libucrt:common.obj
 0002:0001128c       DblMin                     1008128c     libucrt:common.obj
 0002:00011294       IeeeAdjO                   10081294     libucrt:common.obj
 0002:0001129c       IeeeAdjU                   1008129c     libucrt:common.obj
 0002:000112a4       _infinity                  100812a4     libucrt:common.obj
 0002:000112ac       _zero                      100812ac     libucrt:common.obj
 0002:000112b4       ?_mb_locale_names@@3QBQB_WB 100812b4     libucrt:mbctype.obj
 0002:000112d0       SC_1                       100812d0     libucrt:cos_pentium4.obj
 0002:000112e0       SC_2                       100812e0     libucrt:cos_pentium4.obj
 0002:000112f0       SC_3                       100812f0     libucrt:cos_pentium4.obj
 0002:00011300       SC_4                       10081300     libucrt:cos_pentium4.obj
 0002:00011310       PI32INV                    10081310     libucrt:cos_pentium4.obj
 0002:00011318       SHIFTER                    10081318     libucrt:cos_pentium4.obj
 0002:00011320       P_2                        10081320     libucrt:cos_pentium4.obj
 0002:00011330       P_1                        10081330     libucrt:cos_pentium4.obj
 0002:00011338       P_3                        10081338     libucrt:cos_pentium4.obj
 0002:00011340       TWO_POW_55                 10081340     libucrt:cos_pentium4.obj
 0002:00011348       TWO_POW_M55                10081348     libucrt:cos_pentium4.obj
 0002:00011350       ALL_ONES                   10081350     libucrt:cos_pentium4.obj
 0002:00011358       NEG_ZERO                   10081358     libucrt:cos_pentium4.obj
 0002:00011360       ONE                        10081360     libucrt:cos_pentium4.obj
 0002:00011370       SIGN_MASK                  10081370     libucrt:cos_pentium4.obj
 0002:00011380       SC_1                       10081380     libucrt:sin_pentium4.obj
 0002:00011390       SC_2                       10081390     libucrt:sin_pentium4.obj
 0002:000113a0       SC_3                       100813a0     libucrt:sin_pentium4.obj
 0002:000113b0       SC_4                       100813b0     libucrt:sin_pentium4.obj
 0002:000113c0       PI32INV                    100813c0     libucrt:sin_pentium4.obj
 0002:000113c8       SHIFTER                    100813c8     libucrt:sin_pentium4.obj
 0002:000113d0       P_2                        100813d0     libucrt:sin_pentium4.obj
 0002:000113e0       P_1                        100813e0     libucrt:sin_pentium4.obj
 0002:000113e8       P_3                        100813e8     libucrt:sin_pentium4.obj
 0002:000113f0       TWO_POW_55                 100813f0     libucrt:sin_pentium4.obj
 0002:000113f8       TWO_POW_M55                100813f8     libucrt:sin_pentium4.obj
 0002:00011400       ALL_ONES                   10081400     libucrt:sin_pentium4.obj
 0002:00011408       NEG_ZERO                   10081408     libucrt:sin_pentium4.obj
 0002:00011410       ONE                        10081410     libucrt:sin_pentium4.obj
 0002:00011420       _NAME_                     10081420     libucrt:sqrt_impl.obj
 0002:00011430       Shifter                    10081430     libucrt:asin_pentium4.obj
 0002:00011440       PI_BY_2                    10081440     libucrt:asin_pentium4.obj
 0002:00011450       SIGNMASK                   10081450     libucrt:asin_pentium4.obj
 0002:00011460       HALFMASK                   10081460     libucrt:asin_pentium4.obj
 0002:00011470       HALFMASK2                  10081470     libucrt:asin_pentium4.obj
 0002:00011478       cv                         10081478     libucrt:asin_pentium4.obj
 0002:00011490       cv2                        10081490     libucrt:asin_pentium4.obj
 0002:000114d0       ABSVALMASK                 100814d0     libucrt:asin_pentium4.obj
 0002:000114d8       TMASK                      100814d8     libucrt:asin_pentium4.obj
 0002:000114e0       ONEMASK                    100814e0     libucrt:asin_pentium4.obj
 0002:000114e8       EMIN                       100814e8     libucrt:asin_pentium4.obj
 0002:000114f0       MAX_ARG                    100814f0     libucrt:asin_pentium4.obj
 0002:000114f8       MIN_ARG                    100814f8     libucrt:asin_pentium4.obj
 0002:00011500       INF                        10081500     libucrt:asin_pentium4.obj
 0002:00011508       ZERO                       10081508     libucrt:asin_pentium4.obj
 0002:00011510       ?large_power_indices@?1??multiply_by_power_of_ten@__crt_strtox@@YA_NAAUbig_integer@2@I@Z@4QBUunpack_index@?1??12@YA_N0I@Z@B 10081510     libucrt:cfout.obj
 0002:00012390       ?LcidToLocaleNameTable@?A0x881e4c05@@3QBULcidToLocaleName@1@B 10082390     libucrt:lcidtoname_downlevel.obj
 0002:00012ab0       ?LocaleNameToIndexTable@?A0x881e4c05@@3QBULocaleNameIndex@1@B 10082ab0     libucrt:lcidtoname_downlevel.obj
 0002:00013240       LOG_name                   10083240     libucrt:log10_impl.obj
 0002:00013260       emask                      10083260     libucrt:log10_pentium4.obj
 0002:00013270       CC                         10083270     libucrt:log10_pentium4.obj
 0002:00013280       Magic                      10083280     libucrt:log10_pentium4.obj
 0002:00013290       hi_mask                    10083290     libucrt:log10_pentium4.obj
 0002:000132a0       LOG10_2                    100832a0     libucrt:log10_pentium4.obj
 0002:000132b0       place_L                    100832b0     libucrt:log10_pentium4.obj
 0002:000132d0       One                        100832d0     libucrt:log10_pentium4.obj
 0002:000132e0       Zero                       100832e0     libucrt:log10_pentium4.obj
 0002:000132f0       Two52                      100832f0     libucrt:log10_pentium4.obj
 0002:00013300       Infs                       10083300     libucrt:log10_pentium4.obj
 0002:00013310       NaN                        10083310     libucrt:log10_pentium4.obj
 0002:00013320       coeff                      10083320     libucrt:log10_pentium4.obj
 0002:00015548       __unwindtable$?Do@Aimbot@RAGEBOT@FEATURES@@QAEXPAVCUserCmd@SDK@@@Z 10085548     Aimbot.obj
 0002:00015550       __ehfuncinfo$?Do@Aimbot@RAGEBOT@FEATURES@@QAEXPAVCUserCmd@SDK@@@Z 10085550     Aimbot.obj
 0002:00015574       __ehfuncinfo$?DoHitscan@Aimbot@RAGEBOT@FEATURES@@AAE_NPAVCBaseEntity@SDK@@ABUBacktracking_Record@23@AAVVector@@AAH@Z 10085574     Aimbot.obj
 0002:00015598       __unwindtable$?DoHitscan@Aimbot@RAGEBOT@FEATURES@@AAE_NPAVCBaseEntity@SDK@@ABUBacktracking_Record@23@AAVVector@@AAH@Z 10085598     Aimbot.obj
 0002:000155c0       __unwindtable$??R<lambda_115b1d6c016fdc4669f69dce8f4024be>@@QBE?AV?$vector@U?$pair@VVector@@H@std@@V?$allocator@U?$pair@VVector@@H@std@@@2@@std@@_N@Z 100855c0     Aimbot.obj
 0002:000155c8       __ehfuncinfo$??R<lambda_115b1d6c016fdc4669f69dce8f4024be>@@QBE?AV?$vector@U?$pair@VVector@@H@std@@V?$allocator@U?$pair@VVector@@H@std@@@2@@std@@_N@Z 100855c8     Aimbot.obj
 0002:000155ec       __unwindtable$?RandomNumber@MATH@@YAMMM@Z 100855ec     Antiaim.obj
 0002:000155f4       __ehfuncinfo$?RandomNumber@MATH@@YAMMM@Z 100855f4     Antiaim.obj
 0002:00015618       __unwindtable$??R<lambda_658b4d7811d43194f49751d86a719d93>@@QBE_NAAM0@Z 10085618     Antiaim.obj
 0002:00015628       __ehfuncinfo$??R<lambda_658b4d7811d43194f49751d86a719d93>@@QBE_NAAM0@Z 10085628     Antiaim.obj
 0002:0001564c       __unwindtable$?CalculateDamage@Autowall@RAGEBOT@FEATURES@@QAE?AUAutowall_Return_Info@123@VVector@@0PAVCBaseEntity@SDK@@1H@Z 1008564c     Autowall.obj
 0002:00015654       __ehfuncinfo$?CalculateDamage@Autowall@RAGEBOT@FEATURES@@QAE?AUAutowall_Return_Info@123@VVector@@0PAVCBaseEntity@SDK@@1H@Z 10085654     Autowall.obj
 0002:00015678       __unwindtable$?CanPenetrate@Autowall@RAGEBOT@FEATURES@@AAE_NPAVCBaseEntity@SDK@@AAUAutowall_Info@123@PAUWeapon_Info@5@@Z 10085678     Autowall.obj
 0002:00015688       __ehfuncinfo$?CanPenetrate@Autowall@RAGEBOT@FEATURES@@AAE_NPAVCBaseEntity@SDK@@AAUAutowall_Info@123@PAUWeapon_Info@5@@Z 10085688     Autowall.obj
 0002:000156e4       __unwindtable$?ApplyRestore@CBacktracking@RAGEBOT@FEATURES@@QAEXPAVCBaseEntity@SDK@@M@Z 100856e4     Backtracking.obj
 0002:000156ec       __ehfuncinfo$?ApplyRestore@CBacktracking@RAGEBOT@FEATURES@@QAEXPAVCBaseEntity@SDK@@M@Z 100856ec     Backtracking.obj
 0002:00015710       __unwindtable$?GetPriorityRecords@CBacktracking@RAGEBOT@FEATURES@@QAE?AV?$vector@UBacktracking_Record@RAGEBOT@FEATURES@@V?$allocator@UBacktracking_Record@RAGEBOT@FEATURES@@@std@@@std@@PAVCBaseEntity@SDK@@@Z 10085710     Backtracking.obj
 0002:00015720       __ehfuncinfo$?GetPriorityRecords@CBacktracking@RAGEBOT@FEATURES@@QAE?AV?$vector@UBacktracking_Record@RAGEBOT@FEATURES@@V?$allocator@UBacktracking_Record@RAGEBOT@FEATURES@@@std@@@std@@PAVCBaseEntity@SDK@@@Z 10085720     Backtracking.obj
 0002:00015744       __unwindtable$?GetValidRecords@CBacktracking@RAGEBOT@FEATURES@@QAE?AV?$vector@UBacktracking_Record@RAGEBOT@FEATURES@@V?$allocator@UBacktracking_Record@RAGEBOT@FEATURES@@@std@@@std@@PAVCBaseEntity@SDK@@@Z 10085744     Backtracking.obj
 0002:0001574c       __ehfuncinfo$?GetValidRecords@CBacktracking@RAGEBOT@FEATURES@@QAE?AV?$vector@UBacktracking_Record@RAGEBOT@FEATURES@@V?$allocator@UBacktracking_Record@RAGEBOT@FEATURES@@@std@@@std@@PAVCBaseEntity@SDK@@@Z 1008574c     Backtracking.obj
 0002:00015770       __unwindtable$?GetLerpTicks@CBacktracking@RAGEBOT@FEATURES@@SAHXZ 10085770     Backtracking.obj
 0002:00015788       __ehfuncinfo$?GetLerpTicks@CBacktracking@RAGEBOT@FEATURES@@SAHXZ 10085788     Backtracking.obj
 0002:000157ac       __unwindtable$??__Ebacktracking@RAGEBOT@FEATURES@@YAXXZ 100857ac     Backtracking.obj
 0002:000157b4       __ehfuncinfo$??__Ebacktracking@RAGEBOT@FEATURES@@YAXXZ 100857b4     Backtracking.obj
 0002:000157d8       __unwindtable$??__Fitem_purchase_listener@MISC@FEATURES@@YAXXZ 100857d8     EventListeners.obj
 0002:000157d8       __unwindtable$??__Fplayer_hurt_listener@MISC@FEATURES@@YAXXZ 100857d8     EventListeners.obj
 0002:000157d8       __unwindtable$??__Fbullet_impact_listener@MISC@FEATURES@@YAXXZ 100857d8     EventListeners.obj
 0002:000157d8       __unwindtable$?_Init@ios_base@std@@IAEXXZ 100857d8     libcpmt:cout.obj
 0002:000157d8       __unwindtable$??0?$basic_streambuf@DU?$char_traits@D@std@@@std@@IAE@XZ 100857d8     libcpmt:cout.obj
 0002:000157d8       __unwindtable$??__Fbacktracking@RAGEBOT@FEATURES@@YAXXZ 100857d8     Backtracking.obj
 0002:000157d8       __unwindtable$??__Fweapon_fire_listener@MISC@FEATURES@@YAXXZ 100857d8     EventListeners.obj
 0002:000157e0       __ehfuncinfo$??0?$basic_streambuf@DU?$char_traits@D@std@@@std@@IAE@XZ 100857e0     libcpmt:cout.obj
 0002:000157e0       __ehfuncinfo$??__Fbullet_impact_listener@MISC@FEATURES@@YAXXZ 100857e0     EventListeners.obj
 0002:000157e0       __ehfuncinfo$??__Fweapon_fire_listener@MISC@FEATURES@@YAXXZ 100857e0     EventListeners.obj
 0002:000157e0       __ehfuncinfo$?_Init@ios_base@std@@IAEXXZ 100857e0     libcpmt:cout.obj
 0002:000157e0       __ehfuncinfo$??__Fplayer_hurt_listener@MISC@FEATURES@@YAXXZ 100857e0     EventListeners.obj
 0002:000157e0       __ehfuncinfo$??__Fbacktracking@RAGEBOT@FEATURES@@YAXXZ 100857e0     Backtracking.obj
 0002:000157e0       __ehfuncinfo$??__Fitem_purchase_listener@MISC@FEATURES@@YAXXZ 100857e0     EventListeners.obj
 0002:00015804       __unwindtable$?DrawBoxInfo@CBoxESP@VISUALS@FEATURES@@AAEXPAVCBaseEntity@SDK@@VCColor@@PAVVector@@_N33@Z 10085804     BoxESP.obj
 0002:00015824       __ehfuncinfo$?DrawBoxInfo@CBoxESP@VISUALS@FEATURES@@AAEXPAVCBaseEntity@SDK@@VCColor@@PAVVector@@_N33@Z 10085824     BoxESP.obj
 0002:00015848       __unwindtable$?DrawHealthBar@CBoxESP@VISUALS@FEATURES@@AAEXPAVCBaseEntity@SDK@@PAVVector@@H@Z 10085848     BoxESP.obj
 0002:00015858       __ehfuncinfo$?DrawHealthBar@CBoxESP@VISUALS@FEATURES@@AAEXPAVCBaseEntity@SDK@@PAVVector@@H@Z 10085858     BoxESP.obj
 0002:0001587c       __catchsym$??$_Emplace_reallocate@AAY0N@$$CBDVCColor@@@?$vector@U?$pair@V?$basic_string@DU?$char_traits@D@std@@V?$allocator@D@2@@std@@VCColor@@@std@@V?$allocator@U?$pair@V?$basic_string@DU?$char_traits@D@std@@V?$allocator@D@2@@std@@VCColor@@@std@@@2@@std@@QAEPAU?$pair@V?$basic_string@DU?$char_traits@D@std@@V?$allocator@D@2@@std@@VCColor@@@1@QAU21@AAY0N@$$CBD$$QAVCColor@@@Z$3 1008587c     BoxESP.obj
 0002:0001588c       __unwindtable$??$_Emplace_reallocate@AAY0N@$$CBDVCColor@@@?$vector@U?$pair@V?$basic_string@DU?$char_traits@D@std@@V?$allocator@D@2@@std@@VCColor@@@std@@V?$allocator@U?$pair@V?$basic_string@DU?$char_traits@D@std@@V?$allocator@D@2@@std@@VCColor@@@std@@@2@@std@@QAEPAU?$pair@V?$basic_string@DU?$char_traits@D@std@@V?$allocator@D@2@@std@@VCColor@@@1@QAU21@AAY0N@$$CBD$$QAVCColor@@@Z 1008588c     BoxESP.obj
 0002:0001589c       __tryblocktable$??$_Emplace_reallocate@AAY0N@$$CBDVCColor@@@?$vector@U?$pair@V?$basic_string@DU?$char_traits@D@std@@V?$allocator@D@2@@std@@VCColor@@@std@@V?$allocator@U?$pair@V?$basic_string@DU?$char_traits@D@std@@V?$allocator@D@2@@std@@VCColor@@@std@@@2@@std@@QAEPAU?$pair@V?$basic_string@DU?$char_traits@D@std@@V?$allocator@D@2@@std@@VCColor@@@1@QAU21@AAY0N@$$CBD$$QAVCColor@@@Z 1008589c     BoxESP.obj
 0002:000158b0       __ehfuncinfo$??$_Emplace_reallocate@AAY0N@$$CBDVCColor@@@?$vector@U?$pair@V?$basic_string@DU?$char_traits@D@std@@V?$allocator@D@2@@std@@VCColor@@@std@@V?$allocator@U?$pair@V?$basic_string@DU?$char_traits@D@std@@V?$allocator@D@2@@std@@VCColor@@@std@@@2@@std@@QAEPAU?$pair@V?$basic_string@DU?$char_traits@D@std@@V?$allocator@D@2@@std@@VCColor@@@1@QAU21@AAY0N@$$CBD$$QAVCColor@@@Z 100858b0     BoxESP.obj
 0002:000158d4       __ehfuncinfo$?CreateMaterial@CChams@VISUALS@FEATURES@@QAEPAVIMaterial@SDK@@_N00@Z 100858d4     Chams.obj
 0002:000158f8       __unwindtable$?CreateMaterial@CChams@VISUALS@FEATURES@@QAEPAVIMaterial@SDK@@_N00@Z 100858f8     Chams.obj
 0002:00015958       __unwindtable$?DrawBacktrackPlayer@CChams@VISUALS@FEATURES@@AAEXPAVCBaseEntity@SDK@@@Z 10085958     Chams.obj
 0002:00015960       __ehfuncinfo$?DrawBacktrackPlayer@CChams@VISUALS@FEATURES@@AAEXPAVCBaseEntity@SDK@@@Z 10085960     Chams.obj
 0002:00015984       __unwindtable$?CreateF@RENDER@@YAIV?$basic_string@DU?$char_traits@D@std@@V?$allocator@D@2@@std@@HHHHH@Z 10085984     render.obj
 0002:00015984       __unwindtable$?PushBack@ColorLine@MISC@FEATURES@@QAEXV?$basic_string@DU?$char_traits@D@std@@V?$allocator@D@2@@std@@VCColor@@@Z 10085984     EventListeners.obj
 0002:0001598c       __ehfuncinfo$?CreateF@RENDER@@YAIV?$basic_string@DU?$char_traits@D@std@@V?$allocator@D@2@@std@@HHHHH@Z 1008598c     render.obj
 0002:0001598c       __ehfuncinfo$?PushBack@ColorLine@MISC@FEATURES@@QAEXV?$basic_string@DU?$char_traits@D@std@@V?$allocator@D@2@@std@@VCColor@@@Z 1008598c     EventListeners.obj
 0002:000159b0       __catchsym$??0?$vector@V?$basic_string@DU?$char_traits@D@std@@V?$allocator@D@2@@std@@V?$allocator@V?$basic_string@DU?$char_traits@D@std@@V?$allocator@D@2@@std@@@2@@std@@QAE@ABV01@@Z$3 100859b0     EventListeners.obj
 0002:000159c0       __tryblocktable$??0?$vector@V?$basic_string@DU?$char_traits@D@std@@V?$allocator@D@2@@std@@V?$allocator@V?$basic_string@DU?$char_traits@D@std@@V?$allocator@D@2@@std@@@2@@std@@QAE@ABV01@@Z 100859c0     EventListeners.obj
 0002:000159d4       __unwindtable$??0?$vector@V?$basic_string@DU?$char_traits@D@std@@V?$allocator@D@2@@std@@V?$allocator@V?$basic_string@DU?$char_traits@D@std@@V?$allocator@D@2@@std@@@2@@std@@QAE@ABV01@@Z 100859d4     EventListeners.obj
 0002:000159ec       __ehfuncinfo$??0?$vector@V?$basic_string@DU?$char_traits@D@std@@V?$allocator@D@2@@std@@V?$allocator@V?$basic_string@DU?$char_traits@D@std@@V?$allocator@D@2@@std@@@2@@std@@QAE@ABV01@@Z 100859ec     EventListeners.obj
 0002:00015a10       __unwindtable$??0Log@InGameLogger@MISC@FEATURES@@QAE@XZ 10085a10     EventListeners.obj
 0002:00015a18       __ehfuncinfo$??0Log@InGameLogger@MISC@FEATURES@@QAE@XZ 10085a18     EventListeners.obj
 0002:00015a3c       __unwindtable$??0Log@InGameLogger@MISC@FEATURES@@QAE@ABU0123@@Z 10085a3c     EventListeners.obj
 0002:00015a44       __ehfuncinfo$??0Log@InGameLogger@MISC@FEATURES@@QAE@ABU0123@@Z 10085a44     EventListeners.obj
 0002:00015a68       __unwindtable$?AddLog@InGameLogger@MISC@FEATURES@@QAEXULog@123@@Z 10085a68     EventListeners.obj
 0002:00015a70       __ehfuncinfo$?AddLog@InGameLogger@MISC@FEATURES@@QAEXULog@123@@Z 10085a70     EventListeners.obj
 0002:00015a94       __unwindtable$?InitializeEventListeners@MISC@FEATURES@@YAXXZ 10085a94     EventListeners.obj
 0002:00015ab4       __ehfuncinfo$?InitializeEventListeners@MISC@FEATURES@@YAXXZ 10085ab4     EventListeners.obj
 0002:00015ad8       __unwindtable$?FireGameEvent@ItemPurchaseListener@MISC@FEATURES@@UAEXPAVIGameEvent@SDK@@@Z 10085ad8     EventListeners.obj
 0002:00015ae0       __ehfuncinfo$?FireGameEvent@ItemPurchaseListener@MISC@FEATURES@@UAEXPAVIGameEvent@SDK@@@Z 10085ae0     EventListeners.obj
 0002:00015b04       __unwindtable$??_G?$basic_istream@DU?$char_traits@D@std@@@std@@UAEPAXI@Z 10085b04     Misc.obj
 0002:00015b04       __unwindtable$??_Gios_base@std@@UAEPAXI@Z 10085b04     Misc.obj
 0002:00015b04       __unwindtable$??_G?$basic_ios@DU?$char_traits@D@std@@@std@@UAEPAXI@Z 10085b04     Misc.obj
 0002:00015b04       __unwindtable$??1?$basic_stringbuf@DU?$char_traits@D@std@@V?$allocator@D@2@@std@@UAE@XZ 10085b04     PPGUI_Commands.obj
 0002:00015b04       __unwindtable$??_GWeaponFireListener@MISC@FEATURES@@UAEPAXI@Z 10085b04     EventListeners.obj
 0002:00015b04       __unwindtable$??_D?$basic_stringstream@DU?$char_traits@D@std@@V?$allocator@D@2@@std@@QAEXXZ 10085b04     PPGUI_Commands.obj
 0002:00015b04       __unwindtable$??_GBulletImpactListener@MISC@FEATURES@@UAEPAXI@Z 10085b04     EventListeners.obj
 0002:00015b04       __unwindtable$??1sentry@?$basic_ostream@DU?$char_traits@D@std@@@std@@QAE@XZ 10085b04     Misc.obj
 0002:00015b04       __unwindtable$??_GPlayerHurtListener@MISC@FEATURES@@UAEPAXI@Z 10085b04     EventListeners.obj
 0002:00015b04       __unwindtable$??1sentry@?$basic_istream@DU?$char_traits@D@std@@@std@@QAE@XZ 10085b04     Misc.obj
 0002:00015b04       __unwindtable$??_D?$basic_fstream@DU?$char_traits@D@std@@@std@@QAEXXZ 10085b04     Misc.obj
 0002:00015b04       __unwindtable$??1?$basic_filebuf@DU?$char_traits@D@std@@@std@@UAE@XZ 10085b04     Misc.obj
 0002:00015b04       __unwindtable$??_G?$basic_streambuf@DU?$char_traits@D@std@@@std@@UAEPAXI@Z 10085b04     Misc.obj
 0002:00015b04       __unwindtable$??_G?$basic_iostream@DU?$char_traits@D@std@@@std@@UAEPAXI@Z 10085b04     Misc.obj
 0002:00015b04       __unwindtable$??_G?$basic_ostream@DU?$char_traits@D@std@@@std@@UAEPAXI@Z 10085b04     Misc.obj
 0002:00015b04       __unwindtable$??1?$basic_ios@DU?$char_traits@D@std@@@std@@UAE@XZ 10085b04     Misc.obj
 0002:00015b04       __unwindtable$??_D?$basic_ostream@DU?$char_traits@D@std@@@std@@QAEXXZ 10085b04     libcpmt:cout.obj
 0002:00015b04       __unwindtable$??_GItemPurchaseListener@MISC@FEATURES@@UAEPAXI@Z 10085b04     EventListeners.obj
 0002:00015b0c       __ehfuncinfo$??1sentry@?$basic_istream@DU?$char_traits@D@std@@@std@@QAE@XZ 10085b0c     Misc.obj
 0002:00015b0c       __ehfuncinfo$??_GItemPurchaseListener@MISC@FEATURES@@UAEPAXI@Z 10085b0c     EventListeners.obj
 0002:00015b0c       __ehfuncinfo$??_G?$basic_ios@DU?$char_traits@D@std@@@std@@UAEPAXI@Z 10085b0c     Misc.obj
 0002:00015b0c       __ehfuncinfo$??_GPlayerHurtListener@MISC@FEATURES@@UAEPAXI@Z 10085b0c     EventListeners.obj
 0002:00015b0c       __ehfuncinfo$??_G?$basic_ostream@DU?$char_traits@D@std@@@std@@UAEPAXI@Z 10085b0c     Misc.obj
 0002:00015b0c       __ehfuncinfo$??_GWeaponFireListener@MISC@FEATURES@@UAEPAXI@Z 10085b0c     EventListeners.obj
 0002:00015b0c       __ehfuncinfo$??_G?$basic_iostream@DU?$char_traits@D@std@@@std@@UAEPAXI@Z 10085b0c     Misc.obj
 0002:00015b0c       __ehfuncinfo$??_GBulletImpactListener@MISC@FEATURES@@UAEPAXI@Z 10085b0c     EventListeners.obj
 0002:00015b0c       __ehfuncinfo$??_G?$basic_streambuf@DU?$char_traits@D@std@@@std@@UAEPAXI@Z 10085b0c     Misc.obj
 0002:00015b0c       __ehfuncinfo$??_Gios_base@std@@UAEPAXI@Z 10085b0c     Misc.obj
 0002:00015b0c       __ehfuncinfo$??1?$basic_filebuf@DU?$char_traits@D@std@@@std@@UAE@XZ 10085b0c     Misc.obj
 0002:00015b0c       __ehfuncinfo$??1?$basic_stringbuf@DU?$char_traits@D@std@@V?$allocator@D@2@@std@@UAE@XZ 10085b0c     PPGUI_Commands.obj
 0002:00015b0c       __ehfuncinfo$??_D?$basic_fstream@DU?$char_traits@D@std@@@std@@QAEXXZ 10085b0c     Misc.obj
 0002:00015b0c       __ehfuncinfo$??_D?$basic_ostream@DU?$char_traits@D@std@@@std@@QAEXXZ 10085b0c     libcpmt:cout.obj
 0002:00015b0c       __ehfuncinfo$??_D?$basic_stringstream@DU?$char_traits@D@std@@V?$allocator@D@2@@std@@QAEXXZ 10085b0c     PPGUI_Commands.obj
 0002:00015b0c       __ehfuncinfo$??1?$basic_ios@DU?$char_traits@D@std@@@std@@UAE@XZ 10085b0c     Misc.obj
 0002:00015b0c       __ehfuncinfo$??_G?$basic_istream@DU?$char_traits@D@std@@@std@@UAEPAXI@Z 10085b0c     Misc.obj
 0002:00015b0c       __ehfuncinfo$??1sentry@?$basic_ostream@DU?$char_traits@D@std@@@std@@QAE@XZ 10085b0c     Misc.obj
 0002:00015b30       __unwindtable$?FireGameEvent@PlayerHurtListener@MISC@FEATURES@@UAEXPAVIGameEvent@SDK@@@Z 10085b30     EventListeners.obj
 0002:00015b40       __ehfuncinfo$?FireGameEvent@PlayerHurtListener@MISC@FEATURES@@UAEXPAVIGameEvent@SDK@@@Z 10085b40     EventListeners.obj
 0002:00015b64       __unwindtable$??$emplace@ABULog@InGameLogger@MISC@FEATURES@@@?$vector@ULog@InGameLogger@MISC@FEATURES@@V?$allocator@ULog@InGameLogger@MISC@FEATURES@@@std@@@std@@QAE?AV?$_Vector_iterator@V?$_Vector_val@U?$_Simple_types@ULog@InGameLogger@MISC@FEATURES@@@std@@@std@@@1@V?$_Vector_const_iterator@V?$_Vector_val@U?$_Simple_types@ULog@InGameLogger@MISC@FEATURES@@@std@@@std@@@1@ABULog@InGameLogger@MISC@FEATURES@@@Z 10085b64     EventListeners.obj
 0002:00015b74       __ehfuncinfo$??$emplace@ABULog@InGameLogger@MISC@FEATURES@@@?$vector@ULog@InGameLogger@MISC@FEATURES@@V?$allocator@ULog@InGameLogger@MISC@FEATURES@@@std@@@std@@QAE?AV?$_Vector_iterator@V?$_Vector_val@U?$_Simple_types@ULog@InGameLogger@MISC@FEATURES@@@std@@@std@@@1@V?$_Vector_const_iterator@V?$_Vector_val@U?$_Simple_types@ULog@InGameLogger@MISC@FEATURES@@@std@@@std@@@1@ABULog@InGameLogger@MISC@FEATURES@@@Z 10085b74     EventListeners.obj
 0002:00015b98       __catchsym$??$_Emplace_reallocate@ABV?$basic_string@DU?$char_traits@D@std@@V?$allocator@D@2@@std@@@?$vector@V?$basic_string@DU?$char_traits@D@std@@V?$allocator@D@2@@std@@V?$allocator@V?$basic_string@DU?$char_traits@D@std@@V?$allocator@D@2@@std@@@2@@std@@QAEPAV?$basic_string@DU?$char_traits@D@std@@V?$allocator@D@2@@1@QAV21@ABV21@@Z$2 10085b98     EventListeners.obj
 0002:00015ba8       __unwindtable$??$_Emplace_reallocate@ABV?$basic_string@DU?$char_traits@D@std@@V?$allocator@D@2@@std@@@?$vector@V?$basic_string@DU?$char_traits@D@std@@V?$allocator@D@2@@std@@V?$allocator@V?$basic_string@DU?$char_traits@D@std@@V?$allocator@D@2@@std@@@2@@std@@QAEPAV?$basic_string@DU?$char_traits@D@std@@V?$allocator@D@2@@1@QAV21@ABV21@@Z 10085ba8     EventListeners.obj
 0002:00015bb8       __tryblocktable$??$_Emplace_reallocate@ABV?$basic_string@DU?$char_traits@D@std@@V?$allocator@D@2@@std@@@?$vector@V?$basic_string@DU?$char_traits@D@std@@V?$allocator@D@2@@std@@V?$allocator@V?$basic_string@DU?$char_traits@D@std@@V?$allocator@D@2@@std@@@2@@std@@QAEPAV?$basic_string@DU?$char_traits@D@std@@V?$allocator@D@2@@1@QAV21@ABV21@@Z 10085bb8     EventListeners.obj
 0002:00015bcc       __ehfuncinfo$??$_Emplace_reallocate@ABV?$basic_string@DU?$char_traits@D@std@@V?$allocator@D@2@@std@@@?$vector@V?$basic_string@DU?$char_traits@D@std@@V?$allocator@D@2@@std@@V?$allocator@V?$basic_string@DU?$char_traits@D@std@@V?$allocator@D@2@@std@@@2@@std@@QAEPAV?$basic_string@DU?$char_traits@D@std@@V?$allocator@D@2@@1@QAV21@ABV21@@Z 10085bcc     EventListeners.obj
 0002:00015bf0       __catchsym$??$_Emplace_reallocate@ABULog@InGameLogger@MISC@FEATURES@@@?$vector@ULog@InGameLogger@MISC@FEATURES@@V?$allocator@ULog@InGameLogger@MISC@FEATURES@@@std@@@std@@QAEPAULog@InGameLogger@MISC@FEATURES@@QAU2345@ABU2345@@Z$7 10085bf0     EventListeners.obj
 0002:00015c00       __tryblocktable$??$_Emplace_reallocate@ABULog@InGameLogger@MISC@FEATURES@@@?$vector@ULog@InGameLogger@MISC@FEATURES@@V?$allocator@ULog@InGameLogger@MISC@FEATURES@@@std@@@std@@QAEPAULog@InGameLogger@MISC@FEATURES@@QAU2345@ABU2345@@Z 10085c00     EventListeners.obj
 0002:00015c14       __unwindtable$??$_Emplace_reallocate@ABULog@InGameLogger@MISC@FEATURES@@@?$vector@ULog@InGameLogger@MISC@FEATURES@@V?$allocator@ULog@InGameLogger@MISC@FEATURES@@@std@@@std@@QAEPAULog@InGameLogger@MISC@FEATURES@@QAU2345@ABU2345@@Z 10085c14     EventListeners.obj
 0002:00015c2c       __ehfuncinfo$??$_Emplace_reallocate@ABULog@InGameLogger@MISC@FEATURES@@@?$vector@ULog@InGameLogger@MISC@FEATURES@@V?$allocator@ULog@InGameLogger@MISC@FEATURES@@@std@@@std@@QAEPAULog@InGameLogger@MISC@FEATURES@@QAU2345@ABU2345@@Z 10085c2c     EventListeners.obj
 0002:00015c50       __unwindtable$?Do@InGameLogger@MISC@FEATURES@@QAEXXZ 10085c50     InGameLogger.obj
 0002:00015c60       __ehfuncinfo$?Do@InGameLogger@MISC@FEATURES@@QAEXXZ 10085c60     InGameLogger.obj
 0002:00015c84       __ehfuncinfo$??0_Locinfo@std@@QAE@PBD@Z 10085c84     Misc.obj
 0002:00015ca8       __unwindtable$??0_Locinfo@std@@QAE@PBD@Z 10085ca8     Misc.obj
 0002:00015ce0       __ehfuncinfo$??1_Sentry_base@?$basic_istream@DU?$char_traits@D@std@@@std@@QAE@XZ 10085ce0     Misc.obj
 0002:00015ce0       __ehfuncinfo$??1_Init_atexit@@QAE@XZ 10085ce0     libcpmt:iosptrs.obj
 0002:00015ce0       __ehfuncinfo$??1_Locimp@locale@std@@MAE@XZ 10085ce0     libcpmt:locale0.obj
 0002:00015ce0       __ehfuncinfo$??1_Fac_node@std@@QAE@XZ 10085ce0     libcpmt:locale0.obj
 0002:00015ce0       __ehfuncinfo$?clear@?$_Tree@V?$_Tmap_traits@HPAXU?$less@H@std@@V?$allocator@U?$pair@$$CBHPAX@std@@@2@$0A@@std@@@std@@QAEXXZ 10085ce0     vmt.obj
 0002:00015ce0       __ehfuncinfo$??1_Sentry_base@?$basic_ostream@DU?$char_traits@D@std@@@std@@QAE@XZ 10085ce0     Misc.obj
 0002:00015ce0       __ehfuncinfo$??1_Locinfo@std@@QAE@XZ 10085ce0     Misc.obj
 0002:00015ce0       __ehfuncinfo$??1locale@std@@QAE@XZ 10085ce0     Misc.obj
 0002:00015ce0       __ehfuncinfo$?__scrt_initialize_thread_safe_statics_platform_specific@@YAXXZ 10085ce0     LIBCMT:thread_safe_statics.obj
 0002:00015d04       __unwindtable$??$use_facet@V?$ctype@D@std@@@std@@YAABV?$ctype@D@0@ABVlocale@0@@Z 10085d04     Misc.obj
 0002:00015d1c       __ehfuncinfo$??$use_facet@V?$ctype@D@std@@@std@@YAABV?$ctype@D@0@ABVlocale@0@@Z 10085d1c     Misc.obj
 0002:00015d40       __unwindtable$??0_System_error@std@@IAE@Verror_code@1@ABV?$basic_string@DU?$char_traits@D@std@@V?$allocator@D@2@@1@@Z 10085d40     Misc.obj
 0002:00015d50       __ehfuncinfo$??0_System_error@std@@IAE@Verror_code@1@ABV?$basic_string@DU?$char_traits@D@std@@V?$allocator@D@2@@1@@Z 10085d50     Misc.obj
 0002:00015d74       __unwindtable$??0failure@ios_base@std@@QAE@PBDABVerror_code@2@@Z 10085d74     Misc.obj
 0002:00015d7c       __ehfuncinfo$??0failure@ios_base@std@@QAE@PBDABVerror_code@2@@Z 10085d7c     Misc.obj
 0002:00015da0       __unwindtable$?ClantagChanger@MISC@FEATURES@@YAXXZ 10085da0     Misc.obj
 0002:00015db0       __ehfuncinfo$?ClantagChanger@MISC@FEATURES@@YAXXZ 10085db0     Misc.obj
 0002:00015dd4       __ehfuncinfo$?LoadUserConfig@MISC@FEATURES@@YAXXZ 10085dd4     Misc.obj
 0002:00015df8       __unwindtable$?LoadUserConfig@MISC@FEATURES@@YAXXZ 10085df8     Misc.obj
 0002:00015e28       __unwindtable$??R<lambda_a6669d928a94ba27917059d5a85f90cd>@@QBE@PBD0@Z 10085e28     Misc.obj
 0002:00015e48       __ehfuncinfo$??R<lambda_a6669d928a94ba27917059d5a85f90cd>@@QBE@PBD0@Z 10085e48     Misc.obj
 0002:00015e6c       __unwindtable$?widen@?$basic_ios@DU?$char_traits@D@std@@@std@@QBEDD@Z 10085e6c     Misc.obj
 0002:00015e84       __ehfuncinfo$?widen@?$basic_ios@DU?$char_traits@D@std@@@std@@QBEDD@Z 10085e84     Misc.obj
 0002:00015ea8       __catchsym$?_Ipfx@?$basic_istream@DU?$char_traits@D@std@@@std@@QAE_N_N@Z$6 10085ea8     Misc.obj
 0002:00015eb8       __tryblocktable$?_Ipfx@?$basic_istream@DU?$char_traits@D@std@@@std@@QAE_N_N@Z 10085eb8     Misc.obj
 0002:00015ecc       __ehfuncinfo$?_Ipfx@?$basic_istream@DU?$char_traits@D@std@@@std@@QAE_N_N@Z 10085ecc     Misc.obj
 0002:00015ef0       __unwindtable$?_Ipfx@?$basic_istream@DU?$char_traits@D@std@@@std@@QAE_N_N@Z 10085ef0     Misc.obj
 0002:00015f18       __catchsym$?_Osfx@?$basic_ostream@DU?$char_traits@D@std@@@std@@QAEXXZ$2 10085f18     Misc.obj
 0002:00015f28       __unwindtable$?_Osfx@?$basic_ostream@DU?$char_traits@D@std@@@std@@QAEXXZ 10085f28     Misc.obj
 0002:00015f38       __tryblocktable$?_Osfx@?$basic_ostream@DU?$char_traits@D@std@@@std@@QAEXXZ 10085f38     Misc.obj
 0002:00015f4c       __ehfuncinfo$?_Osfx@?$basic_ostream@DU?$char_traits@D@std@@@std@@QAEXXZ 10085f4c     Misc.obj
 0002:00015f70       __catchsym$?put@?$basic_ostream@DU?$char_traits@D@std@@@std@@QAEAAV12@D@Z$6 10085f70     Misc.obj
 0002:00015f80       __tryblocktable$?put@?$basic_ostream@DU?$char_traits@D@std@@@std@@QAEAAV12@D@Z 10085f80     Misc.obj
 0002:00015f94       __ehfuncinfo$?put@?$basic_ostream@DU?$char_traits@D@std@@@std@@QAEAAV12@D@Z 10085f94     Misc.obj
 0002:00015fb8       __unwindtable$?put@?$basic_ostream@DU?$char_traits@D@std@@@std@@QAEAAV12@D@Z 10085fb8     Misc.obj
 0002:00015fe8       __unwindtable$?flush@?$basic_ostream@DU?$char_traits@D@std@@@std@@QAEAAV12@XZ 10085fe8     Misc.obj
 0002:00016000       __ehfuncinfo$?flush@?$basic_ostream@DU?$char_traits@D@std@@@std@@QAEAAV12@XZ 10086000     Misc.obj
 0002:00016024       __ehfuncinfo$??0?$basic_fstream@DU?$char_traits@D@std@@@std@@QAE@PBDHH@Z 10086024     Misc.obj
 0002:00016048       __unwindtable$??0?$basic_fstream@DU?$char_traits@D@std@@@std@@QAE@PBDHH@Z 10086048     Misc.obj
 0002:000160a8       __unwindtable$?uflow@?$basic_filebuf@DU?$char_traits@D@std@@@std@@MAEHXZ 100860a8     Misc.obj
 0002:000160b0       __ehfuncinfo$?uflow@?$basic_filebuf@DU?$char_traits@D@std@@@std@@MAEHXZ 100860b0     Misc.obj
 0002:000160d4       __catchsym$??$?6U?$char_traits@D@std@@@std@@YAAAV?$basic_ostream@DU?$char_traits@D@std@@@0@AAV10@PBD@Z$6 100860d4     Misc.obj
 0002:000160e4       __tryblocktable$??$?6U?$char_traits@D@std@@@std@@YAAAV?$basic_ostream@DU?$char_traits@D@std@@@0@AAV10@PBD@Z 100860e4     Misc.obj
 0002:000160f8       __ehfuncinfo$??$?6U?$char_traits@D@std@@@std@@YAAAV?$basic_ostream@DU?$char_traits@D@std@@@0@AAV10@PBD@Z 100860f8     Misc.obj
 0002:0001611c       __unwindtable$??$?6U?$char_traits@D@std@@@std@@YAAAV?$basic_ostream@DU?$char_traits@D@std@@@0@AAV10@PBD@Z 1008611c     Misc.obj
 0002:0001614c       __unwindtable$??R<lambda_7411d79f4ee59d52de45b16a5109c3cd>@@QBE?AV?$vector@V?$vector@V?$basic_string@DU?$char_traits@D@std@@V?$allocator@D@2@@std@@V?$allocator@V?$basic_string@DU?$char_traits@D@std@@V?$allocator@D@2@@std@@@2@@std@@V?$allocator@V?$vector@V?$basic_string@DU?$char_traits@D@std@@V?$allocator@D@2@@std@@V?$allocator@V?$basic_string@DU?$char_traits@D@std@@V?$allocator@D@2@@std@@@2@@std@@@2@@std@@XZ 1008614c     Misc.obj
 0002:00016164       __ehfuncinfo$??R<lambda_7411d79f4ee59d52de45b16a5109c3cd>@@QBE?AV?$vector@V?$vector@V?$basic_string@DU?$char_traits@D@std@@V?$allocator@D@2@@std@@V?$allocator@V?$basic_string@DU?$char_traits@D@std@@V?$allocator@D@2@@std@@@2@@std@@V?$allocator@V?$vector@V?$basic_string@DU?$char_traits@D@std@@V?$allocator@D@2@@std@@V?$allocator@V?$basic_string@DU?$char_traits@D@std@@V?$allocator@D@2@@std@@@2@@std@@@2@@std@@XZ 10086164     Misc.obj
 0002:00016188       __unwindtable$??R<lambda_b58585d07ca0d6147613ae0d72d6a7d6>@@QBE?AV?$vector@V?$basic_string@DU?$char_traits@D@std@@V?$allocator@D@2@@std@@V?$allocator@V?$basic_string@DU?$char_traits@D@std@@V?$allocator@D@2@@std@@@2@@std@@V?$basic_string@DU?$char_traits@D@std@@V?$allocator@D@2@@2@@Z 10086188     Misc.obj
 0002:000161a8       __ehfuncinfo$??R<lambda_b58585d07ca0d6147613ae0d72d6a7d6>@@QBE?AV?$vector@V?$basic_string@DU?$char_traits@D@std@@V?$allocator@D@2@@std@@V?$allocator@V?$basic_string@DU?$char_traits@D@std@@V?$allocator@D@2@@std@@@2@@std@@V?$basic_string@DU?$char_traits@D@std@@V?$allocator@D@2@@2@@Z 100861a8     Misc.obj
 0002:000161cc       __catchsym$??$_Emplace_reallocate@ABV?$vector@V?$basic_string@DU?$char_traits@D@std@@V?$allocator@D@2@@std@@V?$allocator@V?$basic_string@DU?$char_traits@D@std@@V?$allocator@D@2@@std@@@2@@std@@@?$vector@V?$vector@V?$basic_string@DU?$char_traits@D@std@@V?$allocator@D@2@@std@@V?$allocator@V?$basic_string@DU?$char_traits@D@std@@V?$allocator@D@2@@std@@@2@@std@@V?$allocator@V?$vector@V?$basic_string@DU?$char_traits@D@std@@V?$allocator@D@2@@std@@V?$allocator@V?$basic_string@DU?$char_traits@D@std@@V?$allocator@D@2@@std@@@2@@std@@@2@@std@@QAEPAV?$vector@V?$basic_string@DU?$char_traits@D@std@@V?$allocator@D@2@@std@@V?$allocator@V?$basic_string@DU?$char_traits@D@std@@V?$allocator@D@2@@std@@@2@@1@QAV21@ABV21@@Z$2 100861cc     Misc.obj
 0002:000161dc       __unwindtable$??$_Emplace_reallocate@ABV?$vector@V?$basic_string@DU?$char_traits@D@std@@V?$allocator@D@2@@std@@V?$allocator@V?$basic_string@DU?$char_traits@D@std@@V?$allocator@D@2@@std@@@2@@std@@@?$vector@V?$vector@V?$basic_string@DU?$char_traits@D@std@@V?$allocator@D@2@@std@@V?$allocator@V?$basic_string@DU?$char_traits@D@std@@V?$allocator@D@2@@std@@@2@@std@@V?$allocator@V?$vector@V?$basic_string@DU?$char_traits@D@std@@V?$allocator@D@2@@std@@V?$allocator@V?$basic_string@DU?$char_traits@D@std@@V?$allocator@D@2@@std@@@2@@std@@@2@@std@@QAEPAV?$vector@V?$basic_string@DU?$char_traits@D@std@@V?$allocator@D@2@@std@@V?$allocator@V?$basic_string@DU?$char_traits@D@std@@V?$allocator@D@2@@std@@@2@@1@QAV21@ABV21@@Z 100861dc     Misc.obj
 0002:000161ec       __tryblocktable$??$_Emplace_reallocate@ABV?$vector@V?$basic_string@DU?$char_traits@D@std@@V?$allocator@D@2@@std@@V?$allocator@V?$basic_string@DU?$char_traits@D@std@@V?$allocator@D@2@@std@@@2@@std@@@?$vector@V?$vector@V?$basic_string@DU?$char_traits@D@std@@V?$allocator@D@2@@std@@V?$allocator@V?$basic_string@DU?$char_traits@D@std@@V?$allocator@D@2@@std@@@2@@std@@V?$allocator@V?$vector@V?$basic_string@DU?$char_traits@D@std@@V?$allocator@D@2@@std@@V?$allocator@V?$basic_string@DU?$char_traits@D@std@@V?$allocator@D@2@@std@@@2@@std@@@2@@std@@QAEPAV?$vector@V?$basic_string@DU?$char_traits@D@std@@V?$allocator@D@2@@std@@V?$allocator@V?$basic_string@DU?$char_traits@D@std@@V?$allocator@D@2@@std@@@2@@1@QAV21@ABV21@@Z 100861ec     Misc.obj
 0002:00016200       __ehfuncinfo$??$_Emplace_reallocate@ABV?$vector@V?$basic_string@DU?$char_traits@D@std@@V?$allocator@D@2@@std@@V?$allocator@V?$basic_string@DU?$char_traits@D@std@@V?$allocator@D@2@@std@@@2@@std@@@?$vector@V?$vector@V?$basic_string@DU?$char_traits@D@std@@V?$allocator@D@2@@std@@V?$allocator@V?$basic_string@DU?$char_traits@D@std@@V?$allocator@D@2@@std@@@2@@std@@V?$allocator@V?$vector@V?$basic_string@DU?$char_traits@D@std@@V?$allocator@D@2@@std@@V?$allocator@V?$basic_string@DU?$char_traits@D@std@@V?$allocator@D@2@@std@@@2@@std@@@2@@std@@QAEPAV?$vector@V?$basic_string@DU?$char_traits@D@std@@V?$allocator@D@2@@std@@V?$allocator@V?$basic_string@DU?$char_traits@D@std@@V?$allocator@D@2@@std@@@2@@1@QAV21@ABV21@@Z 10086200     Misc.obj
 0002:00016224       __unwindtable$??$use_facet@V?$codecvt@DDU_Mbstatet@@@std@@@std@@YAABV?$codecvt@DDU_Mbstatet@@@0@ABVlocale@0@@Z 10086224     Misc.obj
 0002:0001623c       __ehfuncinfo$??$use_facet@V?$codecvt@DDU_Mbstatet@@@std@@@std@@YAABV?$codecvt@DDU_Mbstatet@@@0@ABVlocale@0@@Z 1008623c     Misc.obj
 0002:00016260       __unwindtable$??0sentry@?$basic_ostream@DU?$char_traits@D@std@@@std@@QAE@AAV12@@Z 10086260     Misc.obj
 0002:00016268       __ehfuncinfo$??0sentry@?$basic_ostream@DU?$char_traits@D@std@@@std@@QAE@AAV12@@Z 10086268     Misc.obj
 0002:0001628c       __catchsym$??$getline@DU?$char_traits@D@std@@V?$allocator@D@2@@std@@YAAAV?$basic_istream@DU?$char_traits@D@std@@@0@$$QAV10@AAV?$basic_string@DU?$char_traits@D@std@@V?$allocator@D@2@@0@D@Z$6 1008628c     Misc.obj
 0002:0001629c       __tryblocktable$??$getline@DU?$char_traits@D@std@@V?$allocator@D@2@@std@@YAAAV?$basic_istream@DU?$char_traits@D@std@@@0@$$QAV10@AAV?$basic_string@DU?$char_traits@D@std@@V?$allocator@D@2@@0@D@Z 1008629c     Misc.obj
 0002:000162b0       __ehfuncinfo$??$getline@DU?$char_traits@D@std@@V?$allocator@D@2@@std@@YAAAV?$basic_istream@DU?$char_traits@D@std@@@0@$$QAV10@AAV?$basic_string@DU?$char_traits@D@std@@V?$allocator@D@2@@0@D@Z 100862b0     Misc.obj
 0002:000162d4       __unwindtable$??$getline@DU?$char_traits@D@std@@V?$allocator@D@2@@std@@YAAAV?$basic_istream@DU?$char_traits@D@std@@@0@$$QAV10@AAV?$basic_string@DU?$char_traits@D@std@@V?$allocator@D@2@@0@D@Z 100862d4     Misc.obj
 0002:000162fc       __catchsym$??$_Insert_hint@AAU?$pair@$$CBHPAX@std@@PAU?$_Tree_node@U?$pair@$$CBHPAX@std@@PAX@2@@?$_Tree@V?$_Tmap_traits@HPAXU?$less@H@std@@V?$allocator@U?$pair@$$CBHPAX@std@@@2@$0A@@std@@@std@@IAE?AV?$_Tree_iterator@V?$_Tree_val@U?$_Tree_simple_types@U?$pair@$$CBHPAX@std@@@std@@@std@@@1@V?$_Tree_const_iterator@V?$_Tree_val@U?$_Tree_simple_types@U?$pair@$$CBHPAX@std@@@std@@@std@@@1@AAU?$pair@$$CBHPAX@1@PAU?$_Tree_node@U?$pair@$$CBHPAX@std@@PAX@1@@Z$2 100862fc     Misc.obj
 0002:0001630c       __unwindtable$??$_Insert_hint@AAU?$pair@$$CBHPAX@std@@PAU?$_Tree_node@U?$pair@$$CBHPAX@std@@PAX@2@@?$_Tree@V?$_Tmap_traits@HPAXU?$less@H@std@@V?$allocator@U?$pair@$$CBHPAX@std@@@2@$0A@@std@@@std@@IAE?AV?$_Tree_iterator@V?$_Tree_val@U?$_Tree_simple_types@U?$pair@$$CBHPAX@std@@@std@@@std@@@1@V?$_Tree_const_iterator@V?$_Tree_val@U?$_Tree_simple_types@U?$pair@$$CBHPAX@std@@@std@@@std@@@1@AAU?$pair@$$CBHPAX@1@PAU?$_Tree_node@U?$pair@$$CBHPAX@std@@PAX@1@@Z 1008630c     Misc.obj
 0002:0001631c       __tryblocktable$??$_Insert_hint@AAU?$pair@$$CBHPAX@std@@PAU?$_Tree_node@U?$pair@$$CBHPAX@std@@PAX@2@@?$_Tree@V?$_Tmap_traits@HPAXU?$less@H@std@@V?$allocator@U?$pair@$$CBHPAX@std@@@2@$0A@@std@@@std@@IAE?AV?$_Tree_iterator@V?$_Tree_val@U?$_Tree_simple_types@U?$pair@$$CBHPAX@std@@@std@@@std@@@1@V?$_Tree_const_iterator@V?$_Tree_val@U?$_Tree_simple_types@U?$pair@$$CBHPAX@std@@@std@@@std@@@1@AAU?$pair@$$CBHPAX@1@PAU?$_Tree_node@U?$pair@$$CBHPAX@std@@PAX@1@@Z 1008631c     Misc.obj
 0002:00016330       __ehfuncinfo$??$_Insert_hint@AAU?$pair@$$CBHPAX@std@@PAU?$_Tree_node@U?$pair@$$CBHPAX@std@@PAX@2@@?$_Tree@V?$_Tmap_traits@HPAXU?$less@H@std@@V?$allocator@U?$pair@$$CBHPAX@std@@@2@$0A@@std@@@std@@IAE?AV?$_Tree_iterator@V?$_Tree_val@U?$_Tree_simple_types@U?$pair@$$CBHPAX@std@@@std@@@std@@@1@V?$_Tree_const_iterator@V?$_Tree_val@U?$_Tree_simple_types@U?$pair@$$CBHPAX@std@@@std@@@std@@@1@AAU?$pair@$$CBHPAX@1@PAU?$_Tree_node@U?$pair@$$CBHPAX@std@@PAX@1@@Z 10086330     Misc.obj
 0002:00016354       __catchsym$??$_Insert_nohint@AAU?$pair@$$CBHPAX@std@@PAU?$_Tree_node@U?$pair@$$CBHPAX@std@@PAX@2@@?$_Tree@V?$_Tmap_traits@HPAXU?$less@H@std@@V?$allocator@U?$pair@$$CBHPAX@std@@@2@$0A@@std@@@std@@IAE?AU?$pair@V?$_Tree_iterator@V?$_Tree_val@U?$_Tree_simple_types@U?$pair@$$CBHPAX@std@@@std@@@std@@@std@@_N@1@_NAAU?$pair@$$CBHPAX@1@PAU?$_Tree_node@U?$pair@$$CBHPAX@std@@PAX@1@@Z$2 10086354     Misc.obj
 0002:00016364       __unwindtable$??$_Insert_nohint@AAU?$pair@$$CBHPAX@std@@PAU?$_Tree_node@U?$pair@$$CBHPAX@std@@PAX@2@@?$_Tree@V?$_Tmap_traits@HPAXU?$less@H@std@@V?$allocator@U?$pair@$$CBHPAX@std@@@2@$0A@@std@@@std@@IAE?AU?$pair@V?$_Tree_iterator@V?$_Tree_val@U?$_Tree_simple_types@U?$pair@$$CBHPAX@std@@@std@@@std@@@std@@_N@1@_NAAU?$pair@$$CBHPAX@1@PAU?$_Tree_node@U?$pair@$$CBHPAX@std@@PAX@1@@Z 10086364     Misc.obj
 0002:00016374       __tryblocktable$??$_Insert_nohint@AAU?$pair@$$CBHPAX@std@@PAU?$_Tree_node@U?$pair@$$CBHPAX@std@@PAX@2@@?$_Tree@V?$_Tmap_traits@HPAXU?$less@H@std@@V?$allocator@U?$pair@$$CBHPAX@std@@@2@$0A@@std@@@std@@IAE?AU?$pair@V?$_Tree_iterator@V?$_Tree_val@U?$_Tree_simple_types@U?$pair@$$CBHPAX@std@@@std@@@std@@@std@@_N@1@_NAAU?$pair@$$CBHPAX@1@PAU?$_Tree_node@U?$pair@$$CBHPAX@std@@PAX@1@@Z 10086374     Misc.obj
 0002:00016388       __ehfuncinfo$??$_Insert_nohint@AAU?$pair@$$CBHPAX@std@@PAU?$_Tree_node@U?$pair@$$CBHPAX@std@@PAX@2@@?$_Tree@V?$_Tmap_traits@HPAXU?$less@H@std@@V?$allocator@U?$pair@$$CBHPAX@std@@@2@$0A@@std@@@std@@IAE?AU?$pair@V?$_Tree_iterator@V?$_Tree_val@U?$_Tree_simple_types@U?$pair@$$CBHPAX@std@@@std@@@std@@@std@@_N@1@_NAAU?$pair@$$CBHPAX@1@PAU?$_Tree_node@U?$pair@$$CBHPAX@std@@PAX@1@@Z 10086388     Misc.obj
 0002:00016460       __ehfuncinfo$?TranslateResolveRecord@Resolver@RAGEBOT@FEATURES@@QAE?AV?$basic_string@DU?$char_traits@D@std@@V?$allocator@D@2@@std@@G@Z 10086460     Resolver.obj
 0002:00016484       __unwindtable$?TranslateResolveRecord@Resolver@RAGEBOT@FEATURES@@QAE?AV?$basic_string@DU?$char_traits@D@std@@V?$allocator@D@2@@std@@G@Z 10086484     Resolver.obj
 0002:000164ec       __unwindtable$?EventCallback@Resolver@RAGEBOT@FEATURES@@QAEXPAVIGameEvent@SDK@@@Z 100864ec     Resolver.obj
 0002:00016504       __ehfuncinfo$?EventCallback@Resolver@RAGEBOT@FEATURES@@QAEXPAVIGameEvent@SDK@@@Z 10086504     Resolver.obj
 0002:00016528       __unwindtable$?ProcessSnapShots@Resolver@RAGEBOT@FEATURES@@AAEXXZ 10086528     Resolver.obj
 0002:00016538       __ehfuncinfo$?ProcessSnapShots@Resolver@RAGEBOT@FEATURES@@AAEXXZ 10086538     Resolver.obj
 0002:0001655c       __unwindtable$?UpdateResolveRecord@Resolver@RAGEBOT@FEATURES@@AAEXPAVCBaseEntity@SDK@@@Z 1008655c     Resolver.obj
 0002:00016564       __ehfuncinfo$?UpdateResolveRecord@Resolver@RAGEBOT@FEATURES@@AAEXPAVCBaseEntity@SDK@@@Z 10086564     Resolver.obj
 0002:00016588       __unwindtable$?ResolveYaw@Resolver@RAGEBOT@FEATURES@@AAEXPAVCBaseEntity@SDK@@@Z 10086588     Resolver.obj
 0002:00016590       __ehfuncinfo$?ResolveYaw@Resolver@RAGEBOT@FEATURES@@AAEXPAVCBaseEntity@SDK@@@Z 10086590     Resolver.obj
 0002:000165b4       __ehfuncinfo$??0Log@InGameLogger@MISC@FEATURES@@QAE@V?$basic_string@DU?$char_traits@D@std@@V?$allocator@D@2@@std@@VCColor@@@Z 100865b4     Resolver.obj
 0002:000165d8       __unwindtable$??0Log@InGameLogger@MISC@FEATURES@@QAE@V?$basic_string@DU?$char_traits@D@std@@V?$allocator@D@2@@std@@VCColor@@@Z 100865d8     Resolver.obj
 0002:00016600       __unwindtable$??$?HDU?$char_traits@D@std@@V?$allocator@D@1@@std@@YA?AV?$basic_string@DU?$char_traits@D@std@@V?$allocator@D@2@@0@QBDABV10@@Z 10086600     Resolver.obj
 0002:00016608       __ehfuncinfo$??$?HDU?$char_traits@D@std@@V?$allocator@D@1@@std@@YA?AV?$basic_string@DU?$char_traits@D@std@@V?$allocator@D@2@@0@QBDABV10@@Z 10086608     Resolver.obj
 0002:0001662c       __unwindtable$?Save@Configuration@SETTINGS@@QAE_NPBDI@Z 1008662c     Configurations.obj
 0002:00016634       __ehfuncinfo$?Save@Configuration@SETTINGS@@QAE_NPBDI@Z 10086634     Configurations.obj
 0002:00016658       __unwindtable$?Load@Configuration@SETTINGS@@QAE_NPBDI@Z 10086658     Configurations.obj
 0002:00016668       __ehfuncinfo$?Load@Configuration@SETTINGS@@QAE_NPBDI@Z 10086668     Configurations.obj
 0002:0001668c       __unwindtable$?CreateConfig@Configuration@SETTINGS@@SA_NPBD0@Z 1008668c     Configurations.obj
 0002:00016694       __ehfuncinfo$?CreateConfig@Configuration@SETTINGS@@SA_NPBD0@Z 10086694     Configurations.obj
 0002:000166b8       __catchsym$?Do@SkinChanger@MISC@FEATURES@@QAEXXZ$4 100866b8     SkinChanger.obj
 0002:000166c8       __tryblocktable$?Do@SkinChanger@MISC@FEATURES@@QAEXXZ 100866c8     SkinChanger.obj
 0002:000166dc       __unwindtable$?Do@SkinChanger@MISC@FEATURES@@QAEXXZ 100866dc     SkinChanger.obj
 0002:000166f4       __ehfuncinfo$?Do@SkinChanger@MISC@FEATURES@@QAEXXZ 100866f4     SkinChanger.obj
 0002:00016730       __unwindtable$?Do@VisualizeBacktrack@VISUALS@FEATURES@@QAEXXZ 10086730     VisualizeBacktrack.obj
 0002:00016738       __ehfuncinfo$?Do@VisualizeBacktrack@VISUALS@FEATURES@@QAEXXZ 10086738     VisualizeBacktrack.obj
 0002:0001675c       __unwindtable$?DrawGrenadePrediction@VisualsMisc@VISUALS@FEATURES@@AAEXXZ 1008675c     VisualsMisc.obj
 0002:00016774       __ehfuncinfo$?DrawGrenadePrediction@VisualsMisc@VISUALS@FEATURES@@AAEXXZ 10086774     VisualsMisc.obj
 0002:00016798       __unwindtable$?DoFSN@WorldTextures@VISUALS@FEATURES@@QAEXXZ 10086798     World Textures.obj
 0002:000167a0       __ehfuncinfo$?DoFSN@WorldTextures@VISUALS@FEATURES@@QAEXXZ 100867a0     World Textures.obj
 0002:000167c4       __unwindtable$?ForceFullUpdate@IEngine@SDK@@SAXXZ 100867c4     Menu.obj
 0002:000167e4       __ehfuncinfo$?ForceFullUpdate@IEngine@SDK@@SAXXZ 100867e4     Menu.obj
 0002:00016808       __unwindtable$??0PPGUI_Command_Frame@PPGUI@@QAE@PAVPPGUI_Command@1@H@Z 10086808     PPGUI.obj
 0002:00016810       __ehfuncinfo$??0PPGUI_Command_Frame@PPGUI@@QAE@PAVPPGUI_Command@1@H@Z 10086810     PPGUI.obj
 0002:00016834       __unwindtable$?EndFrame@PPGUI_Framework@PPGUI@@QAEXXZ 10086834     PPGUI.obj
 0002:0001683c       __ehfuncinfo$?EndFrame@PPGUI_Framework@PPGUI@@QAEXXZ 1008683c     PPGUI.obj
 0002:00016860       __unwindtable$?PPGUI_BeginWindow@PPGUI@@YAXPBDVPPGUI_Vector2D@HELPERS@1@1H@Z 10086860     PPGUI.obj
 0002:00016870       __ehfuncinfo$?PPGUI_BeginWindow@PPGUI@@YAXPBDVPPGUI_Vector2D@HELPERS@1@1H@Z 10086870     PPGUI.obj
 0002:00016894       __unwindtable$?PPGUI_EndWindow@PPGUI@@YAXXZ 10086894     PPGUI.obj
 0002:0001689c       __ehfuncinfo$?PPGUI_EndWindow@PPGUI@@YAXXZ 1008689c     PPGUI.obj
 0002:000168c0       __unwindtable$?PPGUI_Checkbox@PPGUI@@YA_NPBDAA_N_N@Z 100868c0     PPGUI.obj
 0002:000168c0       __unwindtable$?PPGUI_TextInput@PPGUI@@YAPBDPBDPAD_N@Z 100868c0     PPGUI.obj
 0002:000168c8       __ehfuncinfo$?PPGUI_TextInput@PPGUI@@YAPBDPBDPAD_N@Z 100868c8     PPGUI.obj
 0002:000168c8       __ehfuncinfo$?PPGUI_Checkbox@PPGUI@@YA_NPBDAA_N_N@Z 100868c8     PPGUI.obj
 0002:000168ec       __unwindtable$?PPGUI_Button@PPGUI@@YA_NPBD_N@Z 100868ec     PPGUI.obj
 0002:000168f4       __ehfuncinfo$?PPGUI_Button@PPGUI@@YA_NPBD_N@Z 100868f4     PPGUI.obj
 0002:00016918       __unwindtable$?PPGUI_BeginGroupbox@PPGUI@@YAXPBDHH_N@Z 10086918     PPGUI.obj
 0002:00016928       __ehfuncinfo$?PPGUI_BeginGroupbox@PPGUI@@YAXPBDHH_N@Z 10086928     PPGUI.obj
 0002:0001694c       __unwindtable$?PPGUI_Slider@PPGUI@@YAMPBD0MMAAMH_N@Z 1008694c     PPGUI.obj
 0002:00016954       __ehfuncinfo$?PPGUI_Slider@PPGUI@@YAMPBD0MMAAMH_N@Z 10086954     PPGUI.obj
 0002:00016978       __unwindtable$?PPGUI_Separator@PPGUI@@YAXPBD_N@Z 10086978     PPGUI.obj
 0002:00016980       __ehfuncinfo$?PPGUI_Separator@PPGUI@@YAXPBD_N@Z 10086980     PPGUI.obj
 0002:000169a4       __unwindtable$?PPGUI_Keybind@PPGUI@@YAHPBDAAH_N@Z 100869a4     PPGUI.obj
 0002:000169ac       __ehfuncinfo$?PPGUI_Keybind@PPGUI@@YAHPBDAAH_N@Z 100869ac     PPGUI.obj
 0002:000169d0       __unwindtable$?PPGUI_Combobox@PPGUI@@YAHPBDHPAY0BAA@DAAH_N@Z 100869d0     PPGUI.obj
 0002:000169d8       __ehfuncinfo$?PPGUI_Combobox@PPGUI@@YAHPBDHPAY0BAA@DAAH_N@Z 100869d8     PPGUI.obj
 0002:000169fc       __unwindtable$?PPGUI_MultiselectCombobox@PPGUI@@YAXPBDHPAY0BAA@DPA_N_N@Z 100869fc     PPGUI.obj
 0002:00016a04       __ehfuncinfo$?PPGUI_MultiselectCombobox@PPGUI@@YAXPBDHPAY0BAA@DPA_N_N@Z 10086a04     PPGUI.obj
 0002:00016a28       __unwindtable$?PPGUI_ColorPicker@PPGUI@@YAXPBDAAE111_N@Z 10086a28     PPGUI.obj
 0002:00016a30       __ehfuncinfo$?PPGUI_ColorPicker@PPGUI@@YAXPBDAAE111_N@Z 10086a30     PPGUI.obj
 0002:00016a54       __unwindtable$?PPGUI_Tab@PPGUI@@YAHHPAY0BAA@DAAH_N@Z 10086a54     PPGUI.obj
 0002:00016a5c       __ehfuncinfo$?PPGUI_Tab@PPGUI@@YAHHPAY0BAA@DAAH_N@Z 10086a5c     PPGUI.obj
 0002:00016a80       __unwindtable$?PPGUI_ToolTip@PPGUI@@YAXPBDHVPPGUI_Vector2D@HELPERS@1@@Z 10086a80     PPGUI.obj
 0002:00016a88       __ehfuncinfo$?PPGUI_ToolTip@PPGUI@@YAXPBDHVPPGUI_Vector2D@HELPERS@1@@Z 10086a88     PPGUI.obj
 0002:00016aac       __catchsym$??$_Emplace_reallocate@ABVPPGUI_Command_Frame@PPGUI@@@?$vector@VPPGUI_Command_Frame@PPGUI@@V?$allocator@VPPGUI_Command_Frame@PPGUI@@@std@@@std@@QAEPAVPPGUI_Command_Frame@PPGUI@@QAV23@ABV23@@Z$4 10086aac     PPGUI.obj
 0002:00016abc       __unwindtable$??$_Emplace_reallocate@ABVPPGUI_Command_Frame@PPGUI@@@?$vector@VPPGUI_Command_Frame@PPGUI@@V?$allocator@VPPGUI_Command_Frame@PPGUI@@@std@@@std@@QAEPAVPPGUI_Command_Frame@PPGUI@@QAV23@ABV23@@Z 10086abc     PPGUI.obj
 0002:00016acc       __tryblocktable$??$_Emplace_reallocate@ABVPPGUI_Command_Frame@PPGUI@@@?$vector@VPPGUI_Command_Frame@PPGUI@@V?$allocator@VPPGUI_Command_Frame@PPGUI@@@std@@@std@@QAEPAVPPGUI_Command_Frame@PPGUI@@QAV23@ABV23@@Z 10086acc     PPGUI.obj
 0002:00016ae0       __ehfuncinfo$??$_Emplace_reallocate@ABVPPGUI_Command_Frame@PPGUI@@@?$vector@VPPGUI_Command_Frame@PPGUI@@V?$allocator@VPPGUI_Command_Frame@PPGUI@@@std@@@std@@QAEPAVPPGUI_Command_Frame@PPGUI@@QAV23@ABV23@@Z 10086ae0     PPGUI.obj
 0002:00016b04       __catchsym$??$_Insert@AAU?$pair@$$CBITPPGUI_Command_Data@PPGUI_Command_Data_Base@PPGUI@@@std@@V?$_List_unchecked_iterator@V?$_List_val@U?$_List_simple_types@U?$pair@$$CBITPPGUI_Command_Data@PPGUI_Command_Data_Base@PPGUI@@@std@@@std@@@std@@@2@@?$_Hash@V?$_Umap_traits@ITPPGUI_Command_Data@PPGUI_Command_Data_Base@PPGUI@@V?$_Uhash_compare@IU?$hash@I@std@@U?$equal_to@I@2@@std@@V?$allocator@U?$pair@$$CBITPPGUI_Command_Data@PPGUI_Command_Data_Base@PPGUI@@@std@@@5@$0A@@std@@@std@@IAE?AU?$pair@V?$_List_iterator@V?$_List_val@U?$_List_simple_types@U?$pair@$$CBITPPGUI_Command_Data@PPGUI_Command_Data_Base@PPGUI@@@std@@@std@@@std@@@std@@_N@1@AAU?$pair@$$CBITPPGUI_Command_Data@PPGUI_Command_Data_Base@PPGUI@@@1@V?$_List_unchecked_iterator@V?$_List_val@U?$_List_simple_types@U?$pair@$$CBITPPGUI_Command_Data@PPGUI_Command_Data_Base@PPGUI@@@std@@@std@@@std@@@1@@Z$4 10086b04     PPGUI.obj
 0002:00016b14       __tryblocktable$??$_Insert@AAU?$pair@$$CBITPPGUI_Command_Data@PPGUI_Command_Data_Base@PPGUI@@@std@@V?$_List_unchecked_iterator@V?$_List_val@U?$_List_simple_types@U?$pair@$$CBITPPGUI_Command_Data@PPGUI_Command_Data_Base@PPGUI@@@std@@@std@@@std@@@2@@?$_Hash@V?$_Umap_traits@ITPPGUI_Command_Data@PPGUI_Command_Data_Base@PPGUI@@V?$_Uhash_compare@IU?$hash@I@std@@U?$equal_to@I@2@@std@@V?$allocator@U?$pair@$$CBITPPGUI_Command_Data@PPGUI_Command_Data_Base@PPGUI@@@std@@@5@$0A@@std@@@std@@IAE?AU?$pair@V?$_List_iterator@V?$_List_val@U?$_List_simple_types@U?$pair@$$CBITPPGUI_Command_Data@PPGUI_Command_Data_Base@PPGUI@@@std@@@std@@@std@@@std@@_N@1@AAU?$pair@$$CBITPPGUI_Command_Data@PPGUI_Command_Data_Base@PPGUI@@@1@V?$_List_unchecked_iterator@V?$_List_val@U?$_List_simple_types@U?$pair@$$CBITPPGUI_Command_Data@PPGUI_Command_Data_Base@PPGUI@@@std@@@std@@@std@@@1@@Z 10086b14     PPGUI.obj
 0002:00016b28       __unwindtable$??$_Insert@AAU?$pair@$$CBITPPGUI_Command_Data@PPGUI_Command_Data_Base@PPGUI@@@std@@V?$_List_unchecked_iterator@V?$_List_val@U?$_List_simple_types@U?$pair@$$CBITPPGUI_Command_Data@PPGUI_Command_Data_Base@PPGUI@@@std@@@std@@@std@@@2@@?$_Hash@V?$_Umap_traits@ITPPGUI_Command_Data@PPGUI_Command_Data_Base@PPGUI@@V?$_Uhash_compare@IU?$hash@I@std@@U?$equal_to@I@2@@std@@V?$allocator@U?$pair@$$CBITPPGUI_Command_Data@PPGUI_Command_Data_Base@PPGUI@@@std@@@5@$0A@@std@@@std@@IAE?AU?$pair@V?$_List_iterator@V?$_List_val@U?$_List_simple_types@U?$pair@$$CBITPPGUI_Command_Data@PPGUI_Command_Data_Base@PPGUI@@@std@@@std@@@std@@@std@@_N@1@AAU?$pair@$$CBITPPGUI_Command_Data@PPGUI_Command_Data_Base@PPGUI@@@1@V?$_List_unchecked_iterator@V?$_List_val@U?$_List_simple_types@U?$pair@$$CBITPPGUI_Command_Data@PPGUI_Command_Data_Base@PPGUI@@@std@@@std@@@std@@@1@@Z 10086b28     PPGUI.obj
 0002:00016b48       __ehfuncinfo$??$_Insert@AAU?$pair@$$CBITPPGUI_Command_Data@PPGUI_Command_Data_Base@PPGUI@@@std@@V?$_List_unchecked_iterator@V?$_List_val@U?$_List_simple_types@U?$pair@$$CBITPPGUI_Command_Data@PPGUI_Command_Data_Base@PPGUI@@@std@@@std@@@std@@@2@@?$_Hash@V?$_Umap_traits@ITPPGUI_Command_Data@PPGUI_Command_Data_Base@PPGUI@@V?$_Uhash_compare@IU?$hash@I@std@@U?$equal_to@I@2@@std@@V?$allocator@U?$pair@$$CBITPPGUI_Command_Data@PPGUI_Command_Data_Base@PPGUI@@@std@@@5@$0A@@std@@@std@@IAE?AU?$pair@V?$_List_iterator@V?$_List_val@U?$_List_simple_types@U?$pair@$$CBITPPGUI_Command_Data@PPGUI_Command_Data_Base@PPGUI@@@std@@@std@@@std@@@std@@_N@1@AAU?$pair@$$CBITPPGUI_Command_Data@PPGUI_Command_Data_Base@PPGUI@@@1@V?$_List_unchecked_iterator@V?$_List_val@U?$_List_simple_types@U?$pair@$$CBITPPGUI_Command_Data@PPGUI_Command_Data_Base@PPGUI@@@std@@@std@@@std@@@1@@Z 10086b48     PPGUI.obj
 0002:00016b6c       __unwindtable$??0PPGUI_Tab_Command@PPGUI@@QAE@VPPGUI_Vector2D@HELPERS@1@0AAHPAY0BAA@DH_N@Z 10086b6c     PPGUI_Commands.obj
 0002:00016b6c       __unwindtable$??0PPGUI_Combobox_Command@PPGUI@@QAE@PBDVPPGUI_Vector2D@HELPERS@1@1PAY0BAA@DHAAH_N@Z 10086b6c     PPGUI_Commands.obj
 0002:00016b6c       __unwindtable$??0PPGUI_Window_Command@PPGUI@@QAE@PBDVPPGUI_Vector2D@HELPERS@1@1@Z 10086b6c     PPGUI_Commands.obj
 0002:00016b74       __ehfuncinfo$??0PPGUI_Window_Command@PPGUI@@QAE@PBDVPPGUI_Vector2D@HELPERS@1@1@Z 10086b74     PPGUI_Commands.obj
 0002:00016b74       __ehfuncinfo$??0PPGUI_Tab_Command@PPGUI@@QAE@VPPGUI_Vector2D@HELPERS@1@0AAHPAY0BAA@DH_N@Z 10086b74     PPGUI_Commands.obj
 0002:00016b74       __ehfuncinfo$??0PPGUI_Combobox_Command@PPGUI@@QAE@PBDVPPGUI_Vector2D@HELPERS@1@1PAY0BAA@DHAAH_N@Z 10086b74     PPGUI_Commands.obj
 0002:00016b98       __unwindtable$?Draw@PPGUI_Window_Command@PPGUI@@UAEXXZ 10086b98     PPGUI_Commands.obj
 0002:00016ba0       __ehfuncinfo$?Draw@PPGUI_Window_Command@PPGUI@@UAEXXZ 10086ba0     PPGUI_Commands.obj
 0002:00016bc4       __unwindtable$??0PPGUI_Color_Picker_Command@PPGUI@@QAE@PBDVPPGUI_Vector2D@HELPERS@1@1AAE222_N@Z 10086bc4     PPGUI_Commands.obj
 0002:00016bc4       __unwindtable$??0PPGUI_Checkbox_Command@PPGUI@@QAE@PBDAA_NVPPGUI_Vector2D@HELPERS@1@2_N@Z 10086bc4     PPGUI_Commands.obj
 0002:00016bc4       __unwindtable$??0PPGUI_Text_Input_Command@PPGUI@@QAE@PBDVPPGUI_Vector2D@HELPERS@1@1PAD_N@Z 10086bc4     PPGUI_Commands.obj
 0002:00016bc4       __unwindtable$??0PPGUI_Keybind_Command@PPGUI@@QAE@PBDAAHVPPGUI_Vector2D@HELPERS@1@2_N@Z 10086bc4     PPGUI_Commands.obj
 0002:00016bc4       __unwindtable$??0PPGUI_Groupbox_Command@PPGUI@@QAE@PBDVPPGUI_Vector2D@HELPERS@1@1_N@Z 10086bc4     PPGUI_Commands.obj
 0002:00016bc4       __unwindtable$??0PPGUI_Button_Command@PPGUI@@QAE@PBDVPPGUI_Vector2D@HELPERS@1@1_N@Z 10086bc4     PPGUI_Commands.obj
 0002:00016bc4       __unwindtable$??0PPGUI_Separator_Command@PPGUI@@QAE@PBDVPPGUI_Vector2D@HELPERS@1@1_N@Z 10086bc4     PPGUI_Commands.obj
 0002:00016bc4       __unwindtable$??0PPGUI_Multiselect_Combobox_Command@PPGUI@@QAE@PBDVPPGUI_Vector2D@HELPERS@1@1PAY0BAA@DPA_NH_N@Z 10086bc4     PPGUI_Commands.obj
 0002:00016bcc       __ehfuncinfo$??0PPGUI_Keybind_Command@PPGUI@@QAE@PBDAAHVPPGUI_Vector2D@HELPERS@1@2_N@Z 10086bcc     PPGUI_Commands.obj
 0002:00016bcc       __ehfuncinfo$??0PPGUI_Groupbox_Command@PPGUI@@QAE@PBDVPPGUI_Vector2D@HELPERS@1@1_N@Z 10086bcc     PPGUI_Commands.obj
 0002:00016bcc       __ehfuncinfo$??0PPGUI_Button_Command@PPGUI@@QAE@PBDVPPGUI_Vector2D@HELPERS@1@1_N@Z 10086bcc     PPGUI_Commands.obj
 0002:00016bcc       __ehfuncinfo$??0PPGUI_Checkbox_Command@PPGUI@@QAE@PBDAA_NVPPGUI_Vector2D@HELPERS@1@2_N@Z 10086bcc     PPGUI_Commands.obj
 0002:00016bcc       __ehfuncinfo$??0PPGUI_Color_Picker_Command@PPGUI@@QAE@PBDVPPGUI_Vector2D@HELPERS@1@1AAE222_N@Z 10086bcc     PPGUI_Commands.obj
 0002:00016bcc       __ehfuncinfo$??0PPGUI_Multiselect_Combobox_Command@PPGUI@@QAE@PBDVPPGUI_Vector2D@HELPERS@1@1PAY0BAA@DPA_NH_N@Z 10086bcc     PPGUI_Commands.obj
 0002:00016bcc       __ehfuncinfo$??0PPGUI_Text_Input_Command@PPGUI@@QAE@PBDVPPGUI_Vector2D@HELPERS@1@1PAD_N@Z 10086bcc     PPGUI_Commands.obj
 0002:00016bcc       __ehfuncinfo$??0PPGUI_Separator_Command@PPGUI@@QAE@PBDVPPGUI_Vector2D@HELPERS@1@1_N@Z 10086bcc     PPGUI_Commands.obj
 0002:00016bf0       __unwindtable$??0PPGUI_Slider_Command@PPGUI@@QAE@PBD0MMAAMH_NVPPGUI_Vector2D@HELPERS@1@3@Z 10086bf0     PPGUI_Commands.obj
 0002:00016bf8       __ehfuncinfo$??0PPGUI_Slider_Command@PPGUI@@QAE@PBD0MMAAMH_NVPPGUI_Vector2D@HELPERS@1@3@Z 10086bf8     PPGUI_Commands.obj
 0002:00016c1c       __unwindtable$??0PPGUI_Tool_Tip_Command@PPGUI@@QAE@PBDHVPPGUI_Vector2D@HELPERS@1@PAVPPGUI_Command@1@@Z 10086c1c     PPGUI_Commands.obj
 0002:00016c24       __ehfuncinfo$??0PPGUI_Tool_Tip_Command@PPGUI@@QAE@PBDHVPPGUI_Vector2D@HELPERS@1@PAVPPGUI_Command@1@@Z 10086c24     PPGUI_Commands.obj
 0002:00016c48       __catchsym$??6?$basic_ostream@DU?$char_traits@D@std@@@std@@QAEAAV01@M@Z$14 10086c48     PPGUI_Commands.obj
 0002:00016c58       __tryblocktable$??6?$basic_ostream@DU?$char_traits@D@std@@@std@@QAEAAV01@M@Z 10086c58     PPGUI_Commands.obj
 0002:00016c6c       __ehfuncinfo$??6?$basic_ostream@DU?$char_traits@D@std@@@std@@QAEAAV01@M@Z 10086c6c     PPGUI_Commands.obj
 0002:00016c90       __unwindtable$??6?$basic_ostream@DU?$char_traits@D@std@@@std@@QAEAAV01@M@Z 10086c90     PPGUI_Commands.obj
 0002:00016ce8       __ehfuncinfo$??0?$basic_iostream@DU?$char_traits@D@std@@@std@@QAE@PAV?$basic_streambuf@DU?$char_traits@D@std@@@1@@Z 10086ce8     PPGUI_Commands.obj
 0002:00016d0c       __unwindtable$??0?$basic_iostream@DU?$char_traits@D@std@@@std@@QAE@PAV?$basic_streambuf@DU?$char_traits@D@std@@@1@@Z 10086d0c     PPGUI_Commands.obj
 0002:00016d4c       __ehfuncinfo$??R<lambda_07e8e09b926849ee5c09d399f814ef9d>@@QBE?AV?$basic_string@DU?$char_traits@D@std@@V?$allocator@D@2@@std@@MH@Z 10086d4c     PPGUI_Commands.obj
 0002:00016d70       __unwindtable$??R<lambda_07e8e09b926849ee5c09d399f814ef9d>@@QBE?AV?$basic_string@DU?$char_traits@D@std@@V?$allocator@D@2@@std@@MH@Z 10086d70     PPGUI_Commands.obj
 0002:00016d98       __unwindtable$?do_put@?$num_put@DV?$ostreambuf_iterator@DU?$char_traits@D@std@@@std@@@std@@MBE?AV?$ostreambuf_iterator@DU?$char_traits@D@std@@@2@V32@AAVios_base@2@D_N@Z 10086d98     PPGUI_Commands.obj
 0002:00016db8       __ehfuncinfo$?do_put@?$num_put@DV?$ostreambuf_iterator@DU?$char_traits@D@std@@@std@@@std@@MBE?AV?$ostreambuf_iterator@DU?$char_traits@D@std@@@2@V32@AAVios_base@2@D_N@Z 10086db8     PPGUI_Commands.obj
 0002:00016ddc       __unwindtable$?do_put@?$num_put@DV?$ostreambuf_iterator@DU?$char_traits@D@std@@@std@@@std@@MBE?AV?$ostreambuf_iterator@DU?$char_traits@D@std@@@2@V32@AAVios_base@2@DN@Z 10086ddc     PPGUI_Commands.obj
 0002:00016ddc       __unwindtable$?do_put@?$num_put@DV?$ostreambuf_iterator@DU?$char_traits@D@std@@@std@@@std@@MBE?AV?$ostreambuf_iterator@DU?$char_traits@D@std@@@2@V32@AAVios_base@2@DO@Z 10086ddc     PPGUI_Commands.obj
 0002:00016de4       __ehfuncinfo$?do_put@?$num_put@DV?$ostreambuf_iterator@DU?$char_traits@D@std@@@std@@@std@@MBE?AV?$ostreambuf_iterator@DU?$char_traits@D@std@@@2@V32@AAVios_base@2@DN@Z 10086de4     PPGUI_Commands.obj
 0002:00016de4       __ehfuncinfo$?do_put@?$num_put@DV?$ostreambuf_iterator@DU?$char_traits@D@std@@@std@@@std@@MBE?AV?$ostreambuf_iterator@DU?$char_traits@D@std@@@2@V32@AAVios_base@2@DO@Z 10086de4     PPGUI_Commands.obj
 0002:00016e08       __ehfuncinfo$?_Fput@?$num_put@DV?$ostreambuf_iterator@DU?$char_traits@D@std@@@std@@@std@@ABA?AV?$ostreambuf_iterator@DU?$char_traits@D@std@@@2@V32@AAVios_base@2@DPBDI@Z 10086e08     PPGUI_Commands.obj
 0002:00016e2c       __unwindtable$?_Fput@?$num_put@DV?$ostreambuf_iterator@DU?$char_traits@D@std@@@std@@@std@@ABA?AV?$ostreambuf_iterator@DU?$char_traits@D@std@@@2@V32@AAVios_base@2@DPBDI@Z 10086e2c     PPGUI_Commands.obj
 0002:00016e6c       __ehfuncinfo$?_Iput@?$num_put@DV?$ostreambuf_iterator@DU?$char_traits@D@std@@@std@@@std@@ABA?AV?$ostreambuf_iterator@DU?$char_traits@D@std@@@2@V32@AAVios_base@2@DPADI@Z 10086e6c     PPGUI_Commands.obj
 0002:00016e90       __unwindtable$?_Iput@?$num_put@DV?$ostreambuf_iterator@DU?$char_traits@D@std@@@std@@@std@@ABA?AV?$ostreambuf_iterator@DU?$char_traits@D@std@@@2@V32@AAVios_base@2@DPADI@Z 10086e90     PPGUI_Commands.obj
 0002:00016ed0       __ehfuncinfo$??$use_facet@V?$numpunct@D@std@@@std@@YAABV?$numpunct@D@0@ABVlocale@0@@Z 10086ed0     PPGUI_Commands.obj
 0002:00016ef4       __unwindtable$??$use_facet@V?$numpunct@D@std@@@std@@YAABV?$numpunct@D@0@ABVlocale@0@@Z 10086ef4     PPGUI_Commands.obj
 0002:00016f24       __catchsym$?_Init@?$numpunct@D@std@@IAEXABV_Locinfo@2@_N@Z$2 10086f24     PPGUI_Commands.obj
 0002:00016f34       __unwindtable$?_Init@?$numpunct@D@std@@IAEXABV_Locinfo@2@_N@Z 10086f34     PPGUI_Commands.obj
 0002:00016f44       __tryblocktable$?_Init@?$numpunct@D@std@@IAEXABV_Locinfo@2@_N@Z 10086f44     PPGUI_Commands.obj
 0002:00016f58       __ehfuncinfo$?_Init@?$numpunct@D@std@@IAEXABV_Locinfo@2@_N@Z 10086f58     PPGUI_Commands.obj
 0002:00016f7c       __unwindtable$??__Eppgui_command_data_base@PPGUI@@YAXXZ 10086f7c     PPGUI_Defines.obj
 0002:00016f8c       __ehfuncinfo$??__Eppgui_command_data_base@PPGUI@@YAXXZ 10086f8c     PPGUI_Defines.obj
 0002:00016fb0       __catchsym$??$_Insert_string@DU?$char_traits@D@std@@I@std@@YAAAV?$basic_ostream@DU?$char_traits@D@std@@@0@AAV10@QBDI@Z$6 10086fb0     Debugger.obj
 0002:00016fc0       __tryblocktable$??$_Insert_string@DU?$char_traits@D@std@@I@std@@YAAAV?$basic_ostream@DU?$char_traits@D@std@@@0@AAV10@QBDI@Z 10086fc0     Debugger.obj
 0002:00016fd4       __ehfuncinfo$??$_Insert_string@DU?$char_traits@D@std@@I@std@@YAAAV?$basic_ostream@DU?$char_traits@D@std@@@0@AAV10@QBDI@Z 10086fd4     Debugger.obj
 0002:00016ff8       __unwindtable$??$_Insert_string@DU?$char_traits@D@std@@I@std@@YAAAV?$basic_ostream@DU?$char_traits@D@std@@@0@AAV10@QBDI@Z 10086ff8     Debugger.obj
 0002:00017028       __ehfuncinfo$?InitHooks@HOOKS@@YAXXZ 10087028     hooks.obj
 0002:0001704c       __unwindtable$?InitHooks@HOOKS@@YAXXZ 1008704c     hooks.obj
 0002:00017084       __unwindtable$?InitNetvarHooks@HOOKS@@YAXXZ 10087084     hooks.obj
 0002:0001709c       __ehfuncinfo$?InitNetvarHooks@HOOKS@@YAXXZ 1008709c     hooks.obj
 0002:000170c0       __unwindtable$?HookedPaintTraverse@HOOKS@@YGXH_N0@Z 100870c0     hooks.obj
 0002:000170c8       __ehfuncinfo$?HookedPaintTraverse@HOOKS@@YGXH_N0@Z 100870c8     hooks.obj
 0002:000170ec       __unwindtable$?HookedSceneEnd@HOOKS@@YIXPAX0@Z 100870ec     hooks.obj
 0002:000170fc       __ehfuncinfo$?HookedSceneEnd@HOOKS@@YIXPAX0@Z 100870fc     hooks.obj
 0002:00017120       __ehfuncinfo$?InitInterfaces@INTERFACES@@YAXXZ 10087120     interfaces.obj
 0002:00017144       __unwindtable$?InitInterfaces@INTERFACES@@YAXXZ 10087144     interfaces.obj
 0002:00017254       __unwindtable$?FindInterface@INTERFACES@@YAPAXPBD0@Z 10087254     interfaces.obj
 0002:00017264       __ehfuncinfo$?FindInterface@INTERFACES@@YAPAXPBD0@Z 10087264     interfaces.obj
 0002:00017288       __catchsym$??6?$basic_ostream@DU?$char_traits@D@std@@@std@@QAEAAV01@PBX@Z$15 10087288     interfaces.obj
 0002:00017298       __tryblocktable$??6?$basic_ostream@DU?$char_traits@D@std@@@std@@QAEAAV01@PBX@Z 10087298     interfaces.obj
 0002:000172ac       __ehfuncinfo$??6?$basic_ostream@DU?$char_traits@D@std@@@std@@QAEAAV01@PBX@Z 100872ac     interfaces.obj
 0002:000172d0       __unwindtable$??6?$basic_ostream@DU?$char_traits@D@std@@@std@@QAEAAV01@PBX@Z 100872d0     interfaces.obj
 0002:00017330       __unwindtable$?Log@UTILS@@YAXV?$basic_string@DU?$char_traits@D@std@@V?$allocator@D@2@@std@@@Z 10087330     logging.obj
 0002:00017340       __ehfuncinfo$?Log@UTILS@@YAXV?$basic_string@DU?$char_traits@D@std@@V?$allocator@D@2@@std@@@Z 10087340     logging.obj
 0002:00017364       __ehfuncinfo$??0?$basic_fstream@DU?$char_traits@D@std@@@std@@QAE@XZ 10087364     logging.obj
 0002:00017388       __unwindtable$??0?$basic_fstream@DU?$char_traits@D@std@@@std@@QAE@XZ 10087388     logging.obj
 0002:000173c8       __unwindtable$?open@?$basic_fstream@DU?$char_traits@D@std@@@std@@QAEXPBDHH@Z 100873c8     logging.obj
 0002:000173e0       __ehfuncinfo$?open@?$basic_fstream@DU?$char_traits@D@std@@@std@@QAEXPBDHH@Z 100873e0     logging.obj
 0002:00017404       __unwindtable$?Hook@CNetvarManager@UTILS@@QAEPAXV?$basic_string@DU?$char_traits@D@std@@V?$allocator@D@2@@std@@0P6AXPBVCRecvProxyData@SDK@@PAX2@Z@Z 10087404     NetvarManager.obj
 0002:00017424       __ehfuncinfo$?Hook@CNetvarManager@UTILS@@QAEPAXV?$basic_string@DU?$char_traits@D@std@@V?$allocator@D@2@@std@@0P6AXPBVCRecvProxyData@SDK@@PAX2@Z@Z 10087424     NetvarManager.obj
 0002:00017448       __unwindtable$?GetOffset@CNetvarManager@UTILS@@QAEIV?$basic_string@DU?$char_traits@D@std@@V?$allocator@D@2@@std@@0@Z 10087448     NetvarManager.obj
 0002:00017460       __ehfuncinfo$?GetOffset@CNetvarManager@UTILS@@QAEIV?$basic_string@DU?$char_traits@D@std@@V?$allocator@D@2@@std@@0@Z 10087460     NetvarManager.obj
 0002:00017484       __ehfuncinfo$?RecursivelyFindOffset@CNetvarManager@UTILS@@AAEIPAURecvTable@SDK@@V?$basic_string@DU?$char_traits@D@std@@V?$allocator@D@2@@std@@1@Z 10087484     NetvarManager.obj
 0002:000174a8       __unwindtable$?RecursivelyFindOffset@CNetvarManager@UTILS@@AAEIPAURecvTable@SDK@@V?$basic_string@DU?$char_traits@D@std@@V?$allocator@D@2@@std@@1@Z 100874a8     NetvarManager.obj
 0002:000174d8       __ehfuncinfo$?InitOffsets@OFFSETS@@YAXXZ 100874d8     offsets.obj
 0002:000174fc       __unwindtable$?InitOffsets@OFFSETS@@YAXXZ 100874fc     offsets.obj
 0002:00017abc       __unwindtable$?DrawF@RENDER@@YAXHHI_N0VCColor@@V?$basic_string@DU?$char_traits@D@std@@V?$allocator@D@2@@std@@@Z 10087abc     render.obj
 0002:00017acc       __ehfuncinfo$?DrawF@RENDER@@YAXHHI_N0VCColor@@V?$basic_string@DU?$char_traits@D@std@@V?$allocator@D@2@@std@@@Z 10087acc     render.obj
 0002:00017af0       __unwindtable$?GetTextSize@RENDER@@YA?AVVector2D@@IV?$basic_string@DU?$char_traits@D@std@@V?$allocator@D@2@@std@@@Z 10087af0     render.obj
 0002:00017b00       __ehfuncinfo$?GetTextSize@RENDER@@YA?AVVector2D@@IV?$basic_string@DU?$char_traits@D@std@@V?$allocator@D@2@@std@@@Z 10087b00     render.obj
 0002:00017b24       __unwindtable$?DrawFilledCircle@RENDER@@YAXHHHHVCColor@@@Z 10087b24     render.obj
 0002:00017b3c       __ehfuncinfo$?DrawFilledCircle@RENDER@@YAXHHHHVCColor@@@Z 10087b3c     render.obj
 0002:00017b60       __unwindtable$?TexturedPolygon@RENDER@@YAXHV?$vector@UVertex_t@SDK@@V?$allocator@UVertex_t@SDK@@@std@@@std@@VCColor@@@Z 10087b60     render.obj
 0002:00017b70       __ehfuncinfo$?TexturedPolygon@RENDER@@YAXHV?$vector@UVertex_t@SDK@@V?$allocator@UVertex_t@SDK@@@std@@@std@@VCColor@@@Z 10087b70     render.obj
 0002:00017b94       __unwindtable$?InitFonts@FONTS@@YAXXZ 10087b94     variables.obj
 0002:00017ba4       __ehfuncinfo$?InitFonts@FONTS@@YAXXZ 10087ba4     variables.obj
 0002:00017c78       __unwindtable$?_Locimp_dtor@_Locimp@locale@std@@CAXPAV123@@Z 10087c78     libcpmt:locale0.obj
 0002:00017c80       __ehfuncinfo$?_Locimp_dtor@_Locimp@locale@std@@CAXPAV123@@Z 10087c80     libcpmt:locale0.obj
 0002:00017ca4       __unwindtable$?_Init@locale@std@@CAPAV_Locimp@12@_N@Z 10087ca4     libcpmt:locale0.obj
 0002:00017cac       __ehfuncinfo$?_Init@locale@std@@CAPAV_Locimp@12@_N@Z 10087cac     libcpmt:locale0.obj
 0002:00017cd0       __unwindtable$??0?$basic_ostream@DU?$char_traits@D@std@@@std@@QAE@PAV?$basic_streambuf@DU?$char_traits@D@std@@@1@_N@Z 10087cd0     libcpmt:cout.obj
 0002:00017cd8       __ehfuncinfo$??0?$basic_ostream@DU?$char_traits@D@std@@@std@@QAE@PAV?$basic_streambuf@DU?$char_traits@D@std@@@1@_N@Z 10087cd8     libcpmt:cout.obj
 0002:00017d30       __sehtable$??_L@YGXPAXIIP6EX0@Z1@Z 10087d30     LIBCMT:ehvecctr.obj
 0002:00017d50       __sehtable$??_M@YGXPAXIIP6EX0@Z@Z 10087d50     LIBCMT:ehvecdtr.obj
 0002:00017d70       __sehtable$?__ArrayUnwind@@YGXPAXIIP6EX0@Z@Z 10087d70     LIBCMT:ehvecdtr.obj
 0002:00017d90       __sehtable$___scrt_is_nonwritable_in_current_image 10087d90     LIBCMT:utility.obj
 0002:00017db0       __sehtable$?dllmain_crt_process_attach@@YAHQAUHINSTANCE__@@QAX@Z 10087db0     LIBCMT:dll_dllmain.obj
 0002:00017dd0       __sehtable$?dllmain_crt_process_detach@@YAH_N@Z 10087dd0     LIBCMT:dll_dllmain.obj
 0002:00017df0       __sehtable$?dllmain_dispatch@@YAHQAUHINSTANCE__@@KQAX@Z 10087df0     LIBCMT:dll_dllmain.obj
 0002:00017e48       __sehtable$___DestructExceptionObject 10087e48     libvcruntime:ehhelpers.obj
 0002:00017e68       __sehtable$?FrameUnwindToState@__FrameHandler3@@SAXPAUEHRegistrationNode@@PAXPBU_s_FuncInfo@@H@Z 10087e68     libvcruntime:frame.obj
 0002:00017e90       __sehtable$?CallCatchBlock@@YAPAXPAUEHExceptionRecord@@PAUEHRegistrationNode@@PAU_CONTEXT@@PBU_s_FuncInfo@@PAXHK@Z 10087e90     libvcruntime:frame.obj
 0002:00017eb8       __catchsym$?CallUnexpected@@YAXPBU_s_ESTypeList@@@Z$2 10087eb8     libvcruntime:frame.obj
 0002:00017ec8       __unwindtable$?CallUnexpected@@YAXPBU_s_ESTypeList@@@Z 10087ec8     libvcruntime:frame.obj
 0002:00017ed8       __tryblocktable$?CallUnexpected@@YAXPBU_s_ESTypeList@@@Z 10087ed8     libvcruntime:frame.obj
 0002:00017eec       __ehfuncinfo$?CallUnexpected@@YAXPBU_s_ESTypeList@@@Z 10087eec     libvcruntime:frame.obj
 0002:00017f10       __sehtable$??$BuildCatchObjectHelperInternal@V__FrameHandler3@@@@YAHPAUEHExceptionRecord@@PAXPBU_s_HandlerType@@PBU_s_CatchableType@@@Z 10087f10     libvcruntime:frame.obj
 0002:00017f30       __sehtable$??$BuildCatchObjectInternal@V__FrameHandler3@@@@YAXPAUEHExceptionRecord@@PAXPBU_s_HandlerType@@PBU_s_CatchableType@@@Z 10087f30     libvcruntime:frame.obj
 0002:00017f88       __sehtable$??$?RV<lambda_c29ee0499b841886b80d843682cc403a>@@AAV<lambda_0be4ab1c2a6918fda4e39227d83ea893>@@V<lambda_5a3ed3da325c8ea037a470278c0f2d16>@@@?$__crt_seh_guarded_call@H@@QAEH$$QAV<lambda_c29ee0499b841886b80d843682cc403a>@@AAV<lambda_0be4ab1c2a6918fda4e39227d83ea893>@@$$QAV<lambda_5a3ed3da325c8ea037a470278c0f2d16>@@@Z 10087f88     libucrt:output.obj
 0002:00017fa8       __sehtable$_terminate      10087fa8     libucrt:terminate.obj
 0002:00017fc8       __sehtable$_fclose         10087fc8     libucrt:fclose.obj
 0002:00017fe8       __sehtable$??$?RV<lambda_2866be3712abc81a800a822484c830d8>@@AAV<lambda_39ca0ed439415581b5b15c265174cece>@@V<lambda_2b24c74d71094a6cd0cb82e44167d71b>@@@?$__crt_seh_guarded_call@X@@QAEX$$QAV<lambda_2866be3712abc81a800a822484c830d8>@@AAV<lambda_39ca0ed439415581b5b15c265174cece>@@$$QAV<lambda_2b24c74d71094a6cd0cb82e44167d71b>@@@Z 10087fe8     libucrt:fflush.obj
 0002:00018008       __sehtable$??$?RV<lambda_2cc53f568c5a2bb6f192f930a45d44ea>@@AAV<lambda_ab61a845afdef5b7c387490eaf3616ee>@@V<lambda_c2ffc0b7726aa6be21d5f0026187e748>@@@?$__crt_seh_guarded_call@X@@QAEX$$QAV<lambda_2cc53f568c5a2bb6f192f930a45d44ea>@@AAV<lambda_ab61a845afdef5b7c387490eaf3616ee>@@$$QAV<lambda_c2ffc0b7726aa6be21d5f0026187e748>@@@Z 10088008     libucrt:fflush.obj
 0002:00018028       __sehtable$??$?RV<lambda_6d20deecaf4856105ebacbad442d1079>@@AAV<lambda_9a32fed5bf61b6b509b2d3f6003082a1>@@V<lambda_63ea2239ed67c638ddbae41947fdf875>@@@?$__crt_seh_guarded_call@H@@QAEH$$QAV<lambda_6d20deecaf4856105ebacbad442d1079>@@AAV<lambda_9a32fed5bf61b6b509b2d3f6003082a1>@@$$QAV<lambda_63ea2239ed67c638ddbae41947fdf875>@@@Z 10088028     libucrt:fflush.obj
 0002:00018048       __sehtable$_fgetc          10088048     libucrt:fgetc.obj
 0002:00018068       __sehtable$_fputc          10088068     libucrt:fputc.obj
 0002:00018088       __sehtable$_fread_s        10088088     libucrt:fread.obj
 0002:000180a8       __sehtable$?common_fseek@@YAHV__crt_stdio_stream@@_JH@Z 100880a8     libucrt:fseek.obj
 0002:000180c8       __sehtable$??$?RV<lambda_4ac01c32aa5b53846f05d0620572872e>@@AAV<lambda_5856287d7ecd2be6c9197bb4007c3f6e>@@V<lambda_e7a9868ed898c75c0f0637692d94351a>@@@?$__crt_seh_guarded_call@I@@QAEI$$QAV<lambda_4ac01c32aa5b53846f05d0620572872e>@@AAV<lambda_5856287d7ecd2be6c9197bb4007c3f6e>@@$$QAV<lambda_e7a9868ed898c75c0f0637692d94351a>@@@Z 100880c8     libucrt:fwrite.obj
 0002:000180e8       __sehtable$??$?RV<lambda_70c0770dcc4f6ec6272bb01dc82d3c91>@@AAV<lambda_ca71763b3c0644891230e4f79ea54fa6>@@V<lambda_ca266f0f09348b8765c113e3a39a2bc1>@@@?$__crt_seh_guarded_call@H@@QAEH$$QAV<lambda_70c0770dcc4f6ec6272bb01dc82d3c91>@@AAV<lambda_ca71763b3c0644891230e4f79ea54fa6>@@$$QAV<lambda_ca266f0f09348b8765c113e3a39a2bc1>@@@Z 100880e8     libucrt:setvbuf.obj
 0002:00018108       __sehtable$_ungetc         10088108     libucrt:ungetc.obj
 0002:00018128       __sehtable$??$common_freopen@D@@YAHQAPAU_iobuf@@QBD1V__crt_stdio_stream@@H@Z 10088128     libucrt:freopen.obj
 0002:00018148       __sehtable$??$?RV<lambda_646e26742ed01d5bc03234f44bb6d3d3>@@AAV<lambda_b37934c380d97b75fd242ea49540127a>@@V<lambda_bbd9d45274666fbb50f81a29ad795c13>@@@?$__crt_seh_guarded_call@PAD@@QAEPAD$$QAV<lambda_646e26742ed01d5bc03234f44bb6d3d3>@@AAV<lambda_b37934c380d97b75fd242ea49540127a>@@$$QAV<lambda_bbd9d45274666fbb50f81a29ad795c13>@@@Z 10088148     libucrt:setlocale.obj
 0002:00018168       __sehtable$??$common_fsopen@D@@YAPAU_iobuf@@QBD0H@Z 10088168     libucrt:fopen.obj
 0002:00018188       __sehtable$__query_new_handler 10088188     libucrt:new_handler.obj
 0002:000181a8       __sehtable$??R<lambda_6e4b09c48022b2350581041d5f6b0c4c>@@QBE@XZ 100881a8     libucrt:exit.obj
 0002:000181c8       __sehtable$??$?RV<lambda_03b1d95aef87969028cfba75ccab2455>@@AAV<lambda_6e4b09c48022b2350581041d5f6b0c4c>@@V<lambda_22bdf7517842c4b3e53723af5aa32b9e>@@@?$__crt_seh_guarded_call@X@@QAEX$$QAV<lambda_03b1d95aef87969028cfba75ccab2455>@@AAV<lambda_6e4b09c48022b2350581041d5f6b0c4c>@@$$QAV<lambda_22bdf7517842c4b3e53723af5aa32b9e>@@@Z 100881c8     libucrt:exit.obj
 0002:000181e8       __sehtable$??$?RV<lambda_8e746cf0007f6ed984d6f78af1fec997>@@AAV<lambda_22ebabd17bc4fa466a2aca6d8deb888d>@@V<lambda_18ed0c0b38a6dc0daf1e7ac6d6adf05e>@@@?$__crt_seh_guarded_call@H@@QAEH$$QAV<lambda_8e746cf0007f6ed984d6f78af1fec997>@@AAV<lambda_22ebabd17bc4fa466a2aca6d8deb888d>@@$$QAV<lambda_18ed0c0b38a6dc0daf1e7ac6d6adf05e>@@@Z 100881e8     libucrt:onexit.obj
 0002:00018208       __sehtable$??$?RV<lambda_69a2805e680e0e292e8ba93315fe43a8>@@AAV<lambda_f03950bc5685219e0bcd2087efbe011e>@@V<lambda_03fcd07e894ec930e3f35da366ca99d6>@@@?$__crt_seh_guarded_call@H@@QAEH$$QAV<lambda_69a2805e680e0e292e8ba93315fe43a8>@@AAV<lambda_f03950bc5685219e0bcd2087efbe011e>@@$$QAV<lambda_03fcd07e894ec930e3f35da366ca99d6>@@@Z 10088208     libucrt:onexit.obj
 0002:00018228       __sehtable$??$?RV<lambda_15ade71b0218206bbe3333a0c9b79046>@@AAV<lambda_da44e0f8b0f19ba52fefafb335991732>@@V<lambda_207f2d024fc103971653565357d6cd41>@@@?$__crt_seh_guarded_call@X@@QAEX$$QAV<lambda_15ade71b0218206bbe3333a0c9b79046>@@AAV<lambda_da44e0f8b0f19ba52fefafb335991732>@@$$QAV<lambda_207f2d024fc103971653565357d6cd41>@@@Z 10088228     libucrt:per_thread_data.obj
 0002:00018248       __sehtable$??$?RV<lambda_a7e850c220f1c8d1e6efeecdedd162c6>@@AAV<lambda_46720907175c18b6c9d2717bc0d2d362>@@V<lambda_9048902d66e8d99359bc9897bbb930a8>@@@?$__crt_seh_guarded_call@X@@QAEX$$QAV<lambda_a7e850c220f1c8d1e6efeecdedd162c6>@@AAV<lambda_46720907175c18b6c9d2717bc0d2d362>@@$$QAV<lambda_9048902d66e8d99359bc9897bbb930a8>@@@Z 10088248     libucrt:per_thread_data.obj
 0002:00018268       __sehtable$??$?RV<lambda_38edbb1296d33220d7e4dd0ed76b244a>@@AAV<lambda_5ce1d447e08cb34b2473517608e21441>@@V<lambda_fb385d3da700c9147fc39e65dd577a8c>@@@?$__crt_seh_guarded_call@X@@QAEX$$QAV<lambda_38edbb1296d33220d7e4dd0ed76b244a>@@AAV<lambda_5ce1d447e08cb34b2473517608e21441>@@$$QAV<lambda_fb385d3da700c9147fc39e65dd577a8c>@@@Z 10088268     libucrt:per_thread_data.obj
 0002:00018288       __sehtable$??$?RV<lambda_6affb1475c98b40b75cdec977db92e3c>@@AAV<lambda_b8d4b9c228a6ecc3f80208dbb4b4a104>@@V<lambda_608742c3c92a14382c1684fc64f96c88>@@@?$__crt_seh_guarded_call@X@@QAEX$$QAV<lambda_6affb1475c98b40b75cdec977db92e3c>@@AAV<lambda_b8d4b9c228a6ecc3f80208dbb4b4a104>@@$$QAV<lambda_608742c3c92a14382c1684fc64f96c88>@@@Z 10088288     libucrt:per_thread_data.obj
 0002:000182a8       __sehtable$??$?RV<lambda_e5124f882df8998aaf41531e079ba474>@@AAV<lambda_3e16ef9562a7dcce91392c22ab16ea36>@@V<lambda_e25ca0880e6ef98be67edffd8c599615>@@@?$__crt_seh_guarded_call@X@@QAEX$$QAV<lambda_e5124f882df8998aaf41531e079ba474>@@AAV<lambda_3e16ef9562a7dcce91392c22ab16ea36>@@$$QAV<lambda_e25ca0880e6ef98be67edffd8c599615>@@@Z 100882a8     libucrt:wsetlocale.obj
 0002:000182c8       __sehtable$??$?RV<lambda_4fdada1b837b2abbf20876fac97688ad>@@AAV<lambda_b57350f2640456a0859d250846f69caf>@@V<lambda_eed5e4f92b5b7d55fa22c48c484aaa54>@@@?$__crt_seh_guarded_call@X@@QAEX$$QAV<lambda_4fdada1b837b2abbf20876fac97688ad>@@AAV<lambda_b57350f2640456a0859d250846f69caf>@@$$QAV<lambda_eed5e4f92b5b7d55fa22c48c484aaa54>@@@Z 100882c8     libucrt:wsetlocale.obj
 0002:000182e8       __sehtable$??$?RV<lambda_135d2772fca65dc1248eeaa1b56e886a>@@AAV<lambda_2a444430fde8c29194d880d93eed5e8f>@@AAV<lambda_8dff2cf36a5417162780cd64fa2883ef>@@@?$__crt_seh_guarded_call@X@@QAEX$$QAV<lambda_135d2772fca65dc1248eeaa1b56e886a>@@AAV<lambda_2a444430fde8c29194d880d93eed5e8f>@@AAV<lambda_8dff2cf36a5417162780cd64fa2883ef>@@@Z 100882e8     libucrt:wsetlocale.obj
 0002:00018308       __sehtable$___acrt_initialize_lowio 10088308     libucrt:ioinit.obj
 0002:00018328       __sehtable$??$?RV<lambda_6b4b7855443974f2b4b77000ea21c99c>@@AAV<lambda_8f7d3b162ab39427f4fa9995c67a7986>@@V<lambda_cc9a5ba8a5d8428b9634eab82665e5dc>@@@?$__crt_seh_guarded_call@H@@QAEH$$QAV<lambda_6b4b7855443974f2b4b77000ea21c99c>@@AAV<lambda_8f7d3b162ab39427f4fa9995c67a7986>@@$$QAV<lambda_cc9a5ba8a5d8428b9634eab82665e5dc>@@@Z 10088328     libucrt:winapi_thunks.obj
 0002:00018348       __sehtable$__fcloseall     10088348     libucrt:closeall.obj
 0002:00018368       __sehtable$??$?RV<lambda_218ce3db14220d0be481dae8ef3383b6>@@AAV<lambda_628dfdc04ba53c8bfc02c9951375f3f5>@@V<lambda_57dc472bd5c9d5f3b2cbca59b8a843ae>@@@?$__crt_seh_guarded_call@H@@QAEH$$QAV<lambda_218ce3db14220d0be481dae8ef3383b6>@@AAV<lambda_628dfdc04ba53c8bfc02c9951375f3f5>@@$$QAV<lambda_57dc472bd5c9d5f3b2cbca59b8a843ae>@@@Z 10088368     libucrt:close.obj
 0002:00018388       __sehtable$?__acrt_stdio_allocate_stream@@YA?AV__crt_stdio_stream@@XZ 10088388     libucrt:stream.obj
 0002:000183a8       __sehtable$??$?RV<lambda_9e9de3de5fa147e2223d7db92bc10aa6>@@AAV<lambda_38ce7e780aa69e748d6df282ebc68efe>@@V<lambda_8ca6da459f0f6780f1cff60fdc3d00e5>@@@?$__crt_seh_guarded_call@H@@QAEH$$QAV<lambda_9e9de3de5fa147e2223d7db92bc10aa6>@@AAV<lambda_38ce7e780aa69e748d6df282ebc68efe>@@$$QAV<lambda_8ca6da459f0f6780f1cff60fdc3d00e5>@@@Z 100883a8     libucrt:commit.obj
 0002:000183c8       __sehtable$__write         100883c8     libucrt:write.obj
 0002:000183e8       __sehtable$??$common_ftell@_J@@YA_JV__crt_stdio_stream@@@Z 100883e8     libucrt:ftell.obj
 0002:00018408       __sehtable$__read          10088408     libucrt:read.obj
 0002:00018428       __sehtable$??$common_lseek@_J@@YA_JH_JH@Z 10088428     libucrt:lseek.obj
 0002:00018448       __sehtable$__isindst       10088448     libucrt:tzset.obj
 0002:00018468       __sehtable$___tzset        10088468     libucrt:tzset.obj
 0002:00018484       __unwindtable$?_wcstombs_l_helper@@YAIPADPB_WIPAU__crt_locale_pointers@@@Z 10088484     libucrt:wcstombs.obj
 0002:0001848c       __ehfuncinfo$?_wcstombs_l_helper@@YAIPADPB_WIPAU__crt_locale_pointers@@@Z 1008848c     libucrt:wcstombs.obj
 0002:000184b0       __sehtable$_raise          100884b0     libucrt:signal.obj
 0002:000184d0       __sehtable$??$?RV<lambda_cbab9ec6f41b0180b23cc171c22676b0>@@AAV<lambda_44731a7d0e6d81c3e6aa82d741081786>@@V<lambda_4b292cb8dd18144e164572427af410ab>@@@?$__crt_seh_guarded_call@P6AXH@Z@@QAEP6AXH@Z$$QAV<lambda_cbab9ec6f41b0180b23cc171c22676b0>@@AAV<lambda_44731a7d0e6d81c3e6aa82d741081786>@@$$QAV<lambda_4b292cb8dd18144e164572427af410ab>@@@Z 100884d0     libucrt:signal.obj
 0002:000184f0       __sehtable$?update_thread_multibyte_data_internal@@YAPAU__crt_multibyte_data@@QAU__acrt_ptd@@QAPAU1@@Z 100884f0     libucrt:mbctype.obj
 0002:00018510       __sehtable$??$?RV<lambda_ceb1ee4838e85a9d631eb091e2fbe199>@@AAV<lambda_ae742caa10f662c28703da3d2ea5e57e>@@V<lambda_cd08b5d6af4937fe54fc07d0c9bf6b37>@@@?$__crt_seh_guarded_call@X@@QAEX$$QAV<lambda_ceb1ee4838e85a9d631eb091e2fbe199>@@AAV<lambda_ae742caa10f662c28703da3d2ea5e57e>@@$$QAV<lambda_cd08b5d6af4937fe54fc07d0c9bf6b37>@@@Z 10088510     libucrt:mbctype.obj
 0002:00018530       __sehtable$___acrt_update_thread_locale_data 10088530     libucrt:locale_refcounting.obj
 0002:00018550       __sehtable$__alloc_osfhnd  10088550     libucrt:osfinfo.obj
 0002:00018570       __sehtable$___acrt_lowio_ensure_fh_exists 10088570     libucrt:osfinfo.obj
 0002:00018590       __sehtable$??$common_sopen_dispatch@D@@YAHQBDHHHQAHH@Z 10088590     libucrt:open.obj
 0002:000185b0       __sehtable$??$common_getenv_s@D@@YAHQAIQADIQBD@Z 100885b0     libucrt:getenv.obj
 0002:000185d0       __sehtable$__IsNonwritableInCurrentImage 100885d0     LIBCMT:pesect.obj
 0002:0001896e       .idata$6                   1008896e     kernel32:KERNEL32.dll
 0002:00018a14       .idata$6                   10088a14     user32:USER32.dll
 0002:00018a34       .idata$6                   10088a34     gdi32:GDI32.dll
 0002:00018a3e       .idata$6                   10088a3e     oleaut32:OLEAUT32.dll
 0002:00018a62       .idata$6                   10088a62     urlmon:urlmon.dll
 0002:00018a9c       .idata$6                   10088a9c     Winmm:WINMM.dll
 0003:00000044       ?material_update_time@?1??UpdateMaterials@CChams@VISUALS@FEATURES@@AAEXXZ@4IA 1008a044     Chams.obj
 0003:00000048       ?created@?1??CreateMaterial@CChams@VISUALS@FEATURES@@QAEPAVIMaterial@SDK@@_N00@Z@4HA 1008a048     Chams.obj
 0003:0000a490       ?main_tabs@?BE@??Do@MENU@PPGUI@@YAXXZ@4PAY0BAA@DA 10094490     Menu.obj
 0003:0000a890       ?ignore_types@?BL@??Do@MENU@PPGUI@@YAXXZ@4PAY0BAA@DA 10094890     Menu.obj
 0003:0000ad90       ?autostop_types@?BL@??Do@MENU@PPGUI@@YAXXZ@4PAY0BAA@DA 10094d90     Menu.obj
 0003:0000af90       ?delay_shot_types@?BL@??Do@MENU@PPGUI@@YAXXZ@4PAY0BAA@DA 10094f90     Menu.obj
 0003:0000b190       ?fake_latency_types@?BL@??Do@MENU@PPGUI@@YAXXZ@4PAY0BAA@DA 10095190     Menu.obj
 0003:0000b390       ?accuracy_types@?BL@??Do@MENU@PPGUI@@YAXXZ@4PAY0BAA@DA 10095390     Menu.obj
 0003:0000b690       ?hitscan_items@?BL@??Do@MENU@PPGUI@@YAXXZ@4PAY0BAA@DA 10095690     Menu.obj
 0003:0000bb90       ?antiaim_tabs@?DG@??Do@MENU@PPGUI@@YAXXZ@4PAY0BAA@DA 10095b90     Menu.obj
 0003:0000bf90       ?antiaim_real_types@?DG@??Do@MENU@PPGUI@@YAXXZ@4PAY0BAA@DA 10095f90     Menu.obj
 0003:0000c490       ?antiaim_fake_types@?DG@??Do@MENU@PPGUI@@YAXXZ@4PAY0BAA@DA 10096490     Menu.obj
 0003:0000ca90       ?antiaim_pitch_types@?DG@??Do@MENU@PPGUI@@YAXXZ@4PAY0BAA@DA 10096a90     Menu.obj
 0003:0000ce90       ?antiaim_edging_types@?EO@??Do@MENU@PPGUI@@YAXXZ@4PAY0BAA@DA 10096e90     Menu.obj
 0003:0000d190       ?thirdperson_angles@?FD@??Do@MENU@PPGUI@@YAXXZ@4PAY0BAA@DA 10097190     Menu.obj
 0003:0000d490       ?glow_types@?IJ@??Do@MENU@PPGUI@@YAXXZ@4PAY0BAA@DA 10097490     Menu.obj
 0003:0000d890       ?clan_tag_changer_styles@?NP@??Do@MENU@PPGUI@@YAXXZ@4PAY0BAA@DA 10097890     Menu.obj
 0003:0000e458       ?buf@?1??TexturedPolygon@RENDER@@YAXHV?$vector@UVertex_t@SDK@@V?$allocator@UVertex_t@SDK@@@std@@@std@@VCColor@@@Z@4PAEA 10098458     render.obj
 0003:0000e460       ?init@std@@3JA             10098460     libcpmt:xlock.obj
 0003:0000e4bc       ?atcount_cdecl@@3IA        100984bc     libcpmt:iosptrs.obj
 0003:0000e500       ?__vcrt_flsindex@@3KA      10098500     libvcruntime:per_thread_data.obj
 0003:0000e520       ?errno_no_memory@@3HA      10098520     libucrt:errno.obj
 0003:0000e524       ?doserrno_no_memory@@3KA   10098524     libucrt:errno.obj
 0003:0000e650       ?__acrt_flsindex@@3KA      10098650     libucrt:per_thread_data.obj
 0003:0000e660       __ctype_loc_style          10098660     libucrt:wsetlocale.obj
 0003:0000e870       ?tzstd_program@@3PADA      10098870     libucrt:timeset.obj
 0003:0000e8b0       ?tzdst_program@@3PADA      100988b0     libucrt:timeset.obj
 0003:0000e8f0       ?tzname_states@@3PAY01PADA 100988f0     libucrt:timeset.obj
 0003:0000e8f8       ?dststart@@3Utransitiondate@?A0x7639d0b4@@A 100988f8     libucrt:tzset.obj
 0003:0000e904       ?dstend@@3Utransitiondate@?A0x7639d0b4@@A 10098904     libucrt:tzset.obj
 0003:0000eb40       __mbctypes                 10098b40     libucrt:mbctype.obj
 0003:0000ec48       __mbcasemaps               10098c48     libucrt:mbctype.obj
 0003:0000ed48       ?__rgctypeflag@@3PADA      10098d48     libucrt:mbctype.obj
 0003:0000ed50       ?__rgcode_page_info@@3PAUcode_page_info@@A 10098d50     libucrt:mbctype.obj
 0003:0000ee40       ?__dcrt_lowio_console_output_handle@@3PAXA 10098e40     libucrt:initcon.obj
 0003:000bdc78       ?duration_spent_aiming@?1??Do@Aimbot@RAGEBOT@FEATURES@@QAEXPAVCUserCmd@SDK@@@Z@4MA 10147c78     Aimbot.obj
 0003:000bf02c       ?last_lby@?M@??UpdateLBY@Antiaim@RAGEBOT@FEATURES@@QAEXXZ@4MA 1014902c     Antiaim.obj
 0003:000bf030       ?switch_bool@?6??BreakLBY@Antiaim@RAGEBOT@FEATURES@@AAEMMM_N@Z@4_NA 10149030     Antiaim.obj
 0003:000bf040       ?HBP@?1??CanPenetrate@Autowall@RAGEBOT@FEATURES@@AAE_NPAVCBaseEntity@SDK@@AAUAutowall_Info@234@PAUWeapon_Info@6@@Z@4P6E_N0PAMPAHPADPAUtrace_t@6@PAVVector@@HMMHHM47HH3@ZA 10149040     Autowall.obj
 0003:000bf044       ?$TSS0@?1??CanPenetrate@Autowall@RAGEBOT@FEATURES@@AAE_NPAVCBaseEntity@SDK@@AAUAutowall_Info@234@PAUWeapon_Info@6@@Z@4HA 10149044     Autowall.obj
 0003:000bf3b4       ?InvalidateBoneCache@?1??0CBacktracking@RAGEBOT@FEATURES@@CAXPAVCBaseEntity@SDK@@@Z@4IA 101493b4     Backtracking.obj
 0003:000bf3b8       ?$TSS0@?1??InvalidateBoneCache@CBacktracking@RAGEBOT@FEATURES@@CAXPAVCBaseEntity@SDK@@@Z@4HA 101493b8     Backtracking.obj
 0003:000bf3bc       ?g_iModelBoneCounter@?1??InvalidateBoneCache@CBacktracking@RAGEBOT@FEATURES@@CAXPAVCBaseEntity@SDK@@@Z@4IA 101493bc     Backtracking.obj
 0003:000bf3c0       ?$TSS1@?1??InvalidateBoneCache@CBacktracking@RAGEBOT@FEATURES@@CAXPAVCBaseEntity@SDK@@@Z@4HA 101493c0     Backtracking.obj
 0003:000bf3c4       ?cl_interp_ratio@?1??GetLerpTicks@CBacktracking@RAGEBOT@FEATURES@@SAHXZ@4QAVConVar@SDK@@A 101493c4     Backtracking.obj
 0003:000bf3c8       ?$TSS0@?1??GetLerpTicks@CBacktracking@RAGEBOT@FEATURES@@SAHXZ@4HA 101493c8     Backtracking.obj
 0003:000bf3cc       ?cl_updaterate@?1??GetLerpTicks@CBacktracking@RAGEBOT@FEATURES@@SAHXZ@4QAVConVar@SDK@@A 101493cc     Backtracking.obj
 0003:000bf3d0       ?$TSS1@?1??GetLerpTicks@CBacktracking@RAGEBOT@FEATURES@@SAHXZ@4HA 101493d0     Backtracking.obj
 0003:000bf3d4       ?cl_interp@?1??GetLerpTicks@CBacktracking@RAGEBOT@FEATURES@@SAHXZ@4QAVConVar@SDK@@A 101493d4     Backtracking.obj
 0003:000bf3d8       ?$TSS2@?1??GetLerpTicks@CBacktracking@RAGEBOT@FEATURES@@SAHXZ@4HA 101493d8     Backtracking.obj
 0003:000bf404       ?initilized@?1??UpdateMaterials@CChams@VISUALS@FEATURES@@AAEXXZ@4_NA 10149404     Chams.obj
 0003:000bf405       ?last_local_wireframe@?1??UpdateMaterials@CChams@VISUALS@FEATURES@@AAEXXZ@4_NA 10149405     Chams.obj
 0003:000bf406       ?last_enemy_wireframe@?1??UpdateMaterials@CChams@VISUALS@FEATURES@@AAEXXZ@4_NA 10149406     Chams.obj
 0003:000bf407       ?last_team_wireframe@?1??UpdateMaterials@CChams@VISUALS@FEATURES@@AAEXXZ@4_NA 10149407     Chams.obj
 0003:000bf408       ?address@?1??InitKeyValues@CChams@VISUALS@FEATURES@@AAEXPAVKeyValues@SDK@@V?$basic_string@DU?$char_traits@D@std@@V?$allocator@D@2@@std@@@Z@4IA 10149408     Chams.obj
 0003:000bf40c       ?$TSS0@?1??InitKeyValues@CChams@VISUALS@FEATURES@@AAEXPAVKeyValues@SDK@@V?$basic_string@DU?$char_traits@D@std@@V?$allocator@D@2@@std@@@Z@4HA 1014940c     Chams.obj
 0003:000bf410       ?address@?1??LoadFromBuffer@CChams@VISUALS@FEATURES@@AAEXPAVKeyValues@SDK@@V?$basic_string@DU?$char_traits@D@std@@V?$allocator@D@2@@std@@1@Z@4IA 10149410     Chams.obj
 0003:000bf414       ?$TSS0@?1??LoadFromBuffer@CChams@VISUALS@FEATURES@@AAEXPAVKeyValues@SDK@@V?$basic_string@DU?$char_traits@D@std@@V?$allocator@D@2@@std@@1@Z@4HA 10149414     Chams.obj
 0003:000bf418       ?tmp@?1??CreateMaterial@CChams@VISUALS@FEATURES@@QAEPAVIMaterial@SDK@@_N00@Z@4V?$basic_string@DU?$char_traits@D@std@@V?$allocator@D@2@@std@@A 10149418     Chams.obj
 0003:000bf430       ?$TSS0@?1??CreateMaterial@CChams@VISUALS@FEATURES@@QAEPAVIMaterial@SDK@@_N00@Z@4HA 10149430     Chams.obj
 0003:000bf435       ?clock_wise@?1??Do@CircleStrafer@MISC@FEATURES@@QAEXPAVCUserCmd@SDK@@@Z@4_NA 10149435     CircleStrafer.obj
 0003:000bf4fc       ?is_initialized@?1??StartPrediction@EnginePrediction@MISC@FEATURES@@QAEXPAVCUserCmd@SDK@@@Z@4_NA 101494fc     EnginePrediction.obj
 0003:000bf510       ?last_networked_origin@?1??HookedSetupBones@MISC@FEATURES@@YI_NPAX0PAUmatrix3x4_t@@HHM@Z@4VVector@@A 10149510     Misc.obj
 0003:000bf51c       ?is_init@?6??Misc@MISC@FEATURES@@YAXXZ@4_NA 1014951c     Misc.obj
 0003:000bf520       ?delay@?1??AutoRevolver@MISC@FEATURES@@YAXPAVCUserCmd@SDK@@@Z@4MA 10149520     Misc.obj
 0003:000ff478       ?last_time@?1??Do@VISUALS@FEATURES@@YAXXZ@4IA 10189478     Visuals.obj
 0003:000ff48c       ?molotov_throw_detonate_time@?1??DrawGrenadePrediction@VisualsMisc@VISUALS@FEATURES@@AAEXXZ@4PAVConVar@SDK@@A 1018948c     VisualsMisc.obj
 0003:000ff490       ?$TSS0@?1??DrawGrenadePrediction@VisualsMisc@VISUALS@FEATURES@@AAEXXZ@4HA 10189490     VisualsMisc.obj
 0003:000ff494       ?weapon_molotov_maxdetonateslope@?1??DrawGrenadePrediction@VisualsMisc@VISUALS@FEATURES@@AAEXXZ@4PAVConVar@SDK@@A 10189494     VisualsMisc.obj
 0003:000ff498       ?$TSS1@?1??DrawGrenadePrediction@VisualsMisc@VISUALS@FEATURES@@AAEXXZ@4HA 10189498     VisualsMisc.obj
 0003:000ff49c       ?sv_gravity@?1??DrawGrenadePrediction@VisualsMisc@VISUALS@FEATURES@@AAEXXZ@4PAVConVar@SDK@@A 1018949c     VisualsMisc.obj
 0003:000ff4a0       ?$TSS2@?1??DrawGrenadePrediction@VisualsMisc@VISUALS@FEATURES@@AAEXXZ@4HA 101894a0     VisualsMisc.obj
 0003:001016bc       ?skybox_var@?1??DoFSN@WorldTextures@VISUALS@FEATURES@@QAEXXZ@4PAVConVar@SDK@@A 1018b6bc     World Textures.obj
 0003:001016c0       ?$TSS0@?1??DoFSN@WorldTextures@VISUALS@FEATURES@@QAEXXZ@4HA 1018b6c0     World Textures.obj
 0003:001016d4       ?menu_open@?1??Do@MENU@PPGUI@@YAXXZ@4_NA 1018b6d4     Menu.obj
 0003:001016d8       ?selected_weapon@?8??Do@MENU@PPGUI@@YAXXZ@4HA 1018b6d8     Menu.obj
 0003:001016dc       ?selected_main_tab@?BE@??Do@MENU@PPGUI@@YAXXZ@4HA 1018b6dc     Menu.obj
 0003:001016e0       ?selected_antiaim_tab@?DG@??Do@MENU@PPGUI@@YAXXZ@4HA 1018b6e0     Menu.obj
 0003:001016e4       ?test_bool_1@?FA@??Do@MENU@PPGUI@@YAXXZ@4_NA 1018b6e4     Menu.obj
 0003:001016e8       ?ragebot_configs@?LD@??Do@MENU@PPGUI@@YAXXZ@4PAY0BAA@DA 1018b6e8     Menu.obj
 0003:00102ae8       ?selected_ragebot_config@?LD@??Do@MENU@PPGUI@@YAXXZ@4HA 1018cae8     Menu.obj
 0003:00102af0       ?new_config_name@?LG@??Do@MENU@PPGUI@@YAXXZ@4PADA 1018caf0     Menu.obj
 0003:00102bf0       ?new_config_name@?LN@??Do@MENU@PPGUI@@YAXXZ@4PADA 1018cbf0     Menu.obj
 0003:00102cf0       ?main_configs@?MJ@??Do@MENU@PPGUI@@YAXXZ@4PAY0BAA@DA 1018ccf0     Menu.obj
 0003:001040f0       ?selected_main_config@?MJ@??Do@MENU@PPGUI@@YAXXZ@4HA 1018e0f0     Menu.obj
 0003:001040f8       ?new_config_name@?MM@??Do@MENU@PPGUI@@YAXXZ@4PADA 1018e0f8     Menu.obj
 0003:001041f8       ?new_config_name@?ND@??Do@MENU@PPGUI@@YAXXZ@4PADA 1018e1f8     Menu.obj
 0003:001042f8       ?random_num@?2??Draw@PPGUI_Window_Command@PPGUI@@UAEXXZ@4PAMA 1018e2f8     PPGUI_Commands.obj
 0003:0010435c       ?is_init@?3??Draw@PPGUI_Window_Command@PPGUI@@UAEXXZ@4_NA 1018e35c     PPGUI_Commands.obj
 0003:001045b0       ?linegoesthrusmoke@@3IA    1018e5b0     hooks.obj
 0003:00104618       ?smokecout@?4??HookedSceneEnd@HOOKS@@YIXPAX0@Z@4KA 1018e618     hooks.obj
 0003:0010461c       ?$TSS2@?4??HookedSceneEnd@HOOKS@@YIXPAX0@Z@4HA 1018e61c     hooks.obj
 0003:00104ea0       ?file_path@?1??Log@UTILS@@YAXV?$basic_string@DU?$char_traits@D@std@@V?$allocator@D@2@@std@@@Z@4PADA 1018eea0     logging.obj
 0003:00104fa4       ?is_init@?2??Log@UTILS@@YAXV?$basic_string@DU?$char_traits@D@std@@V?$allocator@D@2@@std@@@Z@4_NA 1018efa4     logging.obj
 0003:00105094       ?texture_id@?1??TexturedPolygon@RENDER@@YAXHV?$vector@UVertex_t@SDK@@V?$allocator@UVertex_t@SDK@@@std@@@std@@VCColor@@@Z@4HA 1018f094     render.obj
 0003:00105098       ?$TSS0@?1??TexturedPolygon@RENDER@@YAXHV?$vector@UVertex_t@SDK@@V?$allocator@UVertex_t@SDK@@@std@@@std@@VCColor@@@Z@4HA 1018f098     render.obj
 0003:00105144       ?old_width@?1??ShouldReloadFonts@FONTS@@YA_NXZ@4HA 1018f144     variables.obj
 0003:00105148       ?old_height@?1??ShouldReloadFonts@FONTS@@YA_NXZ@4HA 1018f148     variables.obj
 0003:0010514c       ?is_init@?1??InitFonts@FONTS@@YAXXZ@4_NA 1018f14c     variables.obj
 0003:00105150       ?initlocks@std@@3V_Init_locks@1@A 1018f150     libcpmt:xlock.obj
 0003:00105158       ?mtx@std@@3PAU_RTL_CRITICAL_SECTION@@A 1018f158     libcpmt:xlock.obj
 0003:00105234       ?classic_locale@std@@3Vlocale@1@A 1018f234     libcpmt:locale0.obj
 0003:0010523c       ?_Fac_tidy_reg@std@@3U_Fac_tidy_reg_t@1@B 1018f23c     libcpmt:locale0.obj
 0003:00105240       ?_Fac_head@std@@3PAU_Fac_node@1@A 1018f240     libcpmt:locale0.obj
 0003:00105244       _global_locale             1018f244     libcpmt:locale0.obj
 0003:00105248       ?registered@?1??_Setgloballocale@locale@std@@CAXPAX@Z@4_NA 1018f248     libcpmt:locale0.obj
 0003:00105250       ?stdstr@std@@3PAPAVios_base@1@A 1018f250     libcpmt:ios.obj
 0003:00105278       ?stdopens@std@@3PADA       1018f278     libcpmt:ios.obj
 0003:00105288       ?initlocks@@3V_Init_locks@std@@A 1018f288     libcpmt:cout.obj
 0003:00105289       ?init_cout@std@@3U_Init_cout@1@A 1018f289     libcpmt:cout.obj
 0003:001052e0       ?fout@std@@3V?$basic_filebuf@DU?$char_traits@D@std@@@1@A 1018f2e0     libcpmt:cout.obj
 0003:0010535c       ?initlocks@std@@3V_Init_locks@1@A 1018f35c     libcpmt:iosptrs.obj
 0003:0010535d       ?init_atexit@@3U_Init_atexit@@A 1018f35d     libcpmt:iosptrs.obj
 0003:00105360       ?atfuns_cdecl@@3PAP6AXXZA  1018f360     libcpmt:iosptrs.obj
 0003:001054a0       ?_Tss_mutex@@3U_RTL_CRITICAL_SECTION@@A 1018f4a0     LIBCMT:thread_safe_statics.obj
 0003:001054b8       ?_Tss_cv@@3U_RTL_CONDITION_VARIABLE@@A 1018f4b8     LIBCMT:thread_safe_statics.obj
 0003:001054bc       ?_Tss_event@@3PAXA         1018f4bc     LIBCMT:thread_safe_statics.obj
 0003:001054c0       ?encoded_sleep_condition_variable_cs@@3P6GHPAU_RTL_CONDITION_VARIABLE@@PAU_RTL_CRITICAL_SECTION@@K@ZA 1018f4c0     LIBCMT:thread_safe_statics.obj
 0003:001054c4       ?encoded_wake_all_condition_variable@@3P6GXPAU_RTL_CONDITION_VARIABLE@@@ZA 1018f4c4     LIBCMT:thread_safe_statics.obj
 0003:001054d4       ?is_initialized_as_dll@@3_NA 1018f4d4     LIBCMT:utility.obj
 0003:001054d5       ?module_local_atexit_table_initialized@@3_NA 1018f4d5     LIBCMT:utility.obj
 0003:001054d8       ?module_local_atexit_table@@3U_onexit_table_t@@A 1018f4d8     LIBCMT:utility.obj
 0003:001054e4       ?module_local_at_quick_exit_table@@3U_onexit_table_t@@A 1018f4e4     LIBCMT:utility.obj
 0003:001054f0       _GS_ExceptionRecord        1018f4f0     LIBCMT:gs_report.obj
 0003:00105540       _GS_ContextRecord          1018f540     LIBCMT:gs_report.obj
 0003:0010580c       ?__proc_attached@@3HA      1018f80c     LIBCMT:dll_dllmain.obj
 0003:00105838       ?__vcrt_startup_thread_ptd@@3U__vcrt_ptd@@A 1018f838     libvcruntime:per_thread_data.obj
 0003:00105860       ___vcrt_lock_table         1018f860     libvcruntime:locks.obj
 0003:00105878       ___vcrt_locks_initialized  1018f878     libvcruntime:locks.obj
 0003:0010587c       ?module_handles@@3PAPAUHINSTANCE__@@A 1018f87c     libvcruntime:winapi_downlevel.obj
 0003:00105888       ?encoded_function_pointers@@3PAPAXA 1018f888     libvcruntime:winapi_downlevel.obj
 0003:001058c4       ?heap@@3V_HeapManager@@A   1018f8c4     libvcruntime:undname.obj
 0003:001058d8       ?__acrt_invalid_parameter_handler@@3V?$dual_state_global@P6AXPB_W00II@Z@__crt_state_management@@A 1018f8d8     libucrt:invalid_parameter.obj
 0003:001058f0       ?__acrt_lock_table@@3PAU_RTL_CRITICAL_SECTION@@A 1018f8f0     libucrt:locks.obj
 0003:00105a40       ?__acrt_locks_initialized@@3IA 1018fa40     libucrt:locks.obj
 0003:00105a44       ?__acrt_new_handler@@3V?$dual_state_global@P6AHI@Z@__crt_state_management@@A 1018fa44     libucrt:new_handler.obj
 0003:00105a48       ?c_termination_complete@@3JA 1018fa48     libucrt:exit.obj
 0003:00105a4c       ?thread_local_exit_callback_func@@3P6GXPAXK0@ZA 1018fa4c     libucrt:exit.obj
 0003:00105a58       ?program_name@?1???$common_configure_argv@D@@YAHW4_crt_argv_mode@@@Z@4PADA 1018fa58     libucrt:argv_parsing.obj
 0003:00105b88       __pmatherr_set             1018fb88     libucrt:libm_error.obj
 0003:00105b8c       ?internal_state@?1??_mbtowc_l@@9@4U_Mbstatet@@A 1018fb8c     libucrt:mbtowc.obj
 0003:00105b94       ?enable_percent_n@@3IA     1018fb94     libucrt:printf_count_output.obj
 0003:00105db0       ?module_handles@@3PAPAUHINSTANCE__@@A 1018fdb0     libucrt:winapi_thunks.obj
 0003:00105e00       ?encoded_function_pointers@@3PAPAXA 1018fe00     libucrt:winapi_thunks.obj
 0003:00105e88       ?static_enum_proc@?1??enum_system_locales_ex_nolock@@YAHQ6GHPA_WKJ@Z@Z@4P6GH0KJ@ZA 1018fe88     libucrt:winapi_thunks.obj
 0003:00105e98       ?_tzname@@3V?$dual_state_global@PAPAD@__crt_state_management@@A 1018fe98     libucrt:timeset.obj
 0003:00105e9c       ?last_tz@@3PADA            1018fe9c     libucrt:tzset.obj
 0003:00105ea0       ?tz_api_used@@3HA          1018fea0     libucrt:tzset.obj
 0003:00105ea8       ?tz_info@@3U_TIME_ZONE_INFORMATION@@A 1018fea8     libucrt:tzset.obj
 0003:00105f54       ?first_time@?1??__tzset@@9@4JA 1018ff54     libucrt:tzset.obj
 0003:00105f5c       ?ctrlc_action@@3V?$dual_state_global@P6AXH@Z@__crt_state_management@@A 1018ff5c     libucrt:signal.obj
 0003:00105f60       ?ctrlbreak_action@@3V?$dual_state_global@P6AXH@Z@__crt_state_management@@A 1018ff60     libucrt:signal.obj
 0003:00105f64       ?abort_action@@3V?$dual_state_global@P6AXH@Z@__crt_state_management@@A 1018ff64     libucrt:signal.obj
 0003:00105f68       ?term_action@@3V?$dual_state_global@P6AXH@Z@__crt_state_management@@A 1018ff68     libucrt:signal.obj
 0003:00105f78       ?fSystemSet@@3HA           1018ff78     libucrt:mbctype.obj
 0003:00105f7c       ?initialized@?1??__acrt_initialize_multibyte@@9@4_NA 1018ff7c     libucrt:mbctype.obj
 0003:00105f9c       ?user_matherr@@3V?$dual_state_global@P6AHPAU_exception@@@Z@__crt_state_management@@A 1018ff9c     libucrt:matherr.obj
 0003:00105fa0       ?__acrt_global_new_mode@@3V?$dual_state_global@J@__crt_state_management@@A 1018ffa0     libucrt:new_mode.obj
 0003:00105fa8       ?internal_pst@?1??__mbrtoc32_utf8@__crt_mbstring@@YAIPA_UPBDIPAU_Mbstatet@@@Z@4U3@A 1018ffa8     libucrt:mbrtoc32.obj
 0003:00105fb0       ?__acrt_app_type@@3W4_crt_app_type@@A 1018ffb0     libucrt:report_runtime_error.obj
 0003:00105fb8       ?internal_pst@?1??__c16rtomb_utf8@__crt_mbstring@@YAIPAD_SPAU_Mbstatet@@@Z@4U3@A 1018ffb8     libucrt:c16rtomb.obj
 0004:00000060       $R000000                   10190060     * linker generated manifest res *

 Exports

  ordinal    name

