 Bameware Legacy

 Timestamp is 63b60567 (Thu Jan  5 01:01:59 2023)

 Preferred load address is 10000000

 Start         Length     Name                   Class
 0001:00000000 00000dd0H .text                   CODE
 0001:00000dd0 000005c0H .text$di                CODE
 0001:00001390 000abcc0H .text$mn                CODE
 0001:000ad050 00002d00H .text$x                 CODE
 0001:000afd50 000005f6H .text$yd                CODE
 0002:00000000 00000278H .idata$5                DATA
 0002:00000278 00000004H .00cfg                  DATA
 0002:0000027c 00000004H .CRT$XCA                DATA
 0002:00000280 00000024H .CRT$XCC                DATA
 0002:000002a4 00000008H .CRT$XCL                DATA
 0002:000002ac 00000088H .CRT$XCU                DATA
 0002:00000334 00000004H .CRT$XCZ                DATA
 0002:00000338 00000004H .CRT$XIA                DATA
 0002:0000033c 00000018H .CRT$XIC                DATA
 0002:00000354 00000004H .CRT$XIZ                DATA
 0002:00000358 00000004H .CRT$XLA                DATA
 0002:0000035c 00000004H .CRT$XLZ                DATA
 0002:00000360 00000004H .CRT$XPA                DATA
 0002:00000364 00000004H .CRT$XPB                DATA
 0002:00000368 00000008H .CRT$XPX                DATA
 0002:00000370 00000004H .CRT$XPXA               DATA
 0002:00000374 00000004H .CRT$XPZ                DATA
 0002:00000378 00000004H .CRT$XTA                DATA
 0002:0000037c 00000004H .CRT$XTZ                DATA
 0002:00000380 00000000H .gfids$y                DATA
 0002:00000380 00022338H .rdata                  DATA
 0002:000226b8 00000018H .rdata$T                DATA
 0002:000226d0 0000128cH .rdata$r                DATA
 0002:0002395c 000003e8H .rdata$zzzdbg           DATA
 0002:00023d44 00000004H .rtc$IAA                DATA
 0002:00023d48 00000004H .rtc$IZZ                DATA
 0002:00023d4c 00000004H .rtc$TAA                DATA
 0002:00023d50 00000004H .rtc$TZZ                DATA
 0002:00023d54 00000004H .tls                    DATA
 0002:00023d58 00000004H .tls$                   DATA
 0002:00023d5c 00000004H .tls$ZZZ                DATA
 0002:00023d60 00003904H .xdata$x                DATA
 0002:00027664 00000000H .edata                  DATA
 0002:00027664 000000a0H .idata$2                DATA
 0002:00027704 00000014H .idata$3                DATA
 0002:00027718 00000278H .idata$4                DATA
 0002:00027990 00000ad8H .idata$6                DATA
 0003:00000000 000192c0H .data                   DATA
 0003:000192c0 00000a28H .data$r                 DATA
 0003:00019ce8 000f9e1cH .bss                    DATA
 0004:00000000 00000060H .rsrc$01                DATA
 0004:00000060 00000180H .rsrc$02                DATA

  Address         Publics by Value              Rva+Base       Lib:Object

 0000:00000000       ___hybrid_auxiliary_iat    00000000     <absolute>
 0000:00000000       ___guard_longjmp_count     00000000     <absolute>
 0000:00000000       ___dynamic_value_reloc_table 00000000     <absolute>
 0000:00000000       ___guard_iat_count         00000000     <absolute>
 0000:00000000       ___hybrid_code_map         00000000     <absolute>
 0000:00000000       ___guard_fids_count        00000000     <absolute>
 0000:00000000       ___guard_longjmp_table     00000000     <absolute>
 0000:00000000       ___hybrid_code_map_count   00000000     <absolute>
 0000:00000000       ___volatile_metadata       00000000     <absolute>
 0000:00000000       __except_list              00000000     <absolute>
 0000:00000000       ___guard_fids_table        00000000     <absolute>
 0000:00000000       ___safe_se_handler_table   00000000     <absolute>
 0000:00000000       ___guard_iat_table         00000000     <absolute>
 0000:00000000       ___safe_se_handler_count   00000000     <absolute>
 0000:00000000       ___enclave_config          00000000     <absolute>
 0000:0000002c       __tls_array                0000002c     <absolute>
 0000:00000100       ___guard_flags             00000100     <absolute>
 0000:00000000       ___ImageBase               10000000     <linker-defined>
 0001:00000000       _DetourRemove@8            10001000 f   detours:detours.obj
 0001:00000160       ??0CDetourEnableWriteOnCodePage@@QAE@PAEJ@Z 10001160 f i detours:detours.obj
 0001:000001e0       ??1CDetourEnableWriteOnCodePage@@QAE@XZ 100011e0 f i detours:detours.obj
 0001:00000250       _DetourFunction@8          10001250 f   detours:detours.obj
 0001:00000540       ?SetPermission@CDetourEnableWriteOnCodePage@@QAEHK@Z 10001540 f i detours:detours.obj
 0001:00000580       ?IsValid@CDetourEnableWriteOnCodePage@@QAEHXZ 10001580 f i detours:detours.obj
 0001:00000620       ?DetourGenJmp@@YAPAEPAE00@Z 10001620 f i detours:detours.obj
 0001:00000660       ?DetourGenBreak@@YAPAEPAE@Z 10001660 f i detours:detours.obj
 0001:00000680       _DetourGetFinalCode@8      10001680 f   detours:detours.obj
 0001:000006f0       _DetourCopyInstruction@12  100016f0 f   detours:disasm.obj
 0001:00000720       ??0CDetourDis@@QAE@PAPAEPAJ@Z 10001720 f   detours:disasm.obj
 0001:000007a0       ?Set16BitOperand@CDetourDis@@IAEXXZ 100017a0 f   detours:disasm.obj
 0001:000007c0       ?Set32BitOperand@CDetourDis@@IAEXXZ 100017c0 f   detours:disasm.obj
 0001:000007e0       ?Set16BitAddress@CDetourDis@@IAEXXZ 100017e0 f   detours:disasm.obj
 0001:00000800       ?Set32BitAddress@CDetourDis@@IAEXXZ 10001800 f   detours:disasm.obj
 0001:00000820       ?CopyInstruction@CDetourDis@@QAEPAEPAE0@Z 10001820 f   detours:disasm.obj
 0001:00000880       ?CopyBytes@CDetourDis@@IAEPAEPBUCOPYENTRY@1@PAE1@Z 10001880 f   detours:disasm.obj
 0001:00000a60       ?CopyBytesPrefix@CDetourDis@@IAEPAEPBUCOPYENTRY@1@PAE1@Z 10001a60 f   detours:disasm.obj
 0001:00000ab0       ?AdjustTarget@CDetourDis@@IAEPAEPAE0JJ@Z 10001ab0 f   detours:disasm.obj
 0001:00000b90       ?Invalid@CDetourDis@@IAEPAEPBUCOPYENTRY@1@PAE1@Z 10001b90 f   detours:disasm.obj
 0001:00000bb0       ?Copy0F@CDetourDis@@IAEPAEPBUCOPYENTRY@1@PAE1@Z 10001bb0 f   detours:disasm.obj
 0001:00000c00       ?Copy66@CDetourDis@@IAEPAEPBUCOPYENTRY@1@PAE1@Z 10001c00 f   detours:disasm.obj
 0001:00000c30       ?Copy67@CDetourDis@@IAEPAEPBUCOPYENTRY@1@PAE1@Z 10001c30 f   detours:disasm.obj
 0001:00000c60       ?CopyF6@CDetourDis@@IAEPAEPBUCOPYENTRY@1@PAE1@Z 10001c60 f   detours:disasm.obj
 0001:00000cc0       ?CopyF7@CDetourDis@@IAEPAEPBUCOPYENTRY@1@PAE1@Z 10001cc0 f   detours:disasm.obj
 0001:00000d20       ?CopyFF@CDetourDis@@IAEPAEPBUCOPYENTRY@1@PAE1@Z 10001d20 f   detours:disasm.obj
 0001:00001390       ??$_Fputc@D@std@@YA_NDPAU_iobuf@@@Z 10002390 f i dll.obj
 0001:000013b0       ??$_Immortalize_impl@V_Iostream_error_category@std@@@std@@YGHPAX0PAPAX@Z 100023b0 f i dll.obj
 0001:000013d0       ??$use_facet@V?$codecvt@DDU_Mbstatet@@@std@@@std@@YAABV?$codecvt@DDU_Mbstatet@@@0@ABVlocale@0@@Z 100023d0 f i dll.obj
 0001:00001530       ??$use_facet@V?$ctype@D@std@@@std@@YAABV?$ctype@D@0@ABVlocale@0@@Z 10002530 f i dll.obj
 0001:000016b0       ??0?$basic_fstream@DU?$char_traits@D@std@@@std@@QAE@PBDHH@Z 100026b0 f i dll.obj
 0001:00001930       ??0?$basic_iostream@DU?$char_traits@D@std@@@std@@QAE@PAV?$basic_streambuf@DU?$char_traits@D@std@@@1@@Z 10002930 f i dll.obj
 0001:00001b00       ??0_Locinfo@std@@QAE@PBD@Z 10002b00 f i dll.obj
 0001:00001bc0       ??0_System_error@std@@IAE@Verror_code@1@ABV?$basic_string@DU?$char_traits@D@std@@V?$allocator@D@2@@1@@Z 10002bc0 f i dll.obj
 0001:00001d90       ??0_System_error@std@@QAE@ABV01@@Z 10002d90 f i dll.obj
 0001:00001de0       ??0exception@std@@QAE@ABV01@@Z 10002de0 f i dll.obj
 0001:00001e10       ??0failure@ios_base@std@@QAE@ABV012@@Z 10002e10 f i dll.obj
 0001:00001e60       ??0failure@ios_base@std@@QAE@PBDABVerror_code@2@@Z 10002e60 f i dll.obj
 0001:00001f30       ??0runtime_error@std@@QAE@ABV01@@Z 10002f30 f i dll.obj
 0001:00001f70       ??0runtime_error@std@@QAE@PBD@Z 10002f70 f i dll.obj
 0001:00001fd0       ??0system_error@std@@QAE@ABV01@@Z 10002fd0 f i dll.obj
 0001:00002020       ??1?$_Yarn@D@std@@QAE@XZ   10003020 f i dll.obj
 0001:00002020       ??1?$_Yarn@_W@std@@QAE@XZ  10003020 f i dll.obj
 0001:00002040       ??1?$basic_filebuf@DU?$char_traits@D@std@@@std@@UAE@XZ 10003040 f i dll.obj
 0001:000020f0       ??1?$basic_ios@DU?$char_traits@D@std@@@std@@UAE@XZ 100030f0 f i dll.obj
 0001:00002140       ??1?$basic_iostream@DU?$char_traits@D@std@@@std@@UAE@XZ 10003140 f i dll.obj
 0001:000021a0       ??1?$basic_istream@DU?$char_traits@D@std@@@std@@UAE@XZ 100031a0 f i dll.obj
 0001:000021c0       ?_Tidy_deallocate@?$basic_string@DU?$char_traits@D@std@@V?$allocator@D@2@@std@@QAEXXZ 100031c0 f i Misc.obj
 0001:000021c0       ??1?$basic_string@DU?$char_traits@D@std@@V?$allocator@D@2@@std@@QAE@XZ 100031c0 f i dll.obj
 0001:000021c0       ??1?$pair@V?$basic_string@DU?$char_traits@D@std@@V?$allocator@D@2@@std@@D@std@@QAE@XZ 100031c0 f i sounds.obj
 0001:00002210       ??1?$unique_ptr@V_Facet_base@std@@U?$default_delete@V_Facet_base@std@@@2@@std@@QAE@XZ 10003210 f i dll.obj
 0001:00002220       ??1_Locinfo@std@@QAE@XZ    10003220 f i dll.obj
 0001:000022f0       ??1_Sentry_base@?$basic_ostream@DU?$char_traits@D@std@@@std@@QAE@XZ 100032f0 f i dll.obj
 0001:000022f0       ??1_Sentry_base@?$basic_istream@DU?$char_traits@D@std@@@std@@QAE@XZ 100032f0 f i dll.obj
 0001:00002340       ??1out_of_range@std@@UAE@XZ 10003340 f i libcpmt:xthrow.obj
 0001:00002340       ??1failure@ios_base@std@@UAE@XZ 10003340 f i dll.obj
 0001:00002340       ??1bad_array_new_length@std@@UAE@XZ 10003340 f i LIBCMT:throw_bad_alloc.obj
 0001:00002340       ??1length_error@std@@UAE@XZ 10003340 f i libcpmt:xthrow.obj
 0001:00002340       ??1bad_alloc@std@@UAE@XZ   10003340 f i libcpmt:xthrow.obj
 0001:00002340       ??1bad_exception@std@@UAE@XZ 10003340 f i libvcruntime:frame.obj
 0001:00002340       ??1runtime_error@std@@UAE@XZ 10003340 f i dll.obj
 0001:00002340       ??1exception@std@@UAE@XZ   10003340 f i dll.obj
 0001:00002360       ??1facet@locale@std@@MAE@XZ 10003360 f i dll.obj
 0001:00002370       ??1locale@std@@QAE@XZ      10003370 f i dll.obj
 0001:000023c0       ??1sentry@?$basic_istream@DU?$char_traits@D@std@@@std@@QAE@XZ 100033c0 f i dll.obj
 0001:00002410       ??1sentry@?$basic_ostream@DU?$char_traits@D@std@@@std@@QAE@XZ 10003410 f i dll.obj
 0001:00002470       ??_D?$basic_fstream@DU?$char_traits@D@std@@@std@@QAEXXZ 10003470 f i dll.obj
 0001:0000252f       ??_E?$basic_fstream@DU?$char_traits@D@std@@@std@@$4PPPPPPPM@A@AEPAXI@Z 1000352f f i dll.obj
 0001:00002537       ??_E?$basic_iostream@DU?$char_traits@D@std@@@std@@$4PPPPPPPM@A@AEPAXI@Z 10003537 f i dll.obj
 0001:0000253f       ??_E?$basic_istream@DU?$char_traits@D@std@@@std@@$4PPPPPPPM@A@AEPAXI@Z 1000353f f i dll.obj
 0001:00002547       ??_E?$basic_ostream@DU?$char_traits@D@std@@@std@@$4PPPPPPPM@A@AEPAXI@Z 10003547 f i dll.obj
 0001:00002550       ??_G?$basic_filebuf@DU?$char_traits@D@std@@@std@@UAEPAXI@Z 10003550 f i dll.obj
 0001:00002550       ??_E?$basic_filebuf@DU?$char_traits@D@std@@@std@@UAEPAXI@Z 10003550 f i dll.obj
 0001:00002580       ??_E?$basic_fstream@DU?$char_traits@D@std@@@std@@UAEPAXI@Z 10003580 f i dll.obj
 0001:00002580       ??_G?$basic_fstream@DU?$char_traits@D@std@@@std@@UAEPAXI@Z 10003580 f i dll.obj
 0001:000025b0       ??_E?$basic_ios@DU?$char_traits@D@std@@@std@@UAEPAXI@Z 100035b0 f i dll.obj
 0001:000025b0       ??_G?$basic_ios@DU?$char_traits@D@std@@@std@@UAEPAXI@Z 100035b0 f i dll.obj
 0001:00002610       ??_E?$basic_iostream@DU?$char_traits@D@std@@@std@@UAEPAXI@Z 10003610 f i dll.obj
 0001:00002610       ??_G?$basic_iostream@DU?$char_traits@D@std@@@std@@UAEPAXI@Z 10003610 f i dll.obj
 0001:000026d0       ??_G?$basic_istream@DU?$char_traits@D@std@@@std@@UAEPAXI@Z 100036d0 f i dll.obj
 0001:000026d0       ??_E?$basic_istream@DU?$char_traits@D@std@@@std@@UAEPAXI@Z 100036d0 f i dll.obj
 0001:00002750       ??_G?$basic_ostream@DU?$char_traits@D@std@@@std@@UAEPAXI@Z 10003750 f i dll.obj
 0001:00002750       ??_E?$basic_ostream@DU?$char_traits@D@std@@@std@@UAEPAXI@Z 10003750 f i dll.obj
 0001:000027d0       ??_E?$basic_streambuf@DU?$char_traits@D@std@@@std@@UAEPAXI@Z 100037d0 f i dll.obj
 0001:000027d0       ??_G?$basic_streambuf@DU?$char_traits@D@std@@@std@@UAEPAXI@Z 100037d0 f i dll.obj
 0001:00002860       ??_G?$codecvt@DDU_Mbstatet@@@std@@MAEPAXI@Z 10003860 f i dll.obj
 0001:00002860       ??_G?$num_put@DV?$ostreambuf_iterator@DU?$char_traits@D@std@@@std@@@std@@MAEPAXI@Z 10003860 f i PPGUI_Commands.obj
 0001:00002860       ??_E?$codecvt@DDU_Mbstatet@@@std@@MAEPAXI@Z 10003860 f i dll.obj
 0001:00002860       ??_E?$num_put@DV?$ostreambuf_iterator@DU?$char_traits@D@std@@@std@@@std@@MAEPAXI@Z 10003860 f i PPGUI_Commands.obj
 0001:00002890       ??_E?$ctype@D@std@@MAEPAXI@Z 10003890 f i dll.obj
 0001:00002890       ??_G?$ctype@D@std@@MAEPAXI@Z 10003890 f i dll.obj
 0001:000028f0       ??_G_Facet_base@std@@UAEPAXI@Z 100038f0 f i dll.obj
 0001:000028f0       ??_E_Facet_base@std@@UAEPAXI@Z 100038f0 f i dll.obj
 0001:00002920       ??_G_Iostream_error_category@std@@UAEPAXI@Z 10003920 f i dll.obj
 0001:00002920       ??_E_Iostream_error_category@std@@UAEPAXI@Z 10003920 f i dll.obj
 0001:00002940       ??_G_System_error@std@@UAEPAXI@Z 10003940 f i dll.obj
 0001:00002940       ??_E_System_error@std@@UAEPAXI@Z 10003940 f i dll.obj
 0001:00002940       ??_Efailure@ios_base@std@@UAEPAXI@Z 10003940 f i dll.obj
 0001:00002940       ??_Gfailure@ios_base@std@@UAEPAXI@Z 10003940 f i dll.obj
 0001:00002940       ??_Esystem_error@std@@UAEPAXI@Z 10003940 f i dll.obj
 0001:00002940       ??_Gsystem_error@std@@UAEPAXI@Z 10003940 f i dll.obj
 0001:00002970       ??_Glogic_error@std@@UAEPAXI@Z 10003970 f i Autowall.obj
 0001:00002970       ??_Gexception@std@@UAEPAXI@Z 10003970 f i dll.obj
 0001:00002970       ??_Elogic_error@std@@UAEPAXI@Z 10003970 f i Autowall.obj
 0001:00002970       ??_Gruntime_error@std@@UAEPAXI@Z 10003970 f i dll.obj
 0001:00002970       ??_Eruntime_error@std@@UAEPAXI@Z 10003970 f i dll.obj
 0001:00002970       ??_Eexception@std@@UAEPAXI@Z 10003970 f i dll.obj
 0001:000029a0       ??_Gios_base@std@@UAEPAXI@Z 100039a0 f i dll.obj
 0001:000029a0       ??_Eios_base@std@@UAEPAXI@Z 100039a0 f i dll.obj
 0001:00002a00       ?BuildImportTable@CWin32PE@@IAEHPAUMEMORYMODULE@@@Z 10003a00 f   dll.obj
 0001:00002b70       ?CheckSize@CWin32PE@@IAEHII@Z 10003b70 f   dll.obj
 0001:00002ba0       ?FinalizeSection@CWin32PE@@IAEHPAUMEMORYMODULE@@PAUSECTIONFINALIZEDATA@@@Z 10003ba0 f   dll.obj
 0001:00002c40       ?FinalizeSections@CWin32PE@@IAEHPAUMEMORYMODULE@@@Z 10003c40 f   dll.obj
 0001:00002d90       ?GetProcAddressFromMemory@CLoad@@QAEP6GHXZPAXPBD@Z 10003d90 f   dll.obj
 0001:00002e60       ?LoadFromFile@CLoad@@QAEPAXPBD@Z 10003e60 f   dll.obj
 0001:00003100       ?MemLoadLibraryEx@CLoad@@AAEPAXPBXIP6APAXPBDPAX@ZP6AP6GHXZ212@ZP6AX22@Z2@Z 10004100 f   dll.obj
 0001:00003570       ?MemoryDefaultFreeLibrary@@YAXPAX0@Z 10004570 f   dll.obj
 0001:00003580       ?MemoryDefaultGetProcAddress@@YAP6GHXZPAXPBD0@Z 10004580 f   dll.obj
 0001:000035a0       ?MemoryDefaultLoadLibrary@@YAPAXPBDPAX@Z 100045a0 f   dll.obj
 0001:000035b0       ?_Decref@facet@locale@std@@UAEPAV_Facet_base@3@XZ 100045b0 f i dll.obj
 0001:000035d0       ?_Endwrite@?$basic_filebuf@DU?$char_traits@D@std@@@std@@IAE_NXZ 100045d0 f i dll.obj
 0001:00003690       ?_Gnavail@?$basic_streambuf@DU?$char_traits@D@std@@@std@@IBE_JXZ 10004690 f i dll.obj
 0001:000036b0       ?_Incref@facet@locale@std@@UAEXXZ 100046b0 f i dll.obj
 0001:000036c0       ?_Init@?$basic_filebuf@DU?$char_traits@D@std@@@std@@IAEXPAU_iobuf@@W4_Initfl@12@@Z 100046c0 f i dll.obj
 0001:000037a0       ?_Init@?$basic_streambuf@DU?$char_traits@D@std@@@std@@IAEXXZ 100047a0 f i dll.obj
 0001:00003800       ?_Ipfx@?$basic_istream@DU?$char_traits@D@std@@@std@@QAE_N_N@Z 10004800 f i dll.obj
 0001:00003a10       ?_Lock@?$basic_filebuf@DU?$char_traits@D@std@@@std@@UAEXXZ 10004a10 f i dll.obj
 0001:00003a20       ??3@YAXPAXUImNewWrapper@@0@Z 10004a20 f i imgui.obj
 0001:00003a20       ?_Unlock@?$basic_streambuf@DU?$char_traits@D@std@@@std@@UAEXXZ 10004a20 f i dll.obj
 0001:00003a20       @_guard_check_icall_nop@4  10004a20 f i LIBCMT:guard_support.obj
 0001:00003a20       ?Draw@PPGUI_Command@PPGUI@@UAEXXZ 10004a20 f i PPGUI_Commands.obj
 0001:00003a20       ?_Lock@?$basic_streambuf@DU?$char_traits@D@std@@@std@@UAEXXZ 10004a20 f i dll.obj
 0001:00003a30       ?_Osfx@?$basic_ostream@DU?$char_traits@D@std@@@std@@QAEXXZ 10004a30 f i dll.obj
 0001:00003ac0       ?_Pnavail@?$basic_streambuf@DU?$char_traits@D@std@@@std@@IBE_JXZ 10004ac0 f i dll.obj
 0001:00003ae0       ?_Reset_back@?$basic_filebuf@DU?$char_traits@D@std@@@std@@AAEXXZ 10004ae0 f i dll.obj
 0001:00003b10       ?_Unlock@?$basic_filebuf@DU?$char_traits@D@std@@@std@@UAEXXZ 10004b10 f i dll.obj
 0001:00003b20       ?_Xlen@?$basic_string@DU?$char_traits@D@std@@V?$allocator@D@2@@std@@SAXXZ 10004b20 f i dll.obj
 0001:00003b30       ?allocate@?$allocator@D@std@@QAEPADI@Z 10004b30 f i dll.obj
 0001:00003b90       ?append@?$basic_string@DU?$char_traits@D@std@@V?$allocator@D@2@@std@@QAEAAV12@QBDI@Z 10004b90 f i dll.obj
 0001:00003cf0       ?assign@?$basic_string@DU?$char_traits@D@std@@V?$allocator@D@2@@std@@QAEAAV12@QBD@Z 10004cf0 f i dll.obj
 0001:00003df0       ?clear@ios_base@std@@QAEXH_N@Z 10004df0 f i dll.obj
 0001:00003e70       ?close@?$basic_filebuf@DU?$char_traits@D@std@@@std@@QAEPAV12@XZ 10004e70 f i dll.obj
 0001:00003f30       ?default_error_condition@error_category@std@@UBE?AVerror_condition@2@H@Z 10004f30 f i dll.obj
 0001:00003f50       ___acrt_uninitialize_command_line 10004f50 f i libucrt:argv_data.obj
 0001:00003f50       ?do_always_noconv@?$codecvt@DDU_Mbstatet@@@std@@MBE_NXZ 10004f50 f i dll.obj
 0001:00003f60       ?do_max_length@codecvt_base@std@@MBEHXZ 10004f60 f i dll.obj
 0001:00003f60       ?do_encoding@codecvt_base@std@@MBEHXZ 10004f60 f i dll.obj
 0001:00003f70       ?do_in@?$codecvt@DDU_Mbstatet@@@std@@MBEHAAU_Mbstatet@@PBD1AAPBDPAD3AAPAD@Z 10004f70 f i dll.obj
 0001:00003f70       ?do_out@?$codecvt@DDU_Mbstatet@@@std@@MBEHAAU_Mbstatet@@PBD1AAPBDPAD3AAPAD@Z 10004f70 f i dll.obj
 0001:00003f90       ?do_length@?$codecvt@DDU_Mbstatet@@@std@@MBEHAAU_Mbstatet@@PBD1I@Z 10004f90 f i dll.obj
 0001:00003fb0       ?do_narrow@?$ctype@D@std@@MBEDDD@Z 10004fb0 f i dll.obj
 0001:00003fc0       ?do_narrow@?$ctype@D@std@@MBEPBDPBD0DPAD@Z 10004fc0 f i dll.obj
 0001:00003fe0       ?do_tolower@?$ctype@D@std@@MBEDD@Z 10004fe0 f i dll.obj
 0001:00004000       ?do_tolower@?$ctype@D@std@@MBEPBDPADPBD@Z 10005000 f i dll.obj
 0001:00004050       ?do_toupper@?$ctype@D@std@@MBEDD@Z 10005050 f i dll.obj
 0001:00004070       ?do_toupper@?$ctype@D@std@@MBEPBDPADPBD@Z 10005070 f i dll.obj
 0001:000040c0       ?do_unshift@?$codecvt@DDU_Mbstatet@@@std@@MBEHAAU_Mbstatet@@PAD1AAPAD@Z 100050c0 f i dll.obj
 0001:000040e0       ?do_widen@?$ctype@D@std@@MBEDD@Z 100050e0 f i dll.obj
 0001:000040f0       ?do_widen@?$ctype@D@std@@MBEPBDPBD0PAD@Z 100050f0 f i dll.obj
 0001:00004110       ?equivalent@error_category@std@@UBE_NABVerror_code@2@H@Z 10005110 f i dll.obj
 0001:00004140       ?equivalent@error_category@std@@UBE_NHABVerror_condition@2@@Z 10005140 f i dll.obj
 0001:00004180       ?flush@?$basic_ostream@DU?$char_traits@D@std@@@std@@QAEAAV12@XZ 10005180 f i dll.obj
 0001:00004270       ?imbue@?$basic_filebuf@DU?$char_traits@D@std@@@std@@MAEXABVlocale@2@@Z 10005270 f i dll.obj
 0001:000042b0       ?TestInput@PPGUI_Command@PPGUI@@UAEXAAVPPGUI_Input@2@@Z 100052b0 f i PPGUI_Commands.obj
 0001:000042b0       ?imbue@?$basic_streambuf@DU?$char_traits@D@std@@@std@@MAEXABVlocale@2@@Z 100052b0 f i dll.obj
 0001:000042c0       ?make_error_code@std@@YA?AVerror_code@1@W4io_errc@1@@Z 100052c0 f i dll.obj
 0001:00004300       ?message@_Iostream_error_category@std@@UBE?AV?$basic_string@DU?$char_traits@D@std@@V?$allocator@D@2@@2@H@Z 10005300 f i dll.obj
 0001:00004340       ?name@_Iostream_error_category@std@@UBEPBDXZ 10005340 f i dll.obj
 0001:00004350       ?overflow@?$basic_filebuf@DU?$char_traits@D@std@@@std@@MAEHH@Z 10005350 f i dll.obj
 0001:000044c0       ?overflow@?$basic_streambuf@DU?$char_traits@D@std@@@std@@MAEHH@Z 100054c0 f i dll.obj
 0001:000044c0       ?pbackfail@?$basic_streambuf@DU?$char_traits@D@std@@@std@@MAEHH@Z 100054c0 f i dll.obj
 0001:000044d0       ?pbackfail@?$basic_filebuf@DU?$char_traits@D@std@@@std@@MAEHH@Z 100054d0 f i dll.obj
 0001:00004580       ?read@?$basic_istream@DU?$char_traits@D@std@@@std@@QAEAAV12@PAD_J@Z 10005580 f i dll.obj
 0001:000046b0       ?seekoff@?$basic_filebuf@DU?$char_traits@D@std@@@std@@MAE?AV?$fpos@U_Mbstatet@@@2@_JHH@Z 100056b0 f i dll.obj
 0001:00004790       ?seekoff@?$basic_streambuf@DU?$char_traits@D@std@@@std@@MAE?AV?$fpos@U_Mbstatet@@@2@_JHH@Z 10005790 f i dll.obj
 0001:000047c0       ?seekpos@?$basic_filebuf@DU?$char_traits@D@std@@@std@@MAE?AV?$fpos@U_Mbstatet@@@2@V32@H@Z 100057c0 f i dll.obj
 0001:00004890       ?seekpos@?$basic_streambuf@DU?$char_traits@D@std@@@std@@MAE?AV?$fpos@U_Mbstatet@@@2@V32@H@Z 10005890 f i dll.obj
 0001:000048c0       ?setbuf@?$basic_filebuf@DU?$char_traits@D@std@@@std@@MAEPAV?$basic_streambuf@DU?$char_traits@D@std@@@2@PAD_J@Z 100058c0 f i dll.obj
 0001:00004910       ?setbuf@?$basic_streambuf@DU?$char_traits@D@std@@@std@@MAEPAV12@PAD_J@Z 10005910 f i dll.obj
 0001:00004920       ?setstate@?$basic_ios@DU?$char_traits@D@std@@@std@@QAEXH_N@Z 10005920 f i dll.obj
 0001:00004950       ?showmanyc@?$basic_streambuf@DU?$char_traits@D@std@@@std@@MAE_JXZ 10005950 f i dll.obj
 0001:00004960       ?sync@?$basic_filebuf@DU?$char_traits@D@std@@@std@@MAEHXZ 10005960 f i dll.obj
 0001:00004990       ?GetTraceType@CTraceFilter@SDK@@UBE?AW4TraceType_t@2@XZ 10005990 f i Antiaim.obj
 0001:00004990       ?GetScrollAmount@PPGUI_Command@PPGUI@@UAEHXZ 10005990 f i PPGUI_Commands.obj
 0001:00004990       ?GetTraceType@CTraceFilterOneEntity@SDK@@UBE?AW4TraceType_t@2@XZ 10005990 f i Aimbot.obj
 0001:00004990       ?GetTraceType@CTraceWorldOnly@SDK@@UBE?AW4TraceType_t@2@XZ 10005990 f i Antiaim.obj
 0001:00004990       ?sync@?$basic_streambuf@DU?$char_traits@D@std@@@std@@MAEHXZ 10005990 f i dll.obj
 0001:000049a0       ?uflow@?$basic_filebuf@DU?$char_traits@D@std@@@std@@MAEHXZ 100059a0 f i dll.obj
 0001:00004cd0       ?uflow@?$basic_streambuf@DU?$char_traits@D@std@@@std@@MAEHXZ 10005cd0 f i dll.obj
 0001:00004d00       ?underflow@?$basic_filebuf@DU?$char_traits@D@std@@@std@@MAEHXZ 10005d00 f i dll.obj
 0001:00004d40       ?underflow@?$basic_streambuf@DU?$char_traits@D@std@@@std@@MAEHXZ 10005d40 f i dll.obj
 0001:00004d50       ?what@exception@std@@UBEPBDXZ 10005d50 f i dll.obj
 0001:00004d60       ?xsgetn@?$basic_filebuf@DU?$char_traits@D@std@@@std@@MAE_JPAD_J@Z 10005d60 f i dll.obj
 0001:00004f10       ?xsgetn@?$basic_streambuf@DU?$char_traits@D@std@@@std@@MAE_JPAD_J@Z 10005f10 f i dll.obj
 0001:00004fe0       ?xsputn@?$basic_filebuf@DU?$char_traits@D@std@@@std@@MAE_JPBD_J@Z 10005fe0 f i dll.obj
 0001:00005160       ?xsputn@?$basic_streambuf@DU?$char_traits@D@std@@@std@@MAE_JPBD_J@Z 10006160 f i dll.obj
 0001:00005230       ??$_Emplace_reallocate@AAVVector@@AAH@?$vector@U?$pair@VVector@@H@std@@V?$allocator@U?$pair@VVector@@H@std@@@2@@std@@QAEPAU?$pair@VVector@@H@1@QAU21@AAVVector@@AAH@Z 10006230 f i Aimbot.obj
 0001:00005230       ??$_Emplace_reallocate@VVector@@H@?$vector@U?$pair@VVector@@H@std@@V?$allocator@U?$pair@VVector@@H@std@@@2@@std@@QAEPAU?$pair@VVector@@H@1@QAU21@$$QAVVector@@$$QAH@Z 10006230 f i Aimbot.obj
 0001:00005340       ??$_Emplace_reallocate@UDrawCircleQueue@RenderQueue@RENDER@@@?$vector@UDrawCircleQueue@RenderQueue@RENDER@@V?$allocator@UDrawCircleQueue@RenderQueue@RENDER@@@std@@@std@@QAEPAUDrawCircleQueue@RenderQueue@RENDER@@QAU234@$$QAU234@@Z 10006340 f i Aimbot.obj
 0001:00005490       ??$emplace_back@VVector@@H@?$vector@U?$pair@VVector@@H@std@@V?$allocator@U?$pair@VVector@@H@std@@@2@@std@@QAEAAU?$pair@VVector@@H@1@$$QAVVector@@$$QAH@Z 10006490 f i Aimbot.obj
 0001:000054e0       ??0Backtracking_Record@RAGEBOT@FEATURES@@QAE@XZ 100064e0 f i Aimbot.obj
 0001:00005700       ??0PlayerAimbotInfo@Aimbot@RAGEBOT@FEATURES@@QAE@XZ 10006700 f i Aimbot.obj
 0001:00005750       ??0Ray_t@SDK@@QAE@XZ       10006750 f i Aimbot.obj
 0001:000057b0       ??0Vector@@QAE@XZ          100067b0 f i Aimbot.obj
 0001:000057b0       ??0?$vector@UBacktracking_Record@RAGEBOT@FEATURES@@V?$allocator@UBacktracking_Record@RAGEBOT@FEATURES@@@std@@@std@@QAE@XZ 100067b0 f i Backtracking.obj
 0001:000057d0       ??0matrix3x4_t@@QAE@XZ     100067d0 f i Aimbot.obj
 0001:000057e0       ??0trace_t@SDK@@QAE@XZ     100067e0 f i Aimbot.obj
 0001:00005830       ??1?$vector@UVertex_t@SDK@@V?$allocator@UVertex_t@SDK@@@std@@@std@@QAE@XZ 10006830 f i BoxESP.obj
 0001:00005830       ??1?$vector@U?$pair@VVector@@H@std@@V?$allocator@U?$pair@VVector@@H@std@@@2@@std@@QAE@XZ 10006830 f i Aimbot.obj
 0001:00005890       ?_Tidy@?$vector@UBacktracking_Record@RAGEBOT@FEATURES@@V?$allocator@UBacktracking_Record@RAGEBOT@FEATURES@@@std@@@std@@AAEXXZ 10006890 f i Backtracking.obj
 0001:00005890       ??1?$vector@UBacktracking_Record@RAGEBOT@FEATURES@@V?$allocator@UBacktracking_Record@RAGEBOT@FEATURES@@@std@@@std@@QAE@XZ 10006890 f i Aimbot.obj
 0001:00005900       ??4Backtracking_Record@RAGEBOT@FEATURES@@QAEAAU012@ABU012@@Z 10006900 f i Aimbot.obj
 0001:00005900       ??4Backtracking_Record@RAGEBOT@FEATURES@@QAEAAU012@$$QAU012@@Z 10006900 f i Backtracking.obj
 0001:00005b10       ??4matrix3x4_t@@QAEAAU0@ABU0@@Z 10006b10 f i Aimbot.obj
 0001:00005b80       ??AVector@@QAEAAMH@Z       10006b80 f i Aimbot.obj
 0001:00006320       ?AddDrawCircle@RenderQueue@RENDER@@QAEXVVector@@HHVCColor@@M@Z 10007320 f i Aimbot.obj
 0001:00006530       ?CalcAngle@MATH@@YA?AVVector@@ABV2@0@Z 10007530 f i Aimbot.obj
 0001:000065a0       ?Do@Aimbot@RAGEBOT@FEATURES@@QAEXPAVCUserCmd@SDK@@@Z 100075a0 f   Aimbot.obj
 0001:00007690       ?DoHeadAim@Aimbot@RAGEBOT@FEATURES@@AAE_NPAVCBaseEntity@SDK@@ABUBacktracking_Record@23@AAVVector@@AAH@Z 10008690 f   Aimbot.obj
 0001:000079a0       ?DoHitscan@Aimbot@RAGEBOT@FEATURES@@AAE_NPAVCBaseEntity@SDK@@ABUBacktracking_Record@23@AAVVector@@AAH@Z 100089a0 f   Aimbot.obj
 0001:00008250       ?DoKnifebot@Aimbot@RAGEBOT@FEATURES@@AAE_NPAVCBaseEntity@SDK@@ABUBacktracking_Record@23@AAVVector@@@Z 10009250 f   Aimbot.obj
 0001:00008510       ?GetEyePosition@CBaseEntity@SDK@@QAE?AVVector@@XZ 10009510 f i Aimbot.obj
 0001:00008570       ?GetHitbox@Aimbot@RAGEBOT@FEATURES@@CAPAUmstudiobbox_t@SDK@@PAVCBaseEntity@5@H@Z 10009570 f   Aimbot.obj
 0001:000085e0       ?GetHitboxPosition@Aimbot@RAGEBOT@FEATURES@@ABE?AVVector@@PAVCBaseEntity@SDK@@ABUBacktracking_Record@23@H@Z 100095e0 f   Aimbot.obj
 0001:00008720       ?GetMultipointPositions@Aimbot@RAGEBOT@FEATURES@@AAE_NPAVCBaseEntity@SDK@@ABUBacktracking_Record@23@PAVVector@@HM@Z 10009720 f   Aimbot.obj
 0001:00008b70       ?GetTraceType@CTraceFilterOneEntity2@SDK@@UBE?AW4TraceType_t@2@XZ 10009b70 f i Aimbot.obj
 0001:00008b80       ?Init@Ray_t@SDK@@QAEXABVVector@@0@Z 10009b80 f i Aimbot.obj
 0001:00008c30       ?IsAccurate@Aimbot@RAGEBOT@FEATURES@@ABE_NPAVCBaseEntity@SDK@@VVector@@@Z 10009c30 f   Aimbot.obj
 0001:000093d0       ?NormalizeAngle@MATH@@YA?AVVector@@V2@@Z 1000a3d0 f i Aimbot.obj
 0001:00009490       ?ShouldHitEntity@CTraceFilterOneEntity2@SDK@@UAE_NPAXH@Z 1000a490 f i Aimbot.obj
 0001:00009490       ?ShouldHitEntity@CTraceFilterOneEntity@SDK@@UAE_NPAXH@Z 1000a490 f i Aimbot.obj
 0001:000094a0       ?_Change_array@?$vector@U?$pair@VVector@@H@std@@V?$allocator@U?$pair@VVector@@H@std@@@2@@std@@AAEXQAU?$pair@VVector@@H@2@II@Z 1000a4a0 f i Aimbot.obj
 0001:00009500       ?_Change_array@?$vector@UDrawCircleQueue@RenderQueue@RENDER@@V?$allocator@UDrawCircleQueue@RenderQueue@RENDER@@@std@@@std@@AAEXQAUDrawCircleQueue@RenderQueue@RENDER@@II@Z 1000a500 f i Aimbot.obj
 0001:00009580       ?_Xlength@?$vector@HV?$allocator@H@std@@@std@@CAXXZ 1000a580 f i input_handler.obj
 0001:00009580       ?_Xlength@?$vector@ULog@InGameLogger@MISC@FEATURES@@V?$allocator@ULog@InGameLogger@MISC@FEATURES@@@std@@@std@@CAXXZ 1000a580 f i EventListeners.obj
 0001:00009580       ?_Xlength@?$vector@U?$pair@VVector@@H@std@@V?$allocator@U?$pair@VVector@@H@std@@@2@@std@@CAXXZ 1000a580 f i Aimbot.obj
 0001:00009580       ?_Xlength@?$vector@PBDV?$allocator@PBD@std@@@std@@CAXXZ 1000a580 f i hooks.obj
 0001:00009580       ?_Xlength@?$vector@UHitmarker@Hitmarkers@MISC@FEATURES@@V?$allocator@UHitmarker@Hitmarkers@MISC@FEATURES@@@std@@@std@@CAXXZ 1000a580 f i Misc.obj
 0001:00009580       ?_Xlength@?$vector@UBacktracking_Record@RAGEBOT@FEATURES@@V?$allocator@UBacktracking_Record@RAGEBOT@FEATURES@@@std@@@std@@CAXXZ 1000a580 f i Backtracking.obj
 0001:00009580       ?_Xlength@?$vector@V?$basic_string@DU?$char_traits@D@std@@V?$allocator@D@2@@std@@V?$allocator@V?$basic_string@DU?$char_traits@D@std@@V?$allocator@D@2@@std@@@2@@std@@CAXXZ 1000a580 f i EventListeners.obj
 0001:00009580       ?_Xlength@?$vector@VPPGUI_Command_Frame@PPGUI@@V?$allocator@VPPGUI_Command_Frame@PPGUI@@@std@@@std@@CAXXZ 1000a580 f i PPGUI.obj
 0001:00009580       ?_Xlength@?$vector@VVector@@V?$allocator@VVector@@@std@@@std@@CAXXZ 1000a580 f i Resolver.obj
 0001:00009580       ?_Xlength@?$vector@VCColor@@V?$allocator@VCColor@@@std@@@std@@CAXXZ 1000a580 f i EventListeners.obj
 0001:00009580       ?_Xlength@?$vector@PAVPPGUI_Command@PPGUI@@V?$allocator@PAVPPGUI_Command@PPGUI@@@std@@@std@@CAXXZ 1000a580 f i PPGUI.obj
 0001:00009580       ?_Xlength@?$vector@UDrawCircleQueue@RenderQueue@RENDER@@V?$allocator@UDrawCircleQueue@RenderQueue@RENDER@@@std@@@std@@CAXXZ 1000a580 f i Aimbot.obj
 0001:00009580       ?_Xlength@?$vector@PAVCBaseEntity@SDK@@V?$allocator@PAVCBaseEntity@SDK@@@std@@@std@@CAXXZ 1000a580 f i Antiaim.obj
 0001:00009580       ?_Xlength@?$vector@U?$pair@V?$basic_string@DU?$char_traits@D@std@@V?$allocator@D@2@@std@@VCColor@@@std@@V?$allocator@U?$pair@V?$basic_string@DU?$char_traits@D@std@@V?$allocator@D@2@@std@@VCColor@@@std@@@2@@std@@CAXXZ 1000a580 f i BoxESP.obj
 0001:00009580       ?_Xlength@?$vector@UBulletTracer@BulletTracers@MISC@FEATURES@@V?$allocator@UBulletTracer@BulletTracers@MISC@FEATURES@@@std@@@std@@CAXXZ 1000a580 f i EventListeners.obj
 0001:00009580       ?_Xlength@?$vector@UShotSnapshot@Resolver@RAGEBOT@FEATURES@@V?$allocator@UShotSnapshot@Resolver@RAGEBOT@FEATURES@@@std@@@std@@CAXXZ 1000a580 f i Resolver.obj
 0001:00009580       ?_Xlength@?$vector@UPPGUI_Column@PPGUI_Command_Frame@PPGUI@@V?$allocator@UPPGUI_Column@PPGUI_Command_Frame@PPGUI@@@std@@@std@@CAXXZ 1000a580 f i PPGUI.obj
 0001:00009580       ?_Xlength@?$vector@UVertex_t@SDK@@V?$allocator@UVertex_t@SDK@@@std@@@std@@CAXXZ 1000a580 f i BoxESP.obj
 0001:00009580       ?_Xlength@?$vector@V?$_List_unchecked_iterator@V?$_List_val@U?$_List_simple_types@U?$pair@$$CBITPPGUI_Command_Data@PPGUI_Command_Data_Base@PPGUI@@@std@@@std@@@std@@@std@@V?$allocator@V?$_List_unchecked_iterator@V?$_List_val@U?$_List_simple_types@U?$pair@$$CBITPPGUI_Command_Data@PPGUI_Command_Data_Base@PPGUI@@@std@@@std@@@std@@@std@@@2@@std@@CAXXZ 1000a580 f i PPGUI.obj
 0001:00009580       ?_Xlength@?$vector@V?$vector@V?$basic_string@DU?$char_traits@D@std@@V?$allocator@D@2@@std@@V?$allocator@V?$basic_string@DU?$char_traits@D@std@@V?$allocator@D@2@@std@@@2@@std@@V?$allocator@V?$vector@V?$basic_string@DU?$char_traits@D@std@@V?$allocator@D@2@@std@@V?$allocator@V?$basic_string@DU?$char_traits@D@std@@V?$allocator@D@2@@std@@@2@@std@@@2@@std@@CAXXZ 1000a580 f i Misc.obj
 0001:00009590       ?allocate@?$allocator@U?$pair@VVector@@H@std@@@std@@QAEPAU?$pair@VVector@@H@2@I@Z 1000a590 f i Aimbot.obj
 0001:00009590       ?allocate@?$allocator@UVertex_t@SDK@@@std@@QAEPAUVertex_t@SDK@@I@Z 1000a590 f i BoxESP.obj
 0001:00009600       ?allocate@?$allocator@UDrawCircleQueue@RenderQueue@RENDER@@@std@@QAEPAUDrawCircleQueue@RenderQueue@RENDER@@I@Z 1000a600 f i Aimbot.obj
 0001:00009600       ?allocate@?$allocator@V?$basic_string@DU?$char_traits@D@std@@V?$allocator@D@2@@std@@@std@@QAEPAV?$basic_string@DU?$char_traits@D@std@@V?$allocator@D@2@@2@I@Z 1000a600 f i EventListeners.obj
 0001:00009670       ??$_Emplace_reallocate@ABQAVPPGUI_Command@PPGUI@@@?$vector@PAVPPGUI_Command@PPGUI@@V?$allocator@PAVPPGUI_Command@PPGUI@@@std@@@std@@QAEPAPAVPPGUI_Command@PPGUI@@QAPAV23@ABQAV23@@Z 1000a670 f i PPGUI.obj
 0001:00009670       ??$_Emplace_reallocate@ABQAVCBaseEntity@SDK@@@?$vector@PAVCBaseEntity@SDK@@V?$allocator@PAVCBaseEntity@SDK@@@std@@@std@@QAEPAPAVCBaseEntity@SDK@@QAPAV23@ABQAV23@@Z 1000a670 f i Antiaim.obj
 0001:000097c0       ??$_Ptr_move_cat@UBulletTracer@BulletTracers@MISC@FEATURES@@U1234@@std@@YA?AU_Trivially_copyable_ptr_iterator_tag@0@ABQAUBulletTracer@BulletTracers@MISC@FEATURES@@0@Z 1000a7c0 f i EventListeners.obj
 0001:000097c0       ??$_Ptr_move_cat@VVector@@V1@@std@@YA?AU_Trivially_copyable_ptr_iterator_tag@0@ABQAVVector@@0@Z 1000a7c0 f i Resolver.obj
 0001:000097c0       ??$_Ptr_copy_cat@PAUIncoming_Sequence_Record@RAGEBOT@FEATURES@@PAU123@@std@@YA?AU_Really_trivial_ptr_iterator_tag@0@ABQAPAUIncoming_Sequence_Record@RAGEBOT@FEATURES@@0@Z 1000a7c0 f i Backtracking.obj
 0001:000097c0       ??$_Ptr_copy_cat@PAVPPGUI_Command@PPGUI@@PAV12@@std@@YA?AU_Really_trivial_ptr_iterator_tag@0@ABQAPAVPPGUI_Command@PPGUI@@0@Z 1000a7c0 f i PPGUI.obj
 0001:000097c0       ??$_Ptr_move_cat@PAVCBaseEntity@SDK@@PAV12@@std@@YA?AU_Really_trivial_ptr_iterator_tag@0@ABQAPAVCBaseEntity@SDK@@0@Z 1000a7c0 f i Antiaim.obj
 0001:000097c0       ??$_Ptr_copy_cat@PAVCBaseEntity@SDK@@PAV12@@std@@YA?AU_Really_trivial_ptr_iterator_tag@0@ABQAPAVCBaseEntity@SDK@@0@Z 1000a7c0 f i Antiaim.obj
 0001:000097c0       ??$_Ptr_copy_cat@QBDPBD@std@@YA?AU_Really_trivial_ptr_iterator_tag@0@ABQBQBDABQAPBD@Z 1000a7c0 f i hooks.obj
 0001:000097c0       ??$_Ptr_move_cat@UHitmarker@Hitmarkers@MISC@FEATURES@@U1234@@std@@YA?AU_Trivially_copyable_ptr_iterator_tag@0@ABQAUHitmarker@Hitmarkers@MISC@FEATURES@@0@Z 1000a7c0 f i Misc.obj
 0001:000097c0       ??$_Ptr_move_cat@PAVPPGUI_Command@PPGUI@@PAV12@@std@@YA?AU_Really_trivial_ptr_iterator_tag@0@ABQAPAVPPGUI_Command@PPGUI@@0@Z 1000a7c0 f i PPGUI.obj
 0001:000097c0       ??$_Ptr_move_cat@HH@std@@YA?AU_Really_trivial_ptr_iterator_tag@0@ABQAH0@Z 1000a7c0 f i input_handler.obj
 0001:000097c0       ??$_Ptr_move_cat@UDrawCircleQueue@RenderQueue@RENDER@@U123@@std@@YA?AU_Trivially_copyable_ptr_iterator_tag@0@ABQAUDrawCircleQueue@RenderQueue@RENDER@@0@Z 1000a7c0 f i render.obj
 0001:000097c0       ??$_Ptr_move_cat@UShotSnapshot@Resolver@RAGEBOT@FEATURES@@U1234@@std@@YA?AU_Trivially_copyable_ptr_iterator_tag@0@ABQAUShotSnapshot@Resolver@RAGEBOT@FEATURES@@0@Z 1000a7c0 f i Resolver.obj
 0001:000097d0       ??0?$vector@PAVCBaseEntity@SDK@@V?$allocator@PAVCBaseEntity@SDK@@@std@@@std@@QAE@ABV01@@Z 1000a7d0 f i Antiaim.obj
 0001:000097d0       ??0?$vector@PAVPPGUI_Command@PPGUI@@V?$allocator@PAVPPGUI_Command@PPGUI@@@std@@@std@@QAE@ABV01@@Z 1000a7d0 f i PPGUI.obj
 0001:000098c0       ??1?$vector@PBDV?$allocator@PBD@std@@@std@@QAE@XZ 1000a8c0 f i hooks.obj
 0001:000098c0       ??1?$vector@PAVCBaseEntity@SDK@@V?$allocator@PAVCBaseEntity@SDK@@@std@@@std@@QAE@XZ 1000a8c0 f i Antiaim.obj
 0001:000098c0       ??1?$vector@V?$_List_unchecked_iterator@V?$_List_val@U?$_List_simple_types@U?$pair@$$CBITPPGUI_Command_Data@PPGUI_Command_Data_Base@PPGUI@@@std@@@std@@@std@@@std@@V?$allocator@V?$_List_unchecked_iterator@V?$_List_val@U?$_List_simple_types@U?$pair@$$CBITPPGUI_Command_Data@PPGUI_Command_Data_Base@PPGUI@@@std@@@std@@@std@@@std@@@2@@std@@QAE@XZ 1000a8c0 f i PPGUI_Defines.obj
 0001:000098c0       ??1?$vector@VCColor@@V?$allocator@VCColor@@@std@@@std@@QAE@XZ 1000a8c0 f i Resolver.obj
 0001:000098c0       ?_Tidy@?$vector@VCColor@@V?$allocator@VCColor@@@std@@@std@@AAEXXZ 1000a8c0 f i EventListeners.obj
 0001:000098c0       ??1?$vector@PAVPPGUI_Command@PPGUI@@V?$allocator@PAVPPGUI_Command@PPGUI@@@std@@@std@@QAE@XZ 1000a8c0 f i PPGUI.obj
 0001:0000be90       ??R?$mersenne_twister@I$0CA@$0CHA@$0BIN@$0BP@$0JJAILANP@$0L@$06$0JNCMFGIA@$0P@$0OPMGAAAA@$0BC@@std@@QAEIXZ 1000ce90 f i Antiaim.obj
 0001:0000c020       ?BreakLBY@Antiaim@RAGEBOT@FEATURES@@AAEMMM_N@Z 1000d020 f   Antiaim.obj
 0001:0000c320       ?Do@Antiaim@RAGEBOT@FEATURES@@QAEXPAVCUserCmd@SDK@@@Z 1000d320 f   Antiaim.obj
 0001:0000c690       ?DoEdging@Antiaim@RAGEBOT@FEATURES@@AAE_NAAM0@Z 1000d690 f   Antiaim.obj
 0001:0000c820       ?NormalizeYaw@MATH@@YAMM@Z 1000d820 f i Antiaim.obj
 0001:0000c870       ?RandomNumber@MATH@@YAMMM@Z 1000d870 f i Antiaim.obj
 0001:0000ca10       ?ShouldHitEntity@CTraceFilter@SDK@@UAE_NPAXH@Z 1000da10 f i Antiaim.obj
 0001:0000ca20       ?ShouldHitEntity@CTraceWorldOnly@SDK@@UAE_NPAXH@Z 1000da20 f i Antiaim.obj
 0001:0000ca30       ?UpdateLBY@Antiaim@RAGEBOT@FEATURES@@QAEXXZ 1000da30 f   Antiaim.obj
 0001:0000cbc0       ?allocate@?$allocator@PAVPPGUI_Command@PPGUI@@@std@@QAEPAPAVPPGUI_Command@PPGUI@@I@Z 1000dbc0 f i PPGUI.obj
 0001:0000cbc0       ?allocate@?$allocator@VCColor@@@std@@QAEPAVCColor@@I@Z 1000dbc0 f i EventListeners.obj
 0001:0000cbc0       ?allocate@?$allocator@PAVCBaseEntity@SDK@@@std@@QAEPAPAVCBaseEntity@SDK@@I@Z 1000dbc0 f i Antiaim.obj
 0001:0000cbc0       ?allocate@?$allocator@V?$_List_unchecked_iterator@V?$_List_val@U?$_List_simple_types@U?$pair@$$CBITPPGUI_Command_Data@PPGUI_Command_Data_Base@PPGUI@@@std@@@std@@@std@@@std@@@std@@QAEPAV?$_List_unchecked_iterator@V?$_List_val@U?$_List_simple_types@U?$pair@$$CBITPPGUI_Command_Data@PPGUI_Command_Data_Base@PPGUI@@@std@@@std@@@std@@@2@I@Z 1000dbc0 f i PPGUI.obj
 0001:0000cbc0       ?allocate@?$allocator@H@std@@QAEPAHI@Z 1000dbc0 f i input_handler.obj
 0001:0000cc30       ?Strafe@Autostrafer@MISC@FEATURES@@QAEXPAVCUserCmd@SDK@@@Z 1000dc30 f   Autostrafer.obj
 0001:0000d010       ??0logic_error@std@@QAE@ABV01@@Z 1000e010 f i Autowall.obj
 0001:0000d050       ?CalculateDamage@Autowall@RAGEBOT@FEATURES@@QAE?AUAutowall_Return_Info@123@VVector@@0PAVCBaseEntity@SDK@@1H@Z 1000e050 f   Autowall.obj
 0001:0000d6b0       ?CanPenetrate@Autowall@RAGEBOT@FEATURES@@AAE_NPAVCBaseEntity@SDK@@AAUAutowall_Info@123@PAUWeapon_Info@5@@Z 1000e6b0 f   Autowall.obj
 0001:0000d8d0       ?ScaleDamage@Autowall@RAGEBOT@FEATURES@@AAEXPAVCBaseEntity@SDK@@PAUWeapon_Info@5@HAAM@Z 1000e8d0 f   Autowall.obj
 0001:0000d9c0       ?UTIL_TraceLine@Autowall@RAGEBOT@FEATURES@@AAEXAAVVector@@0IPAVCBaseEntity@SDK@@PAUtrace_t@6@@Z 1000e9c0 f i Autowall.obj
 0001:0000dab0       ?assign@?$basic_string@DU?$char_traits@D@std@@V?$allocator@D@2@@std@@QAEAAV12@QBDI@Z 1000eab0 f i Autowall.obj
 0001:0000dba0       ??$_Emplace_reallocate@ABUBacktracking_Record@RAGEBOT@FEATURES@@@?$vector@UBacktracking_Record@RAGEBOT@FEATURES@@V?$allocator@UBacktracking_Record@RAGEBOT@FEATURES@@@std@@@std@@QAEPAUBacktracking_Record@RAGEBOT@FEATURES@@QAU234@ABU234@@Z 1000eba0 f i Backtracking.obj
 0001:0000dba0       ??$_Emplace_reallocate@UBacktracking_Record@RAGEBOT@FEATURES@@@?$vector@UBacktracking_Record@RAGEBOT@FEATURES@@V?$allocator@UBacktracking_Record@RAGEBOT@FEATURES@@@std@@@std@@QAEPAUBacktracking_Record@RAGEBOT@FEATURES@@QAU234@$$QAU234@@Z 1000eba0 f i Backtracking.obj
 0001:0000dce0       ??$_Move_backward_unchecked1@PAUBacktracking_Record@RAGEBOT@FEATURES@@PAU123@@std@@YAPAUBacktracking_Record@RAGEBOT@FEATURES@@PAU123@00U_General_ptr_iterator_tag@0@@Z 1000ece0 f i Backtracking.obj
 0001:0000df30       ??$emplace@UBacktracking_Record@RAGEBOT@FEATURES@@@?$vector@UBacktracking_Record@RAGEBOT@FEATURES@@V?$allocator@UBacktracking_Record@RAGEBOT@FEATURES@@@std@@@std@@QAE?AV?$_Vector_iterator@V?$_Vector_val@U?$_Simple_types@UBacktracking_Record@RAGEBOT@FEATURES@@@std@@@std@@@1@V?$_Vector_const_iterator@V?$_Vector_val@U?$_Simple_types@UBacktracking_Record@RAGEBOT@FEATURES@@@std@@@std@@@1@$$QAUBacktracking_Record@RAGEBOT@FEATURES@@@Z 1000ef30 f i Backtracking.obj
 0001:0000df30       ??$emplace@ABUBacktracking_Record@RAGEBOT@FEATURES@@@?$vector@UBacktracking_Record@RAGEBOT@FEATURES@@V?$allocator@UBacktracking_Record@RAGEBOT@FEATURES@@@std@@@std@@QAE?AV?$_Vector_iterator@V?$_Vector_val@U?$_Simple_types@UBacktracking_Record@RAGEBOT@FEATURES@@@std@@@std@@@1@V?$_Vector_const_iterator@V?$_Vector_val@U?$_Simple_types@UBacktracking_Record@RAGEBOT@FEATURES@@@std@@@std@@@1@ABUBacktracking_Record@RAGEBOT@FEATURES@@@Z 1000ef30 f i Backtracking.obj
 0001:0000e010       ??0?$vector@UBacktracking_Record@RAGEBOT@FEATURES@@V?$allocator@UBacktracking_Record@RAGEBOT@FEATURES@@@std@@@std@@QAE@ABV01@@Z 1000f010 f i Backtracking.obj
 0001:0000e0c0       ??0Backtracking_Record@RAGEBOT@FEATURES@@QAE@PAVCBaseEntity@SDK@@@Z 1000f0c0 f   Backtracking.obj
 0001:0000e4d0       ??0PlayerResolveRecord@Resolver@RAGEBOT@FEATURES@@QAE@XZ 1000f4d0 f i Backtracking.obj
 0001:0000e620       ??1?$deque@UIncoming_Sequence_Record@RAGEBOT@FEATURES@@V?$allocator@UIncoming_Sequence_Record@RAGEBOT@FEATURES@@@std@@@std@@QAE@XZ 1000f620 f i Backtracking.obj
 0001:0000e6d0       ?ApplyRestore@CBacktracking@RAGEBOT@FEATURES@@QAEXPAVCBaseEntity@SDK@@M@Z 1000f6d0 f   Backtracking.obj
 0001:0000e830       ?GetDeltaTime@CBacktracking@RAGEBOT@FEATURES@@SAMUBacktracking_Record@23@@Z 1000f830 f   Backtracking.obj
 0001:0000e920       ?GetLerpTicks@CBacktracking@RAGEBOT@FEATURES@@SAHXZ 1000f920 f   Backtracking.obj
 0001:0000eb00       ?GetPriorityRecords@CBacktracking@RAGEBOT@FEATURES@@QAE?AV?$vector@UBacktracking_Record@RAGEBOT@FEATURES@@V?$allocator@UBacktracking_Record@RAGEBOT@FEATURES@@@std@@@std@@PAVCBaseEntity@SDK@@@Z 1000fb00 f   Backtracking.obj
 0001:0000f4b0       ?GetRecords@CBacktracking@RAGEBOT@FEATURES@@QAE?AV?$vector@UBacktracking_Record@RAGEBOT@FEATURES@@V?$allocator@UBacktracking_Record@RAGEBOT@FEATURES@@@std@@@std@@PAVCBaseEntity@SDK@@@Z 100104b0 f   Backtracking.obj
 0001:0000f4e0       ?GetTickCount@CBacktracking@RAGEBOT@FEATURES@@SAHUBacktracking_Record@23@@Z 100104e0 f   Backtracking.obj
 0001:0000f510       ?GetValidRecords@CBacktracking@RAGEBOT@FEATURES@@QAE?AV?$vector@UBacktracking_Record@RAGEBOT@FEATURES@@V?$allocator@UBacktracking_Record@RAGEBOT@FEATURES@@@std@@@std@@PAVCBaseEntity@SDK@@@Z 10010510 f   Backtracking.obj
 0001:0000f610       ?Restore@CBacktracking@RAGEBOT@FEATURES@@QAEXPAVCBaseEntity@SDK@@UBacktracking_Record@23@H@Z 10010610 f   Backtracking.obj
 0001:0000fa20       ?RestoreAllToCurrentRecord@CBacktracking@RAGEBOT@FEATURES@@QAEXXZ 10010a20 f   Backtracking.obj
 0001:0000fba0       ?RestoreToCurrentRecord@CBacktracking@RAGEBOT@FEATURES@@QAEXPAVCBaseEntity@SDK@@@Z 10010ba0 f   Backtracking.obj
 0001:0000fc60       ?Store@CBacktracking@RAGEBOT@FEATURES@@QAEXXZ 10010c60 f   Backtracking.obj
 0001:0000fe40       ?UpdateIncomingSequences@CBacktracking@RAGEBOT@FEATURES@@QAEXXZ 10010e40 f   Backtracking.obj
 0001:0000ff20       ?_Change_array@?$vector@UBacktracking_Record@RAGEBOT@FEATURES@@V?$allocator@UBacktracking_Record@RAGEBOT@FEATURES@@@std@@@std@@AAEXQAUBacktracking_Record@RAGEBOT@FEATURES@@II@Z 10010f20 f i Backtracking.obj
 0001:0000ffa0       ?_Growmap@?$deque@UIncoming_Sequence_Record@RAGEBOT@FEATURES@@V?$allocator@UIncoming_Sequence_Record@RAGEBOT@FEATURES@@@std@@@std@@IAEXI@Z 10010fa0 f i Backtracking.obj
 0001:00010190       ?_Umove@?$vector@UBacktracking_Record@RAGEBOT@FEATURES@@V?$allocator@UBacktracking_Record@RAGEBOT@FEATURES@@@std@@@std@@AAEPAUBacktracking_Record@RAGEBOT@FEATURES@@PAU345@00@Z 10011190 f i Backtracking.obj
 0001:000101d0       ?_Xlen@?$deque@UIncoming_Sequence_Record@RAGEBOT@FEATURES@@V?$allocator@UIncoming_Sequence_Record@RAGEBOT@FEATURES@@@std@@@std@@IBEXXZ 100111d0 f i Backtracking.obj
 0001:000101e0       ?allocate@?$allocator@UBacktracking_Record@RAGEBOT@FEATURES@@@std@@QAEPAUBacktracking_Record@RAGEBOT@FEATURES@@I@Z 100111e0 f i Backtracking.obj
 0001:00010250       ??$_Destroy_range@V?$allocator@U?$pair@V?$basic_string@DU?$char_traits@D@std@@V?$allocator@D@2@@std@@VCColor@@@std@@@std@@@std@@YAXPAU?$pair@V?$basic_string@DU?$char_traits@D@std@@V?$allocator@D@2@@std@@VCColor@@@0@0AAV?$allocator@U?$pair@V?$basic_string@DU?$char_traits@D@std@@V?$allocator@D@2@@std@@VCColor@@@std@@@0@@Z 10011250 f i BoxESP.obj
 0001:000102c0       ??$_Emplace_reallocate@AAY0N@$$CBDVCColor@@@?$vector@U?$pair@V?$basic_string@DU?$char_traits@D@std@@V?$allocator@D@2@@std@@VCColor@@@std@@V?$allocator@U?$pair@V?$basic_string@DU?$char_traits@D@std@@V?$allocator@D@2@@std@@VCColor@@@std@@@2@@std@@QAEPAU?$pair@V?$basic_string@DU?$char_traits@D@std@@V?$allocator@D@2@@std@@VCColor@@@1@QAU21@AAY0N@$$CBD$$QAVCColor@@@Z 100112c0 f i BoxESP.obj
 0001:00010470       ??$_Emplace_reallocate@UVertex_t@SDK@@@?$vector@UVertex_t@SDK@@V?$allocator@UVertex_t@SDK@@@std@@@std@@QAEPAUVertex_t@SDK@@QAU23@$$QAU23@@Z 10011470 f i BoxESP.obj
 0001:000105c0       ??$_Emplace_reallocate@V?$basic_string@DU?$char_traits@D@std@@V?$allocator@D@2@@std@@VCColor@@@?$vector@U?$pair@V?$basic_string@DU?$char_traits@D@std@@V?$allocator@D@2@@std@@VCColor@@@std@@V?$allocator@U?$pair@V?$basic_string@DU?$char_traits@D@std@@V?$allocator@D@2@@std@@VCColor@@@std@@@2@@std@@QAEPAU?$pair@V?$basic_string@DU?$char_traits@D@std@@V?$allocator@D@2@@std@@VCColor@@@1@QAU21@$$QAV?$basic_string@DU?$char_traits@D@std@@V?$allocator@D@2@@1@$$QAVCColor@@@Z 100115c0 f i BoxESP.obj
 0001:000106f0       ??$_UIntegral_to_buff@DI@std@@YAPADPADI@Z 100116f0 f i BoxESP.obj
 0001:00010730       ??$_Uninitialized_move@PAU?$pair@V?$basic_string@DU?$char_traits@D@std@@V?$allocator@D@2@@std@@VCColor@@@std@@PAU12@V?$allocator@U?$pair@V?$basic_string@DU?$char_traits@D@std@@V?$allocator@D@2@@std@@VCColor@@@std@@@2@@std@@YAPAU?$pair@V?$basic_string@DU?$char_traits@D@std@@V?$allocator@D@2@@std@@VCColor@@@0@QAU10@0PAU10@AAV?$allocator@U?$pair@V?$basic_string@DU?$char_traits@D@std@@V?$allocator@D@2@@std@@VCColor@@@std@@@0@@Z 10011730 f i BoxESP.obj
 0001:000107b0       ??$emplace_back@V?$basic_string@DU?$char_traits@D@std@@V?$allocator@D@2@@std@@VCColor@@@?$vector@U?$pair@V?$basic_string@DU?$char_traits@D@std@@V?$allocator@D@2@@std@@VCColor@@@std@@V?$allocator@U?$pair@V?$basic_string@DU?$char_traits@D@std@@V?$allocator@D@2@@std@@VCColor@@@std@@@2@@std@@QAEAAU?$pair@V?$basic_string@DU?$char_traits@D@std@@V?$allocator@D@2@@std@@VCColor@@@1@$$QAV?$basic_string@DU?$char_traits@D@std@@V?$allocator@D@2@@1@$$QAVCColor@@@Z 100117b0 f i BoxESP.obj
 0001:00010820       ??0?$basic_string@DU?$char_traits@D@std@@V?$allocator@D@2@@std@@QAE@ABV01@@Z 10011820 f i BoxESP.obj
 0001:000108b0       ??0?$basic_string@DU?$char_traits@D@std@@V?$allocator@D@2@@std@@QAE@ID@Z 100118b0 f i BoxESP.obj
 0001:000109c0       ??0?$vector@UVertex_t@SDK@@V?$allocator@UVertex_t@SDK@@@std@@@std@@QAE@ABV01@@Z 100119c0 f i BoxESP.obj
 0001:00010a40       ??1?$vector@U?$pair@V?$basic_string@DU?$char_traits@D@std@@V?$allocator@D@2@@std@@VCColor@@@std@@V?$allocator@U?$pair@V?$basic_string@DU?$char_traits@D@std@@V?$allocator@D@2@@std@@VCColor@@@std@@@2@@std@@QAE@XZ 10011a40 f i BoxESP.obj
 0001:00010e20       ?Do@CBoxESP@VISUALS@FEATURES@@QAEXXZ 10011e20 f   BoxESP.obj
 0001:00010f60       ?DrawBox@CBoxESP@VISUALS@FEATURES@@AAEXPAVCBaseEntity@SDK@@VCColor@@1_N2222@Z 10011f60 f   BoxESP.obj
 0001:00011860       ?DrawBoxInfo@CBoxESP@VISUALS@FEATURES@@AAEXPAVCBaseEntity@SDK@@VCColor@@PAVVector@@_N33@Z 10012860 f   BoxESP.obj
 0001:00011f20       ?DrawHealthBar@CBoxESP@VISUALS@FEATURES@@AAEXPAVCBaseEntity@SDK@@PAVVector@@H@Z 10012f20 f   BoxESP.obj
 0001:00012510       ?_Change_array@?$vector@U?$pair@V?$basic_string@DU?$char_traits@D@std@@V?$allocator@D@2@@std@@VCColor@@@std@@V?$allocator@U?$pair@V?$basic_string@DU?$char_traits@D@std@@V?$allocator@D@2@@std@@VCColor@@@std@@@2@@std@@AAEXQAU?$pair@V?$basic_string@DU?$char_traits@D@std@@V?$allocator@D@2@@std@@VCColor@@@2@II@Z 10013510 f i BoxESP.obj
 0001:000125b0       ?_Destroy@?$vector@U?$pair@V?$basic_string@DU?$char_traits@D@std@@V?$allocator@D@2@@std@@VCColor@@@std@@V?$allocator@U?$pair@V?$basic_string@DU?$char_traits@D@std@@V?$allocator@D@2@@std@@VCColor@@@std@@@2@@std@@AAEXPAU?$pair@V?$basic_string@DU?$char_traits@D@std@@V?$allocator@D@2@@std@@VCColor@@@2@0@Z 100135b0 f i BoxESP.obj
 0001:000125d0       ?_Xran@?$_String_val@U?$_Simple_types@D@std@@@std@@SAXXZ 100135d0 f i BoxESP.obj
 0001:000125e0       ?allocate@?$allocator@U?$pair@V?$basic_string@DU?$char_traits@D@std@@V?$allocator@D@2@@std@@VCColor@@@std@@@std@@QAEPAU?$pair@V?$basic_string@DU?$char_traits@D@std@@V?$allocator@D@2@@std@@VCColor@@@2@I@Z 100135e0 f i BoxESP.obj
 0001:00012650       ?deallocate@?$allocator@U?$pair@V?$basic_string@DU?$char_traits@D@std@@V?$allocator@D@2@@std@@VCColor@@@std@@@std@@QAEXQAU?$pair@V?$basic_string@DU?$char_traits@D@std@@V?$allocator@D@2@@std@@VCColor@@@2@I@Z 10013650 f i BoxESP.obj
 0001:00012650       ?deallocate@?$allocator@ULog@InGameLogger@MISC@FEATURES@@@std@@QAEXQAULog@InGameLogger@MISC@FEATURES@@I@Z 10013650 f i EventListeners.obj
 0001:000126a0       ?insert@?$basic_string@DU?$char_traits@D@std@@V?$allocator@D@2@@std@@QAEAAV12@IQBDI@Z 100136a0 f i BoxESP.obj
 0001:00012880       ?to_string@std@@YA?AV?$basic_string@DU?$char_traits@D@std@@V?$allocator@D@2@@1@H@Z 10013880 f i BoxESP.obj
 0001:00012900       ___local_stdio_printf_options 10013900 f i BoxESP.obj
 0001:00012910       __scprintf                 10013910 f i BoxESP.obj
 0001:00012940       _sprintf                   10013940 f i BoxESP.obj
 0001:00012980       _sprintf_s                 10013980 f i BoxESP.obj
 0001:000129b0       ?CreateMaterial@CChams@VISUALS@FEATURES@@QAEPAVIMaterial@SDK@@_N00@Z 100139b0 f   Chams.obj
 0001:00012da0       ?DoSceneEnd@CChams@VISUALS@FEATURES@@QAEXXZ 10013da0 f   Chams.obj
 0001:00012e20       ?DrawBacktrackPlayer@CChams@VISUALS@FEATURES@@AAEXPAVCBaseEntity@SDK@@@Z 10013e20 f   Chams.obj
 0001:00012fb0       ?DrawPlayer@CChams@VISUALS@FEATURES@@AAEXPAVCBaseEntity@SDK@@@Z 10013fb0 f   Chams.obj
 0001:000131a0       ?UpdateMaterials@CChams@VISUALS@FEATURES@@AAEXXZ 100141a0 f   Chams.obj
 0001:00013a80       ?Do@CircleStrafer@MISC@FEATURES@@QAEXPAVCUserCmd@SDK@@@Z 10014a80 f   CircleStrafer.obj
 0001:00013c80       ?VerifyRotation@CircleStrafer@MISC@FEATURES@@AAEMM@Z 10014c80 f   CircleStrafer.obj
 0001:00014240       ?EndPrediction@EnginePrediction@MISC@FEATURES@@QBEXXZ 10015240 f   EnginePrediction.obj
 0001:000142a0       ?StartPrediction@EnginePrediction@MISC@FEATURES@@QAEXPAVCUserCmd@SDK@@@Z 100152a0 f   EnginePrediction.obj
 0001:000143b0       ?GetEventDebugID@IGameEventListener@SDK@@UAEHXZ 100153b0 f i EventListeners.obj
 0001:000143c0       ??_EIGameEventListener@SDK@@UAEPAXI@Z 100153c0 f i EventListeners.obj
 0001:000143c0       ??_GIGameEventListener@SDK@@UAEPAXI@Z 100153c0 f i EventListeners.obj
 0001:000143f0       ?FireGameEvent@ItemPurchaseListener@MISC@FEATURES@@UAEXPAVIGameEvent@SDK@@@Z 100153f0 f   EventListeners.obj
 0001:000145e0       ??_GItemPurchaseListener@MISC@FEATURES@@UAEPAXI@Z 100155e0 f i EventListeners.obj
 0001:000145e0       ??_EItemPurchaseListener@MISC@FEATURES@@UAEPAXI@Z 100155e0 f i EventListeners.obj
 0001:00014650       ?FireGameEvent@PlayerHurtListener@MISC@FEATURES@@UAEXPAVIGameEvent@SDK@@@Z 10015650 f   EventListeners.obj
 0001:000149e0       ??_GPlayerHurtListener@MISC@FEATURES@@UAEPAXI@Z 100159e0 f i EventListeners.obj
 0001:000149e0       ??_EPlayerHurtListener@MISC@FEATURES@@UAEPAXI@Z 100159e0 f i EventListeners.obj
 0001:00014a50       ?FireGameEvent@BulletImpactListener@MISC@FEATURES@@UAEXPAVIGameEvent@SDK@@@Z 10015a50 f   EventListeners.obj
 0001:00014cc0       ??_GBulletImpactListener@MISC@FEATURES@@UAEPAXI@Z 10015cc0 f i EventListeners.obj
 0001:00014cc0       ??_EBulletImpactListener@MISC@FEATURES@@UAEPAXI@Z 10015cc0 f i EventListeners.obj
 0001:00014d30       ?FireGameEvent@WeaponFireListener@MISC@FEATURES@@UAEXPAVIGameEvent@SDK@@@Z 10015d30 f   EventListeners.obj
 0001:00014d50       ??_GWeaponFireListener@MISC@FEATURES@@UAEPAXI@Z 10015d50 f i EventListeners.obj
 0001:00014d50       ??_EWeaponFireListener@MISC@FEATURES@@UAEPAXI@Z 10015d50 f i EventListeners.obj
 0001:00014dc0       ??$_Destroy_range@V?$allocator@V?$basic_string@DU?$char_traits@D@std@@V?$allocator@D@2@@std@@@std@@@std@@YAXPAV?$basic_string@DU?$char_traits@D@std@@V?$allocator@D@2@@0@0AAV?$allocator@V?$basic_string@DU?$char_traits@D@std@@V?$allocator@D@2@@std@@@0@@Z 10015dc0 f i EventListeners.obj
 0001:00014e30       ??$_Emplace_reallocate@ABUBulletTracer@BulletTracers@MISC@FEATURES@@@?$vector@UBulletTracer@BulletTracers@MISC@FEATURES@@V?$allocator@UBulletTracer@BulletTracers@MISC@FEATURES@@@std@@@std@@QAEPAUBulletTracer@BulletTracers@MISC@FEATURES@@QAU2345@ABU2345@@Z 10015e30 f i EventListeners.obj
 0001:00014fe0       ??$_Emplace_reallocate@ABULog@InGameLogger@MISC@FEATURES@@@?$vector@ULog@InGameLogger@MISC@FEATURES@@V?$allocator@ULog@InGameLogger@MISC@FEATURES@@@std@@@std@@QAEPAULog@InGameLogger@MISC@FEATURES@@QAU2345@ABU2345@@Z 10015fe0 f i EventListeners.obj
 0001:00015260       ??$_Emplace_reallocate@ABV?$basic_string@DU?$char_traits@D@std@@V?$allocator@D@2@@std@@@?$vector@V?$basic_string@DU?$char_traits@D@std@@V?$allocator@D@2@@std@@V?$allocator@V?$basic_string@DU?$char_traits@D@std@@V?$allocator@D@2@@std@@@2@@std@@QAEPAV?$basic_string@DU?$char_traits@D@std@@V?$allocator@D@2@@1@QAV21@ABV21@@Z 10016260 f i EventListeners.obj
 0001:00015430       ??$_Emplace_reallocate@ABVCColor@@@?$vector@VCColor@@V?$allocator@VCColor@@@std@@@std@@QAEPAVCColor@@QAV2@ABV2@@Z 10016430 f i EventListeners.obj
 0001:000155a0       ??$_Uninitialized_move@PAV?$basic_string@DU?$char_traits@D@std@@V?$allocator@D@2@@std@@PAV12@V?$allocator@V?$basic_string@DU?$char_traits@D@std@@V?$allocator@D@2@@std@@@2@@std@@YAPAV?$basic_string@DU?$char_traits@D@std@@V?$allocator@D@2@@0@QAV10@0PAV10@AAV?$allocator@V?$basic_string@DU?$char_traits@D@std@@V?$allocator@D@2@@std@@@0@@Z 100165a0 f i EventListeners.obj
 0001:00015610       ??$construct@ULog@InGameLogger@MISC@FEATURES@@U1234@@?$_Default_allocator_traits@V?$allocator@ULog@InGameLogger@MISC@FEATURES@@@std@@@std@@SAXAAV?$allocator@ULog@InGameLogger@MISC@FEATURES@@@1@QAULog@InGameLogger@MISC@FEATURES@@$$QAU3456@@Z 10016610 f i EventListeners.obj
 0001:000156a0       ??$emplace@ABULog@InGameLogger@MISC@FEATURES@@@?$vector@ULog@InGameLogger@MISC@FEATURES@@V?$allocator@ULog@InGameLogger@MISC@FEATURES@@@std@@@std@@QAE?AV?$_Vector_iterator@V?$_Vector_val@U?$_Simple_types@ULog@InGameLogger@MISC@FEATURES@@@std@@@std@@@1@V?$_Vector_const_iterator@V?$_Vector_val@U?$_Simple_types@ULog@InGameLogger@MISC@FEATURES@@@std@@@std@@@1@ABULog@InGameLogger@MISC@FEATURES@@@Z 100166a0 f i EventListeners.obj
 0001:00015890       ??0?$basic_string@DU?$char_traits@D@std@@V?$allocator@D@2@@std@@QAE@QBD@Z 10016890 f i EventListeners.obj
 0001:000158d0       ??0?$vector@V?$basic_string@DU?$char_traits@D@std@@V?$allocator@D@2@@std@@V?$allocator@V?$basic_string@DU?$char_traits@D@std@@V?$allocator@D@2@@std@@@2@@std@@QAE@ABV01@@Z 100168d0 f i EventListeners.obj
 0001:000159d0       ??0?$vector@VCColor@@V?$allocator@VCColor@@@std@@@std@@QAE@ABV01@@Z 100169d0 f i EventListeners.obj
 0001:00015a60       ??0Log@InGameLogger@MISC@FEATURES@@QAE@ABU0123@@Z 10016a60 f i EventListeners.obj
 0001:00015ad0       ??0Log@InGameLogger@MISC@FEATURES@@QAE@XZ 10016ad0 f i EventListeners.obj
 0001:00015b50       ??1?$_Uninitialized_backout_al@PAV?$basic_string@DU?$char_traits@D@std@@V?$allocator@D@2@@std@@V?$allocator@V?$basic_string@DU?$char_traits@D@std@@V?$allocator@D@2@@std@@@2@@std@@QAE@XZ 10016b50 f i EventListeners.obj
 0001:00015b70       ??1?$vector@V?$basic_string@DU?$char_traits@D@std@@V?$allocator@D@2@@std@@V?$allocator@V?$basic_string@DU?$char_traits@D@std@@V?$allocator@D@2@@std@@@2@@std@@QAE@XZ 10016b70 f i EventListeners.obj
 0001:00015b80       ??1ColorLine@MISC@FEATURES@@QAE@XZ 10016b80 f i EventListeners.obj
 0001:00015be0       ??1Log@InGameLogger@MISC@FEATURES@@QAE@XZ 10016be0 f i EventListeners.obj
 0001:00015bf0       ??4Log@InGameLogger@MISC@FEATURES@@QAEAAU0123@$$QAU0123@@Z 10016bf0 f i EventListeners.obj
 0001:00015c70       ?AddLog@InGameLogger@MISC@FEATURES@@QAEXULog@123@@Z 10016c70 f i EventListeners.obj
 0001:00015cd0       ?InitializeEventListeners@MISC@FEATURES@@YAXXZ 10016cd0 f   EventListeners.obj
 0001:00015f40       ?PushBack@ColorLine@MISC@FEATURES@@QAEXV?$basic_string@DU?$char_traits@D@std@@V?$allocator@D@2@@std@@VCColor@@@Z 10016f40 f i EventListeners.obj
 0001:00016000       ?RemoveEventListeners@MISC@FEATURES@@YAXXZ 10017000 f   EventListeners.obj
 0001:00016050       ?_Destroy@?$vector@ULog@InGameLogger@MISC@FEATURES@@V?$allocator@ULog@InGameLogger@MISC@FEATURES@@@std@@@std@@AAEXPAULog@InGameLogger@MISC@FEATURES@@0@Z 10017050 f i EventListeners.obj
 0001:00016080       ?_Destroy@?$vector@V?$basic_string@DU?$char_traits@D@std@@V?$allocator@D@2@@std@@V?$allocator@V?$basic_string@DU?$char_traits@D@std@@V?$allocator@D@2@@std@@@2@@std@@AAEXPAV?$basic_string@DU?$char_traits@D@std@@V?$allocator@D@2@@2@0@Z 10017080 f i EventListeners.obj
 0001:000160a0       ?_Tidy@?$vector@V?$basic_string@DU?$char_traits@D@std@@V?$allocator@D@2@@std@@V?$allocator@V?$basic_string@DU?$char_traits@D@std@@V?$allocator@D@2@@std@@@2@@std@@AAEXXZ 100170a0 f i EventListeners.obj
 0001:00016120       ?_Umove@?$vector@ULog@InGameLogger@MISC@FEATURES@@V?$allocator@ULog@InGameLogger@MISC@FEATURES@@@std@@@std@@AAEPAULog@InGameLogger@MISC@FEATURES@@PAU3456@00@Z 10017120 f i EventListeners.obj
 0001:00016170       ?deallocate@?$allocator@V?$basic_string@DU?$char_traits@D@std@@V?$allocator@D@2@@std@@@std@@QAEXQAV?$basic_string@DU?$char_traits@D@std@@V?$allocator@D@2@@2@I@Z 10017170 f i EventListeners.obj
 0001:000161b0       ?Do@Fakewalk@RAGEBOT@FEATURES@@QAEXPAVCUserCmd@SDK@@@Z 100171b0 f   Fakewalk.obj
 0001:000163b0       ??$_Move_unchecked@PAULog@InGameLogger@MISC@FEATURES@@PAU1234@@std@@YAPAULog@InGameLogger@MISC@FEATURES@@PAU1234@00@Z 100173b0 f i InGameLogger.obj
 0001:000164b0       ??1?$vector@ULog@InGameLogger@MISC@FEATURES@@V?$allocator@ULog@InGameLogger@MISC@FEATURES@@@std@@@std@@QAE@XZ 100174b0 f i InGameLogger.obj
 0001:00016540       ?Do@InGameLogger@MISC@FEATURES@@QAEXXZ 10017540 f   InGameLogger.obj
 0001:00016840       ?Draw@ColorLine@MISC@FEATURES@@QAEXHHI@Z 10017840 f   InGameLogger.obj
 0001:00016a60       ?Do@LegitAimbot@LEGITBOT@FEATURES@@QAEXPAVCUserCmd@SDK@@@Z 10017a60 f   Legitbot.obj
 0001:00016b60       ??$?6U?$char_traits@D@std@@@std@@YAAAV?$basic_ostream@DU?$char_traits@D@std@@@0@AAV10@PBD@Z 10017b60 f i Misc.obj
 0001:00016e10       ??$?8DU?$char_traits@D@std@@V?$allocator@D@1@@std@@YA_NABV?$basic_string@DU?$char_traits@D@std@@V?$allocator@D@2@@0@QBD@Z 10017e10 f i Misc.obj
 0001:00016ea0       ??$HookFunction@P6E_NPAXPAUmatrix3x4_t@@HHM@Z@VMTHookManager@VMT@@QAEP6E_NPAXPAUmatrix3x4_t@@HHM@ZH0@Z 10017ea0 f i Misc.obj
 0001:00016f80       ??$_Buynode@ABUpiecewise_construct_t@std@@V?$tuple@ABH@2@V?$tuple@$$V@2@@?$_Tree_comp_alloc@V?$_Tmap_traits@HPAXU?$less@H@std@@V?$allocator@U?$pair@$$CBHPAX@std@@@2@$0A@@std@@@std@@QAEPAU?$_Tree_node@U?$pair@$$CBHPAX@std@@PAX@1@ABUpiecewise_construct_t@1@$$QAV?$tuple@ABH@1@$$QAV?$tuple@$$V@1@@Z 10017f80 f i Misc.obj
 0001:00016fb0       ??$_Emplace_reallocate@ABV?$vector@V?$basic_string@DU?$char_traits@D@std@@V?$allocator@D@2@@std@@V?$allocator@V?$basic_string@DU?$char_traits@D@std@@V?$allocator@D@2@@std@@@2@@std@@@?$vector@V?$vector@V?$basic_string@DU?$char_traits@D@std@@V?$allocator@D@2@@std@@V?$allocator@V?$basic_string@DU?$char_traits@D@std@@V?$allocator@D@2@@std@@@2@@std@@V?$allocator@V?$vector@V?$basic_string@DU?$char_traits@D@std@@V?$allocator@D@2@@std@@V?$allocator@V?$basic_string@DU?$char_traits@D@std@@V?$allocator@D@2@@std@@@2@@std@@@2@@std@@QAEPAV?$vector@V?$basic_string@DU?$char_traits@D@std@@V?$allocator@D@2@@std@@V?$allocator@V?$basic_string@DU?$char_traits@D@std@@V?$allocator@D@2@@std@@@2@@1@QAV21@ABV21@@Z 10017fb0 f i Misc.obj
 0001:000171d0       ??$_Emplace_reallocate@UHitmarker@Hitmarkers@MISC@FEATURES@@@?$vector@UHitmarker@Hitmarkers@MISC@FEATURES@@V?$allocator@UHitmarker@Hitmarkers@MISC@FEATURES@@@std@@@std@@QAEPAUHitmarker@Hitmarkers@MISC@FEATURES@@QAU2345@$$QAU2345@@Z 100181d0 f i Misc.obj
 0001:00017370       ??$_Insert_at@AAU?$pair@$$CBHPAX@std@@PAU?$_Tree_node@U?$pair@$$CBHPAX@std@@PAX@2@@?$_Tree@V?$_Tmap_traits@HPAXU?$less@H@std@@V?$allocator@U?$pair@$$CBHPAX@std@@@2@$0A@@std@@@std@@IAE?AV?$_Tree_iterator@V?$_Tree_val@U?$_Tree_simple_types@U?$pair@$$CBHPAX@std@@@std@@@std@@@1@_NPAU?$_Tree_node@U?$pair@$$CBHPAX@std@@PAX@1@AAU?$pair@$$CBHPAX@1@1@Z 10018370 f i Misc.obj
 0001:000174d0       ??$_Insert_hint@AAU?$pair@$$CBHPAX@std@@PAU?$_Tree_node@U?$pair@$$CBHPAX@std@@PAX@2@@?$_Tree@V?$_Tmap_traits@HPAXU?$less@H@std@@V?$allocator@U?$pair@$$CBHPAX@std@@@2@$0A@@std@@@std@@IAE?AV?$_Tree_iterator@V?$_Tree_val@U?$_Tree_simple_types@U?$pair@$$CBHPAX@std@@@std@@@std@@@1@V?$_Tree_const_iterator@V?$_Tree_val@U?$_Tree_simple_types@U?$pair@$$CBHPAX@std@@@std@@@std@@@1@AAU?$pair@$$CBHPAX@1@PAU?$_Tree_node@U?$pair@$$CBHPAX@std@@PAX@1@@Z 100184d0 f i Misc.obj
 0001:000176f0       ??$_Insert_nohint@AAU?$pair@$$CBHPAX@std@@PAU?$_Tree_node@U?$pair@$$CBHPAX@std@@PAX@2@@?$_Tree@V?$_Tmap_traits@HPAXU?$less@H@std@@V?$allocator@U?$pair@$$CBHPAX@std@@@2@$0A@@std@@@std@@IAE?AU?$pair@V?$_Tree_iterator@V?$_Tree_val@U?$_Tree_simple_types@U?$pair@$$CBHPAX@std@@@std@@@std@@@std@@_N@1@_NAAU?$pair@$$CBHPAX@1@PAU?$_Tree_node@U?$pair@$$CBHPAX@std@@PAX@1@@Z 100186f0 f i Misc.obj
 0001:00017810       ??$_Uninitialized_move@PAV?$vector@V?$basic_string@DU?$char_traits@D@std@@V?$allocator@D@2@@std@@V?$allocator@V?$basic_string@DU?$char_traits@D@std@@V?$allocator@D@2@@std@@@2@@std@@PAV12@V?$allocator@V?$vector@V?$basic_string@DU?$char_traits@D@std@@V?$allocator@D@2@@std@@V?$allocator@V?$basic_string@DU?$char_traits@D@std@@V?$allocator@D@2@@std@@@2@@std@@@2@@std@@YAPAV?$vector@V?$basic_string@DU?$char_traits@D@std@@V?$allocator@D@2@@std@@V?$allocator@V?$basic_string@DU?$char_traits@D@std@@V?$allocator@D@2@@std@@@2@@0@QAV10@0PAV10@AAV?$allocator@V?$vector@V?$basic_string@DU?$char_traits@D@std@@V?$allocator@D@2@@std@@V?$allocator@V?$basic_string@DU?$char_traits@D@std@@V?$allocator@D@2@@std@@@2@@std@@@0@@Z 10018810 f i Misc.obj
 0001:00017880       ??$endl@DU?$char_traits@D@std@@@std@@YAAAV?$basic_ostream@DU?$char_traits@D@std@@@0@AAV10@@Z 10018880 f i Misc.obj
 0001:000178b0       ??$getline@DU?$char_traits@D@std@@V?$allocator@D@2@@std@@YAAAV?$basic_istream@DU?$char_traits@D@std@@@0@$$QAV10@AAV?$basic_string@DU?$char_traits@D@std@@V?$allocator@D@2@@0@D@Z 100188b0 f i Misc.obj
 0001:00017a60       ??0sentry@?$basic_ostream@DU?$char_traits@D@std@@@std@@QAE@AAV12@@Z 10018a60 f i Misc.obj
 0001:00017af0       ??1?$vector@V?$vector@V?$basic_string@DU?$char_traits@D@std@@V?$allocator@D@2@@std@@V?$allocator@V?$basic_string@DU?$char_traits@D@std@@V?$allocator@D@2@@std@@@2@@std@@V?$allocator@V?$vector@V?$basic_string@DU?$char_traits@D@std@@V?$allocator@D@2@@std@@V?$allocator@V?$basic_string@DU?$char_traits@D@std@@V?$allocator@D@2@@std@@@2@@std@@@2@@std@@QAE@XZ 10018af0 f i Misc.obj
 0001:00017b70       ??E?$_Tree_const_iterator@V?$_Tree_val@U?$_Tree_simple_types@U?$pair@$$CBHPAX@std@@@std@@@std@@@std@@QAEAAV01@XZ 10018b70 f i Misc.obj
 0001:00017b70       ??E?$_Tree_unchecked_const_iterator@V?$_Tree_val@U?$_Tree_simple_types@U?$pair@$$CBHPAX@std@@@std@@@std@@U_Iterator_base0@2@@std@@QAEAAV01@XZ 10018b70 f i vmt.obj
 0001:00017bd0       ??F?$_Tree_const_iterator@V?$_Tree_val@U?$_Tree_simple_types@U?$pair@$$CBHPAX@std@@@std@@@std@@@std@@QAEAAV01@XZ 10018bd0 f i Misc.obj
 0001:00018e30       ?AddHitmarker@Hitmarkers@MISC@FEATURES@@QAEXH@Z 10019e30 f   Misc.obj
 0001:00018ed0       ?AutoPistol@MISC@FEATURES@@YAXPAVCUserCmd@SDK@@@Z 10019ed0 f   Misc.obj
 0001:00018fd0       ?AutoRevolver@MISC@FEATURES@@YAXPAVCUserCmd@SDK@@@Z 10019fd0 f   Misc.obj
 0001:00019080       ?Bhop@MISC@FEATURES@@YAXPAVCUserCmd@SDK@@@Z 1001a080 f   Misc.obj
 0001:000190f0       ?ClantagChanger@MISC@FEATURES@@YAXXZ 1001a0f0 f   Misc.obj
 0001:000192c0       ?Do@BulletTracers@MISC@FEATURES@@QAEXXZ 1001a2c0 f   Misc.obj
 0001:00019650       ?Do@Hitmarkers@MISC@FEATURES@@QAEXXZ 1001a650 f   Misc.obj
 0001:00019940       ?DrawMisc@MISC@FEATURES@@YAXXZ 1001a940 f   Misc.obj
 0001:00019d00       ?FNVHashEx@UTILS@@YAIQBDI@Z 1001ad00 f i Misc.obj
 0001:00019d30       ?Fakelag@MISC@FEATURES@@YAXPAVCUserCmd@SDK@@@Z 1001ad30 f   Misc.obj
 0001:0001a160       ?FixMove@MISC@FEATURES@@YAXPAVCUserCmd@SDK@@VVector@@@Z 1001b160 f   Misc.obj
 0001:0001a5e0       ?HookedSetupBones@MISC@FEATURES@@YI_NPAX0PAUmatrix3x4_t@@HHM@Z 1001b5e0 f   Misc.obj
 0001:0001a670       ?LoadUserConfig@MISC@FEATURES@@YAXXZ 1001b670 f   Misc.obj
 0001:0001aae0       ?Misc@MISC@FEATURES@@YAXXZ 1001bae0 f   Misc.obj
 0001:0001ab70       ?Radar@MISC@FEATURES@@YAXXZ 1001bb70 f   Misc.obj
 0001:0001abb0       ?ThirdpersonFSN@MISC@FEATURES@@YAXXZ 1001bbb0 f   Misc.obj
 0001:0001aca0       ?ThirdpersonOV@MISC@FEATURES@@YAXXZ 1001bca0 f   Misc.obj
 0001:0001b040       ?UpdateAngles@MISC@FEATURES@@YAXPAVCUserCmd@SDK@@@Z 1001c040 f   Misc.obj
 0001:0001b080       ?_Buynode0@?$_Tree_comp_alloc@V?$_Tmap_traits@HPAXU?$less@H@std@@V?$allocator@U?$pair@$$CBHPAX@std@@@2@$0A@@std@@@std@@QAEPAU?$_Tree_node@U?$pair@$$CBHPAX@std@@PAX@2@XZ 1001c080 f i Misc.obj
 0001:0001b0a0       ?_Destroy@?$vector@V?$vector@V?$basic_string@DU?$char_traits@D@std@@V?$allocator@D@2@@std@@V?$allocator@V?$basic_string@DU?$char_traits@D@std@@V?$allocator@D@2@@std@@@2@@std@@V?$allocator@V?$vector@V?$basic_string@DU?$char_traits@D@std@@V?$allocator@D@2@@std@@V?$allocator@V?$basic_string@DU?$char_traits@D@std@@V?$allocator@D@2@@std@@@2@@std@@@2@@std@@AAEXPAV?$vector@V?$basic_string@DU?$char_traits@D@std@@V?$allocator@D@2@@std@@V?$allocator@V?$basic_string@DU?$char_traits@D@std@@V?$allocator@D@2@@std@@@2@@2@0@Z 1001c0a0 f i Misc.obj
 0001:0001b0d0       ?_Destroy_if_node@?$_Tree@V?$_Tmap_traits@HPAXU?$less@H@std@@V?$allocator@U?$pair@$$CBHPAX@std@@@2@$0A@@std@@@std@@IAEXPAU?$_Tree_node@U?$pair@$$CBHPAX@std@@PAX@2@@Z 1001c0d0 f i Misc.obj
 0001:0001b0f0       ?_Lrotate@?$_Tree_val@U?$_Tree_simple_types@U?$pair@$$CBIUtab_anim@@@std@@@std@@@std@@QAEXPAU?$_Tree_node@U?$pair@$$CBIUtab_anim@@@std@@PAX@2@@Z 1001c0f0 f i imgui_widgets.obj
 0001:0001b0f0       ?_Lrotate@?$_Tree_val@U?$_Tree_simple_types@U?$pair@$$CBHPAX@std@@@std@@@std@@QAEXPAU?$_Tree_node@U?$pair@$$CBHPAX@std@@PAX@2@@Z 1001c0f0 f i Misc.obj
 0001:0001b150       ?_Rrotate@?$_Tree_val@U?$_Tree_simple_types@U?$pair@$$CBHPAX@std@@@std@@@std@@QAEXPAU?$_Tree_node@U?$pair@$$CBHPAX@std@@PAX@2@@Z 1001c150 f i Misc.obj
 0001:0001b150       ?_Rrotate@?$_Tree_val@U?$_Tree_simple_types@U?$pair@$$CBIUtab_anim@@@std@@@std@@@std@@QAEXPAU?$_Tree_node@U?$pair@$$CBIUtab_anim@@@std@@PAX@2@@Z 1001c150 f i imgui_widgets.obj
 0001:0001b1b0       ?append@?$basic_string@DU?$char_traits@D@std@@V?$allocator@D@2@@std@@QAEAAV12@ID@Z 1001c1b0 f i Misc.obj
 0001:0001b310       ?deallocate@?$allocator@V?$vector@V?$basic_string@DU?$char_traits@D@std@@V?$allocator@D@2@@std@@V?$allocator@V?$basic_string@DU?$char_traits@D@std@@V?$allocator@D@2@@std@@@2@@std@@@std@@QAEXQAV?$vector@V?$basic_string@DU?$char_traits@D@std@@V?$allocator@D@2@@std@@V?$allocator@V?$basic_string@DU?$char_traits@D@std@@V?$allocator@D@2@@std@@@2@@2@I@Z 1001c310 f i Misc.obj
 0001:0001b350       ?erase@?$basic_string@DU?$char_traits@D@std@@V?$allocator@D@2@@std@@QAE?AV?$_String_iterator@V?$_String_val@U?$_Simple_types@D@std@@@std@@@2@V?$_String_const_iterator@V?$_String_val@U?$_Simple_types@D@std@@@std@@@2@0@Z 1001c350 f i Misc.obj
 0001:0001b3c0       ?insert@?$basic_string@DU?$char_traits@D@std@@V?$allocator@D@2@@std@@QAEAAV12@IID@Z 1001c3c0 f i Misc.obj
 0001:0001b560       ?insert@?$vector@V?$basic_string@DU?$char_traits@D@std@@V?$allocator@D@2@@std@@V?$allocator@V?$basic_string@DU?$char_traits@D@std@@V?$allocator@D@2@@std@@@2@@std@@QAE?AV?$_Vector_iterator@V?$_Vector_val@U?$_Simple_types@V?$basic_string@DU?$char_traits@D@std@@V?$allocator@D@2@@std@@@std@@@std@@@2@V?$_Vector_const_iterator@V?$_Vector_val@U?$_Simple_types@V?$basic_string@DU?$char_traits@D@std@@V?$allocator@D@2@@std@@@std@@@std@@@2@ABV?$basic_string@DU?$char_traits@D@std@@V?$allocator@D@2@@2@@Z 1001c560 f i Misc.obj
 0001:0001b6e0       ?push_back@?$basic_string@DU?$char_traits@D@std@@V?$allocator@D@2@@std@@QAEXD@Z 1001c6e0 f i Misc.obj
 0001:0001b7f0       ?put@?$basic_ostream@DU?$char_traits@D@std@@@std@@QAEAAV12@D@Z 1001c7f0 f i Misc.obj
 0001:0001b970       ?snextc@?$basic_streambuf@DU?$char_traits@D@std@@@std@@QAEHXZ 1001c970 f i Misc.obj
 0001:0001b9e0       ?swap@?$basic_filebuf@DU?$char_traits@D@std@@@std@@QAEXAAV12@@Z 1001c9e0 f i Misc.obj
 0001:0001bbc0       ?widen@?$basic_ios@DU?$char_traits@D@std@@@std@@QBEDD@Z 1001cbc0 f i Misc.obj
 0001:0001bc60       ??$?HDU?$char_traits@D@std@@V?$allocator@D@1@@std@@YA?AV?$basic_string@DU?$char_traits@D@std@@V?$allocator@D@2@@0@QBDABV10@@Z 1001cc60 f i Resolver.obj
 0001:0001be20       ??$_Emplace_reallocate@ABUShotSnapshot@Resolver@RAGEBOT@FEATURES@@@?$vector@UShotSnapshot@Resolver@RAGEBOT@FEATURES@@V?$allocator@UShotSnapshot@Resolver@RAGEBOT@FEATURES@@@std@@@std@@QAEPAUShotSnapshot@Resolver@RAGEBOT@FEATURES@@QAU2345@ABU2345@@Z 1001ce20 f i Resolver.obj
 0001:0001c020       ??$_Emplace_reallocate@V?$basic_string@DU?$char_traits@D@std@@V?$allocator@D@2@@std@@@?$vector@V?$basic_string@DU?$char_traits@D@std@@V?$allocator@D@2@@std@@V?$allocator@V?$basic_string@DU?$char_traits@D@std@@V?$allocator@D@2@@std@@@2@@std@@QAEPAV?$basic_string@DU?$char_traits@D@std@@V?$allocator@D@2@@1@QAV21@$$QAV21@@Z 1001d020 f i Resolver.obj
 0001:0001c140       ??$_Emplace_reallocate@VVector@@@?$vector@VVector@@V?$allocator@VVector@@@std@@@std@@QAEPAVVector@@QAV2@$$QAV2@@Z 1001d140 f i Resolver.obj
 0001:0001c330       ??0Log@InGameLogger@MISC@FEATURES@@QAE@V?$basic_string@DU?$char_traits@D@std@@V?$allocator@D@2@@std@@VCColor@@@Z 1001d330 f i Resolver.obj
 0001:0001c4c0       ??1?$vector@UShotSnapshot@Resolver@RAGEBOT@FEATURES@@V?$allocator@UShotSnapshot@Resolver@RAGEBOT@FEATURES@@@std@@@std@@QAE@XZ 1001d4c0 f i Resolver.obj
 0001:0001c530       ??1?$vector@VVector@@V?$allocator@VVector@@@std@@@std@@QAE@XZ 1001d530 f i Resolver.obj
 0001:0001c5a0       ??4ColorLine@MISC@FEATURES@@QAEAAV012@$$QAV012@@Z 1001d5a0 f i Resolver.obj
 0001:0001c620       ?AddShotSnapshot@Resolver@RAGEBOT@FEATURES@@QAEXPAVCBaseEntity@SDK@@VPlayerResolveRecord@123@@Z 1001d620 f   Resolver.obj
 0001:0001c6e0       ?DoCM@Resolver@RAGEBOT@FEATURES@@QAEXXZ 1001d6e0 f   Resolver.obj
 0001:0001cdd0       ?DoFSN@Resolver@RAGEBOT@FEATURES@@QAEXXZ 1001ddd0 f   Resolver.obj
 0001:0001cf90       ?EventCallback@Resolver@RAGEBOT@FEATURES@@QAEXPAVIGameEvent@SDK@@@Z 1001df90 f   Resolver.obj
 0001:0001d200       ?GetResolveColor@Resolver@RAGEBOT@FEATURES@@QAE?AVCColor@@G@Z 1001e200 f   Resolver.obj
 0001:0001d260       ?GetResolveTypeIndex@Resolver@RAGEBOT@FEATURES@@QAEHG@Z 1001e260 f   Resolver.obj
 0001:0001d2f0       ?IsFakingYaw@Resolver@RAGEBOT@FEATURES@@QAE_NPAVCBaseEntity@SDK@@@Z 1001e2f0 f   Resolver.obj
 0001:0001d380       ?ProcessSnapShots@Resolver@RAGEBOT@FEATURES@@AAEXXZ 1001e380 f   Resolver.obj
 0001:0001d7b0       ?ResolveYaw@Resolver@RAGEBOT@FEATURES@@AAEXPAVCBaseEntity@SDK@@@Z 1001e7b0 f   Resolver.obj
 0001:0001df00       ?TranslateResolveRecord@Resolver@RAGEBOT@FEATURES@@QAE?AV?$basic_string@DU?$char_traits@D@std@@V?$allocator@D@2@@std@@G@Z 1001ef00 f   Resolver.obj
 0001:0001e5f0       ?UpdateResolveRecord@Resolver@RAGEBOT@FEATURES@@AAEXPAVCBaseEntity@SDK@@@Z 1001f5f0 f   Resolver.obj
 0001:0001ec20       ?_Become_small@?$basic_string@DU?$char_traits@D@std@@V?$allocator@D@2@@std@@QAEXXZ 1001fc20 f i Resolver.obj
 0001:0001ec70       ?_Change_array@?$vector@V?$basic_string@DU?$char_traits@D@std@@V?$allocator@D@2@@std@@V?$allocator@V?$basic_string@DU?$char_traits@D@std@@V?$allocator@D@2@@std@@@2@@std@@AAEXQAV?$basic_string@DU?$char_traits@D@std@@V?$allocator@D@2@@2@II@Z 1001fc70 f i Resolver.obj
 0001:0001ed00       ?push_back@?$vector@V?$basic_string@DU?$char_traits@D@std@@V?$allocator@D@2@@std@@V?$allocator@V?$basic_string@DU?$char_traits@D@std@@V?$allocator@D@2@@std@@@2@@std@@QAEX$$QAV?$basic_string@DU?$char_traits@D@std@@V?$allocator@D@2@@2@@Z 1001fd00 f i Resolver.obj
 0001:0001ed60       ??0MainConfig@SETTINGS@@QAE@XZ 1001fd60 f i Configurations.obj
 0001:0001efd0       ?CreateConfig@Configuration@SETTINGS@@SA_NPBD0@Z 1001ffd0 f   Configurations.obj
 0001:0001f0b0       ?DeleteConfig@Configuration@SETTINGS@@SA_NPBD0@Z 100200b0 f   Configurations.obj
 0001:0001f100       ?GetConfigs@Configuration@SETTINGS@@SAHPAY0BAA@DPBD@Z 10020100 f   Configurations.obj
 0001:0001f280       ?Load@Configuration@SETTINGS@@QAE_NPBDI@Z 10020280 f   Configurations.obj
 0001:0001f5b0       ?Save@Configuration@SETTINGS@@QAE_NPBDI@Z 100205b0 f   Configurations.obj
 0001:0001f710       ?Do@SkeletonESP@VISUALS@FEATURES@@QAEXXZ 10020710 f   SkeletonESP.obj
 0001:0001f8a0       ?DrawSkeleton@SkeletonESP@VISUALS@FEATURES@@QAEXPAVCBaseEntity@SDK@@VCColor@@PBUmatrix3x4_t@@@Z 100208a0 f   SkeletonESP.obj
 0001:0001fdb0       ??0SkinChanger@MISC@FEATURES@@QAE@XZ 10020db0 f i SkinChanger.obj
 0001:0002aa20       ?Do@SkinChanger@MISC@FEATURES@@QAEXXZ 1002ba20 f   SkinChanger.obj
 0001:0002ad00       ?Do@VisualizeBacktrack@VISUALS@FEATURES@@QAEXXZ 1002bd00 f   VisualizeBacktrack.obj
 0001:0002b060       ?Do@VISUALS@FEATURES@@YAXXZ 1002c060 f   Visuals.obj
 0001:0002b640       ?DisableFlashDuration@VisualsMisc@VISUALS@FEATURES@@QAEXXZ 1002c640 f   VisualsMisc.obj
 0001:0002b680       ?Do@VisualsMisc@VISUALS@FEATURES@@QAEXXZ 1002c680 f   VisualsMisc.obj
 0001:0002b830       ?DrawAutowallCrosshair@VisualsMisc@VISUALS@FEATURES@@AAEXXZ 1002c830 f   VisualsMisc.obj
 0001:0002bb50       ?DrawGrenadePrediction@VisualsMisc@VISUALS@FEATURES@@AAEXXZ 1002cb50 f   VisualsMisc.obj
 0001:0002cba0       ?DrawSnaplines@VisualsMisc@VISUALS@FEATURES@@AAEXXZ 1002dba0 f   VisualsMisc.obj
 0001:0002ce10       ?DrawSpreadCircle@VisualsMisc@VISUALS@FEATURES@@AAEXXZ 1002de10 f   VisualsMisc.obj
 0001:0002d460       ?NoSmoke@VisualsMisc@VISUALS@FEATURES@@QAEXXZ 1002e460 f   VisualsMisc.obj
 0001:0002d5f0       ??0WorldTextures@VISUALS@FEATURES@@QAE@XZ 1002e5f0 f i World Textures.obj
 0001:0002dc90       ?DoFSN@WorldTextures@VISUALS@FEATURES@@QAEXXZ 1002ec90 f   World Textures.obj
 0001:0002e200       ??0?$ImVector@PAUImDrawList@@@@QAE@XZ 1002f200 f i imgui.obj
 0001:0002e220       ??0ImDrawList@@QAE@PBUImDrawListSharedData@@@Z 1002f220 f i imgui.obj
 0001:0002e320       ??0ImGuiContext@@QAE@PAUImFontAtlas@@@Z 1002f320 f i imgui.obj
 0001:0002f110       ??0ImGuiIO@@QAE@XZ         10030110 f   imgui.obj
 0001:0002f3e0       ??0ImGuiStyle@@QAE@XZ      100303e0 f   imgui.obj
 0001:0002f630       ??0ImGuiWindow@@QAE@PAUImGuiContext@@PBD@Z 10030630 f   imgui.obj
 0001:0002fc90       ??0ImRect@@QAE@XZ          10030c90 f i imgui.obj
 0001:0002fcb0       ??0ImVec2@@QAE@XZ          10030cb0 f i imgui.obj
 0001:0002fcc0       ??0ImVec4@@QAE@XZ          10030cc0 f i imgui.obj
 0001:0002fce0       ??1?$ImChunkStream@UImGuiWindowSettings@@@@QAE@XZ 10030ce0 f i imgui.obj
 0001:0002fce0       ??1ImGuiTextBuffer@@QAE@XZ 10030ce0 f i imgui.obj
 0001:0002fce0       ??1?$ImChunkStream@UImGuiTableSettings@@@@QAE@XZ 10030ce0 f i imgui.obj
 0001:0002fce0       ??1ImGuiStorage@@QAE@XZ    10030ce0 f i imgui.obj
 0001:0002fd40       ??1?$ImPool@UImGuiTabBar@@@@QAE@XZ 10030d40 f i imgui.obj
 0001:0002fde0       ??1?$ImPool@UImGuiTable@@@@QAE@XZ 10030de0 f i imgui.obj
 0001:0002fe80       ??1?$ImVector@G@@QAE@XZ    10030e80 f i imgui.obj
 0001:0002fe80       ??1?$ImVector@UImGuiGroupData@@@@QAE@XZ 10030e80 f i imgui.obj
 0001:0002fe80       ??1?$ImVector@UImGuiStyleMod@@@@QAE@XZ 10030e80 f i imgui.obj
 0001:0002fe80       ??1?$ImVector@UImGuiPtrOrIndex@@@@QAE@XZ 10030e80 f i imgui.obj
 0001:0002fe80       ??1?$ImVector@UImGuiPopupData@@@@QAE@XZ 10030e80 f i imgui.obj
 0001:0002fe80       ??1?$ImVector@E@@QAE@XZ    10030e80 f i imgui.obj
 0001:0002fe80       ??1?$ImVector@PAUImGuiWindow@@@@QAE@XZ 10030e80 f i imgui.obj
 0001:0002fe80       ??1?$ImVector@UImGuiColorMod@@@@QAE@XZ 10030e80 f i imgui.obj
 0001:0002fe80       ??1?$ImVector@I@@QAE@XZ    10030e80 f i imgui.obj
 0001:0002fe80       ??1?$ImVector@UImGuiOldColumns@@@@QAE@XZ 10030e80 f i imgui.obj
 0001:0002fe80       ??1?$ImVector@PAUImDrawList@@@@QAE@XZ 10030e80 f i imgui.obj
 0001:0002fe80       ??1?$ImVector@M@@QAE@XZ    10030e80 f i imgui.obj
 0001:0002fe80       ??1?$ImVector@PAUImFont@@@@QAE@XZ 10030e80 f i imgui.obj
 0001:0002fe80       ??1?$ImVector@UImGuiSettingsHandler@@@@QAE@XZ 10030e80 f i imgui.obj
 0001:0002fe80       ??1?$ImVector@H@@QAE@XZ    10030e80 f i imgui.obj
 0001:0002fe80       ??1?$ImVector@UImDrawChannel@@@@QAE@XZ 10030e80 f i imgui.obj
 0001:0002fe80       ??1?$ImVector@UImGuiShrinkWidthItem@@@@QAE@XZ 10030e80 f i imgui.obj
 0001:0002fe80       ??1?$ImVector@UImGuiContextHook@@@@QAE@XZ 10030e80 f i imgui.obj
 0001:0002fe80       ??1?$ImVector@PAUImGuiViewportP@@@@QAE@XZ 10030e80 f i imgui.obj
 0001:0002fe80       ??1?$ImVector@D@@QAE@XZ    10030e80 f i imgui.obj
 0001:0002fee0       ??1ImDrawList@@QAE@XZ      10030ee0 f i imgui.obj
 0001:00030070       ??1ImGuiIO@@QAE@XZ         10031070 f i imgui.obj
 0001:000300e0       ??1ImGuiInputTextState@@QAE@XZ 100310e0 f i imgui.obj
 0001:000301a0       ??1ImGuiWindowTempData@@QAE@XZ 100311a0 f i imgui.obj
 0001:00030360       ?AddInputCharacterUTF16@ImGuiIO@@QAEXG@Z 10031360 f   imgui.obj
 0001:00030650       ?Begin@ImGui@@YA_NPBDPA_NH@Z 10031650 f   imgui.obj
 0001:000328f0       ?BeginChildEx@ImGui@@YA_NPBDIABUImVec2@@_NH@Z 100338f0 f   imgui.obj
 0001:00032ae0       ?BeginGroup@ImGui@@YAXXZ   10033ae0 f   imgui.obj
 0001:00032c30       ?BeginTooltipEx@ImGui@@YAXHH@Z 10033c30 f   imgui.obj
 0001:00032d80       ?CalcFontSize@ImGuiWindow@@QBEMXZ 10033d80 f i imgui.obj
 0001:00032dc0       ?CalcItemSize@ImGui@@YA?AUImVec2@@U2@MM@Z 10033dc0 f   imgui.obj
 0001:00032e90       ?CalcItemWidth@ImGui@@YAMXZ 10033e90 f   imgui.obj
 0001:00033260       ?CalcTextSize@ImGui@@YA?AUImVec2@@PBD0_NM@Z 10034260 f   imgui.obj
 0001:00033320       ?CalcTypematicRepeatAmount@ImGui@@YAHMMMM@Z 10034320 f   imgui.obj
 0001:00033960       ?CalcWrapWidthForPos@ImGui@@YAMABUImVec2@@M@Z 10034960 f   imgui.obj
 0001:000339c0       ?CallContextHooks@ImGui@@YAXPAUImGuiContext@@W4ImGuiContextHookType@@@Z 100349c0 f   imgui.obj
 0001:00033b00       ?Clear@?$ImPool@UImGuiTabBar@@@@QAEXXZ 10034b00 f i imgui.obj
 0001:00033c90       ?Clear@?$ImPool@UImGuiTable@@@@QAEXXZ 10034c90 f i imgui.obj
 0001:00033e90       ?ClearActiveID@ImGui@@YAXXZ 10034e90 f   imgui.obj
 0001:00033f20       ?ClearDragDrop@ImGui@@YAXXZ 10034f20 f   imgui.obj
 0001:00034010       ?CloseCurrentPopup@ImGui@@YAXXZ 10035010 f   imgui.obj
 0001:00034140       ?ClosePopupToLevel@ImGui@@YAXH_N@Z 10035140 f   imgui.obj
 0001:00034270       ?ClosePopupsOverWindow@ImGui@@YAXPAUImGuiWindow@@_N@Z 10035270 f   imgui.obj
 0001:000343e0       ?ColorConvertFloat4ToU32@ImGui@@YAIABUImVec4@@@Z 100353e0 f   imgui.obj
 0001:000344a0       ?Contains@ImRect@@QBE_NABUImVec2@@@Z 100354a0 f i imgui.obj
 0001:000344e0       ?CreateContext@ImGui@@YAPAUImGuiContext@@PAUImFontAtlas@@@Z 100354e0 f   imgui.obj
 0001:00034920       ?CreateNewWindowSettings@ImGui@@YAPAUImGuiWindowSettings@@PBD@Z 10035920 f   imgui.obj
 0001:000349f0       ?End@ImGui@@YAXXZ          100359f0 f   imgui.obj
 0001:00034df0       ?EndChild@ImGui@@YAXXZ     10035df0 f   imgui.obj
 0001:00034ff0       ?EndFrame@ImGui@@YAXXZ     10035ff0 f   imgui.obj
 0001:000353e0       ?EndGroup@ImGui@@YAXXZ     100363e0 f   imgui.obj
 0001:000358e0       ?FindBestWindowPosForPopup@ImGui@@YA?AUImVec2@@PAUImGuiWindow@@@Z 100368e0 f   imgui.obj
 0001:00035c50       ?FindBestWindowPosForPopupEx@ImGui@@YA?AUImVec2@@ABU2@0PAHABUImRect@@2W4ImGuiPopupPositionPolicy@@@Z 10036c50 f   imgui.obj
 0001:000361e0       ?FindWindowByID@ImGui@@YAPAUImGuiWindow@@I@Z 100371e0 f   imgui.obj
 0001:00036250       ?FindWindowByName@ImGui@@YAPAUImGuiWindow@@PBD@Z 10037250 f   imgui.obj
 0001:000363b0       ?FindWindowSettings@ImGui@@YAPAUImGuiWindowSettings@@I@Z 100373b0 f   imgui.obj
 0001:00036460       ?FocusTopMostWindowUnderOne@ImGui@@YAXPAUImGuiWindow@@0@Z 10037460 f   imgui.obj
 0001:00036520       ?FocusWindow@ImGui@@YAXPAUImGuiWindow@@@Z 10037520 f   imgui.obj
 0001:00036880       ?FocusableItemRegister@ImGui@@YA_NPAUImGuiWindow@@I@Z 10037880 f   imgui.obj
 0001:00036900       ?FocusableItemUnregister@ImGui@@YAXPAUImGuiWindow@@@Z 10037900 f   imgui.obj
 0001:00036920       ?GetClipboardText@ImGui@@YAPBDXZ 10037920 f   imgui.obj
 0001:00036a40       ?GetColorU32@ImGui@@YAIHM@Z 10037a40 f   imgui.obj
 0001:00036b20       ?GetCurrentContext@ImGui@@YAPAUImGuiContext@@XZ 10037b20 f   imgui.obj
 0001:00036b30       ?GetDrawData@ImGui@@YAPAUImDrawData@@XZ 10037b30 f   imgui.obj
 0001:00036b70       ?GetForegroundDrawList@ImGui@@YAPAUImDrawList@@XZ 10037b70 f   imgui.obj
 0001:00036bb0       ?GetFrameHeight@ImGui@@YAMXZ 10037bb0 f   imgui.obj
 0001:00036be0       ?GetID@ImGuiWindow@@QAEIH@Z 10037be0 f   imgui.obj
 0001:00036c70       ?GetID@ImGuiWindow@@QAEIPBD0@Z 10037c70 f   imgui.obj
 0001:00036cf0       ?GetIDNoKeepAlive@ImGuiWindow@@QAEIPBD0@Z 10037cf0 f   imgui.obj
 0001:00036d50       ?GetIO@ImGui@@YAAAUImGuiIO@@XZ 10037d50 f   imgui.obj
 0001:00036d80       ?GetMainViewport@ImGui@@YAPAUImGuiViewport@@XZ 10037d80 f   imgui.obj
 0001:00036dc0       ?GetMergedKeyModFlags@ImGui@@YAHXZ 10037dc0 f   imgui.obj
 0001:00036e10       ?GetMouseCursor@ImGui@@YAHXZ 10037e10 f   imgui.obj
 0001:00036e20       ?GetNavInputAmount2d@ImGui@@YA?AUImVec2@@HW4ImGuiInputReadMode@@MM@Z 10037e20 f   imgui.obj
 0001:00036ff0       ?GetNavInputAmount@ImGui@@YAMHW4ImGuiInputReadMode@@@Z 10037ff0 f   imgui.obj
 0001:000372d0       ?GetScrollMaxY@ImGui@@YAMXZ 100382d0 f   imgui.obj
 0001:000372e0       ?GetStyle@ImGui@@YAAAUImGuiStyle@@XZ 100382e0 f   imgui.obj
 0001:00037310       ?GetTextLineHeight@ImGui@@YAMXZ 10038310 f   imgui.obj
 0001:00037320       ?GetTopMostPopupModal@ImGui@@YAPAUImGuiWindow@@XZ 10038320 f   imgui.obj
 0001:000374a0       ?GetWindowDrawList@ImGui@@YAPAUImDrawList@@XZ 100384a0 f   imgui.obj
 0001:000374c0       ?GetWindowPos@ImGui@@YA?AUImVec2@@XZ 100384c0 f   imgui.obj
 0001:000374e0       ?GetWindowSize@ImGui@@YA?AUImVec2@@XZ 100384e0 f   imgui.obj
 0001:00037500       ?ImFileLoadToMemory@@YAPAXPBD0PAIH@Z 10038500 f   imgui.obj
 0001:00037640       ?ImFileOpen@@YAPAU_iobuf@@PBD0@Z 10038640 f   imgui.obj
 0001:000377c0       ?ImFormatString@@YAHPADIPBDZZ 100387c0 f   imgui.obj
 0001:00037810       ?ImFormatStringV@@YAHPADIPBD0@Z 10038810 f   imgui.obj
 0001:00037860       ?ImHashStr@@YAIPBDII@Z     10038860 f   imgui.obj
 0001:000378f0       ?ImStrSkipBlank@@YAPBDPBD@Z 100388f0 f   imgui.obj
 0001:00037910       ?ImStrTrimBlanks@@YAXPAD@Z 10038910 f   imgui.obj
 0001:00037970       ?ImStrbolW@@YAPBGPBG0@Z    10038970 f   imgui.obj
 0001:00037990       ?ImStrncpy@@YAXPADPBDI@Z   10038990 f   imgui.obj
 0001:000379c0       ?ImTextCharFromUtf8@@YAHPAIPBD1@Z 100389c0 f   imgui.obj
 0001:00037b20       ?ImTextCountCharsFromUtf8@@YAHPBD0@Z 10038b20 f   imgui.obj
 0001:00037cc0       ?ImTextCountUtf8BytesFromStr@@YAHPBG0@Z 10038cc0 f   imgui.obj
 0001:00037d20       ?ImTextStrFromUtf8@@YAHPAGHPBD1PAPBD@Z 10038d20 f   imgui.obj
 0001:00037f00       ?ImTextStrToUtf8@@YAHPADHPBG1@Z 10038f00 f   imgui.obj
 0001:00038050       ?Initialize@ImGui@@YAXPAUImGuiContext@@@Z 10039050 f   imgui.obj
 0001:00038450       ?IsAnyMouseDown@ImGui@@YA_NXZ 10039450 f   imgui.obj
 0001:00038480       ?IsClippedEx@ImGui@@YA_NABUImRect@@I_N@Z 10039480 f   imgui.obj
 0001:000384f0       ?IsItemActive@ImGui@@YA_NXZ 100394f0 f   imgui.obj
 0001:00038520       ?IsItemHovered@ImGui@@YA_NH@Z 10039520 f   imgui.obj
 0001:00038620       ?IsKeyDown@ImGui@@YA_NH@Z  10039620 f   imgui.obj
 0001:00038670       ?IsKeyPressed@ImGui@@YA_NH_N@Z 10039670 f   imgui.obj
 0001:000387e0       ?IsMouseClicked@ImGui@@YA_NH_N@Z 100397e0 f   imgui.obj
 0001:00038880       ?IsMouseDown@ImGui@@YA_NH@Z 10039880 f   imgui.obj
 0001:000388c0       ?IsMouseDragging@ImGui@@YA_NHM@Z 100398c0 f   imgui.obj
 0001:00038960       ?IsMouseHoveringRect@ImGui@@YA_NABUImVec2@@0_N@Z 10039960 f   imgui.obj
 0001:00038a20       ?IsMousePosValid@ImGui@@YA_NPBUImVec2@@@Z 10039a20 f   imgui.obj
 0001:00038a80       ?IsPopupOpen@ImGui@@YA_NIH@Z 10039a80 f   imgui.obj
 0001:00038bd0       ?ItemAdd@ImGui@@YA_NABUImRect@@IPBU2@@Z 10039bd0 f   imgui.obj
 0001:00038d80       ?ItemHoverable@ImGui@@YA_NABUImRect@@I@Z 10039d80 f   imgui.obj
 0001:00038f50       ?ItemSize@ImGui@@YAXABUImRect@@M@Z 10039f50 f   imgui.obj
 0001:00038fa0       ?ItemSize@ImGui@@YAXABUImVec2@@M@Z 10039fa0 f   imgui.obj
 0001:000390e0       ?KeepAliveID@ImGui@@YAXI@Z 1003a0e0 f   imgui.obj
 0001:00039110       ?LoadIniSettingsFromMemory@ImGui@@YAXPBDI@Z 1003a110 f   imgui.obj
 0001:00039540       ?LogRenderedText@ImGui@@YAXPBUImVec2@@PBD1@Z 1003a540 f   imgui.obj
 0001:00039700       ?LogSetNextTextDecoration@ImGui@@YAXPBD0@Z 1003a700 f   imgui.obj
 0001:00039720       ?LogText@ImGui@@YAXPBDZZ   1003a720 f   imgui.obj
 0001:000397e0       ?MarkIniSettingsDirty@ImGui@@YAXPAUImGuiWindow@@@Z 1003a7e0 f   imgui.obj
 0001:00039810       ?MarkItemEdited@ImGui@@YAXI@Z 1003a810 f   imgui.obj
 0001:00039870       ?MemAlloc@ImGui@@YAPAXI@Z  1003a870 f   imgui.obj
 0001:000398a0       ?MemFree@ImGui@@YAXPAX@Z   1003a8a0 f   imgui.obj
 0001:000398d0       ?MenuChild@ImGui@@YA_NPBDABUImVec2@@_NH@Z 1003a8d0 f   imgui.obj
 0001:00039de0       ?NavInitWindow@ImGui@@YAXPAUImGuiWindow@@_N@Z 1003ade0 f   imgui.obj
 0001:00039ea0       ?NavMoveRequestForward@ImGui@@YAXHHABUImRect@@H@Z 1003aea0 f   imgui.obj
 0001:0003cb00       ?NewFrame@ImGui@@YAXXZ     1003db00 f   imgui.obj
 0001:0003ddf0       ?PopClipRect@ImGui@@YAXXZ  1003edf0 f   imgui.obj
 0001:0003de70       ?PopFont@ImGui@@YAXXZ      1003ee70 f   imgui.obj
 0001:0003df40       ?PopID@ImGui@@YAXXZ        1003ef40 f   imgui.obj
 0001:0003dfa0       ?PopItemWidth@ImGui@@YAXXZ 1003efa0 f   imgui.obj
 0001:0003e030       ?PopStyleColor@ImGui@@YAXH@Z 1003f030 f   imgui.obj
 0001:0003e0c0       ?PopStyleVar@ImGui@@YAXH@Z 1003f0c0 f   imgui.obj
 0001:0003e1d0       ?PushClipRect@ImGui@@YAXABUImVec2@@0_N@Z 1003f1d0 f   imgui.obj
 0001:0003e260       ?PushFont@ImGui@@YAXPAUImFont@@@Z 1003f260 f   imgui.obj
 0001:0003e390       ?PushID@ImGui@@YAXPBD@Z    1003f390 f   imgui.obj
 0001:0003e430       ?PushStyleColor@ImGui@@YAXHABUImVec4@@@Z 1003f430 f   imgui.obj
 0001:0003e480       ?PushStyleVar@ImGui@@YAXHM@Z 1003f480 f   imgui.obj
 0001:0003e530       ?Render@ImGui@@YAXXZ       1003f530 f   imgui.obj
 0001:0003ea10       ?RenderFrame@ImGui@@YAXUImVec2@@0I_NM@Z 1003fa10 f   imgui.obj
 0001:0003eb30       ?RenderNavHighlight@ImGui@@YAXABUImRect@@IH@Z 1003fb30 f   imgui.obj
 0001:0003ed80       ?RenderText@ImGui@@YAXUImVec2@@PBD1_N@Z 1003fd80 f   imgui.obj
 0001:0003ee40       ?RenderTextClipped@ImGui@@YAXABUImVec2@@0PBD1PBU2@0PBUImRect@@@Z 1003fe40 f   imgui.obj
 0001:0003eed0       ?RenderTextClippedEx@ImGui@@YAXPAUImDrawList@@ABUImVec2@@1PBD2PBU3@1PBUImRect@@@Z 1003fed0 f   imgui.obj
 0001:0003f0b0       ?RenderTextWrapped@ImGui@@YAXUImVec2@@PBD1M@Z 100400b0 f   imgui.obj
 0001:000403d0       ?SameLine@ImGui@@YAXMM@Z   100413d0 f   imgui.obj
 0001:000404a0       ?SaveIniSettingsToDisk@ImGui@@YAXPBD@Z 100414a0 f   imgui.obj
 0001:00040500       ?SaveIniSettingsToMemory@ImGui@@YAPBDPAI@Z 10041500 f   imgui.obj
 0001:000405f0       ?ScrollToBringRectIntoView@ImGui@@YA?AUImVec2@@PAUImGuiWindow@@ABUImRect@@@Z 100415f0 f   imgui.obj
 0001:000407f0       ?SetActiveID@ImGui@@YAXIPAUImGuiWindow@@@Z 100417f0 f   imgui.obj
 0001:000408d0       ?SetClipboardText@ImGui@@YAXPBD@Z 100418d0 f   imgui.obj
 0001:00040990       ?SetCurrentFont@ImGui@@YAXPAUImFont@@@Z 10041990 f   imgui.obj
 0001:00040b20       ?SetCursorPosX@ImGui@@YAXM@Z 10041b20 f   imgui.obj
 0001:00040b70       ?SetCursorPosY@ImGui@@YAXM@Z 10041b70 f   imgui.obj
 0001:00040bc0       ?SetFocusID@ImGui@@YAXIPAUImGuiWindow@@@Z 10041bc0 f   imgui.obj
 0001:00040cb0       ?SetHoveredID@ImGui@@YAXI@Z 10041cb0 f   imgui.obj
 0001:00040cf0       ?SetItemAllowOverlap@ImGui@@YAXXZ 10041cf0 f   imgui.obj
 0001:00040d30       ?SetNavID@ImGui@@YAXIHIABUImRect@@@Z 10041d30 f   imgui.obj
 0001:00040dc0       ?SetNextWindowSize@ImGui@@YAXABUImVec2@@H@Z 10041dc0 f   imgui.obj
 0001:00040e20       ?SetScrollFromPosX@ImGui@@YAXPAUImGuiWindow@@MM@Z 10041e20 f   imgui.obj
 0001:00040e90       ?SetScrollFromPosY@ImGui@@YAXPAUImGuiWindow@@MM@Z 10041e90 f   imgui.obj
 0001:00040f90       ?SetScrollY@ImGui@@YAXPAUImGuiWindow@@M@Z 10041f90 f   imgui.obj
 0001:00040fb0       ?SetTooltip@ImGui@@YAXPBDZZ 10041fb0 f   imgui.obj
 0001:00041000       ?SetWindowPos@ImGui@@YAXPAUImGuiWindow@@ABUImVec2@@H@Z 10042000 f   imgui.obj
 0001:00041140       ?SetWindowSize@ImGui@@YAXPAUImGuiWindow@@ABUImVec2@@H@Z 10042140 f   imgui.obj
 0001:00041250       ?StartMouseMovingWindow@ImGui@@YAXPAUImGuiWindow@@@Z 10042250 f   imgui.obj
 0001:000412d0       ?TitleBarRect@ImGuiWindow@@QBE?AUImRect@@XZ 100422d0 f i imgui.obj
 0001:00041350       ?UpdateHoveredWindowAndCaptureFlags@ImGui@@YAXXZ 10042350 f   imgui.obj
 0001:00041a30       ?UpdateMouseMovingWindowEndFrame@ImGui@@YAXXZ 10042a30 f   imgui.obj
 0001:00042fe0       ?append@ImGuiTextBuffer@@QAEXPBD0@Z 10043fe0 f   imgui.obj
 0001:000430d0       ?appendf@ImGuiTextBuffer@@QAAXPBDZZ 100440d0 f   imgui.obj
 0001:000430f0       ?appendfv@ImGuiTextBuffer@@QAEXPBDPAD@Z 100440f0 f   imgui.obj
 0001:00043200       ?back@?$ImVector@UImGuiPopupData@@@@QAEAAUImGuiPopupData@@XZ 10044200 f i imgui.obj
 0001:00043230       ?beginchildex@ImGui@@YA_NPBDIABUImVec2@@_NH@Z 10044230 f   imgui.obj
 0001:000437c0       ?insert@?$ImVector@UImGuiStoragePair@ImGuiStorage@@@@QAEPAUImGuiStoragePair@ImGuiStorage@@PBU23@ABU23@@Z 100447c0 f i imgui.obj
 0001:000438e0       ?offset_from_ptr@?$ImChunkStream@UImGuiWindowSettings@@@@QAEHPBUImGuiWindowSettings@@@Z 100448e0 f i imgui.obj
 0001:00043930       ?push_back@?$ImVector@G@@QAEXABG@Z 10044930 f i imgui.obj
 0001:00043980       ?push_back@?$ImVector@PAUImGuiWindow@@@@QAEXABQAUImGuiWindow@@@Z 10044980 f i imgui.obj
 0001:000439d0       ?push_back@?$ImVector@UImGuiColorMod@@@@QAEXABUImGuiColorMod@@@Z 100449d0 f i imgui.obj
 0001:00043aa0       ?push_back@?$ImVector@UImGuiPopupData@@@@QAEXABUImGuiPopupData@@@Z 10044aa0 f i imgui.obj
 0001:00043b00       ?push_back@?$ImVector@UImGuiStyleMod@@@@QAEXABUImGuiStyleMod@@@Z 10044b00 f i imgui.obj
 0001:00043bd0       ?reserve@?$ImVector@D@@QAEXH@Z 10044bd0 f i imgui.obj
 0001:00043c50       ?reserve@?$ImVector@G@@QAEXH@Z 10044c50 f i imgui.obj
 0001:00043cd0       ?reserve@?$ImVector@I@@QAEXH@Z 10044cd0 f i imgui.obj
 0001:00043cd0       ?reserve@?$ImVector@PAUImGuiWindow@@@@QAEXH@Z 10044cd0 f i imgui.obj
 0001:00043cd0       ?reserve@?$ImVector@PAUImDrawList@@@@QAEXH@Z 10044cd0 f i imgui.obj
 0001:00043cd0       ?reserve@?$ImVector@H@@QAEXH@Z 10044cd0 f i imgui.obj
 0001:00043cd0       ?reserve@?$ImVector@M@@QAEXH@Z 10044cd0 f i imgui.obj
 0001:00043d60       ?reserve@?$ImVector@UImGuiPopupData@@@@QAEXH@Z 10044d60 f i imgui.obj
 0001:00043df0       ?resize@?$ImVector@D@@QAEXH@Z 10044df0 f i imgui.obj
 0001:00043e30       ?resize@?$ImVector@UImGuiGroupData@@@@QAEXH@Z 10044e30 f i imgui.obj
 0001:00043ef0       ___local_stdio_scanf_options 10044ef0 f i imgui.obj
 0001:00043f00       _sscanf                    10044f00 f i imgui.obj
 0001:00043f30       ?push_back@?$ImVector@UImVec2@@@@QAEXABUImVec2@@@Z 10044f30 f i imgui_demo.obj
 0001:00043fc0       ?resize@?$ImVector@UImVec2@@@@QAEXH@Z 10044fc0 f i imgui_demo.obj
 0001:00044040       ??0ImDrawListSharedData@@QAE@XZ 10045040 f   imgui_draw.obj
 0001:00044140       ??0ImFont@@QAE@XZ          10045140 f   imgui_draw.obj
 0001:000441e0       ??0ImFontAtlas@@QAE@XZ     100451e0 f   imgui_draw.obj
 0001:000442d0       ??0ImFontConfig@@QAE@XZ    100452d0 f   imgui_draw.obj
 0001:00044320       ??1?$ImVector@UImFontConfig@@@@QAE@XZ 10045320 f i imgui_draw.obj
 0001:00044320       ??1?$ImVector@Ustbtt_packedchar@@@@QAE@XZ 10045320 f i imgui_draw.obj
 0001:00044320       ??1?$ImVector@UImFontBuildSrcData@@@@QAE@XZ 10045320 f i imgui_draw.obj
 0001:00044320       ??1?$ImVector@UImFontAtlasCustomRect@@@@QAE@XZ 10045320 f i imgui_draw.obj
 0001:00044320       ??1?$ImVector@Ustbrp_rect@@@@QAE@XZ 10045320 f i imgui_draw.obj
 0001:00044320       ??1?$ImVector@UImFontBuildDstData@@@@QAE@XZ 10045320 f i imgui_draw.obj
 0001:00044370       ??1ImFont@@QAE@XZ          10045370 f   imgui_draw.obj
 0001:000443f0       ?AddCircleFilled@ImDrawList@@QAEXABUImVec2@@MIH@Z 100453f0 f   imgui_draw.obj
 0001:000444c0       ?AddConvexPolyFilled@ImDrawList@@QAEXPBUImVec2@@HI@Z 100454c0 f   imgui_draw.obj
 0001:000448c0       ?AddDrawCmd@ImDrawList@@QAEXXZ 100458c0 f   imgui_draw.obj
 0001:00044930       ?AddFont@ImFontAtlas@@QAEPAUImFont@@PBUImFontConfig@@@Z 10045930 f   imgui_draw.obj
 0001:00044c80       ?AddFontFromFileTTF@ImFontAtlas@@QAEPAUImFont@@PBDMPBUImFontConfig@@PBG@Z 10045c80 f   imgui_draw.obj
 0001:00044e00       ?AddFontFromMemoryCompressedBase85TTF@ImFontAtlas@@QAEPAUImFont@@PBDMPBUImFontConfig@@PBG@Z 10045e00 f   imgui_draw.obj
 0001:00045030       ?AddFontFromMemoryTTF@ImFontAtlas@@QAEPAUImFont@@PAXHMPBUImFontConfig@@PBG@Z 10046030 f   imgui_draw.obj
 0001:00045150       ?AddGlyph@ImFont@@QAEXPBUImFontConfig@@GMMMMMMMMM@Z 10046150 f   imgui_draw.obj
 0001:00045350       ?AddLine@ImDrawList@@QAEXABUImVec2@@0IM@Z 10046350 f   imgui_draw.obj
 0001:00045400       ?AddPolyline@ImDrawList@@QAEXPBUImVec2@@HIHM@Z 10046400 f   imgui_draw.obj
 0001:000460c0       ?AddRect@ImDrawList@@QAEXABUImVec2@@0IMHM@Z 100470c0 f   imgui_draw.obj
 0001:000461a0       ?AddRectFilled@ImDrawList@@QAEXABUImVec2@@0IMH@Z 100471a0 f   imgui_draw.obj
 0001:00046300       ?AddText@ImDrawList@@QAEXABUImVec2@@IPBD1@Z 10047300 f   imgui_draw.obj
 0001:000463b0       ?AddText@ImDrawList@@QAEXPBUImFont@@MABUImVec2@@IPBD2MPBUImVec4@@@Z 100473b0 f   imgui_draw.obj
 0001:000464e0       ?BuildLookupTable@ImFont@@QAEXXZ 100474e0 f   imgui_draw.obj
 0001:00046950       ?CalcTextSizeA@ImFont@@QBE?AUImVec2@@MMMPBD0PAPBD@Z 10047950 f   imgui_draw.obj
 0001:00046b70       ?CalcWordWrapPositionA@ImFont@@QBEPBDMPBD0M@Z 10047b70 f   imgui_draw.obj
 0001:00046d40       ?ClearFreeMemory@ImDrawListSplitter@@QAEXXZ 10047d40 f   imgui_draw.obj
 0001:00046e80       ?ClearOutputData@ImFont@@QAEXXZ 10047e80 f   imgui_draw.obj
 0001:00046f30       ?FindGlyph@ImFont@@QBEPBUImFontGlyph@@G@Z 10047f30 f   imgui_draw.obj
 0001:00046f70       ?GetCustomRectByIndex@ImFontAtlas@@QAEPAUImFontAtlasCustomRect@@H@Z 10047f70 f i imgui_draw.obj
 0001:00046fd0       ?GetGlyphRangesJapanese@ImFontAtlas@@QAEPBGXZ 10047fd0 f   imgui_draw.obj
 0001:00047030       ?GetTexDataAsRGBA32@ImFontAtlas@@QAEXPAPAEPAH11@Z 10048030 f   imgui_draw.obj
 0001:00047260       ?GrowIndex@ImFont@@QAEXH@Z 10048260 f   imgui_draw.obj
 0001:000473a0       ?ImFontAtlasBuildFinish@@YAXPAUImFontAtlas@@@Z 100483a0 f   imgui_draw.obj
 0001:00047680       ?ImFontAtlasBuildPackCustomRects@@YAXPAUImFontAtlas@@PAX@Z 10048680 f   imgui_draw.obj
 0001:00047a80       ?ImFontAtlasBuildRender32bppRectFromString@@YAXPAUImFontAtlas@@HHHHPBDDI@Z 10048a80 f   imgui_draw.obj
 0001:00047b30       ?ImFontAtlasBuildRender8bppRectFromString@@YAXPAUImFontAtlas@@HHHHPBDDE@Z 10048b30 f   imgui_draw.obj
 0001:00049940       ?Merge@ImDrawListSplitter@@QAEXPAUImDrawList@@@Z 1004a940 f   imgui_draw.obj
 0001:00049ec0       ?PathArcTo@ImDrawList@@QAEXABUImVec2@@MMMH@Z 1004aec0 f   imgui_draw.obj
 0001:0004a1b0       ?PathArcToFast@ImDrawList@@QAEXABUImVec2@@MHH@Z 1004b1b0 f   imgui_draw.obj
 0001:0004a220       ?PathRect@ImDrawList@@QAEXABUImVec2@@0MH@Z 1004b220 f   imgui_draw.obj
 0001:0004a4c0       ?PopClipRect@ImDrawList@@QAEXXZ 1004b4c0 f   imgui_draw.obj
 0001:0004a520       ?PopTextureID@ImDrawList@@QAEXXZ 1004b520 f   imgui_draw.obj
 0001:0004a570       ?PrimRectUV@ImDrawList@@QAEXABUImVec2@@000I@Z 1004b570 f   imgui_draw.obj
 0001:0004a690       ?PrimReserve@ImDrawList@@QAEXHH@Z 1004b690 f   imgui_draw.obj
 0001:0004a740       ?PushClipRect@ImDrawList@@QAEXUImVec2@@0_N@Z 1004b740 f   imgui_draw.obj
 0001:0004a860       ?PushTextureID@ImDrawList@@QAEXPAX@Z 1004b860 f   imgui_draw.obj
 0001:0004a8f0       ?RenderArrow@ImGui@@YAXPAUImDrawList@@UImVec2@@IHM@Z 1004b8f0 f   imgui_draw.obj
 0001:0004aae0       ?RenderCheckMark@ImGui@@YAXPAUImDrawList@@UImVec2@@IM@Z 1004bae0 f   imgui_draw.obj
 0001:0004abf0       ?RenderMouseCursor@ImGui@@YAXPAUImDrawList@@UImVec2@@MHIII@Z 1004bbf0 f   imgui_draw.obj
 0001:0004aff0       ?RenderText@ImFont@@QBEXPAUImDrawList@@MUImVec2@@IABUImVec4@@PBD3M_N@Z 1004bff0 f   imgui_draw.obj
 0001:0004b5b0       ?SetCircleTessellationMaxError@ImDrawListSharedData@@QAEXM@Z 1004c5b0 f   imgui_draw.obj
 0001:0004b6e0       ?SetCurrentChannel@ImDrawListSplitter@@QAEXPAUImDrawList@@H@Z 1004c6e0 f   imgui_draw.obj
 0001:0004b7f0       ?StyleColorsDark@ImGui@@YAXPAUImGuiStyle@@@Z 1004c7f0 f   imgui_draw.obj
 0001:0004bcf0       ?_CalcCircleAutoSegmentCount@ImDrawList@@QBEHM@Z 1004ccf0 f   imgui_draw.obj
 0001:0004bdb0       ?_ClearFreeMemory@ImDrawList@@QAEXXZ 1004cdb0 f   imgui_draw.obj
 0001:0004bec0       ?_OnChangedClipRect@ImDrawList@@QAEXXZ 1004cec0 f   imgui_draw.obj
 0001:0004bf70       ?_OnChangedTextureID@ImDrawList@@QAEXXZ 1004cf70 f   imgui_draw.obj
 0001:0004c000       ?_PathArcToFastEx@ImDrawList@@QAEXABUImVec2@@MHHH@Z 1004d000 f   imgui_draw.obj
 0001:0004c1e0       ?_PathArcToN@ImDrawList@@QAEXABUImVec2@@MMMH@Z 1004d1e0 f   imgui_draw.obj
 0001:0004c3a0       ?_PopUnusedDrawCmd@ImDrawList@@QAEXXZ 1004d3a0 f   imgui_draw.obj
 0001:0004c3f0       ?_ResetForNewFrame@ImDrawList@@QAEXXZ 1004d3f0 f   imgui_draw.obj
 0001:0004c540       ?back@?$ImVector@UImDrawCmd@@@@QAEAAUImDrawCmd@@XZ 1004d540 f i imgui_draw.obj
 0001:0004c570       ?pop_back@?$ImVector@UImDrawCmd@@@@QAEXXZ 1004d570 f i imgui_draw.obj
 0001:0004c5a0       ?push_back@?$ImVector@UImDrawCmd@@@@QAEXABUImDrawCmd@@@Z 1004d5a0 f i imgui_draw.obj
 0001:0004c640       ?push_back@?$ImVector@UImFontAtlasCustomRect@@@@QAEXABUImFontAtlasCustomRect@@@Z 1004d640 f i imgui_draw.obj
 0001:0004c760       ?reserve@?$ImVector@UImVec2@@@@QAEXH@Z 1004d760 f i imgui_draw.obj
 0001:0004c7b0       ?resize@?$ImVector@G@@QAEXH@Z 1004d7b0 f i imgui_draw.obj
 0001:0004c830       ?resize@?$ImVector@I@@QAEXH@Z 1004d830 f i imgui_draw.obj
 0001:0004c8b0       ?resize@?$ImVector@UImDrawCmd@@@@QAEXH@Z 1004d8b0 f i imgui_draw.obj
 0001:0004c8b0       ?resize@?$ImVector@UImFontGlyph@@@@QAEXH@Z 1004d8b0 f i imgui_draw.obj
 0001:0004c930       ?resize@?$ImVector@UImDrawVert@@@@QAEXH@Z 1004d930 f i imgui_draw.obj
 0001:0004c9b0       ?resize@?$ImVector@Ustbrp_rect@@@@QAEXH@Z 1004d9b0 f i imgui_draw.obj
 0001:00053950       ?ImGui_ImplDX9_Init@@YA_NPAUIDirect3DDevice9@@@Z 10054950 f   imgui_impl_dx9.obj
 0001:00053980       ?ImGui_ImplDX9_NewFrame@@YAXXZ 10054980 f   imgui_impl_dx9.obj
 0001:000539a0       ?ImGui_ImplDX9_RenderDrawData@@YAXPAUImDrawData@@@Z 100549a0 f   imgui_impl_dx9.obj
 0001:00054280       ?ImGui_ImplWin32_Init@@YA_NPAX@Z 10055280 f   imgui_impl_win32.obj
 0001:00054420       ?ImGui_ImplWin32_NewFrame@@YAXXZ 10055420 f   imgui_impl_win32.obj
 0001:00054a60       ?ImGui_ImplWin32_WndProcHandler@@YAJPAUHWND__@@IIJ@Z 10055a60 f   imgui_impl_win32.obj
 0001:00054df0       ?EndColumns@ImGui@@YAXXZ   10055df0 f   imgui_tables.obj
 0001:00055240       ?GetColumnOffset@ImGui@@YAMH@Z 10056240 f   imgui_tables.obj
 0001:000552e0       ?PopColumnsBackground@ImGui@@YAXXZ 100562e0 f   imgui_tables.obj
 0001:00055360       ?PushColumnsBackground@ImGui@@YAXXZ 10056360 f   imgui_tables.obj
 0001:000553f0       ?SetColumnOffset@ImGui@@YAXHM@Z 100563f0 f   imgui_tables.obj
 0001:00055640       ?TableGcCompactSettings@ImGui@@YAXXZ 10056640 f   imgui_tables.obj
 0001:00055890       ?TableGcCompactTransientBuffers@ImGui@@YAXPAUImGuiTable@@@Z 10056890 f   imgui_tables.obj
 0001:00055a20       ?TablePopBackgroundChannel@ImGui@@YAXXZ 10056a20 f   imgui_tables.obj
 0001:00055ae0       ?TablePushBackgroundChannel@ImGui@@YAXXZ 10056ae0 f   imgui_tables.obj
 0001:00055b80       ?TableSettingsCreate@ImGui@@YAPAUImGuiTableSettings@@IH@Z 10056b80 f   imgui_tables.obj
 0001:00055be0       ?TableSettingsFindByID@ImGui@@YAPAUImGuiTableSettings@@I@Z 10056be0 f   imgui_tables.obj
 0001:00056370       ?TableSettingsInstallHandler@ImGui@@YAXPAUImGuiContext@@@Z 10057370 f   imgui_tables.obj
 0001:00056590       ??$RoundScalarWithFormatT@HH@ImGui@@YAHPBDHH@Z 10057590 f i imgui_widgets.obj
 0001:00056660       ??$RoundScalarWithFormatT@IH@ImGui@@YAIPBDHI@Z 10057660 f i imgui_widgets.obj
 0001:00056730       ??$RoundScalarWithFormatT@MM@ImGui@@YAMPBDHM@Z 10057730 f i imgui_widgets.obj
 0001:00056880       ??$RoundScalarWithFormatT@NN@ImGui@@YANPBDHN@Z 10057880 f i imgui_widgets.obj
 0001:000569c0       ??$RoundScalarWithFormatT@_J_J@ImGui@@YA_JPBDH_J@Z 100579c0 f i imgui_widgets.obj
 0001:00056a90       ??$RoundScalarWithFormatT@_K_J@ImGui@@YA_KPBDH_K@Z 10057a90 f i imgui_widgets.obj
 0001:00056bb0       ??$ScaleRatioFromValueT@HHM@ImGui@@YAMHHHH_NMM@Z 10057bb0 f i imgui_widgets.obj
 0001:00056ed0       ??$ScaleRatioFromValueT@IHM@ImGui@@YAMHIII_NMM@Z 10057ed0 f i imgui_widgets.obj
 0001:00057240       ??$ScaleRatioFromValueT@MMM@ImGui@@YAMHMMM_NMM@Z 10058240 f i imgui_widgets.obj
 0001:00057540       ??$ScaleRatioFromValueT@NNN@ImGui@@YAMHNNN_NMM@Z 10058540 f i imgui_widgets.obj
 0001:00057830       ??$ScaleRatioFromValueT@_J_JN@ImGui@@YAMH_J00_NMM@Z 10058830 f i imgui_widgets.obj
 0001:00057c80       ??$ScaleRatioFromValueT@_K_JN@ImGui@@YAMH_K00_NMM@Z 10058c80 f i imgui_widgets.obj
 0001:000580d0       ??$ScaleValueFromRatioT@HHM@ImGui@@YAHHMHH_NMM@Z 100590d0 f i imgui_widgets.obj
 0001:000583d0       ??$ScaleValueFromRatioT@IHM@ImGui@@YAIHMII_NMM@Z 100593d0 f i imgui_widgets.obj
 0001:00058720       ??$ScaleValueFromRatioT@MMM@ImGui@@YAMHMMM_NMM@Z 10059720 f i imgui_widgets.obj
 0001:000589e0       ??$ScaleValueFromRatioT@NNN@ImGui@@YANHMNN_NMM@Z 100599e0 f i imgui_widgets.obj
 0001:00058cd0       ??$ScaleValueFromRatioT@_J_JN@ImGui@@YA_JHM_J0_NMM@Z 10059cd0 f i imgui_widgets.obj
 0001:000590d0       ??$ScaleValueFromRatioT@_K_JN@ImGui@@YA_KHM_K0_NMM@Z 1005a0d0 f i imgui_widgets.obj
 0001:000594d0       ??$SliderBehaviorT@HHM@ImGui@@YA_NABUImRect@@IHPAHHHPBDHPAU1@@Z 1005a4d0 f i imgui_widgets.obj
 0001:00059b30       ??$SliderBehaviorT@IHM@ImGui@@YA_NABUImRect@@IHPAIIIPBDHPAU1@@Z 1005ab30 f i imgui_widgets.obj
 0001:0005a1a0       ??$SliderBehaviorT@MMM@ImGui@@YA_NABUImRect@@IHPAMMMPBDHPAU1@@Z 1005b1a0 f i imgui_widgets.obj
 0001:0005a8a0       ??$SliderBehaviorT@NNN@ImGui@@YA_NABUImRect@@IHPANNNPBDHPAU1@@Z 1005b8a0 f i imgui_widgets.obj
 0001:0005afc0       ??$SliderBehaviorT@_J_JN@ImGui@@YA_NABUImRect@@IHPA_J_J2PBDHPAU1@@Z 1005bfc0 f i imgui_widgets.obj
 0001:0005b6c0       ??$SliderBehaviorT@_K_JN@ImGui@@YA_NABUImRect@@IHPA_K_K2PBDHPAU1@@Z 1005c6c0 f i imgui_widgets.obj
 0001:0005bdc0       ??$_Buynode@U?$pair@$$CBIUtab_anim@@@std@@@?$_Tree_comp_alloc@V?$_Tmap_traits@IUtab_anim@@U?$less@I@std@@V?$allocator@U?$pair@$$CBIUtab_anim@@@std@@@3@$0A@@std@@@std@@QAEPAU?$_Tree_node@U?$pair@$$CBIUtab_anim@@@std@@PAX@1@$$QAU?$pair@$$CBIUtab_anim@@@1@@Z 1005cdc0 f i imgui_widgets.obj
 0001:0005bdf0       ??$_Insert_at@U?$pair@$$CBIUtab_anim@@@std@@U_Not_a_node_tag@2@@?$_Tree@V?$_Tmap_traits@IUtab_anim@@U?$less@I@std@@V?$allocator@U?$pair@$$CBIUtab_anim@@@std@@@3@$0A@@std@@@std@@IAE?AV?$_Tree_iterator@V?$_Tree_val@U?$_Tree_simple_types@U?$pair@$$CBIUtab_anim@@@std@@@std@@@std@@@1@_NPAU?$_Tree_node@U?$pair@$$CBIUtab_anim@@@std@@PAX@1@$$QAU?$pair@$$CBIUtab_anim@@@1@U_Not_a_node_tag@1@@Z 1005cdf0 f i imgui_widgets.obj
 0001:0005bf50       ??$_Insert_nohint@U?$pair@$$CBIUtab_anim@@@std@@U_Not_a_node_tag@2@@?$_Tree@V?$_Tmap_traits@IUtab_anim@@U?$less@I@std@@V?$allocator@U?$pair@$$CBIUtab_anim@@@std@@@3@$0A@@std@@@std@@IAE?AU?$pair@V?$_Tree_iterator@V?$_Tree_val@U?$_Tree_simple_types@U?$pair@$$CBIUtab_anim@@@std@@@std@@@std@@@std@@_N@1@_N$$QAU?$pair@$$CBIUtab_anim@@@1@U_Not_a_node_tag@1@@Z 1005cf50 f i imgui_widgets.obj
 0001:0005c0b0       ??1?$_Tree@V?$_Tmap_traits@IUtab_anim@@U?$less@I@std@@V?$allocator@U?$pair@$$CBIUtab_anim@@@std@@@3@$0A@@std@@@std@@QAE@XZ 1005d0b0 f i imgui_widgets.obj
 0001:0005c150       ??A?$ImVector@G@@QAEAAGH@Z 1005d150 f i imgui_widgets.obj
 0001:0005c190       ??AImVec2@@QAEAAMI@Z       1005d190 f i imgui_widgets.obj
 0001:0005c1c0       ?ButtonBehavior@ImGui@@YA_NABUImRect@@IPA_N1H@Z 1005d1c0 f   imgui_widgets.obj
 0001:0005c770       ?Checkbox@ImGui@@YA_NPBDPA_N@Z 1005d770 f   imgui_widgets.obj
 0001:0005cc70       ?CloseButton@ImGui@@YA_NIABUImVec2@@@Z 1005dc70 f   imgui_widgets.obj
 0001:0005cf70       ?CollapseButton@ImGui@@YA_NIABUImVec2@@@Z 1005df70 f   imgui_widgets.obj
 0001:0005d160       ?CursorClamp@ImGuiInputTextState@@QAEXXZ 1005e160 f i imgui_widgets.obj
 0001:0005d190       ?DataTypeApplyOpFromText@ImGui@@YA_NPBD0HPAX0@Z 1005e190 f   imgui_widgets.obj
 0001:0005d620       ?DataTypeClamp@ImGui@@YA_NHPAXPBX1@Z 1005e620 f   imgui_widgets.obj
 0001:0005d890       ?DataTypeCompare@ImGui@@YAHHPBX0@Z 1005e890 f   imgui_widgets.obj
 0001:0005da30       ?DataTypeFormatString@ImGui@@YAHPADHHPBXPBD@Z 1005ea30 f   imgui_widgets.obj
 0001:0005db60       ?DataTypeGetInfo@ImGui@@YAPBUImGuiDataTypeInfo@@H@Z 1005eb60 f   imgui_widgets.obj
 0001:0005dbc0       ?ImParseFormatFindEnd@@YAPBDPBD@Z 1005ebc0 f   imgui_widgets.obj
 0001:0005dc20       ?ImParseFormatPrecision@@YAHPBDH@Z 1005ec20 f   imgui_widgets.obj
 0001:0005dd20       ?InputTextEx@ImGui@@YA_NPBD0PADHABUImVec2@@HP6AHPAUImGuiInputTextCallbackData@@@ZPAX@Z 1005ed20 f   imgui_widgets.obj
 0001:000606f0       ?InvisibleButton@ImGui@@YA_NPBDABUImVec2@@H@Z 100616f0 f   imgui_widgets.obj
 0001:00060810       ?IsKeyPressedMap@ImGui@@YA_NH_N@Z 10061810 f i imgui_widgets.obj
 0001:00060830       ?OnKeyPressed@ImGuiInputTextState@@QAEXH@Z 10061830 f   imgui_widgets.obj
 0001:00060ef0       ?Scrollbar@ImGui@@YAXW4ImGuiAxis@@@Z 10061ef0 f   imgui_widgets.obj
 0001:00061160       ?ScrollbarEx@ImGui@@YA_NABUImRect@@IW4ImGuiAxis@@PAMMMH@Z 10062160 f   imgui_widgets.obj
 0001:00061640       ?Selectable@ImGui@@YA_NPBD_NHABUImVec2@@@Z 10062640 f   imgui_widgets.obj
 0001:00061bf0       ?SliderBehavior@ImGui@@YA_NABUImRect@@IHPAXPBX2PBDHPAU2@@Z 10062bf0 f   imgui_widgets.obj
 0001:00061fd0       ?SliderInt@ImGui@@YA_NPBDPAHHH0H@Z 10062fd0 f   imgui_widgets.obj
 0001:00062000       ?SliderScalar@ImGui@@YA_NPBDHPAXPBX20H@Z 10063000 f   imgui_widgets.obj
 0001:00062720       ?Spacing@ImGui@@YAXXZ      10063720 f   imgui_widgets.obj
 0001:00062770       ?TempInputScalar@ImGui@@YA_NABUImRect@@IPBDHPAX1PBX3@Z 10063770 f   imgui_widgets.obj
 0001:00062a00       ?Text@ImGui@@YAXPBDZZ      10063a00 f   imgui_widgets.obj
 0001:00062a20       ?TextColored@ImGui@@YAXABUImVec4@@PBDZZ 10063a20 f   imgui_widgets.obj
 0001:00062a80       ?TextEx@ImGui@@YAXPBD0H@Z  10063a80 f   imgui_widgets.obj
 0001:00062e90       ?TextV@ImGui@@YAXPBDPAD@Z  10063e90 f   imgui_widgets.obj
 0001:00062ef0       ?Update@ImGuiMenuColumns@@QAEXHM_N@Z 10063ef0 f   imgui_widgets.obj
 0001:00062fa0       ?_Buyheadnode@?$_Tree_comp_alloc@V?$_Tmap_traits@IUtab_anim@@U?$less@I@std@@V?$allocator@U?$pair@$$CBIUtab_anim@@@std@@@3@$0A@@std@@@std@@QAEPAU?$_Tree_node@U?$pair@$$CBIUtab_anim@@@std@@PAX@2@XZ 10063fa0 f i imgui_widgets.obj
 0001:00062fc0       ?_Buynode0@?$_Tree_comp_alloc@V?$_Tmap_traits@IUtab_anim@@U?$less@I@std@@V?$allocator@U?$pair@$$CBIUtab_anim@@@std@@@3@$0A@@std@@@std@@QAEPAU?$_Tree_node@U?$pair@$$CBIUtab_anim@@@std@@PAX@2@XZ 10063fc0 f i imgui_widgets.obj
 0001:00062fe0       ?_Erase@?$_Tree@V?$_Tmap_traits@IUtab_anim@@U?$less@I@std@@V?$allocator@U?$pair@$$CBIUtab_anim@@@std@@@3@$0A@@std@@@std@@IAEXPAU?$_Tree_node@U?$pair@$$CBIUtab_anim@@@std@@PAX@2@@Z 10063fe0 f i imgui_widgets.obj
 0001:00063020       ?find@?$_Tree@V?$_Tmap_traits@IUtab_anim@@U?$less@I@std@@V?$allocator@U?$pair@$$CBIUtab_anim@@@std@@@3@$0A@@std@@@std@@QAE?AV?$_Tree_iterator@V?$_Tree_val@U?$_Tree_simple_types@U?$pair@$$CBIUtab_anim@@@std@@@std@@@std@@@2@ABI@Z 10064020 f i imgui_widgets.obj
 0001:000645b0       ?tab@ImGui@@YA_NPBD_N@Z    100655b0 f   imgui_widgets.obj
 0001:00064920       ??$_snprintf_s@$0GE@@@YAHAAY0GE@DIPBDZZ 10065920 f i sounds.obj
 0001:00065720       ?playback_loop@@YAXXZ      10066720 f   sounds.obj
 0001:00065af0       _printf                    10066af0 f i sounds.obj
 0001:00065b20       ?EjectThread@@YGKPAX@Z     10066b20 f   main.obj
 0001:00065b40       ?EnumWindowsCallback@@YGHPAUHWND__@@J@Z 10066b40 f   main.obj
 0001:00065b80       ?MainThread@@YGKPAX@Z      10066b80 f   main.obj
 0001:00065bc0       ?Menue@@YGKPAUHINSTANCE__@@@Z 10066bc0 f   main.obj
 0001:00065cf0       ?Start@@YAXXZ              10066cf0 f   main.obj
 0001:00065e20       ?WndProc@@YGJQAUHWND__@@IIJ@Z 10066e20 f   main.obj
 0001:00065e60       ?hookedEndScene@@YGJPAUIDirect3DDevice9@@@Z 10066e60 f   main.obj
 0001:00066510       _DllMain@12                10067510 f   main.obj
 0001:000666e0       ??0exception@std@@QAE@QBD@Z 100676e0 f i Menu.obj
 0001:00066d00       ?Do@MENU@PPGUI@@YAXXZ      10067d00 f   Menu.obj
 0001:00068af0       ?Load@Configuration@SETTINGS@@QAE_NPBD0I@Z 10069af0 f i Menu.obj
 0001:00068b50       ?PPGUI_AlphaModulate@PPGUI@@YAXM@Z 10069b50 f i Menu.obj
 0001:00068ba0       ?Save@Configuration@SETTINGS@@QAE_NPBD0I@Z 10069ba0 f i Menu.obj
 0001:00068c00       ??$_Buynode@ABUpiecewise_construct_t@std@@V?$tuple@ABI@2@V?$tuple@$$V@2@@?$_List_buy@U?$pair@$$CBITPPGUI_Command_Data@PPGUI_Command_Data_Base@PPGUI@@@std@@V?$allocator@U?$pair@$$CBITPPGUI_Command_Data@PPGUI_Command_Data_Base@PPGUI@@@std@@@2@@std@@QAEPAU?$_List_node@U?$pair@$$CBITPPGUI_Command_Data@PPGUI_Command_Data_Base@PPGUI@@@std@@PAX@1@PAU21@0ABUpiecewise_construct_t@1@$$QAV?$tuple@ABI@1@$$QAV?$tuple@$$V@1@@Z 10069c00 f i PPGUI.obj
 0001:00068c20       ??$_Emplace_reallocate@ABUPPGUI_Column@PPGUI_Command_Frame@PPGUI@@@?$vector@UPPGUI_Column@PPGUI_Command_Frame@PPGUI@@V?$allocator@UPPGUI_Column@PPGUI_Command_Frame@PPGUI@@@std@@@std@@QAEPAUPPGUI_Column@PPGUI_Command_Frame@PPGUI@@QAU234@ABU234@@Z 10069c20 f i PPGUI.obj
 0001:00068dd0       ??$_Emplace_reallocate@ABVPPGUI_Command_Frame@PPGUI@@@?$vector@VPPGUI_Command_Frame@PPGUI@@V?$allocator@VPPGUI_Command_Frame@PPGUI@@@std@@@std@@QAEPAVPPGUI_Command_Frame@PPGUI@@QAV23@ABV23@@Z 10069dd0 f i PPGUI.obj
 0001:00068fd0       ??$_Fill_unchecked@PAV?$_List_unchecked_iterator@V?$_List_val@U?$_List_simple_types@U?$pair@$$CBITPPGUI_Command_Data@PPGUI_Command_Data_Base@PPGUI@@@std@@@std@@@std@@@std@@V12@@std@@YAXPAV?$_List_unchecked_iterator@V?$_List_val@U?$_List_simple_types@U?$pair@$$CBITPPGUI_Command_Data@PPGUI_Command_Data_Base@PPGUI@@@std@@@std@@@std@@@0@0ABV10@@Z 10069fd0 f i PPGUI.obj
 0001:00069050       ??$_Insert@AAU?$pair@$$CBITPPGUI_Command_Data@PPGUI_Command_Data_Base@PPGUI@@@std@@V?$_List_unchecked_iterator@V?$_List_val@U?$_List_simple_types@U?$pair@$$CBITPPGUI_Command_Data@PPGUI_Command_Data_Base@PPGUI@@@std@@@std@@@std@@@2@@?$_Hash@V?$_Umap_traits@ITPPGUI_Command_Data@PPGUI_Command_Data_Base@PPGUI@@V?$_Uhash_compare@IU?$hash@I@std@@U?$equal_to@I@2@@std@@V?$allocator@U?$pair@$$CBITPPGUI_Command_Data@PPGUI_Command_Data_Base@PPGUI@@@std@@@5@$0A@@std@@@std@@IAE?AU?$pair@V?$_List_iterator@V?$_List_val@U?$_List_simple_types@U?$pair@$$CBITPPGUI_Command_Data@PPGUI_Command_Data_Base@PPGUI@@@std@@@std@@@std@@@std@@_N@1@AAU?$pair@$$CBITPPGUI_Command_Data@PPGUI_Command_Data_Base@PPGUI@@@1@V?$_List_unchecked_iterator@V?$_List_val@U?$_List_simple_types@U?$pair@$$CBITPPGUI_Command_Data@PPGUI_Command_Data_Base@PPGUI@@@std@@@std@@@std@@@1@@Z 1006a050 f i PPGUI.obj
 0001:00069270       ??$_Uninitialized_move@PAVPPGUI_Command_Frame@PPGUI@@PAV12@V?$allocator@VPPGUI_Command_Frame@PPGUI@@@std@@@std@@YAPAVPPGUI_Command_Frame@PPGUI@@QAV12@0PAV12@AAV?$allocator@VPPGUI_Command_Frame@PPGUI@@@0@@Z 1006a270 f i PPGUI.obj
 0001:00069300       ??$construct@VPPGUI_Command_Frame@PPGUI@@V12@@?$_Default_allocator_traits@V?$allocator@VPPGUI_Command_Frame@PPGUI@@@std@@@std@@SAXAAV?$allocator@VPPGUI_Command_Frame@PPGUI@@@1@QAVPPGUI_Command_Frame@PPGUI@@$$QAV34@@Z 1006a300 f i PPGUI.obj
 0001:00069370       ??$erase@V?$_List_iterator@V?$_List_val@U?$_List_simple_types@U?$pair@$$CBITPPGUI_Command_Data@PPGUI_Command_Data_Base@PPGUI@@@std@@@std@@@std@@@std@@X@?$_Hash@V?$_Umap_traits@ITPPGUI_Command_Data@PPGUI_Command_Data_Base@PPGUI@@V?$_Uhash_compare@IU?$hash@I@std@@U?$equal_to@I@2@@std@@V?$allocator@U?$pair@$$CBITPPGUI_Command_Data@PPGUI_Command_Data_Base@PPGUI@@@std@@@5@$0A@@std@@@std@@QAE?AV?$_List_iterator@V?$_List_val@U?$_List_simple_types@U?$pair@$$CBITPPGUI_Command_Data@PPGUI_Command_Data_Base@PPGUI@@@std@@@std@@@std@@@1@V21@@Z 1006a370 f i PPGUI.obj
 0001:00069420       ??0?$vector@UPPGUI_Column@PPGUI_Command_Frame@PPGUI@@V?$allocator@UPPGUI_Column@PPGUI_Command_Frame@PPGUI@@@std@@@std@@QAE@ABV01@@Z 1006a420 f i PPGUI.obj
 0001:000694d0       ??0PPGUI_Command_Frame@PPGUI@@QAE@PAVPPGUI_Command@1@H@Z 1006a4d0 f   PPGUI.obj
 0001:00069720       ??1?$vector@UPPGUI_Column@PPGUI_Command_Frame@PPGUI@@V?$allocator@UPPGUI_Column@PPGUI_Command_Frame@PPGUI@@@std@@@std@@QAE@XZ 1006a720 f i PPGUI.obj
 0001:00069730       ??1?$vector@VPPGUI_Command_Frame@PPGUI@@V?$allocator@VPPGUI_Command_Frame@PPGUI@@@std@@@std@@QAE@XZ 1006a730 f i PPGUI.obj
 0001:000697a0       ??1PPGUI_Command_Frame@PPGUI@@QAE@XZ 1006a7a0 f i PPGUI.obj
 0001:000697b0       ??1PPGUI_Command_List@PPGUI@@QAE@XZ 1006a7b0 f i PPGUI.obj
 0001:00069850       ??4PPGUI_Command_Frame@PPGUI@@QAEAAV01@$$QAV01@@Z 1006a850 f i PPGUI.obj
 0001:000698c0       ??A?$unordered_map@ITPPGUI_Command_Data@PPGUI_Command_Data_Base@PPGUI@@U?$hash@I@std@@U?$equal_to@I@5@V?$allocator@U?$pair@$$CBITPPGUI_Command_Data@PPGUI_Command_Data_Base@PPGUI@@@std@@@5@@std@@QAEAATPPGUI_Command_Data@PPGUI_Command_Data_Base@PPGUI@@ABI@Z 1006a8c0 f i PPGUI.obj
 0001:00069950       ??R<lambda_8026473273ad38e21d271a762a48cf59>@@QBEXAATPPGUI_Command_Data@PPGUI_Command_Data_Base@PPGUI@@ABW4PPGUI_Command_Types@3@@Z 1006a950 f i PPGUI_Commands.obj
 0001:00069950       ??R<lambda_c63487d0a68111f5e6930a79b22ca9cf>@@QBEXAATPPGUI_Command_Data@PPGUI_Command_Data_Base@PPGUI@@ABW4PPGUI_Command_Types@3@@Z 1006a950 f i PPGUI.obj
 0001:00069950       ??R<lambda_f72052e9904a007b22ce8dc0827c70d7>@@QBEXAATPPGUI_Command_Data@PPGUI_Command_Data_Base@PPGUI@@ABW4PPGUI_Command_Types@3@@Z 1006a950 f i PPGUI_Commands.obj
 0001:00069950       ??R<lambda_ebd3fe8d89f8826226563be13e65e40a>@@QBEXAATPPGUI_Command_Data@PPGUI_Command_Data_Base@PPGUI@@ABW4PPGUI_Command_Types@3@@Z 1006a950 f i PPGUI_Commands.obj
 0001:00069950       ??R<lambda_a4b7f7056c3066ba3213e3cb871fcf9f>@@QBEXAATPPGUI_Command_Data@PPGUI_Command_Data_Base@PPGUI@@ABW4PPGUI_Command_Types@3@@Z 1006a950 f i PPGUI_Commands.obj
 0001:00069950       ??R<lambda_edaebc954b53efb5b9670c2111df7194>@@QBEXAATPPGUI_Command_Data@PPGUI_Command_Data_Base@PPGUI@@ABW4PPGUI_Command_Types@3@@Z 1006a950 f i PPGUI_Commands.obj
 0001:00069950       ??R<lambda_c1a44e165f1181c651573858c7f31a02>@@QBEXAATPPGUI_Command_Data@PPGUI_Command_Data_Base@PPGUI@@ABW4PPGUI_Command_Types@3@@Z 1006a950 f i PPGUI_Commands.obj
 0001:00069950       ??R<lambda_4736b5e46205fa413f66b35da70f91eb>@@QBEXAATPPGUI_Command_Data@PPGUI_Command_Data_Base@PPGUI@@ABW4PPGUI_Command_Types@3@@Z 1006a950 f i PPGUI_Commands.obj
 0001:00069950       ??R<lambda_dda52d86197754781a619e9cd2a6795d>@@QBEXAATPPGUI_Command_Data@PPGUI_Command_Data_Base@PPGUI@@ABW4PPGUI_Command_Types@3@@Z 1006a950 f i PPGUI_Commands.obj
 0001:00069950       ??R<lambda_9e77de5ae44ad38ef2ba1f6f90f70737>@@QBEXAATPPGUI_Command_Data@PPGUI_Command_Data_Base@PPGUI@@ABW4PPGUI_Command_Types@3@@Z 1006a950 f i PPGUI_Commands.obj
 0001:00069950       ??R<lambda_754a2942ec65f727641f86a744eec9ca>@@QBEXAATPPGUI_Command_Data@PPGUI_Command_Data_Base@PPGUI@@ABW4PPGUI_Command_Types@3@@Z 1006a950 f i PPGUI_Commands.obj
 0001:00069a60       ?AddCommandFrame@PPGUI_Framework@PPGUI@@QAEXAAVPPGUI_Command_Frame@2@@Z 1006aa60 f i PPGUI.obj
 0001:00069ba0       ?AllocateSpace@PPGUI_Command_Frame@PPGUI@@QAE_NVPPGUI_Vector2D@HELPERS@2@AAV342@AA_N_N@Z 1006aba0 f   PPGUI.obj
 0001:00069df0       ?AllocateSpace@PPGUI_Framework@PPGUI@@QAE_NVPPGUI_Vector2D@HELPERS@2@AAV342@AA_N@Z 1006adf0 f   PPGUI.obj
 0001:00069e60       ?BeginFrame@PPGUI_Framework@PPGUI@@QAEXXZ 1006ae60 f   PPGUI.obj
 0001:00069e70       ?DrawMouse@PPGUI_Framework@PPGUI@@AAEXXZ 1006ae70 f   PPGUI.obj
 0001:0006a060       ?EndFrame@PPGUI_Framework@PPGUI@@QAEXXZ 1006b060 f   PPGUI.obj
 0001:0006a230       ?GetCommandFrame@PPGUI_Framework@PPGUI@@QAEAAVPPGUI_Command_Frame@2@XZ 1006b230 f   PPGUI.obj
 0001:0006a270       ?GetCurrentFrameSize@PPGUI_Framework@PPGUI@@QAE?AVPPGUI_Vector2D@HELPERS@2@XZ 1006b270 f i PPGUI.obj
 0001:0006a310       ?PPGUI_BeginGroupbox@PPGUI@@YAXPBDHH_N@Z 1006b310 f   PPGUI.obj
 0001:0006a430       ?PPGUI_BeginWindow@PPGUI@@YAXPBDVPPGUI_Vector2D@HELPERS@1@1H@Z 1006b430 f   PPGUI.obj
 0001:0006a500       ?PPGUI_Button@PPGUI@@YA_NPBD_N@Z 1006b500 f   PPGUI.obj
 0001:0006a680       ?PPGUI_Checkbox@PPGUI@@YA_NPBDAA_N_N@Z 1006b680 f   PPGUI.obj
 0001:0006a790       ?PPGUI_ColorPicker@PPGUI@@YAXPBDAAE111_N@Z 1006b790 f   PPGUI.obj
 0001:0006a8a0       ?PPGUI_Combobox@PPGUI@@YAHPBDHPAY0BAA@DAAH_N@Z 1006b8a0 f   PPGUI.obj
 0001:0006a9b0       ?PPGUI_EndGroupbox@PPGUI@@YAXXZ 1006b9b0 f   PPGUI.obj
 0001:0006aa10       ?PPGUI_EndWindow@PPGUI@@YAXXZ 1006ba10 f   PPGUI.obj
 0001:0006aaf0       ?PPGUI_Keybind@PPGUI@@YAHPBDAAH_N@Z 1006baf0 f   PPGUI.obj
 0001:0006ac10       ?PPGUI_MultiselectCombobox@PPGUI@@YAXPBDHPAY0BAA@DPA_N_N@Z 1006bc10 f   PPGUI.obj
 0001:0006ad00       ?PPGUI_Separator@PPGUI@@YAXPBD_N@Z 1006bd00 f   PPGUI.obj
 0001:0006ade0       ?PPGUI_Slider@PPGUI@@YAMPBD0MMAAMH_N@Z 1006bde0 f   PPGUI.obj
 0001:0006af20       ?PPGUI_Tab@PPGUI@@YAHHPAY0BAA@DAAH_N@Z 1006bf20 f   PPGUI.obj
 0001:0006b040       ?PPGUI_TextInput@PPGUI@@YAPBDPBDPAD_N@Z 1006c040 f   PPGUI.obj
 0001:0006b150       ?PPGUI_ToolTip@PPGUI@@YAXPBDHVPPGUI_Vector2D@HELPERS@1@@Z 1006c150 f   PPGUI.obj
 0001:0006b1f0       ?RemoveCommandFrame@PPGUI_Framework@PPGUI@@QAEXXZ 1006c1f0 f i PPGUI.obj
 0001:0006b300       ?_Buynode0@?$_List_alloc@U?$_List_base_types@U?$pair@$$CBITPPGUI_Command_Data@PPGUI_Command_Data_Base@PPGUI@@@std@@V?$allocator@U?$pair@$$CBITPPGUI_Command_Data@PPGUI_Command_Data_Base@PPGUI@@@std@@@2@@std@@@std@@QAEPAU?$_List_node@U?$pair@$$CBITPPGUI_Command_Data@PPGUI_Command_Data_Base@PPGUI@@@std@@PAX@2@PAU32@0@Z 1006c300 f i PPGUI.obj
 0001:0006b330       ?_Destroy@?$vector@VPPGUI_Command_Frame@PPGUI@@V?$allocator@VPPGUI_Command_Frame@PPGUI@@@std@@@std@@AAEXPAVPPGUI_Command_Frame@PPGUI@@0@Z 1006c330 f i PPGUI.obj
 0001:0006b360       ?_Init@?$_Hash@V?$_Umap_traits@ITPPGUI_Command_Data@PPGUI_Command_Data_Base@PPGUI@@V?$_Uhash_compare@IU?$hash@I@std@@U?$equal_to@I@2@@std@@V?$allocator@U?$pair@$$CBITPPGUI_Command_Data@PPGUI_Command_Data_Base@PPGUI@@@std@@@5@$0A@@std@@@std@@IAEXI@Z 1006c360 f i PPGUI.obj
 0001:0006b4a0       ?_Make_iter@?$_Hash@V?$_Umap_traits@ITPPGUI_Command_Data@PPGUI_Command_Data_Base@PPGUI@@V?$_Uhash_compare@IU?$hash@I@std@@U?$equal_to@I@2@@std@@V?$allocator@U?$pair@$$CBITPPGUI_Command_Data@PPGUI_Command_Data_Base@PPGUI@@@std@@@5@$0A@@std@@@std@@QBE?AV?$_List_iterator@V?$_List_val@U?$_List_simple_types@U?$pair@$$CBITPPGUI_Command_Data@PPGUI_Command_Data_Base@PPGUI@@@std@@@std@@@std@@@2@V?$_List_unchecked_const_iterator@V?$_List_val@U?$_List_simple_types@U?$pair@$$CBITPPGUI_Command_Data@PPGUI_Command_Data_Base@PPGUI@@@std@@@std@@@std@@U_Iterator_base0@2@@2@@Z 1006c4a0 f i PPGUI.obj
 0001:0006b4b0       ?_Reallocate_exactly@?$vector@V?$_List_unchecked_iterator@V?$_List_val@U?$_List_simple_types@U?$pair@$$CBITPPGUI_Command_Data@PPGUI_Command_Data_Base@PPGUI@@@std@@@std@@@std@@@std@@V?$allocator@V?$_List_unchecked_iterator@V?$_List_val@U?$_List_simple_types@U?$pair@$$CBITPPGUI_Command_Data@PPGUI_Command_Data_Base@PPGUI@@@std@@@std@@@std@@@std@@@2@@std@@AAEXI@Z 1006c4b0 f i PPGUI.obj
 0001:0006b560       ?_Tidy@?$vector@UPPGUI_Column@PPGUI_Command_Frame@PPGUI@@V?$allocator@UPPGUI_Column@PPGUI_Command_Frame@PPGUI@@@std@@@std@@AAEXXZ 1006c560 f i PPGUI.obj
 0001:0006b5d0       ?_Umove@?$vector@UPPGUI_Column@PPGUI_Command_Frame@PPGUI@@V?$allocator@UPPGUI_Column@PPGUI_Command_Frame@PPGUI@@@std@@@std@@AAEPAUPPGUI_Column@PPGUI_Command_Frame@PPGUI@@PAU345@00@Z 1006c5d0 f i PPGUI.obj
 0001:0006b620       ?allocate@?$allocator@UPPGUI_Column@PPGUI_Command_Frame@PPGUI@@@std@@QAEPAUPPGUI_Column@PPGUI_Command_Frame@PPGUI@@I@Z 1006c620 f i PPGUI.obj
 0001:0006b690       ?deallocate@?$allocator@V?$_List_unchecked_iterator@V?$_List_val@U?$_List_simple_types@U?$pair@$$CBITPPGUI_Command_Data@PPGUI_Command_Data_Base@PPGUI@@@std@@@std@@@std@@@std@@@std@@QAEXQAV?$_List_unchecked_iterator@V?$_List_val@U?$_List_simple_types@U?$pair@$$CBITPPGUI_Command_Data@PPGUI_Command_Data_Base@PPGUI@@@std@@@std@@@std@@@2@I@Z 1006c690 f i PPGUI.obj
 0001:0006b6d0       ?deallocate@?$allocator@VPPGUI_Command_Frame@PPGUI@@@std@@QAEXQAVPPGUI_Command_Frame@PPGUI@@I@Z 1006c6d0 f i PPGUI.obj
 0001:0006b710       ?find@?$_Hash@V?$_Umap_traits@ITPPGUI_Command_Data@PPGUI_Command_Data_Base@PPGUI@@V?$_Uhash_compare@IU?$hash@I@std@@U?$equal_to@I@2@@std@@V?$allocator@U?$pair@$$CBITPPGUI_Command_Data@PPGUI_Command_Data_Base@PPGUI@@@std@@@5@$0A@@std@@@std@@QAE?AV?$_List_iterator@V?$_List_val@U?$_List_simple_types@U?$pair@$$CBITPPGUI_Command_Data@PPGUI_Command_Data_Base@PPGUI@@@std@@@std@@@std@@@2@ABI@Z 1006c710 f i PPGUI.obj
 0001:0006b7b0       ?insert@?$vector@PAVPPGUI_Command@PPGUI@@V?$allocator@PAVPPGUI_Command@PPGUI@@@std@@@std@@QAE?AV?$_Vector_iterator@V?$_Vector_val@U?$_Simple_types@PAVPPGUI_Command@PPGUI@@@std@@@std@@@2@V?$_Vector_const_iterator@V?$_Vector_val@U?$_Simple_types@PAVPPGUI_Command@PPGUI@@@std@@@std@@@2@ABQAVPPGUI_Command@PPGUI@@@Z 1006c7b0 f i PPGUI.obj
 0001:0006b830       ??$Get@UPPGUI_Slider_Command_Data@PPGUI_Command_Data_Base@PPGUI@@@PPGUI_Command_Data_Base@PPGUI@@QAEAAUPPGUI_Slider_Command_Data@01@ABIABW4PPGUI_Command_Types@1@@Z 1006c830 f i PPGUI_Commands.obj
 0001:0006b830       ??$Get@UPPGUI_Text_Input_Command_Data@PPGUI_Command_Data_Base@PPGUI@@@PPGUI_Command_Data_Base@PPGUI@@QAEAAUPPGUI_Text_Input_Command_Data@01@ABIABW4PPGUI_Command_Types@1@@Z 1006c830 f i PPGUI_Commands.obj
 0001:0006b830       ??$Get@UPPGUI_Window_Command_Data@PPGUI_Command_Data_Base@PPGUI@@@PPGUI_Command_Data_Base@PPGUI@@QAEAAUPPGUI_Window_Command_Data@01@ABIABW4PPGUI_Command_Types@1@@Z 1006c830 f i PPGUI_Commands.obj
 0001:0006b830       ??$Get@UPPGUI_Multiselect_Combobox_Command_Data@PPGUI_Command_Data_Base@PPGUI@@@PPGUI_Command_Data_Base@PPGUI@@QAEAAUPPGUI_Multiselect_Combobox_Command_Data@01@ABIABW4PPGUI_Command_Types@1@@Z 1006c830 f i PPGUI_Commands.obj
 0001:0006b830       ??$Get@UPPGUI_Groupbox_Command_Data@PPGUI_Command_Data_Base@PPGUI@@@PPGUI_Command_Data_Base@PPGUI@@QAEAAUPPGUI_Groupbox_Command_Data@01@ABIABW4PPGUI_Command_Types@1@@Z 1006c830 f i PPGUI_Commands.obj
 0001:0006b830       ??$Get@UPPGUI_Button_Command_Data@PPGUI_Command_Data_Base@PPGUI@@@PPGUI_Command_Data_Base@PPGUI@@QAEAAUPPGUI_Button_Command_Data@01@ABIABW4PPGUI_Command_Types@1@@Z 1006c830 f i PPGUI_Commands.obj
 0001:0006b830       ??$Get@UPPGUI_Tool_Tip_Command_Data@PPGUI_Command_Data_Base@PPGUI@@@PPGUI_Command_Data_Base@PPGUI@@QAEAAUPPGUI_Tool_Tip_Command_Data@01@ABIABW4PPGUI_Command_Types@1@@Z 1006c830 f i PPGUI_Commands.obj
 0001:0006b830       ??$Get@UPPGUI_Color_Picker_Command_Data@PPGUI_Command_Data_Base@PPGUI@@@PPGUI_Command_Data_Base@PPGUI@@QAEAAUPPGUI_Color_Picker_Command_Data@01@ABIABW4PPGUI_Command_Types@1@@Z 1006c830 f i PPGUI_Commands.obj
 0001:0006b830       ??$Get@UPPGUI_Keybind_Command_Data@PPGUI_Command_Data_Base@PPGUI@@@PPGUI_Command_Data_Base@PPGUI@@QAEAAUPPGUI_Keybind_Command_Data@01@ABIABW4PPGUI_Command_Types@1@@Z 1006c830 f i PPGUI_Commands.obj
 0001:0006b830       ??$Get@UPPGUI_Combobox_Command_Data@PPGUI_Command_Data_Base@PPGUI@@@PPGUI_Command_Data_Base@PPGUI@@QAEAAUPPGUI_Combobox_Command_Data@01@ABIABW4PPGUI_Command_Types@1@@Z 1006c830 f i PPGUI_Commands.obj
 0001:0006b830       ??$Get@UPPGUI_Checkbox_Command_Data@PPGUI_Command_Data_Base@PPGUI@@@PPGUI_Command_Data_Base@PPGUI@@QAEAAUPPGUI_Checkbox_Command_Data@01@ABIABW4PPGUI_Command_Types@1@@Z 1006c830 f i PPGUI_Commands.obj
 0001:0006b8c0       ??$ReturnCorrectData@UPPGUI_Slider_Command_Data@PPGUI_Command_Data_Base@PPGUI@@@PPGUI_Command_Data_Base@PPGUI@@AAEAAUPPGUI_Slider_Command_Data@01@AATPPGUI_Command_Data@01@ABW4PPGUI_Command_Types@1@@Z 1006c8c0 f i PPGUI_Commands.obj
 0001:0006b8c0       ??$ReturnCorrectData@UPPGUI_Checkbox_Command_Data@PPGUI_Command_Data_Base@PPGUI@@@PPGUI_Command_Data_Base@PPGUI@@AAEAAUPPGUI_Checkbox_Command_Data@01@AATPPGUI_Command_Data@01@ABW4PPGUI_Command_Types@1@@Z 1006c8c0 f i PPGUI_Commands.obj
 0001:0006b8c0       ??$ReturnCorrectData@UPPGUI_Tool_Tip_Command_Data@PPGUI_Command_Data_Base@PPGUI@@@PPGUI_Command_Data_Base@PPGUI@@AAEAAUPPGUI_Tool_Tip_Command_Data@01@AATPPGUI_Command_Data@01@ABW4PPGUI_Command_Types@1@@Z 1006c8c0 f i PPGUI_Commands.obj
 0001:0006b8c0       ??$ReturnCorrectData@UPPGUI_Multiselect_Combobox_Command_Data@PPGUI_Command_Data_Base@PPGUI@@@PPGUI_Command_Data_Base@PPGUI@@AAEAAUPPGUI_Multiselect_Combobox_Command_Data@01@AATPPGUI_Command_Data@01@ABW4PPGUI_Command_Types@1@@Z 1006c8c0 f i PPGUI_Commands.obj
 0001:0006b8c0       ??$ReturnCorrectData@UPPGUI_Color_Picker_Command_Data@PPGUI_Command_Data_Base@PPGUI@@@PPGUI_Command_Data_Base@PPGUI@@AAEAAUPPGUI_Color_Picker_Command_Data@01@AATPPGUI_Command_Data@01@ABW4PPGUI_Command_Types@1@@Z 1006c8c0 f i PPGUI_Commands.obj
 0001:0006b8c0       ??$ReturnCorrectData@UPPGUI_Button_Command_Data@PPGUI_Command_Data_Base@PPGUI@@@PPGUI_Command_Data_Base@PPGUI@@AAEAAUPPGUI_Button_Command_Data@01@AATPPGUI_Command_Data@01@ABW4PPGUI_Command_Types@1@@Z 1006c8c0 f i PPGUI_Commands.obj
 0001:0006b8c0       ??$ReturnCorrectData@UPPGUI_Window_Command_Data@PPGUI_Command_Data_Base@PPGUI@@@PPGUI_Command_Data_Base@PPGUI@@AAEAAUPPGUI_Window_Command_Data@01@AATPPGUI_Command_Data@01@ABW4PPGUI_Command_Types@1@@Z 1006c8c0 f i PPGUI_Commands.obj
 0001:0006b8c0       ??$ReturnCorrectData@UPPGUI_Groupbox_Command_Data@PPGUI_Command_Data_Base@PPGUI@@@PPGUI_Command_Data_Base@PPGUI@@AAEAAUPPGUI_Groupbox_Command_Data@01@AATPPGUI_Command_Data@01@ABW4PPGUI_Command_Types@1@@Z 1006c8c0 f i PPGUI_Commands.obj
 0001:0006b8c0       ??$ReturnCorrectData@UPPGUI_Text_Input_Command_Data@PPGUI_Command_Data_Base@PPGUI@@@PPGUI_Command_Data_Base@PPGUI@@AAEAAUPPGUI_Text_Input_Command_Data@01@AATPPGUI_Command_Data@01@ABW4PPGUI_Command_Types@1@@Z 1006c8c0 f i PPGUI_Commands.obj
 0001:0006b8c0       ??$ReturnCorrectData@UPPGUI_Keybind_Command_Data@PPGUI_Command_Data_Base@PPGUI@@@PPGUI_Command_Data_Base@PPGUI@@AAEAAUPPGUI_Keybind_Command_Data@01@AATPPGUI_Command_Data@01@ABW4PPGUI_Command_Types@1@@Z 1006c8c0 f i PPGUI_Commands.obj
 0001:0006b8c0       ??$ReturnCorrectData@UPPGUI_Combobox_Command_Data@PPGUI_Command_Data_Base@PPGUI@@@PPGUI_Command_Data_Base@PPGUI@@AAEAAUPPGUI_Combobox_Command_Data@01@AATPPGUI_Command_Data@01@ABW4PPGUI_Command_Types@1@@Z 1006c8c0 f i PPGUI_Commands.obj
 0001:0006b920       ??$use_facet@V?$numpunct@D@std@@@std@@YAABV?$numpunct@D@0@ABVlocale@0@@Z 1006c920 f i PPGUI_Commands.obj
 0001:0006baa0       ??0PPGUI_Button_Command@PPGUI@@QAE@PBDVPPGUI_Vector2D@HELPERS@1@1_N@Z 1006caa0 f   PPGUI_Commands.obj
 0001:0006bb20       ??0PPGUI_Checkbox_Command@PPGUI@@QAE@PBDAA_NVPPGUI_Vector2D@HELPERS@1@2_N@Z 1006cb20 f   PPGUI_Commands.obj
 0001:0006bba0       ??0PPGUI_Color_Picker_Command@PPGUI@@QAE@PBDVPPGUI_Vector2D@HELPERS@1@1AAE222_N@Z 1006cba0 f   PPGUI_Commands.obj
 0001:0006bc30       ??0PPGUI_Combobox_Command@PPGUI@@QAE@PBDVPPGUI_Vector2D@HELPERS@1@1PAY0BAA@DHAAH_N@Z 1006cc30 f   PPGUI_Commands.obj
 0001:0006bcf0       ??0PPGUI_Command@PPGUI@@QAE@XZ 1006ccf0 f i PPGUI_Commands.obj
 0001:0006bdb0       ??0PPGUI_Groupbox_Command@PPGUI@@QAE@PBDVPPGUI_Vector2D@HELPERS@1@1_N@Z 1006cdb0 f   PPGUI_Commands.obj
 0001:0006be30       ??0PPGUI_Keybind_Command@PPGUI@@QAE@PBDAAHVPPGUI_Vector2D@HELPERS@1@2_N@Z 1006ce30 f   PPGUI_Commands.obj
 0001:0006bed0       ??0PPGUI_Multiselect_Combobox_Command@PPGUI@@QAE@PBDVPPGUI_Vector2D@HELPERS@1@1PAY0BAA@DPA_NH_N@Z 1006ced0 f   PPGUI_Commands.obj
 0001:0006bf70       ??0PPGUI_Separator_Command@PPGUI@@QAE@PBDVPPGUI_Vector2D@HELPERS@1@1_N@Z 1006cf70 f   PPGUI_Commands.obj
 0001:0006bff0       ??0PPGUI_Slider_Command@PPGUI@@QAE@PBD0MMAAMH_NVPPGUI_Vector2D@HELPERS@1@3@Z 1006cff0 f   PPGUI_Commands.obj
 0001:0006c0e0       ??0PPGUI_Tab_Command@PPGUI@@QAE@VPPGUI_Vector2D@HELPERS@1@0AAHPAY0BAA@DH_N@Z 1006d0e0 f   PPGUI_Commands.obj
 0001:0006c1a0       ??0PPGUI_Text_Input_Command@PPGUI@@QAE@PBDVPPGUI_Vector2D@HELPERS@1@1PAD_N@Z 1006d1a0 f   PPGUI_Commands.obj
 0001:0006c220       ??0PPGUI_Tool_Tip_Command@PPGUI@@QAE@PBDHVPPGUI_Vector2D@HELPERS@1@PAVPPGUI_Command@1@@Z 1006d220 f   PPGUI_Commands.obj
 0001:0006c310       ??0PPGUI_Window_Command@PPGUI@@QAE@PBDVPPGUI_Vector2D@HELPERS@1@1@Z 1006d310 f   PPGUI_Commands.obj
 0001:0006c3c0       ??1?$basic_stringbuf@DU?$char_traits@D@std@@V?$allocator@D@2@@std@@UAE@XZ 1006d3c0 f i PPGUI_Commands.obj
 0001:0006c4d0       ??1PPGUI_Command@PPGUI@@UAE@XZ 1006d4d0 f i PPGUI_Commands.obj
 0001:0006c4e0       ??6?$basic_ostream@DU?$char_traits@D@std@@@std@@QAEAAV01@M@Z 1006d4e0 f i PPGUI_Commands.obj
 0001:0006cc60       ??_D?$basic_stringstream@DU?$char_traits@D@std@@V?$allocator@D@2@@std@@QAEXXZ 1006dc60 f i PPGUI_Commands.obj
 0001:0006cd1f       ??_E?$basic_stringstream@DU?$char_traits@D@std@@V?$allocator@D@2@@std@@$4PPPPPPPM@A@AEPAXI@Z 1006dd1f f i PPGUI_Commands.obj
 0001:0006cd30       ??_G?$basic_stringbuf@DU?$char_traits@D@std@@V?$allocator@D@2@@std@@UAEPAXI@Z 1006dd30 f i PPGUI_Commands.obj
 0001:0006cd30       ??_E?$basic_stringbuf@DU?$char_traits@D@std@@V?$allocator@D@2@@std@@UAEPAXI@Z 1006dd30 f i PPGUI_Commands.obj
 0001:0006cd60       ??_E?$basic_stringstream@DU?$char_traits@D@std@@V?$allocator@D@2@@std@@UAEPAXI@Z 1006dd60 f i PPGUI_Commands.obj
 0001:0006cd60       ??_G?$basic_stringstream@DU?$char_traits@D@std@@V?$allocator@D@2@@std@@UAEPAXI@Z 1006dd60 f i PPGUI_Commands.obj
 0001:0006cd90       ??_G?$numpunct@D@std@@MAEPAXI@Z 1006dd90 f i PPGUI_Commands.obj
 0001:0006cd90       ??_E?$numpunct@D@std@@MAEPAXI@Z 1006dd90 f i PPGUI_Commands.obj
 0001:0006cde0       ??_EPPGUI_Button_Command@PPGUI@@UAEPAXI@Z 1006dde0 f i PPGUI_Commands.obj
 0001:0006cde0       ??_GPPGUI_Separator_Command@PPGUI@@UAEPAXI@Z 1006dde0 f i PPGUI_Commands.obj
 0001:0006cde0       ??_EPPGUI_Command@PPGUI@@UAEPAXI@Z 1006dde0 f i PPGUI_Commands.obj
 0001:0006cde0       ??_EPPGUI_Separator_Command@PPGUI@@UAEPAXI@Z 1006dde0 f i PPGUI_Commands.obj
 0001:0006cde0       ??_GPPGUI_Command@PPGUI@@UAEPAXI@Z 1006dde0 f i PPGUI_Commands.obj
 0001:0006cde0       ??_GPPGUI_Button_Command@PPGUI@@UAEPAXI@Z 1006dde0 f i PPGUI_Commands.obj
 0001:0006cde0       ??_GPPGUI_Groupbox_Command@PPGUI@@UAEPAXI@Z 1006dde0 f i PPGUI_Commands.obj
 0001:0006cde0       ??_EPPGUI_Groupbox_Command@PPGUI@@UAEPAXI@Z 1006dde0 f i PPGUI_Commands.obj
 0001:0006cde0       ??_EPPGUI_Window_Command@PPGUI@@UAEPAXI@Z 1006dde0 f i PPGUI_Commands.obj
 0001:0006cde0       ??_GPPGUI_Window_Command@PPGUI@@UAEPAXI@Z 1006dde0 f i PPGUI_Commands.obj
 0001:0006ce10       ??_EPPGUI_Text_Input_Command@PPGUI@@UAEPAXI@Z 1006de10 f i PPGUI_Commands.obj
 0001:0006ce10       ??_GPPGUI_Checkbox_Command@PPGUI@@UAEPAXI@Z 1006de10 f i PPGUI_Commands.obj
 0001:0006ce10       ??_GPPGUI_Text_Input_Command@PPGUI@@UAEPAXI@Z 1006de10 f i PPGUI_Commands.obj
 0001:0006ce10       ??_GPPGUI_Keybind_Command@PPGUI@@UAEPAXI@Z 1006de10 f i PPGUI_Commands.obj
 0001:0006ce10       ??_EPPGUI_Checkbox_Command@PPGUI@@UAEPAXI@Z 1006de10 f i PPGUI_Commands.obj
 0001:0006ce10       ??_EPPGUI_Keybind_Command@PPGUI@@UAEPAXI@Z 1006de10 f i PPGUI_Commands.obj
 0001:0006ce40       ??_EPPGUI_Color_Picker_Command@PPGUI@@UAEPAXI@Z 1006de40 f i PPGUI_Commands.obj
 0001:0006ce40       ??_GPPGUI_Color_Picker_Command@PPGUI@@UAEPAXI@Z 1006de40 f i PPGUI_Commands.obj
 0001:0006ce70       ??_GPPGUI_Multiselect_Combobox_Command@PPGUI@@UAEPAXI@Z 1006de70 f i PPGUI_Commands.obj
 0001:0006ce70       ??_EPPGUI_Combobox_Command@PPGUI@@UAEPAXI@Z 1006de70 f i PPGUI_Commands.obj
 0001:0006ce70       ??_EPPGUI_Tab_Command@PPGUI@@UAEPAXI@Z 1006de70 f i PPGUI_Commands.obj
 0001:0006ce70       ??_GPPGUI_Combobox_Command@PPGUI@@UAEPAXI@Z 1006de70 f i PPGUI_Commands.obj
 0001:0006ce70       ??_GPPGUI_Tab_Command@PPGUI@@UAEPAXI@Z 1006de70 f i PPGUI_Commands.obj
 0001:0006ce70       ??_EPPGUI_Multiselect_Combobox_Command@PPGUI@@UAEPAXI@Z 1006de70 f i PPGUI_Commands.obj
 0001:0006cea0       ??_EPPGUI_Slider_Command@PPGUI@@UAEPAXI@Z 1006dea0 f i PPGUI_Commands.obj
 0001:0006cea0       ??_GPPGUI_Slider_Command@PPGUI@@UAEPAXI@Z 1006dea0 f i PPGUI_Commands.obj
 0001:0006ced0       ??_GPPGUI_Tool_Tip_Command@PPGUI@@UAEPAXI@Z 1006ded0 f i PPGUI_Commands.obj
 0001:0006ced0       ??_EPPGUI_Tool_Tip_Command@PPGUI@@UAEPAXI@Z 1006ded0 f i PPGUI_Commands.obj
 0001:0006cf00       ?Brightness@PPGUI_Color@HELPERS@PPGUI@@QBEMXZ 1006df00 f i PPGUI_Commands.obj
 0001:0006cf60       ?ClampToBounds@PPGUI_Vector2D@HELPERS@PPGUI@@SA_NAAV123@0ABV123@1@Z 1006df60 f i PPGUI_Commands.obj
 0001:0006d040       ?Draw@PPGUI_Button_Command@PPGUI@@UAEXXZ 1006e040 f   PPGUI_Commands.obj
 0001:0006d380       ?Draw@PPGUI_Checkbox_Command@PPGUI@@UAEXXZ 1006e380 f   PPGUI_Commands.obj
 0001:0006d610       ?Draw@PPGUI_Color_Picker_Command@PPGUI@@UAEXXZ 1006e610 f   PPGUI_Commands.obj
 0001:0006e5f0       ?Draw@PPGUI_Combobox_Command@PPGUI@@UAEXXZ 1006f5f0 f   PPGUI_Commands.obj
 0001:0006eca0       ?Draw@PPGUI_Groupbox_Command@PPGUI@@UAEXXZ 1006fca0 f   PPGUI_Commands.obj
 0001:0006ee70       ?Draw@PPGUI_Keybind_Command@PPGUI@@UAEXXZ 1006fe70 f   PPGUI_Commands.obj
 0001:0006f2b0       ?Draw@PPGUI_Multiselect_Combobox_Command@PPGUI@@UAEXXZ 100702b0 f   PPGUI_Commands.obj
 0001:0006fa30       ?Draw@PPGUI_Separator_Command@PPGUI@@UAEXXZ 10070a30 f   PPGUI_Commands.obj
 0001:0006fc40       ?Draw@PPGUI_Slider_Command@PPGUI@@UAEXXZ 10070c40 f   PPGUI_Commands.obj
 0001:00070240       ?Draw@PPGUI_Tab_Command@PPGUI@@UAEXXZ 10071240 f   PPGUI_Commands.obj
 0001:00070560       ?Draw@PPGUI_Text_Input_Command@PPGUI@@UAEXXZ 10071560 f   PPGUI_Commands.obj
 0001:00070b10       ?Draw@PPGUI_Tool_Tip_Command@PPGUI@@UAEXXZ 10071b10 f   PPGUI_Commands.obj
 0001:00070d60       ?Draw@PPGUI_Window_Command@PPGUI@@UAEXXZ 10071d60 f   PPGUI_Commands.obj
 0001:00071360       ?GetClampedPositionAndSize@PPGUI_Command@PPGUI@@QAE_NAAVPPGUI_Vector2D@HELPERS@2@0@Z 10072360 f i PPGUI_Commands.obj
 0001:00071430       ?GetDataHash@PPGUI_Command@PPGUI@@QAEIXZ 10072430 f   PPGUI_Commands.obj
 0001:00071550       ?GetKeyName@PPGUI_Input@PPGUI@@SAPBDH@Z 10072550 f i PPGUI_Commands.obj
 0001:00071980       ?GetScrollAlphaScale@PPGUI_Command@PPGUI@@QAEMXZ 10072980 f i PPGUI_Commands.obj
 0001:00071a20       ?GetScrollAmount@PPGUI_Groupbox_Command@PPGUI@@UAEHXZ 10072a20 f   PPGUI_Commands.obj
 0001:00071a50       ?GetScrollAmount@PPGUI_Window_Command@PPGUI@@UAEHXZ 10072a50 f   PPGUI_Commands.obj
 0001:00071a80       ?HSBtoRGB@PPGUI_Color@HELPERS@PPGUI@@SA?AV123@MMMH@Z 10072a80 f i PPGUI_Commands.obj
 0001:00071c90       ?Hue@PPGUI_Color@HELPERS@PPGUI@@QBEMXZ 10072c90 f i PPGUI_Commands.obj
 0001:00071d80       ?IsPointInBounds@PPGUI_Command@PPGUI@@QAE_NVPPGUI_Vector2D@HELPERS@2@@Z 10072d80 f i PPGUI_Commands.obj
 0001:00071e20       ?IsRectInBounds@PPGUI_Command@PPGUI@@QAE_NVPPGUI_Vector2D@HELPERS@2@0@Z 10072e20 f i PPGUI_Commands.obj
 0001:00071f20       ?IsValidKey@PPGUI_Input@PPGUI@@SA_NH@Z 10072f20 f i PPGUI_Commands.obj
 0001:00071fb0       ?KeyToChar@PPGUI_Input@PPGUI@@SADH@Z 10072fb0 f i PPGUI_Commands.obj
 0001:000721c0       ?PPGUI_GetTime@HELPERS@PPGUI@@YAMXZ 100731c0 f i PPGUI_Commands.obj
 0001:00072200       ?Saturation@PPGUI_Color@HELPERS@PPGUI@@QBEMXZ 10073200 f i PPGUI_Commands.obj
 0001:00072280       ?SetupCommandInfo@PPGUI_Command@PPGUI@@QAEXAAUPPGUI_Command_Info@2@VPPGUI_Vector2D@HELPERS@2@1PBD_N@Z 10073280 f   PPGUI_Commands.obj
 0001:000724b0       ?TestInput@PPGUI_Button_Command@PPGUI@@UAEXAAVPPGUI_Input@2@@Z 100734b0 f   PPGUI_Commands.obj
 0001:000725b0       ?TestInput@PPGUI_Checkbox_Command@PPGUI@@UAEXAAVPPGUI_Input@2@@Z 100735b0 f   PPGUI_Commands.obj
 0001:000726b0       ?TestInput@PPGUI_Color_Picker_Command@PPGUI@@UAEXAAVPPGUI_Input@2@@Z 100736b0 f   PPGUI_Commands.obj
 0001:00072a90       ?TestInput@PPGUI_Combobox_Command@PPGUI@@UAEXAAVPPGUI_Input@2@@Z 10073a90 f   PPGUI_Commands.obj
 0001:00072e50       ?TestInput@PPGUI_Groupbox_Command@PPGUI@@UAEXAAVPPGUI_Input@2@@Z 10073e50 f   PPGUI_Commands.obj
 0001:00072f70       ?TestInput@PPGUI_Keybind_Command@PPGUI@@UAEXAAVPPGUI_Input@2@@Z 10073f70 f   PPGUI_Commands.obj
 0001:00073130       ?TestInput@PPGUI_Multiselect_Combobox_Command@PPGUI@@UAEXAAVPPGUI_Input@2@@Z 10074130 f   PPGUI_Commands.obj
 0001:000734e0       ?TestInput@PPGUI_Slider_Command@PPGUI@@UAEXAAVPPGUI_Input@2@@Z 100744e0 f   PPGUI_Commands.obj
 0001:00073890       ?TestInput@PPGUI_Tab_Command@PPGUI@@UAEXAAVPPGUI_Input@2@@Z 10074890 f   PPGUI_Commands.obj
 0001:000739a0       ?TestInput@PPGUI_Text_Input_Command@PPGUI@@UAEXAAVPPGUI_Input@2@@Z 100749a0 f   PPGUI_Commands.obj
 0001:00073b50       ?TestInput@PPGUI_Tool_Tip_Command@PPGUI@@UAEXAAVPPGUI_Input@2@@Z 10074b50 f   PPGUI_Commands.obj
 0001:00073c70       ?TestInput@PPGUI_Window_Command@PPGUI@@UAEXAAVPPGUI_Input@2@@Z 10074c70 f   PPGUI_Commands.obj
 0001:00073dc0       ?_Ffmt@?$num_put@DV?$ostreambuf_iterator@DU?$char_traits@D@std@@@std@@@std@@ABAPADPADDH@Z 10074dc0 f i PPGUI_Commands.obj
 0001:00073e80       ?_Fput@?$num_put@DV?$ostreambuf_iterator@DU?$char_traits@D@std@@@std@@@std@@ABA?AV?$ostreambuf_iterator@DU?$char_traits@D@std@@@2@V32@AAVios_base@2@DPBDI@Z 10074e80 f i PPGUI_Commands.obj
 0001:00074440       ?_Ifmt@?$num_put@DV?$ostreambuf_iterator@DU?$char_traits@D@std@@@std@@@std@@ABAPADPADPBDH@Z 10075440 f i PPGUI_Commands.obj
 0001:000744d0       ?_Init@?$numpunct@D@std@@IAEXABV_Locinfo@2@_N@Z 100754d0 f i PPGUI_Commands.obj
 0001:00074660       ?_Iput@?$num_put@DV?$ostreambuf_iterator@DU?$char_traits@D@std@@@std@@@std@@ABA?AV?$ostreambuf_iterator@DU?$char_traits@D@std@@@2@V32@AAVios_base@2@DPADI@Z 10075660 f i PPGUI_Commands.obj
 0001:00074b80       ?_Put@?$num_put@DV?$ostreambuf_iterator@DU?$char_traits@D@std@@@std@@@std@@ABA?AV?$ostreambuf_iterator@DU?$char_traits@D@std@@@2@V32@PBDI@Z 10075b80 f i PPGUI_Commands.obj
 0001:00074c00       ?_Rep@?$num_put@DV?$ostreambuf_iterator@DU?$char_traits@D@std@@@std@@@std@@ABA?AV?$ostreambuf_iterator@DU?$char_traits@D@std@@@2@V32@DI@Z 10075c00 f i PPGUI_Commands.obj
 0001:00074c70       ?_Tidy@?$numpunct@D@std@@AAEXXZ 10075c70 f i PPGUI_Commands.obj
 0001:00074c90       ?deallocate@?$allocator@D@std@@QAEXQADI@Z 10075c90 f i PPGUI_Commands.obj
 0001:00074cd0       ?do_decimal_point@?$numpunct@D@std@@MBEDXZ 10075cd0 f i PPGUI_Commands.obj
 0001:00074ce0       ?do_falsename@?$numpunct@D@std@@MBE?AV?$basic_string@DU?$char_traits@D@std@@V?$allocator@D@2@@2@XZ 10075ce0 f i PPGUI_Commands.obj
 0001:00074d20       ?do_grouping@?$numpunct@D@std@@MBE?AV?$basic_string@DU?$char_traits@D@std@@V?$allocator@D@2@@2@XZ 10075d20 f i PPGUI_Commands.obj
 0001:00074d60       ?do_put@?$num_put@DV?$ostreambuf_iterator@DU?$char_traits@D@std@@@std@@@std@@MBE?AV?$ostreambuf_iterator@DU?$char_traits@D@std@@@2@V32@AAVios_base@2@DJ@Z 10075d60 f i PPGUI_Commands.obj
 0001:00074dd0       ?do_put@?$num_put@DV?$ostreambuf_iterator@DU?$char_traits@D@std@@@std@@@std@@MBE?AV?$ostreambuf_iterator@DU?$char_traits@D@std@@@2@V32@AAVios_base@2@DK@Z 10075dd0 f i PPGUI_Commands.obj
 0001:00074e40       ?do_put@?$num_put@DV?$ostreambuf_iterator@DU?$char_traits@D@std@@@std@@@std@@MBE?AV?$ostreambuf_iterator@DU?$char_traits@D@std@@@2@V32@AAVios_base@2@DN@Z 10075e40 f i PPGUI_Commands.obj
 0001:00074ff0       ?do_put@?$num_put@DV?$ostreambuf_iterator@DU?$char_traits@D@std@@@std@@@std@@MBE?AV?$ostreambuf_iterator@DU?$char_traits@D@std@@@2@V32@AAVios_base@2@DO@Z 10075ff0 f i PPGUI_Commands.obj
 0001:000751a0       ?do_put@?$num_put@DV?$ostreambuf_iterator@DU?$char_traits@D@std@@@std@@@std@@MBE?AV?$ostreambuf_iterator@DU?$char_traits@D@std@@@2@V32@AAVios_base@2@DPBX@Z 100761a0 f i PPGUI_Commands.obj
 0001:00075200       ?do_put@?$num_put@DV?$ostreambuf_iterator@DU?$char_traits@D@std@@@std@@@std@@MBE?AV?$ostreambuf_iterator@DU?$char_traits@D@std@@@2@V32@AAVios_base@2@D_J@Z 10076200 f i PPGUI_Commands.obj
 0001:00075270       ?do_put@?$num_put@DV?$ostreambuf_iterator@DU?$char_traits@D@std@@@std@@@std@@MBE?AV?$ostreambuf_iterator@DU?$char_traits@D@std@@@2@V32@AAVios_base@2@D_K@Z 10076270 f i PPGUI_Commands.obj
 0001:000752e0       ?do_put@?$num_put@DV?$ostreambuf_iterator@DU?$char_traits@D@std@@@std@@@std@@MBE?AV?$ostreambuf_iterator@DU?$char_traits@D@std@@@2@V32@AAVios_base@2@D_N@Z 100762e0 f i PPGUI_Commands.obj
 0001:000754f0       ?do_thousands_sep@?$numpunct@D@std@@MBEDXZ 100764f0 f i PPGUI_Commands.obj
 0001:00075500       ?do_truename@?$numpunct@D@std@@MBE?AV?$basic_string@DU?$char_traits@D@std@@V?$allocator@D@2@@2@XZ 10076500 f i PPGUI_Commands.obj
 0001:00075540       ?fixed@std@@YAAAVios_base@1@AAV21@@Z 10076540 f i PPGUI_Commands.obj
 0001:00075560       ?overflow@?$basic_stringbuf@DU?$char_traits@D@std@@V?$allocator@D@2@@std@@MAEHH@Z 10076560 f i PPGUI_Commands.obj
 0001:000756c0       ?pbackfail@?$basic_stringbuf@DU?$char_traits@D@std@@V?$allocator@D@2@@std@@MAEHH@Z 100766c0 f i PPGUI_Commands.obj
 0001:00075720       ?seekoff@?$basic_stringbuf@DU?$char_traits@D@std@@V?$allocator@D@2@@std@@MAE?AV?$fpos@U_Mbstatet@@@2@_JHH@Z 10076720 f i PPGUI_Commands.obj
 0001:00075880       ?seekpos@?$basic_stringbuf@DU?$char_traits@D@std@@V?$allocator@D@2@@std@@MAE?AV?$fpos@U_Mbstatet@@@2@V32@H@Z 10076880 f i PPGUI_Commands.obj
 0001:00075970       ?underflow@?$basic_stringbuf@DU?$char_traits@D@std@@V?$allocator@D@2@@std@@MAEHXZ 10076970 f i PPGUI_Commands.obj
 0001:000759d0       ?PPGUI_DrawCircle@HELPERS@PPGUI@@YAXVPPGUI_Vector2D@12@VPPGUI_Color@12@HH_N@Z 100769d0 f   PPGUI_Helpers.obj
 0001:00075a30       ?PPGUI_DrawLine@HELPERS@PPGUI@@YAXVPPGUI_Vector2D@12@0VPPGUI_Color@12@@Z 10076a30 f   PPGUI_Helpers.obj
 0001:00075a80       ?PPGUI_DrawLineEx@HELPERS@PPGUI@@YAXVPPGUI_Vector2D@12@0VPPGUI_Color@12@@Z 10076a80 f   PPGUI_Helpers.obj
 0001:00075ac0       ?PPGUI_DrawRectangle@HELPERS@PPGUI@@YAXVPPGUI_Vector2D@12@0VPPGUI_Color@12@_N@Z 10076ac0 f   PPGUI_Helpers.obj
 0001:00075b30       ?PPGUI_DrawText@HELPERS@PPGUI@@YAXVPPGUI_Vector2D@12@I_N1VPPGUI_Color@12@PBD@Z 10076b30 f   PPGUI_Helpers.obj
 0001:00075bb0       ?PPGUI_GetFilteredTextWidth@HELPERS@PPGUI@@YAHPBDH@Z 10076bb0 f   PPGUI_Helpers.obj
 0001:00075c80       ?PPGUI_GetScreenSize@HELPERS@PPGUI@@YA?AVPPGUI_Vector2D@12@XZ 10076c80 f   PPGUI_Helpers.obj
 0001:00075cb0       ?PPGUI_GetTextSize@HELPERS@PPGUI@@YA?AVPPGUI_Vector2D@12@IPBD@Z 10076cb0 f   PPGUI_Helpers.obj
 0001:00075d10       ??0PPGUI_Color@HELPERS@PPGUI@@QAE@XZ 10076d10 f i PPGUI_Defines.obj
 0001:00075d20       ??1?$_Hash@V?$_Umap_traits@ITPPGUI_Command_Data@PPGUI_Command_Data_Base@PPGUI@@V?$_Uhash_compare@IU?$hash@I@std@@U?$equal_to@I@2@@std@@V?$allocator@U?$pair@$$CBITPPGUI_Command_Data@PPGUI_Command_Data_Base@PPGUI@@@std@@@5@$0A@@std@@@std@@QAE@XZ 10076d20 f i PPGUI_Defines.obj
 0001:00075d80       ??1?$list@U?$pair@$$CBITPPGUI_Command_Data@PPGUI_Command_Data_Base@PPGUI@@@std@@V?$allocator@U?$pair@$$CBITPPGUI_Command_Data@PPGUI_Command_Data_Base@PPGUI@@@std@@@2@@std@@QAE@XZ 10076d80 f i PPGUI_Defines.obj
 0001:00075dd0       ?Update@PPGUI_Input@PPGUI@@QAEXXZ 10076dd0 f   PPGUI_Defines.obj
 0001:00075f40       ??$_Insert_string@DU?$char_traits@D@std@@I@std@@YAAAV?$basic_ostream@DU?$char_traits@D@std@@@0@AAV10@QBDI@Z 10076f40 f i Debugger.obj
 0001:000761b0       ??$_Range_construct_or_tidy@PBQBD@?$vector@PBDV?$allocator@PBD@std@@@std@@AAEXPBQBD0Uforward_iterator_tag@1@@Z 100771b0 f i hooks.obj
 0001:00076270       ??A?$map@HPAXU?$less@H@std@@V?$allocator@U?$pair@$$CBHPAX@std@@@2@@std@@QAEAAPAXABH@Z 10077270 f i hooks.obj
 0001:000762f0       ?EyeAnglesPitchHook@HOOKS@@YAXPBVCRecvProxyData@SDK@@PAX1@Z 100772f0 f   hooks.obj
 0001:00076320       ?EyeAnglesYawHook@HOOKS@@YAXPBVCRecvProxyData@SDK@@PAX1@Z 10077320 f   hooks.obj
 0001:00076350       ?HookedCreateMove@HOOKS@@YI_NPAX0MPAVCUserCmd@SDK@@@Z 10077350 f   hooks.obj
 0001:000765e0       ?HookedDrawModelExecute@HOOKS@@YIXPAX0PAVIMatRenderContext@SDK@@ABUDrawModelState_t@3@ABUModelRenderInfo_t@3@PAUmatrix3x4_t@@@Z 100775e0 f   hooks.obj
 0001:00076670       ?HookedFrameStageNotify@HOOKS@@YIXPAX0H@Z 10077670 f   hooks.obj
 0001:00076720       ?HookedOverrideView@HOOKS@@YIXPAX0PAUCViewSetup@SDK@@@Z 10077720 f   hooks.obj
 0001:00076780       ?HookedPaintTraverse@HOOKS@@YGXH_N0@Z 10077780 f   hooks.obj
 0001:000768e0       ?HookedSceneEnd@HOOKS@@YIXPAX0@Z 100778e0 f   hooks.obj
 0001:00076b60       ?HookedTraceRay@HOOKS@@YIXPAX0ABURay_t@SDK@@IPAVITraceFilter@3@PAUtrace_t@3@@Z 10077b60 f   hooks.obj
 0001:00076b90       ?InitHooks@HOOKS@@YAXXZ    10077b90 f   hooks.obj
 0001:000773f0       ?InitNetvarHooks@HOOKS@@YAXXZ 100783f0 f   hooks.obj
 0001:00077550       ?SmokeEffectHook@HOOKS@@YAXPBVCRecvProxyData@SDK@@PAX1@Z 10078550 f   hooks.obj
 0001:00077560       ?UnHook@HOOKS@@YAXXZ       10078560 f   hooks.obj
 0001:000775b0       ??$_Emplace_reallocate@ABH@?$vector@HV?$allocator@H@std@@@std@@QAEPAHQAHABH@Z 100785b0 f i input_handler.obj
 0001:000775b0       ??$_Emplace_reallocate@H@?$vector@HV?$allocator@H@std@@@std@@QAEPAHQAH$$QAH@Z 100785b0 f i input_handler.obj
 0001:000776c0       ?GetCurrentKeyboardState@InputHandler@INPUT@UTILS@@QAEXPAH@Z 100786c0 f   input_handler.obj
 0001:000776e0       ?GetKeyState@InputHandler@INPUT@UTILS@@QAEHH@Z 100786e0 f   input_handler.obj
 0001:000776f0       ?GetMouseInfo@InputHandler@INPUT@UTILS@@QAE?AUMouseInfo@23@XZ 100786f0 f   input_handler.obj
 0001:00077770       ?Init@InputHandler@INPUT@UTILS@@QAEXXZ 10078770 f   input_handler.obj
 0001:000777b0       ?Update@InputHandler@INPUT@UTILS@@QAEXXZ 100787b0 f   input_handler.obj
 0001:000777e0       ?WndProcCallback@INPUT@UTILS@@YGJPAUHWND__@@IIJ@Z 100787e0 f   input_handler.obj
 0001:00077940       ?_Change_array@?$vector@HV?$allocator@H@std@@@std@@AAEXQAHII@Z 10078940 f i input_handler.obj
 0001:000779a0       ??6?$basic_ostream@DU?$char_traits@D@std@@@std@@QAEAAV01@PBX@Z 100789a0 f i interfaces.obj
 0001:00077c30       ?FindInterface@INTERFACES@@YAPAXPBD0@Z 10078c30 f   interfaces.obj
 0001:00077f60       ?InitInterfaces@INTERFACES@@YAXXZ 10078f60 f   interfaces.obj
 0001:00078e30       ?hex@std@@YAAAVios_base@1@AAV21@@Z 10079e30 f i interfaces.obj
 0001:00078e50       ??0?$basic_fstream@DU?$char_traits@D@std@@@std@@QAE@XZ 10079e50 f i logging.obj
 0001:00079100       ?Log@UTILS@@YAXV?$basic_string@DU?$char_traits@D@std@@V?$allocator@D@2@@std@@@Z 1007a100 f   logging.obj
 0001:00079290       ?open@?$basic_fstream@DU?$char_traits@D@std@@@std@@QAEXPBDHH@Z 1007a290 f i logging.obj
 0001:000793b0       ?AngleVectors2D@MATH@@YAXMAAVVector2D@@@Z 1007a3b0 f   math.obj
 0001:00079410       ?AngleVectors@MATH@@YAXABVVector@@PAV2@11@Z 1007a410 f   math.obj
 0001:000795a0       ?CalcAngle2D@MATH@@YAMABVVector2D@@0@Z 1007a5a0 f   math.obj
 0001:00079610       ?NormalizeAngleTest@MATH@@YAXAAM@Z 1007a610 f   math.obj
 0001:000796b0       ?VectorAngles@MATH@@YAXABVVector@@AAV2@@Z 1007a6b0 f   math.obj
 0001:00079810       ?VectorTransform@MATH@@YAXABVVector@@ABUmatrix3x4_t@@AAV2@@Z 1007a810 f   math.obj
 0001:000798b0       ??$_Traits_equal@U?$char_traits@D@std@@@std@@YA_NQBDI0I@Z 1007a8b0 f i NetvarManager.obj
 0001:00079920       ?GetOffset@CNetvarManager@UTILS@@QAEIV?$basic_string@DU?$char_traits@D@std@@V?$allocator@D@2@@std@@0@Z 1007a920 f   NetvarManager.obj
 0001:00079bb0       ?Hook@CNetvarManager@UTILS@@QAEPAXV?$basic_string@DU?$char_traits@D@std@@V?$allocator@D@2@@std@@0P6AXPBVCRecvProxyData@SDK@@PAX2@Z@Z 1007abb0 f   NetvarManager.obj
 0001:00079ee0       ?RecursivelyFindOffset@CNetvarManager@UTILS@@AAEIPAURecvTable@SDK@@V?$basic_string@DU?$char_traits@D@std@@V?$allocator@D@2@@std@@1@Z 1007aee0 f   NetvarManager.obj
 0001:0007a400       ?InitOffsets@OFFSETS@@YAXXZ 1007b400 f   offsets.obj
 0001:0007c970       ?c_str@?$basic_string@DU?$char_traits@D@std@@V?$allocator@D@2@@std@@QBEPBDXZ 1007d970 f i offsets.obj
 0001:0007c980       ??1?$unique_ptr@$$BY0A@_WU?$default_delete@$$BY0A@_W@std@@@std@@QAE@XZ 1007d980 f i render.obj
 0001:0007c990       ??1?$vector@UDrawCircleQueue@RenderQueue@RENDER@@V?$allocator@UDrawCircleQueue@RenderQueue@RENDER@@@std@@@std@@QAE@XZ 1007d990 f i render.obj
 0001:0007ca00       ?Clear@RenderQueue@RENDER@@QAEXXZ 1007da00 f   render.obj
 0001:0007caa0       ?CreateF@RENDER@@YAIV?$basic_string@DU?$char_traits@D@std@@V?$allocator@D@2@@std@@HHHHH@Z 1007daa0 f   render.obj
 0001:0007cb60       ?Draw@RenderQueue@RENDER@@QAEXXZ 1007db60 f   render.obj
 0001:0007cbd0       ?DrawCircle@RENDER@@YAXHHHHVCColor@@@Z 1007dbd0 f   render.obj
 0001:0007cc10       ?DrawEmptyRect@RENDER@@YAXHHHHVCColor@@E@Z 1007dc10 f   render.obj
 0001:0007cca0       ?DrawF@RENDER@@YAXHHI_N0VCColor@@V?$basic_string@DU?$char_traits@D@std@@V?$allocator@D@2@@std@@@Z 1007dca0 f   render.obj
 0001:0007ce60       ?DrawFilledCircle@RENDER@@YAXHHHHVCColor@@@Z 1007de60 f   render.obj
 0001:0007d0e0       ?DrawFilledRect@RENDER@@YAXHHHHVCColor@@@Z 1007e0e0 f   render.obj
 0001:0007d110       ?DrawLine@RENDER@@YAXHHHHVCColor@@@Z 1007e110 f   render.obj
 0001:0007d140       ?GetTextSize@RENDER@@YA?AVVector2D@@IV?$basic_string@DU?$char_traits@D@std@@V?$allocator@D@2@@std@@@Z 1007e140 f   render.obj
 0001:0007d260       ?TexturedPolygon@RENDER@@YAXHV?$vector@UVertex_t@SDK@@V?$allocator@UVertex_t@SDK@@@std@@@std@@VCColor@@@Z 1007e260 f   render.obj
 0001:0007d3a0       ?CanShoot@UTILS@@YA_N_N@Z  1007e3a0 f   utils.obj
 0001:0007d500       ?FindPattern@UTILS@@YAIPBDPBE0@Z 1007e500 f   utils.obj
 0001:0007d590       ?FindSignature@UTILS@@YAIPBD0@Z 1007e590 f   utils.obj
 0001:0007d680       ?GetCurtime@UTILS@@YAMXZ   1007e680 f   utils.obj
 0001:0007d6d0       ?GetHitgroupName@UTILS@@YAPBDH@Z 1007e6d0 f   utils.obj
 0001:0007d740       ?GetLBYRotatedYaw@UTILS@@YAMMM@Z 1007e740 f   utils.obj
 0001:0007d7d0       ?GetLatency@UTILS@@YAMXZ   1007e7d0 f   utils.obj
 0001:0007d810       ?GetPlayerName@UTILS@@YAPBDPAVCBaseEntity@SDK@@@Z 1007e810 f   utils.obj
 0001:0007d860       ?GetWeapon@UTILS@@YAPAVCBaseWeapon@SDK@@PAVCBaseEntity@3@@Z 1007e860 f   utils.obj
 0001:0007d880       ?IsPressingMovementKeys@UTILS@@YA_NPAVCUserCmd@SDK@@@Z 1007e880 f   utils.obj
 0001:0007d8a0       ?IsWeaponGrenade@UTILS@@YA_NPAVCBaseWeapon@SDK@@@Z 1007e8a0 f   utils.obj
 0001:0007d8d0       ?IsWeaponKnife@UTILS@@YA_NPAVCBaseWeapon@SDK@@@Z 1007e8d0 f   utils.obj
 0001:0007d910       ?IsWeaponSniper@UTILS@@YA_NPAVCBaseWeapon@SDK@@@Z 1007e910 f   utils.obj
 0001:0007d940       ?IsWeaponTaser@UTILS@@YA_NPAVCBaseWeapon@SDK@@@Z 1007e940 f   utils.obj
 0001:0007d960       ?RotateMovement@UTILS@@YAXPAVCUserCmd@SDK@@M@Z 1007e960 f   utils.obj
 0001:0007da00       ?TraceToEnd@UTILS@@YA?AVVector@@V2@0@Z 1007ea00 f   utils.obj
 0001:0007db50       ?InitFonts@FONTS@@YAXXZ    1007eb50 f   variables.obj
 0001:0007e440       ?ShouldReloadFonts@FONTS@@YA_NXZ 1007f440 f   variables.obj
 0001:0007e490       ??0VMTHookManager@VMT@@QAE@XZ 1007f490 f   vmt.obj
 0001:0007e4d0       ??1VMTHookManager@VMT@@QAE@XZ 1007f4d0 f   vmt.obj
 0001:0007e570       ?Init@VMTHookManager@VMT@@QAEXPAX@Z 1007f570 f   vmt.obj
 0001:0007e5e0       ?IsHooked@VMTHookManager@VMT@@QAE_NH@Z 1007f5e0 f   vmt.obj
 0001:0007e620       ?Restore@VMTHookManager@VMT@@QAEXXZ 1007f620 f   vmt.obj
 0001:0007e6a0       ?_Buyheadnode@?$_Tree_comp_alloc@V?$_Tmap_traits@HPAXU?$less@H@std@@V?$allocator@U?$pair@$$CBHPAX@std@@@2@$0A@@std@@@std@@QAEPAU?$_Tree_node@U?$pair@$$CBHPAX@std@@PAX@2@XZ 1007f6a0 f i vmt.obj
 0001:0007e6c0       ?_Erase@?$_Tree@V?$_Tmap_traits@HPAXU?$less@H@std@@V?$allocator@U?$pair@$$CBHPAX@std@@@2@$0A@@std@@@std@@IAEXPAU?$_Tree_node@U?$pair@$$CBHPAX@std@@PAX@2@@Z 1007f6c0 f i vmt.obj
 0001:0007e700       ?_Extract@?$_Tree_val@U?$_Tree_simple_types@U?$pair@$$CBHPAX@std@@@std@@@std@@QAEPAU?$_Tree_node@U?$pair@$$CBHPAX@std@@PAX@2@V?$_Tree_const_iterator@V?$_Tree_val@U?$_Tree_simple_types@U?$pair@$$CBHPAX@std@@@std@@@std@@@2@@Z 1007f700 f i vmt.obj
 0001:0007e970       ?clear@?$_Tree@V?$_Tmap_traits@HPAXU?$less@H@std@@V?$allocator@U?$pair@$$CBHPAX@std@@@2@$0A@@std@@@std@@QAEXXZ 1007f970 f i vmt.obj
 0001:0007ea00       ?erase@?$_Tree@V?$_Tmap_traits@HPAXU?$less@H@std@@V?$allocator@U?$pair@$$CBHPAX@std@@@2@$0A@@std@@@std@@QAE?AV?$_Tree_iterator@V?$_Tree_val@U?$_Tree_simple_types@U?$pair@$$CBHPAX@std@@@std@@@std@@@2@V?$_Tree_const_iterator@V?$_Tree_val@U?$_Tree_simple_types@U?$pair@$$CBHPAX@std@@@std@@@std@@@2@0@Z 1007fa00 f i vmt.obj
 0001:0007ea6f       _K32GetModuleInformation@16 1007fa6f f   kernel32:KERNEL32.dll
 0001:0007ea75       ??0_Init_locks@std@@QAE@XZ 1007fa75 f   libcpmt:xlock.obj
 0001:0007eaa2       ??0_Lockit@std@@QAE@H@Z    1007faa2 f   libcpmt:xlock.obj
 0001:0007ead3       ??1_Init_locks@std@@QAE@XZ 1007fad3 f   libcpmt:xlock.obj
 0001:0007eafa       ??1_Lockit@std@@QAE@XZ     1007fafa f   libcpmt:xlock.obj
 0001:0007eb19       ?uncaught_exception@std@@YA_NXZ 1007fb19 f   libcpmt:uncaught_exception.obj
 0001:0007eb1e       ??0bad_alloc@std@@QAE@ABV01@@Z 1007fb1e f i libcpmt:xthrow.obj
 0001:0007eb39       ??0bad_alloc@std@@QAE@XZ   1007fb39 f i libcpmt:xthrow.obj
 0001:0007eb51       ??0length_error@std@@QAE@ABV01@@Z 1007fb51 f i libcpmt:xthrow.obj
 0001:0007eb6c       ??0length_error@std@@QAE@PBD@Z 1007fb6c f i libcpmt:xthrow.obj
 0001:0007eb8b       ??0out_of_range@std@@QAE@ABV01@@Z 1007fb8b f i libcpmt:xthrow.obj
 0001:0007eba6       ??0out_of_range@std@@QAE@PBD@Z 1007fba6 f i libcpmt:xthrow.obj
 0001:0007ebc5       ??_Gbad_alloc@std@@UAEPAXI@Z 1007fbc5 f i libcpmt:xthrow.obj
 0001:0007ebc5       ??_Gout_of_range@std@@UAEPAXI@Z 1007fbc5 f i libcpmt:xthrow.obj
 0001:0007ebc5       ??_Gbad_exception@std@@UAEPAXI@Z 1007fbc5 f i libvcruntime:frame.obj
 0001:0007ebc5       ??_Eout_of_range@std@@UAEPAXI@Z 1007fbc5 f i libcpmt:xthrow.obj
 0001:0007ebc5       ??_Ebad_array_new_length@std@@UAEPAXI@Z 1007fbc5 f i LIBCMT:throw_bad_alloc.obj
 0001:0007ebc5       ??_Gbad_array_new_length@std@@UAEPAXI@Z 1007fbc5 f i LIBCMT:throw_bad_alloc.obj
 0001:0007ebc5       ??_Ebad_exception@std@@UAEPAXI@Z 1007fbc5 f i libvcruntime:frame.obj
 0001:0007ebc5       ??_Elength_error@std@@UAEPAXI@Z 1007fbc5 f i libcpmt:xthrow.obj
 0001:0007ebc5       ??_Glength_error@std@@UAEPAXI@Z 1007fbc5 f i libcpmt:xthrow.obj
 0001:0007ebc5       ??_Ebad_alloc@std@@UAEPAXI@Z 1007fbc5 f i libcpmt:xthrow.obj
 0001:0007ebf2       ?__scrt_throw_std_bad_alloc@@YAXXZ 1007fbf2 f   LIBCMT:throw_bad_alloc.obj
 0001:0007ebf2       ?_Xbad_alloc@std@@YAXXZ    1007fbf2 f   libcpmt:xthrow.obj
 0001:0007ec0f       ?_Xlength_error@std@@YAXPBD@Z 1007fc0f f   libcpmt:xthrow.obj
 0001:0007ec2f       ?_Xout_of_range@std@@YAXPBD@Z 1007fc2f f   libcpmt:xthrow.obj
 0001:0007ec4f       __Getctype                 1007fc4f f   libcpmt:_tolower.obj
 0001:0007ecb7       __Tolower                  1007fcb7 f   libcpmt:_tolower.obj
 0001:0007edb5       __Toupper                  1007fdb5 f   libcpmt:_toupper.obj
 0001:0007eeb3       ??0_Locimp@locale@std@@AAE@_N@Z 1007feb3 f i libcpmt:locale0.obj
 0001:0007eef4       ??1_Fac_node@std@@QAE@XZ   1007fef4 f i libcpmt:locale0.obj
 0001:0007ef53       ??1_Fac_tidy_reg_t@std@@QAE@XZ 1007ff53 f i libcpmt:locale0.obj
 0001:0007ef7a       ??1_Locimp@locale@std@@MAE@XZ 1007ff7a f i libcpmt:locale0.obj
 0001:0007efd3       ??4?$_Yarn@D@std@@QAEAAV01@PBD@Z 1007ffd3 f i libcpmt:locale0.obj
 0001:0007f027       ??_E_Locimp@locale@std@@MAEPAXI@Z 10080027 f i libcpmt:locale0.obj
 0001:0007f027       ??_G_Locimp@locale@std@@MAEPAXI@Z 10080027 f i libcpmt:locale0.obj
 0001:0007f049       ?_Facet_Register@std@@YAXPAV_Facet_base@1@@Z 10080049 f   libcpmt:locale0.obj
 0001:0007f075       ?_Getgloballocale@locale@std@@CAPAV_Locimp@12@XZ 10080075 f   libcpmt:locale0.obj
 0001:0007f07b       ?_Init@locale@std@@CAPAV_Locimp@12@_N@Z 1008007b f   libcpmt:locale0.obj
 0001:0007f10b       ?_Locimp_dtor@_Locimp@locale@std@@CAXPAV123@@Z 1008010b f   libcpmt:locale0.obj
 0001:0007f182       ?_Locinfo_ctor@_Locinfo@std@@SAXPAV12@PBD@Z 10080182 f   libcpmt:locale0.obj
 0001:0007f1cd       ?_Locinfo_dtor@_Locinfo@std@@SAXPAV12@@Z 100801cd f   libcpmt:locale0.obj
 0001:0007f1e7       ?_New_Locimp@_Locimp@locale@std@@CAPAV123@_N@Z 100801e7 f   libcpmt:locale0.obj
 0001:0007f20a       ?_Setgloballocale@locale@std@@CAXPAX@Z 1008020a f   libcpmt:locale0.obj
 0001:0007f232       __Deletegloballocale       10080232 f   libcpmt:locale0.obj
 0001:0007f297       ?_Execute_once@std@@YAHAAUonce_flag@1@P6GHPAX1PAPAX@Z1@Z 10080297 f   libcpmt:xonce.obj
 0001:0007f2af       ?_Syserror_map@std@@YAPBDH@Z 100802af f   libcpmt:syserror.obj
 0001:0007f2d4       ?_Addstd@ios_base@std@@SAXPAV12@@Z 100802d4 f   libcpmt:ios.obj
 0001:0007f320       ?_Callfns@ios_base@std@@AAEXW4event@12@@Z 10080320 f i libcpmt:ios.obj
 0001:0007f353       ?_Ios_base_dtor@ios_base@std@@CAXPAV12@@Z 10080353 f   libcpmt:ios.obj
 0001:0007f393       ?_Tidy@ios_base@std@@AAEXXZ 10080393 f i libcpmt:ios.obj
 0001:0007f3db       ??$_Xfiopen@D@std@@YAPAU_iobuf@@PBDHH@Z 100803db f i libcpmt:fiopen.obj
 0001:0007f47b       ?_Fiopen@std@@YAPAU_iobuf@@PBDHH@Z 1008047b f   libcpmt:fiopen.obj
 0001:0007f484       ?_Xfsopen@std@@YAPAU_iobuf@@PBDHH@Z 10080484 f   libcpmt:fiopen.obj
 0001:0007f4a1       ?_Random_device@std@@YAIXZ 100804a1 f   libcpmt:xrngdev.obj
 0001:0007f4c3       __Xtime_diff_to_millis2    100804c3 f   libcpmt:xtime.obj
 0001:0007f503       __Xtime_get_ticks          10080503 f   libcpmt:xtime.obj
 0001:0007f5dd       _xtime_get                 100805dd f   libcpmt:xtime.obj
 0001:0007f622       __Thrd_sleep               10080622 f   libcpmt:cthread.obj
 0001:0007f693       ??0?$basic_ostream@DU?$char_traits@D@std@@@std@@QAE@PAV?$basic_streambuf@DU?$char_traits@D@std@@@1@_N@Z 10080693 f i libcpmt:cout.obj
 0001:0007f6fa       ??0?$basic_streambuf@DU?$char_traits@D@std@@@std@@IAE@XZ 100806fa f i libcpmt:cout.obj
 0001:0007f741       ??0_Init_cout@std@@QAE@XZ  10080741 f i libcpmt:cout.obj
 0001:0007f79a       ??_D?$basic_ostream@DU?$char_traits@D@std@@@std@@QAEXXZ 1008079a f i libcpmt:cout.obj
 0001:0007f7f8       ?_Init@ios_base@std@@IAEXXZ 100807f8 f i libcpmt:cout.obj
 0001:0007f85e       ?init@?$basic_ios@DU?$char_traits@D@std@@@std@@IAEXPAV?$basic_streambuf@DU?$char_traits@D@std@@@2@_N@Z 1008085e f i libcpmt:cout.obj
 0001:0007f8a7       __Getcvt                   100808a7 f   libcpmt:xwctomb.obj
 0001:0007f91a       ?setprecision@std@@YA?AU?$_Smanip@_J@1@_J@Z 1008091a f   libcpmt:iomanip.obj
 0001:0007f948       __Mtxdst                   10080948 f   libcpmt:xmtx.obj
 0001:0007f956       __Mtxinit                  10080956 f   libcpmt:xmtx.obj
 0001:0007f96d       __Mtxlock                  1008096d f   libcpmt:xmtx.obj
 0001:0007f97b       __Mtxunlock                1008097b f   libcpmt:xmtx.obj
 0001:0007f989       ___crtLCMapStringA         10080989 f   libcpmt:StlLCMapStringA.obj
 0001:0007fb5e       __freea_crt                10080b5e f i libcpmt:StlLCMapStringA.obj
 0001:0007fb7c       ??1_Init_atexit@@QAE@XZ    10080b7c f i libcpmt:iosptrs.obj
 0001:0007fbdf       ?_Atexit@@YAXP6AXXZ@Z      10080bdf f   libcpmt:iosptrs.obj
 0001:0007ffb7       ___crtGetSystemTimePreciseAsFileTime 10080fb7 f   libcpmt:winapisupp.obj
 0001:0007ffe1       ___crtInitOnceExecuteOnce  10080fe1 f   libcpmt:winapisupp.obj
 0001:0008006f       ___crtInitializeCriticalSectionEx 1008106f f   libcpmt:winapisupp.obj
 0001:000800a8       _GetTableIndexFromLocaleName 100810a8 f   libcpmt:winapinls.obj
 0001:000800f6       ___crtDownlevelLocaleNameToLCID 100810f6 f   libcpmt:winapinls.obj
 0001:00080120       ___crtLCMapStringEx        10081120 f   libcpmt:winapinls.obj
 0001:00080177       ___wcsnicmp_ascii          10081177 f   libcpmt:winapinls.obj
 0001:000801df       ??2@YAPAXI@Z               100811df f   LIBCMT:new_scalar.obj
 0001:0008020f       ??3@YAXPAXI@Z              1008120f f   LIBCMT:delete_scalar_size.obj
 0001:0008021d       ??_U@YAPAXI@Z              1008121d f   LIBCMT:new_array.obj
 0001:00080226       ??_V@YAXPAX@Z              10081226 f   LIBCMT:delete_array.obj
 0001:0008022b       @__security_check_cookie@4 1008122b f   LIBCMT:secchk.obj
 0001:0008023c       ??_Etype_info@@UAEPAXI@Z   1008123c f i LIBCMT:std_type_info_static.obj
 0001:0008023c       ??_Gtype_info@@UAEPAXI@Z   1008123c f i LIBCMT:std_type_info_static.obj
 0001:00080286       ??$__crt_fast_encode_pointer@PAP6AXXZ@@YAPAP6AXXZQAP6AXXZ@Z 10081286 f i LIBCMT:utility.obj
 0001:00080286       ??$__crt_fast_encode_pointer@P6GXPAU_RTL_CONDITION_VARIABLE@@@Z@@YAP6GXPAU_RTL_CONDITION_VARIABLE@@@ZQ6GX0@Z@Z 10081286 f i LIBCMT:thread_safe_statics.obj
 0001:00080286       ??$__crt_fast_encode_pointer@PAX@@YAPAXQAX@Z 10081286 f i libvcruntime:winapi_downlevel.obj
 0001:00080286       ??$__crt_fast_encode_pointer@P6GHPAU_RTL_CONDITION_VARIABLE@@PAU_RTL_CRITICAL_SECTION@@K@Z@@YAP6GHPAU_RTL_CONDITION_VARIABLE@@PAU_RTL_CRITICAL_SECTION@@K@ZQ6GH01K@Z@Z 10081286 f i LIBCMT:thread_safe_statics.obj
 0001:000803ae       __Init_thread_abort        100813ae f   LIBCMT:thread_safe_statics.obj
 0001:000803d2       __Init_thread_footer       100813d2 f   LIBCMT:thread_safe_statics.obj
 0001:0008041c       __Init_thread_header       1008141c f   LIBCMT:thread_safe_statics.obj
 0001:0008046e       __Init_thread_notify       1008146e f   LIBCMT:thread_safe_statics.obj
 0001:000804b0       __Init_thread_wait         100814b0 f   LIBCMT:thread_safe_statics.obj
 0001:00080510       __alloca_probe             10081510 f   LIBCMT:chkstk.obj
 0001:00080510       __chkstk                   10081510 f   LIBCMT:chkstk.obj
 0001:0008053d       ??_L@YGXPAXIIP6EX0@Z1@Z    1008153d f   LIBCMT:ehvecctr.obj
 0001:000805b1       ??_M@YGXPAXIIP6EX0@Z@Z     100815b1 f   LIBCMT:ehvecdtr.obj
 0001:00080636       ?__ArrayUnwind@@YGXPAXIIP6EX0@Z@Z 10081636 f   LIBCMT:ehvecdtr.obj
 0001:000806f3       ___scrt_acquire_startup_lock 100816f3 f   LIBCMT:utility.obj
 0001:00080725       ___scrt_dllmain_after_initialize_c 10081725 f   LIBCMT:utility.obj
 0001:00080750       ___scrt_dllmain_before_initialize_c 10081750 f   LIBCMT:utility.obj
 0001:0008075e       ___scrt_dllmain_crt_thread_attach 1008175e f   LIBCMT:utility.obj
 0001:0008077d       ___scrt_dllmain_crt_thread_detach 1008177d f   LIBCMT:utility.obj
 0001:0008078a       ___scrt_dllmain_exception_filter 1008178a f   LIBCMT:utility.obj
 0001:000807be       ___scrt_dllmain_uninitialize_c 100817be f   LIBCMT:utility.obj
 0001:000807e1       ___scrt_dllmain_uninitialize_critical 100817e1 f   LIBCMT:utility.obj
 0001:000807ee       ___scrt_initialize_crt     100817ee f   LIBCMT:utility.obj
 0001:00080827       ___scrt_initialize_onexit_tables 10081827 f   LIBCMT:utility.obj
 0001:000808cc       ___scrt_is_nonwritable_in_current_image 100818cc f   LIBCMT:utility.obj
 0001:00080960       ___scrt_release_startup_lock 10081960 f   LIBCMT:utility.obj
 0001:0008097d       ___scrt_uninitialize_crt   1008197d f   LIBCMT:utility.obj
 0001:000809a5       __onexit                   100819a5 f   LIBCMT:utility.obj
 0001:000809e0       _atexit                    100819e0 f   LIBCMT:utility.obj
 0001:000809f5       ___raise_securityfailure   100819f5 f   LIBCMT:gs_report.obj
 0001:00080a1d       ___report_gsfailure        10081a1d f   LIBCMT:gs_report.obj
 0001:00080b16       ___report_rangecheckfailure 10081b16 f   LIBCMT:gs_report.obj
 0001:00080b22       ___report_securityfailure  10081b22 f   LIBCMT:gs_report.obj
 0001:00080bf0       __alloca_probe_16          10081bf0 f   LIBCMT:alloca16.obj
 0001:00080c06       __alloca_probe_8           10081c06     LIBCMT:alloca16.obj
 0001:00080c20       __ftoui3                   10081c20 f   LIBCMT:ftol3.obj
 0001:00080c2f       __ftoul3                   10081c2f f   LIBCMT:ftol3.obj
 0001:00080c3e       __ftol3                    10081c3e f   LIBCMT:ftol3.obj
 0001:00080c4b       __ftol3_NaN                10081c4b f   LIBCMT:ftol3.obj
 0001:00080c63       __ftol3_work               10081c63 f   LIBCMT:ftol3.obj
 0001:00080ce9       __ftol3_common             10081ce9 f   LIBCMT:ftol3.obj
 0001:00080dab       __ftol3_arg_error          10081dab f   LIBCMT:ftol3.obj
 0001:00080dbd       __ftol3_except             10081dbd f   LIBCMT:ftol3.obj
 0001:00080e01       __dtoui3                   10081e01 f   LIBCMT:ftol3.obj
 0001:00080e10       __dtoul3                   10081e10 f   LIBCMT:ftol3.obj
 0001:00080e1f       __dtol3                    10081e1f f   LIBCMT:ftol3.obj
 0001:00080e2c       __dtol3_NaN                10081e2c f   LIBCMT:ftol3.obj
 0001:00080e49       __dtol3_work               10081e49 f   LIBCMT:ftol3.obj
 0001:00080f30       __ultod3                   10081f30 f   LIBCMT:ftol3.obj
 0001:00080f70       __ltod3                    10081f70 f   LIBCMT:ftol3.obj
 0001:00080fa0       __allmul                   10081fa0 f   LIBCMT:llmul.obj
 0001:00080ff0       __ftol2_sse                10081ff0 f   LIBCMT:ftol2.obj
 0001:00080ff9       __ftol2_pentium4           10081ff9 f   LIBCMT:ftol2.obj
 0001:0008100c       __ftol2_sse_excpt          1008200c f   LIBCMT:ftol2.obj
 0001:00081030       __ftol2                    10082030 f   LIBCMT:ftol2.obj
 0001:000810b0       __alldiv                   100820b0 f   LIBCMT:lldiv.obj
 0001:00081160       __aulldiv                  10082160 f   LIBCMT:ulldiv.obj
 0001:000811d0       __alldvrm                  100821d0 f   LIBCMT:lldvrm.obj
 0001:000815cf       __DllMainCRTStartup@12     100825cf f   LIBCMT:dll_dllmain.obj
 0001:000815f2       ??3@YAXPAX@Z               100825f2 f   LIBCMT:delete_scalar.obj
 0001:000815f7       __EH_epilog3               100825f7 f   LIBCMT:ehprolg3.obj
 0001:0008160c       __EH_epilog3_GS            1008260c f   LIBCMT:ehprolg3.obj
 0001:0008161d       __EH_prolog3               1008261d f   LIBCMT:ehprolg3.obj
 0001:00081651       __EH_prolog3_GS            10082651 f   LIBCMT:ehprolg3.obj
 0001:00081688       __EH_prolog3_catch         10082688 f   LIBCMT:ehprolg3.obj
 0001:000816c0       __aulldvrm                 100826c0 f   LIBCMT:ulldvrm.obj
 0001:00081755       ??0bad_array_new_length@std@@QAE@ABV01@@Z 10082755 f i LIBCMT:throw_bad_alloc.obj
 0001:00081770       ??0bad_array_new_length@std@@QAE@XZ 10082770 f i LIBCMT:throw_bad_alloc.obj
 0001:00081788       ?__scrt_throw_std_bad_array_new_length@@YAXXZ 10082788 f   LIBCMT:throw_bad_alloc.obj
 0001:000817a5       ___scrt_fastfail           100827a5 f   LIBCMT:utility_desktop.obj
 0001:000818bf       __crt_debugger_hook        100828bf f   LIBCMT:utility_desktop.obj
 0001:000818d0       __SEH_prolog4              100828d0 f   LIBCMT:sehprolg4.obj
 0001:00081916       __SEH_epilog4              10082916 f   LIBCMT:sehprolg4.obj
 0001:0008192b       ___isa_available_init      1008292b f   LIBCMT:cpu_disp.obj
 0001:00081ac2       __get_startup_argv_mode    10082ac2 f   LIBCMT:argv_mode.obj
 0001:00081ac6       ___scrt_is_ucrt_dll_in_use 10082ac6 f   LIBCMT:ucrt_detection.obj
 0001:00081b1f       ___security_init_cookie    10082b1f f   LIBCMT:gs_support.obj
 0001:00081b6a       ?__scrt_initialize_type_info@@YAXXZ 10082b6a f   LIBCMT:tncleanup.obj
 0001:00081b76       ?__scrt_uninitialize_type_info@@YAXXZ 10082b76 f   LIBCMT:tncleanup.obj
 0001:00081b82       ___scrt_initialize_default_local_stdio_options 10082b82 f   LIBCMT:default_local_stdio_options.obj
 0001:00081b9f       ___scrt_get_dyn_tls_init_callback 10082b9f f   LIBCMT:dyn_tls_init.obj
 0001:00081ba5       __RTC_Initialize           10082ba5 f   LIBCMT:initsect.obj
 0001:00081bd1       __RTC_Terminate            10082bd1 f   LIBCMT:initsect.obj
 0001:00081c00       ??0_com_error@@QAE@ABV0@@Z 10082c00 f i comsuppw:comraise.obj
 0001:00081c40       ??0_com_error@@QAE@JPAUIErrorInfo@@_N@Z 10082c40 f i comsuppw:comraise.obj
 0001:00081c90       ??1_com_error@@UAE@XZ      10082c90 f i comsuppw:comraise.obj
 0001:00081cd0       ??_E_com_error@@UAEPAXI@Z  10082cd0 f i comsuppw:comraise.obj
 0001:00081cd0       ??_G_com_error@@UAEPAXI@Z  10082cd0 f i comsuppw:comraise.obj
 0001:00081d20       ?_com_raise_error@@YGXJPAUIErrorInfo@@@Z 10082d20 f   comsuppw:comraise.obj
 0001:00081d45       _URLDownloadToFileA@20     10082d45 f   urlmon:urlmon.dll
 0001:00081d4b       _ImmGetContext@4           10082d4b f   imm32:IMM32.dll
 0001:00081d51       _ImmReleaseContext@8       10082d51 f   imm32:IMM32.dll
 0001:00081d57       _ImmSetCompositionWindow@8 10082d57 f   imm32:IMM32.dll
 0001:00081d5d       _Direct3DCreate9@4         10082d5d f   d3d9:d3d9.dll
 0001:00081d63       ??1_NonReentrantBlockingLock@details@Concurrency@@QAE@XZ 10082d63 f   libconcrt:rtlocks.obj
 0001:00081d6b       ??1DefaultWaiterPool@platform@details@Concurrency@@QAE@XZ 10082d6b f i libconcrt:Platform.obj
 0001:00081d90       ??1WaiterThreadPool@platform@details@Concurrency@@QAE@XZ 10082d90 f i libconcrt:Platform.obj
 0001:00081db2       ?__TlsFree@platform@details@Concurrency@@YAXK@Z 10082db2 f   libconcrt:Platform.obj
 0001:00081dc0       ?notify@WaiterThread@platform@details@Concurrency@@AAEX_N@Z 10082dc0 f i libconcrt:Platform.obj
 0001:00081df4       __concrt_static_cleanup    10082df4 f   libconcrt:utils.obj
 0001:00081e02       ?InitializeCookie@Security@details@Concurrency@@SAKXZ 10082e02 f   libconcrt:utils.obj
 0001:00081e4e       __vfwprintf_l              10082e4e f i libconcrt:utils.obj
 0001:00081e71       _fwprintf                  10082e71 f i libconcrt:utils.obj
 0001:00081e8a       ?CheckOneShotStaticDestruction@SchedulerBase@details@Concurrency@@SAXXZ 10082e8a f   libconcrt:SchedulerBase.obj
 0001:00081eb0       ?OneShotStaticDestruction@SchedulerBase@details@Concurrency@@CAXXZ 10082eb0 f   libconcrt:SchedulerBase.obj
 0001:00081ec9       ?OneShotStaticDestruction@UMSThreadScheduler@details@Concurrency@@SAXXZ 10082ec9 f   libconcrt:UMSThreadScheduler.obj
 0001:00081edd       __get_purecall_handler     10082edd f   libvcruntime:purevirt.obj
 0001:00081ef2       __purecall                 10082ef2 f   libvcruntime:purevirt.obj
 0001:00081f0e       ___DestructExceptionObject 10082f0e f   libvcruntime:ehhelpers.obj
 0001:00081fae       ?_CallMemberFunction0@@YGXQAX0@Z 10082fae f i libvcruntime:ehhelpers.obj
 0001:00081fbb       __IsExceptionObjectToBeDestroyed 10082fbb f   libvcruntime:ehhelpers.obj
 0001:00081fe1       ___AdjustPointer           10082fe1 f   libvcruntime:ehhelpers.obj
 0001:00082006       ___FrameUnwindFilter       10083006 f   libvcruntime:ehhelpers.obj
 0001:0008204b       ___std_terminate           1008304b f   libvcruntime:ehhelpers.obj
 0001:00082050       ___std_exception_copy      10083050 f   libvcruntime:std_exception.obj
 0001:000820b3       ___std_exception_destroy   100830b3 f   libvcruntime:std_exception.obj
 0001:000820d2       __CxxThrowException@8      100830d2 f   libvcruntime:throw.obj
 0001:0008213f       ?GetRangeOfTrysToCheck@__FrameHandler3@@SA?AU?$pair@Viterator@TryBlockMap@__FrameHandler3@@V123@@std@@AAVTryBlockMap@1@HH@Z 1008313f f   libvcruntime:trnsctrl.obj
 0001:000821c1       ?_CallCatchBlock2@@YAPAXPAUEHRegistrationNode@@PBU_s_FuncInfo@@PAXHK@Z 100831c1 f   libvcruntime:trnsctrl.obj
 0001:0008221f       ?_CallSETranslator@@YAHPAUEHExceptionRecord@@PAUEHRegistrationNode@@PAX2PBU_s_FuncInfo@@H1@Z 1008321f f   libvcruntime:trnsctrl.obj
 0001:000822fa       ?_JumpToContinuation@@YGXPAXPAUEHRegistrationNode@@@Z 100832fa f   libvcruntime:trnsctrl.obj
 0001:0008232a       ?_UnwindNestedFrames@@YGXPAUEHRegistrationNode@@PAUEHExceptionRecord@@@Z 1008332a f   libvcruntime:trnsctrl.obj
 0001:0008237d       __CatchGuardHandler        1008337d f   libvcruntime:trnsctrl.obj
 0001:000823ae       __CreateFrameInfo          100833ae f   libvcruntime:trnsctrl.obj
 0001:000823d2       __FindAndUnlinkFrame       100833d2 f   libvcruntime:trnsctrl.obj
 0001:00082417       __TranslatorGuardHandler   10083417 f   libvcruntime:trnsctrl.obj
 0001:000824b4       ___CxxFrameHandler3        100834b4 f   libvcruntime:trnsctrl.obj
 0001:000824f0       _memcpy                    100834f0 f   libvcruntime:memcpy.obj
 0001:00082a70       _memmove                   10083a70 f   libvcruntime:memmove.obj
 0001:00082ff0       _memset                    10083ff0 f   libvcruntime:memset.obj
 0001:00083150       _strstr                    10084150 f   libvcruntime:strstr.obj
 0001:000833c0       _memchr                    100843c0 f   libvcruntime:memchr.obj
 0001:00083470       _strchr                    10084470 f   libvcruntime:strchr.obj
 0001:000834de       ___from_strstr_to_strchr   100844de     libvcruntime:strchr.obj
 0001:000835a0       __global_unwind2           100845a0 f   libvcruntime:exsup.obj
 0001:00083606       __local_unwind2            10084606 f   libvcruntime:exsup.obj
 0001:0008368a       __abnormal_termination     1008468a f   libvcruntime:exsup.obj
 0001:000836b0       __NLG_Notify1              100846b0 f   libvcruntime:exsup.obj
 0001:000836bc       __NLG_Notify               100846bc f   libvcruntime:exsup.obj
 0001:000836d3       __NLG_Dispatch             100846d3     libvcruntime:exsup.obj
 0001:000836d3       __NLG_Dispatch2            100846d3     libvcruntime:exsup.obj
 0001:000836db       __NLG_Call                 100846db f   libvcruntime:exsup.obj
 0001:000836dd       __NLG_Return2              100846dd     libvcruntime:exsup.obj
 0001:000836e8       __except_handler3          100846e8 f   libvcruntime:exsup3.obj
 0001:000837f4       __seh_longjmp_unwind@4     100847f4 f   libvcruntime:exsup3.obj
 0001:0008381b       _memcmp                    1008481b f   libvcruntime:memcmp.obj
 0001:000847bf       ___uncaught_exception      100857bf f   libvcruntime:uncaught_exception.obj
 0001:00084820       __except_handler4          10085820 f   libvcruntime:chandler4.obj
 0001:00084977       ___vcrt_initialize         10085977 f   libvcruntime:initialization.obj
 0001:000849a0       ___vcrt_thread_attach      100859a0 f   libvcruntime:initialization.obj
 0001:000849ab       ___vcrt_thread_detach      100859ab f   libvcruntime:initialization.obj
 0001:000849b6       ___vcrt_uninitialize       100859b6 f   libvcruntime:initialization.obj
 0001:000849d5       ___vcrt_uninitialize_critical 100859d5 f   libvcruntime:initialization.obj
 0001:000849dd       ___std_type_info_compare   100859dd f   libvcruntime:std_type_info.obj
 0001:00084a19       ___std_type_info_destroy_list 10085a19 f   libvcruntime:std_type_info.obj
 0001:00084a3c       ___vcrt_initialize_pure_virtual_call_handler 10085a3c f   libvcruntime:purevirt_data.obj
 0001:00084a47       ___vcrt_freefls@4          10085a47 f   libvcruntime:per_thread_data.obj
 0001:00084a63       ___vcrt_freeptd            10085a63 f   libvcruntime:per_thread_data.obj
 0001:00084a99       ___vcrt_getptd             10085a99 f   libvcruntime:per_thread_data.obj
 0001:00084aa7       ___vcrt_getptd_noexit      10085aa7 f   libvcruntime:per_thread_data.obj
 0001:00084b39       ___vcrt_getptd_noinit      10085b39 f   libvcruntime:per_thread_data.obj
 0001:00084b70       ___vcrt_initialize_ptd     10085b70 f   libvcruntime:per_thread_data.obj
 0001:00084ba3       ___vcrt_uninitialize_ptd   10085ba3 f   libvcruntime:per_thread_data.obj
 0001:000852b5       ??$TypeMatchHelper@V__FrameHandler3@@@@YAHPBU_s_HandlerType@@PBU_s_CatchableType@@PBU_s_ThrowInfo@@@Z 100862b5 f i libvcruntime:frame.obj
 0001:00085343       ??$__InternalCxxFrameHandler@V__FrameHandler3@@@@YA?AW4_EXCEPTION_DISPOSITION@@PAUEHExceptionRecord@@PAUEHRegistrationNode@@PAU_CONTEXT@@PAXPBU_s_FuncInfo@@H1E@Z 10086343 f i libvcruntime:frame.obj
 0001:00085445       ??0bad_exception@std@@QAE@ABV01@@Z 10086445 f i libvcruntime:frame.obj
 0001:00085460       ??0bad_exception@std@@QAE@XZ 10086460 f i libvcruntime:frame.obj
 0001:00085478       ??8type_info@@QBE_NABV0@@Z 10086478 f i libvcruntime:frame.obj
 0001:000856df       ?FrameUnwindToEmptyState@__FrameHandler3@@SAXPAUEHRegistrationNode@@PAXPBU_s_FuncInfo@@@Z 100866df f   libvcruntime:frame.obj
 0001:000856f7       ?FrameUnwindToState@__FrameHandler3@@SAXPAUEHRegistrationNode@@PAXPBU_s_FuncInfo@@H@Z 100866f7 f   libvcruntime:frame.obj
 0001:00085879       ?_CallMemberFunction1@@YGXQAX00@Z 10086879 f i libvcruntime:frame.obj
 0001:00085889       ?_CallMemberFunction2@@YGXQAX00H@Z 10086889 f i libvcruntime:frame.obj
 0001:0008589c       ?getESTypes@__FrameHandler3@@SAPBU_s_ESTypeList@@PBU_s_FuncInfo@@@Z 1008689c f i libvcruntime:frame.obj
 0001:000858b0       __CallSettingFrame@12      100868b0 f   libvcruntime:lowhelpr.obj
 0001:000858d7       __NLG_Return               100868d7     libvcruntime:lowhelpr.obj
 0001:000858fc       ___except_validate_context_record 100868fc f   libvcruntime:jbcxrval.obj
 0001:0008592c       ___except_validate_jump_buffer 1008692c f   libvcruntime:jbcxrval.obj
 0001:00085959       _CallDestructExceptionObject 10086959 f   libvcruntime:calldtor.obj
 0001:00085a60       __ValidateEH3RN            10086a60 f   libvcruntime:eh3valid.obj
 0001:00085dd0       __local_unwind4            10086dd0 f   libvcruntime:exsup4.obj
 0001:00085ea8       __seh_longjmp_unwind4@4    10086ea8 f   libvcruntime:exsup4.obj
 0001:00085ed0       @_EH4_CallFilterFunc@8     10086ed0 f   libvcruntime:exsup4.obj
 0001:00085ee8       @_EH4_TransferToHandler@8  10086ee8 f   libvcruntime:exsup4.obj
 0001:00085f04       @_EH4_GlobalUnwind2@8      10086f04 f   libvcruntime:exsup4.obj
 0001:00085f20       @_EH4_LocalUnwind@16       10086f20 f   libvcruntime:exsup4.obj
 0001:00085f37       ___vcrt_initialize_locks   10086f37 f   libvcruntime:locks.obj
 0001:00085f73       ___vcrt_uninitialize_locks 10086f73 f   libvcruntime:locks.obj
 0001:000860d5       ___vcrt_FlsAlloc           100870d5 f   libvcruntime:winapi_downlevel.obj
 0001:00086110       ___vcrt_FlsFree            10087110 f   libvcruntime:winapi_downlevel.obj
 0001:0008614b       ___vcrt_FlsGetValue        1008714b f   libvcruntime:winapi_downlevel.obj
 0001:00086186       ___vcrt_FlsSetValue        10087186 f   libvcruntime:winapi_downlevel.obj
 0001:000861c4       ___vcrt_InitializeCriticalSectionEx 100871c4 f   libvcruntime:winapi_downlevel.obj
 0001:0008620b       ___vcrt_initialize_winapi_thunks 1008720b f   libvcruntime:winapi_downlevel.obj
 0001:00086234       ___vcrt_uninitialize_winapi_thunks 10087234 f   libvcruntime:winapi_downlevel.obj
 0001:00086266       _unexpected                10087266 f   libvcruntime:unexpected.obj
 0001:00086283       ?GetCurrentState@__FrameHandler3@@SAHPAUEHRegistrationNode@@PAXPBU_s_FuncInfo@@@Z 10087283 f   libvcruntime:ehstate.obj
 0001:000862a0       ?SetState@__FrameHandler3@@SAXPAUEHRegistrationNode@@PBU_s_FuncInfo@@H@Z 100872a0 f   libvcruntime:ehstate.obj
 0001:000862ae       ___acrt_call_reportfault   100872ae f   libucrt:invalid_parameter.obj
 0001:000863e7       ___acrt_initialize_invalid_parameter_handler 100873e7 f   libucrt:invalid_parameter.obj
 0001:000863f6       __invalid_parameter        100873f6 f   libucrt:invalid_parameter.obj
 0001:0008645a       __invalid_parameter_noinfo 1008745a f   libucrt:invalid_parameter.obj
 0001:0008646a       __invalid_parameter_noinfo_noreturn 1008746a f   libucrt:invalid_parameter.obj
 0001:00086487       __invoke_watson            10087487 f   libucrt:invalid_parameter.obj
 0001:000864bb       ??0_LocaleUpdate@@QAE@QAU__crt_locale_pointers@@@Z 100874bb f i libucrt:stricmp.obj
 0001:0008653e       ??1_LocaleUpdate@@QAE@XZ   1008753e f i libucrt:stricmp.obj
 0001:0008654e       ___ascii_stricmp           1008754e f   libucrt:stricmp.obj
 0001:00086587       __stricmp                  10087587 f   libucrt:stricmp.obj
 0001:000865d0       __stricmp_l                100875d0 f   libucrt:stricmp.obj
 0001:0008665e       _free                      1008765e f   libucrt:free.obj
 0001:00086679       _realloc                   10087679 f   libucrt:realloc.obj
 0001:00086684       ___acrt_initialize_stdio   10087684 f   libucrt:_file.obj
 0001:0008674c       ___acrt_iob_func           1008774c f   libucrt:_file.obj
 0001:0008675c       ___acrt_uninitialize_stdio 1008775c f   libucrt:_file.obj
 0001:000867a8       __get_stream_buffer_pointers 100877a8 f   libucrt:_file.obj
 0001:000867ee       __lock_file                100877ee f   libucrt:_file.obj
 0001:00086802       __unlock_file              10087802 f   libucrt:_file.obj
 0001:00086816       __fclose_nolock            10087816 f   libucrt:fclose.obj
 0001:0008688d       _fclose                    1008788d f   libucrt:fclose.obj
 0001:00086b4e       ___acrt_stdio_flush_nolock 10087b4e f   libucrt:fflush.obj
 0001:00086bb3       __fflush_nolock            10087bb3 f   libucrt:fflush.obj
 0001:00086bfb       __flushall                 10087bfb f   libucrt:fflush.obj
 0001:00086c04       _fflush                    10087c04 f   libucrt:fflush.obj
 0001:00086c59       __fgetc_nolock             10087c59 f   libucrt:fgetc.obj
 0001:00086c95       _fgetc                     10087c95 f   libucrt:fgetc.obj
 0001:00086d9d       _fgetpos                   10087d9d f   libucrt:fgetpos.obj
 0001:00086df8       __fputc_nolock             10087df8 f   libucrt:fputc.obj
 0001:00086e21       _fputc                     10087e21 f   libucrt:fputc.obj
 0001:00086f2b       __fread_nolock_s           10087f2b f   libucrt:fread.obj
 0001:00087111       _fread                     10088111 f   libucrt:fread.obj
 0001:0008712e       _fread_s                   1008812e f   libucrt:fread.obj
 0001:0008724c       _fsetpos                   1008824c f   libucrt:fsetpos.obj
 0001:00087287       ?LongLongSub@@YAJ_J0PA_J@Z 10088287 f i libucrt:fseek.obj
 0001:00087543       __fseeki64                 10088543 f   libucrt:fseek.obj
 0001:0008755e       _fseek                     1008855e f   libucrt:fseek.obj
 0001:00087617       __fwrite_nolock            10088617 f   libucrt:fwrite.obj
 0001:00087798       _fwrite                    10088798 f   libucrt:fwrite.obj
 0001:00087923       _setvbuf                   10088923 f   libucrt:setvbuf.obj
 0001:000879a5       __ungetc_nolock            100889a5 f   libucrt:ungetc.obj
 0001:00087a9f       _ungetc                    10088a9f f   libucrt:ungetc.obj
 0001:00087b12       _terminate                 10088b12 f   libucrt:terminate.obj
 0001:00087b4e       _roundf                    10088b4e f   libucrt:roundf.obj
 0001:00087ba0       __libm_sse2_cos_precise    10088ba0 f   libucrt:cos_sse2_precise.obj
 0001:00087d60       __libm_sse2_sin_precise    10088d60 f   libucrt:sin_sse2_precise.obj
 0001:00087f30       __libm_sse2_sqrt_precise   10088f30 f   libucrt:sqrt_sse2_precise.obj
 0001:00088030       _floor                     10089030 f   libucrt:floor_pentium4.obj
 0001:00088070       __floor_pentium4           10089070 f   libucrt:floor_pentium4.obj
 0001:0008812d       __fdlog                    1008912d f   libucrt:log2f.obj
 0001:00088287       _log2f                     10089287 f   libucrt:log2f.obj
 0001:000882a0       _ceil                      100892a0 f   libucrt:ceil_pentium4.obj
 0001:000882e0       __ceil_pentium4            100892e0 f   libucrt:ceil_pentium4.obj
 0001:000883c0       __CIatan2                  100893c0 f   libucrt:87ctriga.obj
 0001:000883d0       __libm_sse2_asin_precise   100893d0 f   libucrt:asin_sse2_precise.obj
 0001:00088914       _fmaxf                     10089914 f   libucrt:fmaxf.obj
 0001:00088970       _fminf                     10089970 f   libucrt:fminf.obj
 0001:000889d0       __libm_sse2_pow_precise    100899d0 f   libucrt:pow_sse2_precise.obj
 0001:00089520       ___acrt_errno_from_os_error 1008a520 f   libucrt:errno.obj
 0001:00089563       ___acrt_errno_map_os_error 1008a563 f   libucrt:errno.obj
 0001:00089586       ___doserrno                1008a586 f   libucrt:errno.obj
 0001:00089599       __errno                    1008a599 f   libucrt:errno.obj
 0001:00089c45       ??$count@D@formatting_buffer@__crt_stdio_output@@QBEIXZ 1008ac45 f i libucrt:output.obj
 0001:00089c5d       ??$count@_W@formatting_buffer@__crt_stdio_output@@QBEIXZ 1008ac5d f i libucrt:output.obj
 0001:00089c76       ??$ensure_buffer_is_big_enough@D@formatting_buffer@__crt_stdio_output@@QAE_NI@Z 1008ac76 f i libucrt:output.obj
 0001:00089cf3       ??$ensure_buffer_is_big_enough@_W@formatting_buffer@__crt_stdio_output@@QAE_NI@Z 1008acf3 f i libucrt:output.obj
 0001:00089d71       ??$is_wide_character_specifier@D@__crt_stdio_output@@YA_N_KDW4length_modifier@0@@Z 1008ad71 f i libucrt:output.obj
 0001:00089da2       ??$is_wide_character_specifier@_W@__crt_stdio_output@@YA_N_K_WW4length_modifier@0@@Z 1008ada2 f i libucrt:output.obj
 0001:00089df0       ??$scratch_data@D@formatting_buffer@__crt_stdio_output@@QAEPADXZ 1008adf0 f i libucrt:output.obj
 0001:00089e0e       ??$type_case_integer_parse_into_buffer@I@?$output_processor@DV?$stream_output_adapter@D@__crt_stdio_output@@V?$standard_base@DV?$stream_output_adapter@D@__crt_stdio_output@@@2@@__crt_stdio_output@@AAEXII_N@Z 1008ae0e f i libucrt:output.obj
 0001:00089e0e       ??$type_case_integer_parse_into_buffer@I@?$output_processor@DV?$string_output_adapter@D@__crt_stdio_output@@V?$format_validation_base@DV?$string_output_adapter@D@__crt_stdio_output@@@2@@__crt_stdio_output@@AAEXII_N@Z 1008ae0e f i libucrt:output.obj
 0001:00089e0e       ??$type_case_integer_parse_into_buffer@I@?$output_processor@DV?$string_output_adapter@D@__crt_stdio_output@@V?$standard_base@DV?$string_output_adapter@D@__crt_stdio_output@@@2@@__crt_stdio_output@@AAEXII_N@Z 1008ae0e f i libucrt:output.obj
 0001:00089e81       ??$type_case_integer_parse_into_buffer@I@?$output_processor@_WV?$string_output_adapter@_W@__crt_stdio_output@@V?$standard_base@_WV?$string_output_adapter@_W@__crt_stdio_output@@@2@@__crt_stdio_output@@AAEXII_N@Z 1008ae81 f i libucrt:output.obj
 0001:00089e81       ??$type_case_integer_parse_into_buffer@I@?$output_processor@_WV?$stream_output_adapter@_W@__crt_stdio_output@@V?$standard_base@_WV?$stream_output_adapter@_W@__crt_stdio_output@@@2@@__crt_stdio_output@@AAEXII_N@Z 1008ae81 f i libucrt:output.obj
 0001:00089f08       ??$type_case_integer_parse_into_buffer@_K@?$output_processor@DV?$string_output_adapter@D@__crt_stdio_output@@V?$format_validation_base@DV?$string_output_adapter@D@__crt_stdio_output@@@2@@__crt_stdio_output@@AAEX_KI_N@Z 1008af08 f i libucrt:output.obj
 0001:00089f08       ??$type_case_integer_parse_into_buffer@_K@?$output_processor@DV?$string_output_adapter@D@__crt_stdio_output@@V?$standard_base@DV?$string_output_adapter@D@__crt_stdio_output@@@2@@__crt_stdio_output@@AAEX_KI_N@Z 1008af08 f i libucrt:output.obj
 0001:00089f08       ??$type_case_integer_parse_into_buffer@_K@?$output_processor@DV?$stream_output_adapter@D@__crt_stdio_output@@V?$standard_base@DV?$stream_output_adapter@D@__crt_stdio_output@@@2@@__crt_stdio_output@@AAEX_KI_N@Z 1008af08 f i libucrt:output.obj
 0001:00089f96       ??$type_case_integer_parse_into_buffer@_K@?$output_processor@_WV?$stream_output_adapter@_W@__crt_stdio_output@@V?$standard_base@_WV?$stream_output_adapter@_W@__crt_stdio_output@@@2@@__crt_stdio_output@@AAEX_KI_N@Z 1008af96 f i libucrt:output.obj
 0001:00089f96       ??$type_case_integer_parse_into_buffer@_K@?$output_processor@_WV?$string_output_adapter@_W@__crt_stdio_output@@V?$standard_base@_WV?$string_output_adapter@_W@__crt_stdio_output@@@2@@__crt_stdio_output@@AAEX_KI_N@Z 1008af96 f i libucrt:output.obj
 0001:0008a038       ??$write_multiple_characters@V?$stream_output_adapter@D@__crt_stdio_output@@D@__crt_stdio_output@@YAXABV?$stream_output_adapter@D@0@DHQAH@Z 1008b038 f i libucrt:output.obj
 0001:0008a073       ??$write_multiple_characters@V?$stream_output_adapter@_W@__crt_stdio_output@@D@__crt_stdio_output@@YAXABV?$stream_output_adapter@_W@0@DHQAH@Z 1008b073 f i libucrt:output.obj
 0001:0008a0b3       ??$write_multiple_characters@V?$string_output_adapter@D@__crt_stdio_output@@D@__crt_stdio_output@@YAXABV?$string_output_adapter@D@0@DHQAH@Z 1008b0b3 f i libucrt:output.obj
 0001:0008a0df       ??$write_multiple_characters@V?$string_output_adapter@_W@__crt_stdio_output@@D@__crt_stdio_output@@YAXABV?$string_output_adapter@_W@0@DHQAH@Z 1008b0df f i libucrt:output.obj
 0001:0008a110       ??0?$common_data@D@__crt_stdio_output@@IAE@XZ 1008b110 f i libucrt:output.obj
 0001:0008a155       ??0?$common_data@_W@__crt_stdio_output@@IAE@XZ 1008b155 f i libucrt:output.obj
 0001:0008a19f       ??0?$output_adapter_data@DV?$string_output_adapter@D@__crt_stdio_output@@@__crt_stdio_output@@IAE@ABV?$string_output_adapter@D@1@_KQBDQAU__crt_locale_pointers@@QAD@Z 1008b19f f i libucrt:output.obj
 0001:0008a19f       ??0?$output_adapter_data@DV?$stream_output_adapter@D@__crt_stdio_output@@@__crt_stdio_output@@IAE@ABV?$stream_output_adapter@D@1@_KQBDQAU__crt_locale_pointers@@QAD@Z 1008b19f f i libucrt:output.obj
 0001:0008a1db       ??0?$output_adapter_data@_WV?$string_output_adapter@_W@__crt_stdio_output@@@__crt_stdio_output@@IAE@ABV?$string_output_adapter@_W@1@_KQB_WQAU__crt_locale_pointers@@QAD@Z 1008b1db f i libucrt:output.obj
 0001:0008a1db       ??0?$output_adapter_data@_WV?$stream_output_adapter@_W@__crt_stdio_output@@@__crt_stdio_output@@IAE@ABV?$stream_output_adapter@_W@1@_KQB_WQAU__crt_locale_pointers@@QAD@Z 1008b1db f i libucrt:output.obj
 0001:0008a217       ??1formatting_buffer@__crt_stdio_output@@QAE@XZ 1008b217 f i libucrt:output.obj
 0001:0008a231       ??4?$__crt_unique_heap_ptr@DU__crt_internal_free_policy@@@@QAEAAV0@$$QAV0@@Z 1008b231 f i libucrt:output.obj
 0001:0008a3d3       ?crop_zeroes@__crt_stdio_output@@YAXPADQAU__crt_locale_pointers@@@Z 1008b3d3 f i libucrt:output.obj
 0001:0008a433       ?find_next_state@?$output_processor@DV?$string_output_adapter@D@__crt_stdio_output@@V?$standard_base@DV?$string_output_adapter@D@__crt_stdio_output@@@2@@__crt_stdio_output@@ABE?AW4state@2@DW432@@Z 1008b433 f i libucrt:output.obj
 0001:0008a433       ?find_next_state@?$output_processor@DV?$stream_output_adapter@D@__crt_stdio_output@@V?$standard_base@DV?$stream_output_adapter@D@__crt_stdio_output@@@2@@__crt_stdio_output@@ABE?AW4state@2@DW432@@Z 1008b433 f i libucrt:output.obj
 0001:0008a470       ?find_next_state@?$output_processor@DV?$string_output_adapter@D@__crt_stdio_output@@V?$format_validation_base@DV?$string_output_adapter@D@__crt_stdio_output@@@2@@__crt_stdio_output@@ABE?AW4state@2@DW432@@Z 1008b470 f i libucrt:output.obj
 0001:0008a4b0       ?find_next_state@?$output_processor@_WV?$string_output_adapter@_W@__crt_stdio_output@@V?$standard_base@_WV?$string_output_adapter@_W@__crt_stdio_output@@@2@@__crt_stdio_output@@ABE?AW4state@2@_WW432@@Z 1008b4b0 f i libucrt:output.obj
 0001:0008a4b0       ?find_next_state@?$output_processor@_WV?$stream_output_adapter@_W@__crt_stdio_output@@V?$standard_base@_WV?$stream_output_adapter@_W@__crt_stdio_output@@@2@@__crt_stdio_output@@ABE?AW4state@2@_WW432@@Z 1008b4b0 f i libucrt:output.obj
 0001:0008a4ef       ?force_decimal_point@__crt_stdio_output@@YAXPADQAU__crt_locale_pointers@@@Z 1008b4ef f i libucrt:output.obj
 0001:0008a54b       ?parse_int_from_format_string@?$output_processor@DV?$stream_output_adapter@D@__crt_stdio_output@@V?$standard_base@DV?$stream_output_adapter@D@__crt_stdio_output@@@2@@__crt_stdio_output@@AAE_NQAH@Z 1008b54b f i libucrt:output.obj
 0001:0008a54b       ?parse_int_from_format_string@?$output_processor@DV?$string_output_adapter@D@__crt_stdio_output@@V?$format_validation_base@DV?$string_output_adapter@D@__crt_stdio_output@@@2@@__crt_stdio_output@@AAE_NQAH@Z 1008b54b f i libucrt:output.obj
 0001:0008a54b       ?parse_int_from_format_string@?$output_processor@DV?$string_output_adapter@D@__crt_stdio_output@@V?$standard_base@DV?$string_output_adapter@D@__crt_stdio_output@@@2@@__crt_stdio_output@@AAE_NQAH@Z 1008b54b f i libucrt:output.obj
 0001:0008a5bf       ?parse_int_from_format_string@?$output_processor@_WV?$stream_output_adapter@_W@__crt_stdio_output@@V?$standard_base@_WV?$stream_output_adapter@_W@__crt_stdio_output@@@2@@__crt_stdio_output@@AAE_NQAH@Z 1008b5bf f i libucrt:output.obj
 0001:0008a5bf       ?parse_int_from_format_string@?$output_processor@_WV?$string_output_adapter@_W@__crt_stdio_output@@V?$standard_base@_WV?$string_output_adapter@_W@__crt_stdio_output@@@2@@__crt_stdio_output@@AAE_NQAH@Z 1008b5bf f i libucrt:output.obj
 0001:0008a635       ?process@?$output_processor@DV?$stream_output_adapter@D@__crt_stdio_output@@V?$standard_base@DV?$stream_output_adapter@D@__crt_stdio_output@@@2@@__crt_stdio_output@@QAEHXZ 1008b635 f i libucrt:output.obj
 0001:0008a749       ?process@?$output_processor@DV?$string_output_adapter@D@__crt_stdio_output@@V?$format_validation_base@DV?$string_output_adapter@D@__crt_stdio_output@@@2@@__crt_stdio_output@@QAEHXZ 1008b749 f i libucrt:output.obj
 0001:0008a86d       ?process@?$output_processor@DV?$string_output_adapter@D@__crt_stdio_output@@V?$standard_base@DV?$string_output_adapter@D@__crt_stdio_output@@@2@@__crt_stdio_output@@QAEHXZ 1008b86d f i libucrt:output.obj
 0001:0008a981       ?process@?$output_processor@_WV?$stream_output_adapter@_W@__crt_stdio_output@@V?$standard_base@_WV?$stream_output_adapter@_W@__crt_stdio_output@@@2@@__crt_stdio_output@@QAEHXZ 1008b981 f i libucrt:output.obj
 0001:0008aa9d       ?process@?$output_processor@_WV?$string_output_adapter@_W@__crt_stdio_output@@V?$standard_base@_WV?$string_output_adapter@_W@__crt_stdio_output@@@2@@__crt_stdio_output@@QAEHXZ 1008ba9d f i libucrt:output.obj
 0001:0008abb9       ?state_case_flag@?$output_processor@DV?$stream_output_adapter@D@__crt_stdio_output@@V?$standard_base@DV?$stream_output_adapter@D@__crt_stdio_output@@@2@@__crt_stdio_output@@AAE_NXZ 1008bbb9 f i libucrt:output.obj
 0001:0008abb9       ?state_case_flag@?$output_processor@DV?$string_output_adapter@D@__crt_stdio_output@@V?$format_validation_base@DV?$string_output_adapter@D@__crt_stdio_output@@@2@@__crt_stdio_output@@AAE_NXZ 1008bbb9 f i libucrt:output.obj
 0001:0008abb9       ?state_case_flag@?$output_processor@DV?$string_output_adapter@D@__crt_stdio_output@@V?$standard_base@DV?$string_output_adapter@D@__crt_stdio_output@@@2@@__crt_stdio_output@@AAE_NXZ 1008bbb9 f i libucrt:output.obj
 0001:0008abf6       ?state_case_flag@?$output_processor@_WV?$stream_output_adapter@_W@__crt_stdio_output@@V?$standard_base@_WV?$stream_output_adapter@_W@__crt_stdio_output@@@2@@__crt_stdio_output@@AAE_NXZ 1008bbf6 f i libucrt:output.obj
 0001:0008abf6       ?state_case_flag@?$output_processor@_WV?$string_output_adapter@_W@__crt_stdio_output@@V?$standard_base@_WV?$string_output_adapter@_W@__crt_stdio_output@@@2@@__crt_stdio_output@@AAE_NXZ 1008bbf6 f i libucrt:output.obj
 0001:0008ac33       ?state_case_normal@?$output_processor@DV?$stream_output_adapter@D@__crt_stdio_output@@V?$standard_base@DV?$stream_output_adapter@D@__crt_stdio_output@@@2@@__crt_stdio_output@@AAE_NXZ 1008bc33 f i libucrt:output.obj
 0001:0008ac52       ?state_case_normal@?$output_processor@DV?$string_output_adapter@D@__crt_stdio_output@@V?$standard_base@DV?$string_output_adapter@D@__crt_stdio_output@@@2@@__crt_stdio_output@@AAE_NXZ 1008bc52 f i libucrt:output.obj
 0001:0008ac52       ?state_case_normal@?$output_processor@DV?$string_output_adapter@D@__crt_stdio_output@@V?$format_validation_base@DV?$string_output_adapter@D@__crt_stdio_output@@@2@@__crt_stdio_output@@AAE_NXZ 1008bc52 f i libucrt:output.obj
 0001:0008ac71       ?state_case_normal@?$output_processor@_WV?$stream_output_adapter@_W@__crt_stdio_output@@V?$standard_base@_WV?$stream_output_adapter@_W@__crt_stdio_output@@@2@@__crt_stdio_output@@AAE_NXZ 1008bc71 f i libucrt:output.obj
 0001:0008ac90       ?state_case_normal@?$output_processor@_WV?$string_output_adapter@_W@__crt_stdio_output@@V?$standard_base@_WV?$string_output_adapter@_W@__crt_stdio_output@@@2@@__crt_stdio_output@@AAE_NXZ 1008bc90 f i libucrt:output.obj
 0001:0008acaf       ?state_case_normal_common@?$output_processor@DV?$stream_output_adapter@D@__crt_stdio_output@@V?$standard_base@DV?$stream_output_adapter@D@__crt_stdio_output@@@2@@__crt_stdio_output@@AAE_NXZ 1008bcaf f i libucrt:output.obj
 0001:0008ace9       ?state_case_normal_common@?$output_processor@DV?$string_output_adapter@D@__crt_stdio_output@@V?$standard_base@DV?$string_output_adapter@D@__crt_stdio_output@@@2@@__crt_stdio_output@@AAE_NXZ 1008bce9 f i libucrt:output.obj
 0001:0008ace9       ?state_case_normal_common@?$output_processor@DV?$string_output_adapter@D@__crt_stdio_output@@V?$format_validation_base@DV?$string_output_adapter@D@__crt_stdio_output@@@2@@__crt_stdio_output@@AAE_NXZ 1008bce9 f i libucrt:output.obj
 0001:0008ad13       ?state_case_normal_common@?$output_processor@_WV?$stream_output_adapter@_W@__crt_stdio_output@@V?$standard_base@_WV?$stream_output_adapter@_W@__crt_stdio_output@@@2@@__crt_stdio_output@@AAE_NXZ 1008bd13 f i libucrt:output.obj
 0001:0008ad3d       ?state_case_normal_common@?$output_processor@_WV?$string_output_adapter@_W@__crt_stdio_output@@V?$standard_base@_WV?$string_output_adapter@_W@__crt_stdio_output@@@2@@__crt_stdio_output@@AAE_NXZ 1008bd3d f i libucrt:output.obj
 0001:0008ad58       ?state_case_normal_tchar@?$output_processor@DV?$stream_output_adapter@D@__crt_stdio_output@@V?$standard_base@DV?$stream_output_adapter@D@__crt_stdio_output@@@2@@__crt_stdio_output@@AAE_ND@Z 1008bd58 f i libucrt:output.obj
 0001:0008adc5       ?state_case_normal_tchar@?$output_processor@DV?$string_output_adapter@D@__crt_stdio_output@@V?$format_validation_base@DV?$string_output_adapter@D@__crt_stdio_output@@@2@@__crt_stdio_output@@AAE_ND@Z 1008bdc5 f i libucrt:output.obj
 0001:0008adc5       ?state_case_normal_tchar@?$output_processor@DV?$string_output_adapter@D@__crt_stdio_output@@V?$standard_base@DV?$string_output_adapter@D@__crt_stdio_output@@@2@@__crt_stdio_output@@AAE_ND@Z 1008bdc5 f i libucrt:output.obj
 0001:0008ae29       ?state_case_precision@?$output_processor@DV?$stream_output_adapter@D@__crt_stdio_output@@V?$standard_base@DV?$stream_output_adapter@D@__crt_stdio_output@@@2@@__crt_stdio_output@@AAE_NXZ 1008be29 f i libucrt:output.obj
 0001:0008ae29       ?state_case_precision@?$output_processor@DV?$string_output_adapter@D@__crt_stdio_output@@V?$standard_base@DV?$string_output_adapter@D@__crt_stdio_output@@@2@@__crt_stdio_output@@AAE_NXZ 1008be29 f i libucrt:output.obj
 0001:0008ae29       ?state_case_precision@?$output_processor@DV?$string_output_adapter@D@__crt_stdio_output@@V?$format_validation_base@DV?$string_output_adapter@D@__crt_stdio_output@@@2@@__crt_stdio_output@@AAE_NXZ 1008be29 f i libucrt:output.obj
 0001:0008ae4f       ?state_case_precision@?$output_processor@_WV?$string_output_adapter@_W@__crt_stdio_output@@V?$standard_base@_WV?$string_output_adapter@_W@__crt_stdio_output@@@2@@__crt_stdio_output@@AAE_NXZ 1008be4f f i libucrt:output.obj
 0001:0008ae4f       ?state_case_precision@?$output_processor@_WV?$stream_output_adapter@_W@__crt_stdio_output@@V?$standard_base@_WV?$stream_output_adapter@_W@__crt_stdio_output@@@2@@__crt_stdio_output@@AAE_NXZ 1008be4f f i libucrt:output.obj
 0001:0008ae76       ?state_case_size@?$output_processor@DV?$stream_output_adapter@D@__crt_stdio_output@@V?$standard_base@DV?$stream_output_adapter@D@__crt_stdio_output@@@2@@__crt_stdio_output@@AAE_NXZ 1008be76 f i libucrt:output.obj
 0001:0008afc4       ?state_case_size@?$output_processor@DV?$string_output_adapter@D@__crt_stdio_output@@V?$format_validation_base@DV?$string_output_adapter@D@__crt_stdio_output@@@2@@__crt_stdio_output@@AAE_NXZ 1008bfc4 f i libucrt:output.obj
 0001:0008afc4       ?state_case_size@?$output_processor@DV?$string_output_adapter@D@__crt_stdio_output@@V?$standard_base@DV?$string_output_adapter@D@__crt_stdio_output@@@2@@__crt_stdio_output@@AAE_NXZ 1008bfc4 f i libucrt:output.obj
 0001:0008b112       ?state_case_size@?$output_processor@_WV?$stream_output_adapter@_W@__crt_stdio_output@@V?$standard_base@_WV?$stream_output_adapter@_W@__crt_stdio_output@@@2@@__crt_stdio_output@@AAE_NXZ 1008c112 f i libucrt:output.obj
 0001:0008b28a       ?state_case_size@?$output_processor@_WV?$string_output_adapter@_W@__crt_stdio_output@@V?$standard_base@_WV?$string_output_adapter@_W@__crt_stdio_output@@@2@@__crt_stdio_output@@AAE_NXZ 1008c28a f i libucrt:output.obj
 0001:0008b402       ?state_case_type@?$output_processor@DV?$stream_output_adapter@D@__crt_stdio_output@@V?$standard_base@DV?$stream_output_adapter@D@__crt_stdio_output@@@2@@__crt_stdio_output@@AAE_NXZ 1008c402 f i libucrt:output.obj
 0001:0008b634       ?state_case_type@?$output_processor@DV?$string_output_adapter@D@__crt_stdio_output@@V?$standard_base@DV?$string_output_adapter@D@__crt_stdio_output@@@2@@__crt_stdio_output@@AAE_NXZ 1008c634 f i libucrt:output.obj
 0001:0008b634       ?state_case_type@?$output_processor@DV?$string_output_adapter@D@__crt_stdio_output@@V?$format_validation_base@DV?$string_output_adapter@D@__crt_stdio_output@@@2@@__crt_stdio_output@@AAE_NXZ 1008c634 f i libucrt:output.obj
 0001:0008b866       ?state_case_type@?$output_processor@_WV?$stream_output_adapter@_W@__crt_stdio_output@@V?$standard_base@_WV?$stream_output_adapter@_W@__crt_stdio_output@@@2@@__crt_stdio_output@@AAE_NXZ 1008c866 f i libucrt:output.obj
 0001:0008bacb       ?state_case_type@?$output_processor@_WV?$string_output_adapter@_W@__crt_stdio_output@@V?$standard_base@_WV?$string_output_adapter@_W@__crt_stdio_output@@@2@@__crt_stdio_output@@AAE_NXZ 1008cacb f i libucrt:output.obj
 0001:0008bd30       ?state_case_width@?$output_processor@DV?$stream_output_adapter@D@__crt_stdio_output@@V?$standard_base@DV?$stream_output_adapter@D@__crt_stdio_output@@@2@@__crt_stdio_output@@AAE_NXZ 1008cd30 f i libucrt:output.obj
 0001:0008bd30       ?state_case_width@?$output_processor@DV?$string_output_adapter@D@__crt_stdio_output@@V?$format_validation_base@DV?$string_output_adapter@D@__crt_stdio_output@@@2@@__crt_stdio_output@@AAE_NXZ 1008cd30 f i libucrt:output.obj
 0001:0008bd30       ?state_case_width@?$output_processor@DV?$string_output_adapter@D@__crt_stdio_output@@V?$standard_base@DV?$string_output_adapter@D@__crt_stdio_output@@@2@@__crt_stdio_output@@AAE_NXZ 1008cd30 f i libucrt:output.obj
 0001:0008bd5b       ?state_case_width@?$output_processor@_WV?$stream_output_adapter@_W@__crt_stdio_output@@V?$standard_base@_WV?$stream_output_adapter@_W@__crt_stdio_output@@@2@@__crt_stdio_output@@AAE_NXZ 1008cd5b f i libucrt:output.obj
 0001:0008bd5b       ?state_case_width@?$output_processor@_WV?$string_output_adapter@_W@__crt_stdio_output@@V?$standard_base@_WV?$string_output_adapter@_W@__crt_stdio_output@@@2@@__crt_stdio_output@@AAE_NXZ 1008cd5b f i libucrt:output.obj
 0001:0008bd87       ?to_integer_size@__crt_stdio_output@@YAIW4length_modifier@1@@Z 1008cd87 f i libucrt:output.obj
 0001:0008bddb       ?type_case_Z@?$output_processor@DV?$stream_output_adapter@D@__crt_stdio_output@@V?$standard_base@DV?$stream_output_adapter@D@__crt_stdio_output@@@2@@__crt_stdio_output@@AAE_NXZ 1008cddb f i libucrt:output.obj
 0001:0008bddb       ?type_case_Z@?$output_processor@DV?$string_output_adapter@D@__crt_stdio_output@@V?$format_validation_base@DV?$string_output_adapter@D@__crt_stdio_output@@@2@@__crt_stdio_output@@AAE_NXZ 1008cddb f i libucrt:output.obj
 0001:0008bddb       ?type_case_Z@?$output_processor@DV?$string_output_adapter@D@__crt_stdio_output@@V?$standard_base@DV?$string_output_adapter@D@__crt_stdio_output@@@2@@__crt_stdio_output@@AAE_NXZ 1008cddb f i libucrt:output.obj
 0001:0008be35       ?type_case_Z@?$output_processor@_WV?$string_output_adapter@_W@__crt_stdio_output@@V?$standard_base@_WV?$string_output_adapter@_W@__crt_stdio_output@@@2@@__crt_stdio_output@@AAE_NXZ 1008ce35 f i libucrt:output.obj
 0001:0008be35       ?type_case_Z@?$output_processor@_WV?$stream_output_adapter@_W@__crt_stdio_output@@V?$standard_base@_WV?$stream_output_adapter@_W@__crt_stdio_output@@@2@@__crt_stdio_output@@AAE_NXZ 1008ce35 f i libucrt:output.obj
 0001:0008be8f       ?type_case_a@?$output_processor@DV?$string_output_adapter@D@__crt_stdio_output@@V?$standard_base@DV?$string_output_adapter@D@__crt_stdio_output@@@2@@__crt_stdio_output@@AAE_NXZ 1008ce8f f i libucrt:output.obj
 0001:0008be8f       ?type_case_a@?$output_processor@DV?$string_output_adapter@D@__crt_stdio_output@@V?$format_validation_base@DV?$string_output_adapter@D@__crt_stdio_output@@@2@@__crt_stdio_output@@AAE_NXZ 1008ce8f f i libucrt:output.obj
 0001:0008be8f       ?type_case_a@?$output_processor@DV?$stream_output_adapter@D@__crt_stdio_output@@V?$standard_base@DV?$stream_output_adapter@D@__crt_stdio_output@@@2@@__crt_stdio_output@@AAE_NXZ 1008ce8f f i libucrt:output.obj
 0001:0008bfde       ?type_case_a@?$output_processor@_WV?$string_output_adapter@_W@__crt_stdio_output@@V?$standard_base@_WV?$string_output_adapter@_W@__crt_stdio_output@@@2@@__crt_stdio_output@@AAE_NXZ 1008cfde f i libucrt:output.obj
 0001:0008bfde       ?type_case_a@?$output_processor@_WV?$stream_output_adapter@_W@__crt_stdio_output@@V?$standard_base@_WV?$stream_output_adapter@_W@__crt_stdio_output@@@2@@__crt_stdio_output@@AAE_NXZ 1008cfde f i libucrt:output.obj
 0001:0008c143       ?type_case_c_tchar@?$output_processor@DV?$string_output_adapter@D@__crt_stdio_output@@V?$standard_base@DV?$string_output_adapter@D@__crt_stdio_output@@@2@@__crt_stdio_output@@AAE_ND@Z 1008d143 f i libucrt:output.obj
 0001:0008c143       ?type_case_c_tchar@?$output_processor@DV?$string_output_adapter@D@__crt_stdio_output@@V?$format_validation_base@DV?$string_output_adapter@D@__crt_stdio_output@@@2@@__crt_stdio_output@@AAE_ND@Z 1008d143 f i libucrt:output.obj
 0001:0008c143       ?type_case_c_tchar@?$output_processor@DV?$stream_output_adapter@D@__crt_stdio_output@@V?$standard_base@DV?$stream_output_adapter@D@__crt_stdio_output@@@2@@__crt_stdio_output@@AAE_ND@Z 1008d143 f i libucrt:output.obj
 0001:0008c1d3       ?type_case_c_tchar@?$output_processor@_WV?$stream_output_adapter@_W@__crt_stdio_output@@V?$standard_base@_WV?$stream_output_adapter@_W@__crt_stdio_output@@@2@@__crt_stdio_output@@AAE_N_W@Z 1008d1d3 f i libucrt:output.obj
 0001:0008c1d3       ?type_case_c_tchar@?$output_processor@_WV?$string_output_adapter@_W@__crt_stdio_output@@V?$standard_base@_WV?$string_output_adapter@_W@__crt_stdio_output@@@2@@__crt_stdio_output@@AAE_N_W@Z 1008d1d3 f i libucrt:output.obj
 0001:0008c269       ?type_case_integer@?$output_processor@DV?$string_output_adapter@D@__crt_stdio_output@@V?$standard_base@DV?$string_output_adapter@D@__crt_stdio_output@@@2@@__crt_stdio_output@@AAE_NI_N@Z 1008d269 f i libucrt:output.obj
 0001:0008c269       ?type_case_integer@?$output_processor@DV?$stream_output_adapter@D@__crt_stdio_output@@V?$standard_base@DV?$stream_output_adapter@D@__crt_stdio_output@@@2@@__crt_stdio_output@@AAE_NI_N@Z 1008d269 f i libucrt:output.obj
 0001:0008c269       ?type_case_integer@?$output_processor@DV?$string_output_adapter@D@__crt_stdio_output@@V?$format_validation_base@DV?$string_output_adapter@D@__crt_stdio_output@@@2@@__crt_stdio_output@@AAE_NI_N@Z 1008d269 f i libucrt:output.obj
 0001:0008c3ba       ?type_case_integer@?$output_processor@_WV?$stream_output_adapter@_W@__crt_stdio_output@@V?$standard_base@_WV?$stream_output_adapter@_W@__crt_stdio_output@@@2@@__crt_stdio_output@@AAE_NI_N@Z 1008d3ba f i libucrt:output.obj
 0001:0008c3ba       ?type_case_integer@?$output_processor@_WV?$string_output_adapter@_W@__crt_stdio_output@@V?$standard_base@_WV?$string_output_adapter@_W@__crt_stdio_output@@@2@@__crt_stdio_output@@AAE_NI_N@Z 1008d3ba f i libucrt:output.obj
 0001:0008c50f       ?type_case_n@?$output_processor@DV?$string_output_adapter@D@__crt_stdio_output@@V?$format_validation_base@DV?$string_output_adapter@D@__crt_stdio_output@@@2@@__crt_stdio_output@@AAE_NXZ 1008d50f f i libucrt:output.obj
 0001:0008c50f       ?type_case_n@?$output_processor@DV?$stream_output_adapter@D@__crt_stdio_output@@V?$standard_base@DV?$stream_output_adapter@D@__crt_stdio_output@@@2@@__crt_stdio_output@@AAE_NXZ 1008d50f f i libucrt:output.obj
 0001:0008c50f       ?type_case_n@?$output_processor@_WV?$stream_output_adapter@_W@__crt_stdio_output@@V?$standard_base@_WV?$stream_output_adapter@_W@__crt_stdio_output@@@2@@__crt_stdio_output@@AAE_NXZ 1008d50f f i libucrt:output.obj
 0001:0008c50f       ?type_case_n@?$output_processor@DV?$string_output_adapter@D@__crt_stdio_output@@V?$standard_base@DV?$string_output_adapter@D@__crt_stdio_output@@@2@@__crt_stdio_output@@AAE_NXZ 1008d50f f i libucrt:output.obj
 0001:0008c50f       ?type_case_n@?$output_processor@_WV?$string_output_adapter@_W@__crt_stdio_output@@V?$standard_base@_WV?$string_output_adapter@_W@__crt_stdio_output@@@2@@__crt_stdio_output@@AAE_NXZ 1008d50f f i libucrt:output.obj
 0001:0008c583       ?type_case_o@?$output_processor@DV?$stream_output_adapter@D@__crt_stdio_output@@V?$standard_base@DV?$stream_output_adapter@D@__crt_stdio_output@@@2@@__crt_stdio_output@@AAE_NXZ 1008d583 f i libucrt:output.obj
 0001:0008c583       ?type_case_o@?$output_processor@DV?$string_output_adapter@D@__crt_stdio_output@@V?$standard_base@DV?$string_output_adapter@D@__crt_stdio_output@@@2@@__crt_stdio_output@@AAE_NXZ 1008d583 f i libucrt:output.obj
 0001:0008c583       ?type_case_o@?$output_processor@DV?$string_output_adapter@D@__crt_stdio_output@@V?$format_validation_base@DV?$string_output_adapter@D@__crt_stdio_output@@@2@@__crt_stdio_output@@AAE_NXZ 1008d583 f i libucrt:output.obj
 0001:0008c5a2       ?type_case_o@?$output_processor@_WV?$stream_output_adapter@_W@__crt_stdio_output@@V?$standard_base@_WV?$stream_output_adapter@_W@__crt_stdio_output@@@2@@__crt_stdio_output@@AAE_NXZ 1008d5a2 f i libucrt:output.obj
 0001:0008c5a2       ?type_case_o@?$output_processor@_WV?$string_output_adapter@_W@__crt_stdio_output@@V?$standard_base@_WV?$string_output_adapter@_W@__crt_stdio_output@@@2@@__crt_stdio_output@@AAE_NXZ 1008d5a2 f i libucrt:output.obj
 0001:0008c5c1       ?type_case_p@?$output_processor@DV?$string_output_adapter@D@__crt_stdio_output@@V?$standard_base@DV?$string_output_adapter@D@__crt_stdio_output@@@2@@__crt_stdio_output@@AAE_NXZ 1008d5c1 f i libucrt:output.obj
 0001:0008c5c1       ?type_case_p@?$output_processor@DV?$string_output_adapter@D@__crt_stdio_output@@V?$format_validation_base@DV?$string_output_adapter@D@__crt_stdio_output@@@2@@__crt_stdio_output@@AAE_NXZ 1008d5c1 f i libucrt:output.obj
 0001:0008c5c1       ?type_case_p@?$output_processor@DV?$stream_output_adapter@D@__crt_stdio_output@@V?$standard_base@DV?$stream_output_adapter@D@__crt_stdio_output@@@2@@__crt_stdio_output@@AAE_NXZ 1008d5c1 f i libucrt:output.obj
 0001:0008c5d9       ?type_case_p@?$output_processor@_WV?$string_output_adapter@_W@__crt_stdio_output@@V?$standard_base@_WV?$string_output_adapter@_W@__crt_stdio_output@@@2@@__crt_stdio_output@@AAE_NXZ 1008d5d9 f i libucrt:output.obj
 0001:0008c5d9       ?type_case_p@?$output_processor@_WV?$stream_output_adapter@_W@__crt_stdio_output@@V?$standard_base@_WV?$stream_output_adapter@_W@__crt_stdio_output@@@2@@__crt_stdio_output@@AAE_NXZ 1008d5d9 f i libucrt:output.obj
 0001:0008c5f1       ?type_case_s@?$output_processor@DV?$stream_output_adapter@D@__crt_stdio_output@@V?$standard_base@DV?$stream_output_adapter@D@__crt_stdio_output@@@2@@__crt_stdio_output@@AAE_NXZ 1008d5f1 f i libucrt:output.obj
 0001:0008c5f1       ?type_case_s@?$output_processor@DV?$string_output_adapter@D@__crt_stdio_output@@V?$format_validation_base@DV?$string_output_adapter@D@__crt_stdio_output@@@2@@__crt_stdio_output@@AAE_NXZ 1008d5f1 f i libucrt:output.obj
 0001:0008c5f1       ?type_case_s@?$output_processor@DV?$string_output_adapter@D@__crt_stdio_output@@V?$standard_base@DV?$string_output_adapter@D@__crt_stdio_output@@@2@@__crt_stdio_output@@AAE_NXZ 1008d5f1 f i libucrt:output.obj
 0001:0008c662       ?type_case_s@?$output_processor@_WV?$string_output_adapter@_W@__crt_stdio_output@@V?$standard_base@_WV?$string_output_adapter@_W@__crt_stdio_output@@@2@@__crt_stdio_output@@AAE_NXZ 1008d662 f i libucrt:output.obj
 0001:0008c662       ?type_case_s@?$output_processor@_WV?$stream_output_adapter@_W@__crt_stdio_output@@V?$standard_base@_WV?$stream_output_adapter@_W@__crt_stdio_output@@@2@@__crt_stdio_output@@AAE_NXZ 1008d662 f i libucrt:output.obj
 0001:0008c6d5       ?type_case_s_compute_narrow_string_length@?$output_processor@_WV?$stream_output_adapter@_W@__crt_stdio_output@@V?$standard_base@_WV?$stream_output_adapter@_W@__crt_stdio_output@@@2@@__crt_stdio_output@@ABEHH_W@Z 1008d6d5 f i libucrt:output.obj
 0001:0008c6d5       ?type_case_s_compute_narrow_string_length@?$output_processor@_WV?$string_output_adapter@_W@__crt_stdio_output@@V?$standard_base@_WV?$string_output_adapter@_W@__crt_stdio_output@@@2@@__crt_stdio_output@@ABEHH_W@Z 1008d6d5 f i libucrt:output.obj
 0001:0008c71c       ?validate@?$stream_output_adapter@D@__crt_stdio_output@@QBE_NXZ 1008d71c f i libucrt:output.obj
 0001:0008c73d       ?validate@?$c_string_character_source@D@__crt_strtox@@QBE_NXZ 1008d73d f i libucrt:strtox.obj
 0001:0008c73d       ?validate@?$string_output_adapter@_W@__crt_stdio_output@@QBE_NXZ 1008d73d f i libucrt:output.obj
 0001:0008c73d       ?validate@?$c_string_character_source@_W@__crt_strtox@@QBE_NXZ 1008d73d f i libucrt:strtox.obj
 0001:0008c73d       ?validate@?$stream_output_adapter@_W@__crt_stdio_output@@QBE_NXZ 1008d73d f i libucrt:output.obj
 0001:0008c73d       ?validate@?$string_output_adapter@D@__crt_stdio_output@@QBE_NXZ 1008d73d f i libucrt:output.obj
 0001:0008c758       ?validate_and_update_state_at_end_of_format_string@?$format_validation_base@DV?$string_output_adapter@D@__crt_stdio_output@@@__crt_stdio_output@@IBE_NXZ 1008d758 f i libucrt:output.obj
 0001:0008c77a       ?validate_stream_is_ansi_if_required@?$__acrt_stdio_char_traits@D@@SA_NQAU_iobuf@@@Z 1008d77a f i libucrt:output.obj
 0001:0008c801       ?write_character@?$string_output_adapter@D@__crt_stdio_output@@QBE_NDQAH@Z 1008d801 f i libucrt:output.obj
 0001:0008c843       ?write_character@?$string_output_adapter@_W@__crt_stdio_output@@QBE_N_WQAH@Z 1008d843 f i libucrt:output.obj
 0001:0008c888       ?write_character_without_count_update@?$stream_output_adapter@D@__crt_stdio_output@@QBE_ND@Z 1008d888 f i libucrt:output.obj
 0001:0008c8be       ?write_character_without_count_update@?$stream_output_adapter@_W@__crt_stdio_output@@QBE_N_W@Z 1008d8be f i libucrt:output.obj
 0001:0008c8f7       ?write_stored_string_tchar@?$output_processor@DV?$stream_output_adapter@D@__crt_stdio_output@@V?$standard_base@DV?$stream_output_adapter@D@__crt_stdio_output@@@2@@__crt_stdio_output@@AAE_ND@Z 1008d8f7 f i libucrt:output.obj
 0001:0008c99e       ?write_stored_string_tchar@?$output_processor@DV?$string_output_adapter@D@__crt_stdio_output@@V?$format_validation_base@DV?$string_output_adapter@D@__crt_stdio_output@@@2@@__crt_stdio_output@@AAE_ND@Z 1008d99e f i libucrt:output.obj
 0001:0008c99e       ?write_stored_string_tchar@?$output_processor@DV?$string_output_adapter@D@__crt_stdio_output@@V?$standard_base@DV?$string_output_adapter@D@__crt_stdio_output@@@2@@__crt_stdio_output@@AAE_ND@Z 1008d99e f i libucrt:output.obj
 0001:0008ca45       ?write_stored_string_tchar@?$output_processor@_WV?$stream_output_adapter@_W@__crt_stdio_output@@V?$standard_base@_WV?$stream_output_adapter@_W@__crt_stdio_output@@@2@@__crt_stdio_output@@AAE_N_W@Z 1008da45 f i libucrt:output.obj
 0001:0008cad8       ?write_stored_string_tchar@?$output_processor@_WV?$string_output_adapter@_W@__crt_stdio_output@@V?$standard_base@_WV?$string_output_adapter@_W@__crt_stdio_output@@@2@@__crt_stdio_output@@AAE_N_W@Z 1008dad8 f i libucrt:output.obj
 0001:0008cb6b       ?write_string@?$stream_output_adapter@D@__crt_stdio_output@@QBEXQBDHQAHAAV__crt_deferred_errno_cache@@@Z 1008db6b f i libucrt:output.obj
 0001:0008cb97       ?write_string@?$stream_output_adapter@_W@__crt_stdio_output@@QBEXQB_WHQAHAAV__crt_deferred_errno_cache@@@Z 1008db97 f i libucrt:output.obj
 0001:0008cbc3       ?write_string@?$string_output_adapter@D@__crt_stdio_output@@QBEXQBDHQAHAAV__crt_deferred_errno_cache@@@Z 1008dbc3 f i libucrt:output.obj
 0001:0008cc2a       ?write_string@?$string_output_adapter@_W@__crt_stdio_output@@QBEXQB_WHQAHAAV__crt_deferred_errno_cache@@@Z 1008dc2a f i libucrt:output.obj
 0001:0008cc9b       ?write_string_impl@?$output_adapter_common@DV?$stream_output_adapter@D@__crt_stdio_output@@@__crt_stdio_output@@IBEXQBDHQAHAAV__crt_deferred_errno_cache@@@Z 1008dc9b f i libucrt:output.obj
 0001:0008cd39       ?write_string_impl@?$output_adapter_common@_WV?$stream_output_adapter@_W@__crt_stdio_output@@@__crt_stdio_output@@IBEXQB_WHQAHAAV__crt_deferred_errno_cache@@@Z 1008dd39 f i libucrt:output.obj
 0001:0008cdda       ___acrt_locale_get_ctype_array_value 1008ddda f i libucrt:output.obj
 0001:0008cdfc       ___stdio_common_vfprintf   1008ddfc f   libucrt:output.obj
 0001:0008ce7f       ___stdio_common_vfwprintf  1008de7f f   libucrt:output.obj
 0001:0008cf02       ___stdio_common_vsnprintf_s 1008df02 f   libucrt:output.obj
 0001:0008cf29       ___stdio_common_vsprintf   1008df29 f   libucrt:output.obj
 0001:0008cf4d       ___stdio_common_vsprintf_s 1008df4d f   libucrt:output.obj
 0001:0008cf71       ___stdio_common_vswprintf  1008df71 f   libucrt:output.obj
 0001:0008cfa0       __CIfmod                   1008dfa0 f   libucrt:87fmod_impl.obj
 0001:0008cfb0       __fFMOD                    1008dfb0 f   libucrt:87fmod_impl.obj
 0001:0008cfbe       _malloc                    1008dfbe f   libucrt:malloc.obj
 0001:0008cfc9       ??$is_overflow_condition@K@__crt_strtox@@YA_NIK@Z 1008dfc9 f i libucrt:strtox.obj
 0001:0008cffa       ??$is_overflow_condition@_K@__crt_strtox@@YA_NI_K@Z 1008dffa f i libucrt:strtox.obj
 0001:0008d03b       ??$make_c_string_character_source@_WPAPA_W@__crt_strtox@@YA?AV?$c_string_character_source@_W@0@QB_WQAPA_W@Z 1008e03b f i libucrt:strtox.obj
 0001:0008d03b       ??$make_c_string_character_source@DPAPAD@__crt_strtox@@YA?AV?$c_string_character_source@D@0@QBDQAPAD@Z 1008e03b f i libucrt:strtox.obj
 0001:0008d056       ??$parse_integer@KV?$c_string_character_source@D@__crt_strtox@@@__crt_strtox@@YAKQAU__crt_locale_pointers@@V?$c_string_character_source@D@0@H_N@Z 1008e056 f i libucrt:strtox.obj
 0001:0008d27b       ??$parse_integer@KV?$c_string_character_source@_W@__crt_strtox@@@__crt_strtox@@YAKQAU__crt_locale_pointers@@V?$c_string_character_source@_W@0@H_N@Z 1008e27b f i libucrt:strtox.obj
 0001:0008d883       ??$parse_integer@_KV?$c_string_character_source@D@__crt_strtox@@@__crt_strtox@@YA_KQAU__crt_locale_pointers@@V?$c_string_character_source@D@0@H_N@Z 1008e883 f i libucrt:strtox.obj
 0001:0008db29       ?unget@?$c_string_character_source@D@__crt_strtox@@QAEXD@Z 1008eb29 f i libucrt:strtox.obj
 0001:0008db52       ?unget@?$c_string_character_source@_W@__crt_strtox@@QAEX_W@Z 1008eb52 f i libucrt:strtox.obj
 0001:0008db80       __ischartype_l             1008eb80 f i libucrt:strtox.obj
 0001:0008dbd4       _strtol                    1008ebd4 f   libucrt:strtox.obj
 0001:0008dbfe       _strtoul                   1008ebfe f   libucrt:strtox.obj
 0001:0008dc28       _strtoull                  1008ec28 f   libucrt:strtox.obj
 0001:0008dc52       _wcstol                    1008ec52 f   libucrt:strtox.obj
 0001:0008dd2e       ??$__acrt_mbs_to_wcs_cp@U__crt_win32_buffer_internal_dynamic_resizing@@@@YAHQBDAAV?$__crt_win32_buffer@_WU__crt_win32_buffer_internal_dynamic_resizing@@@@I@Z 1008ed2e f i libucrt:unlink.obj
 0001:0008dd4b       ?__acrt_get_utf8_acp_compatibility_codepage@@YAIXZ 1008ed4b f i libucrt:unlink.obj
 0001:0008dd8a       ?_deallocate@?$__crt_win32_buffer@DU__crt_win32_buffer_internal_dynamic_resizing@@@@AAEXXZ 1008ed8a f i libucrt:argv_wildcards.obj
 0001:0008dd8a       ?_deallocate@?$__crt_win32_buffer@_WU__crt_win32_buffer_internal_dynamic_resizing@@@@AAEXXZ 1008ed8a f i libucrt:unlink.obj
 0001:0008dda4       ?allocate@?$__crt_win32_buffer@_WU__crt_win32_buffer_internal_dynamic_resizing@@@@QAEHI@Z 1008eda4 f i libucrt:unlink.obj
 0001:0008dde3       ?allocate@__crt_win32_buffer_internal_dynamic_resizing@@SAHQAPAXIABV__crt_win32_buffer_empty_debug_info@@@Z 1008ede3 f i libucrt:unlink.obj
 0001:0008de02       _remove                    1008ee02 f   libucrt:unlink.obj
 0001:0008de70       _strncpy                   1008ee70 f   libucrt:strncpy.obj
 0001:0008e593       ??$ftprintf@PAU_iobuf@@PB_WABQB_WABQB_WABI@?$__crt_char_traits@_W@@SAH$$QAPAU_iobuf@@$$QAPB_WABQB_W2ABI@Z 1008f593 f i libucrt:assert.obj
 0001:0008e670       __vswprintf_c_l            1008f670 f i libucrt:assert.obj
 0001:0008e69f       __wassert                  1008f69f f   libucrt:assert.obj
 0001:0008e6e7       _swprintf                  1008f6e7 f i libucrt:assert.obj
 0001:0008e872       __fsopen                   1008f872 f   libucrt:fopen.obj
 0001:0008e87d       __wfopen                   1008f87d f   libucrt:fopen.obj
 0001:0008ef0a       __ftelli64                 1008ff0a f   libucrt:ftell.obj
 0001:0008ef15       __ftelli64_nolock          1008ff15 f   libucrt:ftell.obj
 0001:0008ef20       _ftell                     1008ff20 f   libucrt:ftell.obj
 0001:0008ef2b       ??$assemble_floating_point_snan@N@__crt_strtox@@YAX_NAAN@Z 1008ff2b f i libucrt:input.obj
 0001:0008ef4c       ??$assemble_floating_point_value_t@M@__crt_strtox@@YA?AW4SLD_STATUS@@_NH_KAAM@Z 1008ff4c f i libucrt:input.obj
 0001:0008ef7c       ??$assemble_floating_point_value_t@N@__crt_strtox@@YA?AW4SLD_STATUS@@_NH_KAAN@Z 1008ff7c f i libucrt:input.obj
 0001:0008f072       ??$convert_decimal_string_to_floating_type@M@__crt_strtox@@YA?AW4SLD_STATUS@@ABUfloating_point_string@0@AAM@Z 10090072 f i libucrt:input.obj
 0001:0008f093       ??$convert_decimal_string_to_floating_type@N@__crt_strtox@@YA?AW4SLD_STATUS@@ABUfloating_point_string@0@AAN@Z 10090093 f i libucrt:input.obj
 0001:0008f0b4       ??$convert_hexadecimal_string_to_floating_type@M@__crt_strtox@@YA?AW4SLD_STATUS@@ABUfloating_point_string@0@AAM@Z 100900b4 f i libucrt:input.obj
 0001:0008f0d5       ??$convert_hexadecimal_string_to_floating_type@N@__crt_strtox@@YA?AW4SLD_STATUS@@ABUfloating_point_string@0@AAN@Z 100900d5 f i libucrt:input.obj
 0001:0008f0f6       ??$make_input_adapter_character_source@V?$string_input_adapter@D@__crt_stdio_input@@@__crt_strtox@@YA?AV?$input_adapter_character_source@V?$string_input_adapter@D@__crt_stdio_input@@@0@QAV?$string_input_adapter@D@__crt_stdio_input@@_KQA_N@Z 100900f6 f i libucrt:input.obj
 0001:0008f114       ??$parse_floating_point@V?$input_adapter_character_source@V?$string_input_adapter@D@__crt_stdio_input@@@__crt_strtox@@M@__crt_strtox@@YA?AW4SLD_STATUS@@QAU__crt_locale_pointers@@V?$input_adapter_character_source@V?$string_input_adapter@D@__crt_stdio_input@@@0@QAM@Z 10090114 f i libucrt:input.obj
 0001:0008f18d       ??$parse_floating_point@V?$input_adapter_character_source@V?$string_input_adapter@D@__crt_stdio_input@@@__crt_strtox@@N@__crt_strtox@@YA?AW4SLD_STATUS@@QAU__crt_locale_pointers@@V?$input_adapter_character_source@V?$string_input_adapter@D@__crt_stdio_input@@@0@QAN@Z 1009018d f i libucrt:input.obj
 0001:0008f206       ??$parse_floating_point_from_source@V?$input_adapter_character_source@V?$string_input_adapter@D@__crt_stdio_input@@@__crt_strtox@@@__crt_strtox@@YA?AW4floating_point_parse_result@0@QAU__crt_locale_pointers@@AAV?$input_adapter_character_source@V?$string_input_adapter@D@__crt_stdio_input@@@0@AAUfloating_point_string@0@@Z 10090206 f i libucrt:input.obj
 0001:0008f663       ??$parse_floating_point_possible_infinity@DV?$input_adapter_character_source@V?$string_input_adapter@D@__crt_stdio_input@@@__crt_strtox@@_K@__crt_strtox@@YA?AW4floating_point_parse_result@0@AADAAV?$input_adapter_character_source@V?$string_input_adapter@D@__crt_stdio_input@@@0@_K@Z 10090663 f i libucrt:input.obj
 0001:0008f722       ??$parse_floating_point_possible_nan@DV?$input_adapter_character_source@V?$string_input_adapter@D@__crt_stdio_input@@@__crt_strtox@@_K@__crt_strtox@@YA?AW4floating_point_parse_result@0@AADAAV?$input_adapter_character_source@V?$string_input_adapter@D@__crt_stdio_input@@@0@_K@Z 10090722 f i libucrt:input.obj
 0001:0008f83d       ??$parse_floating_point_possible_nan_is_ind@DV?$input_adapter_character_source@V?$string_input_adapter@D@__crt_stdio_input@@@__crt_strtox@@@__crt_strtox@@YA_NAADAAV?$input_adapter_character_source@V?$string_input_adapter@D@__crt_stdio_input@@@0@@Z 1009083d f i libucrt:input.obj
 0001:0008f877       ??$parse_floating_point_possible_nan_is_snan@DV?$input_adapter_character_source@V?$string_input_adapter@D@__crt_stdio_input@@@__crt_strtox@@@__crt_strtox@@YA_NAADAAV?$input_adapter_character_source@V?$string_input_adapter@D@__crt_stdio_input@@@0@@Z 10090877 f i libucrt:input.obj
 0001:0008f8b1       ??$parse_floating_point_write_result@M@__crt_strtox@@YA?AW4SLD_STATUS@@W4floating_point_parse_result@0@ABUfloating_point_string@0@QAM@Z 100908b1 f i libucrt:input.obj
 0001:0008fa1d       ??$parse_floating_point_write_result@N@__crt_strtox@@YA?AW4SLD_STATUS@@W4floating_point_parse_result@0@ABUfloating_point_string@0@QAN@Z 10090a1d f i libucrt:input.obj
 0001:0008fb41       ??$parse_integer@_KV?$input_adapter_character_source@V?$string_input_adapter@D@__crt_stdio_input@@@__crt_strtox@@@__crt_strtox@@YA_KQAU__crt_locale_pointers@@V?$input_adapter_character_source@V?$string_input_adapter@D@__crt_stdio_input@@@0@H_N@Z 10090b41 f i libucrt:input.obj
 0001:0008fdff       ??$process_floating_point_specifier_t@M@?$input_processor@DV?$string_input_adapter@D@__crt_stdio_input@@@__crt_stdio_input@@AAE_NXZ 10090dff f i libucrt:input.obj
 0001:0008fe65       ??$process_floating_point_specifier_t@N@?$input_processor@DV?$string_input_adapter@D@__crt_stdio_input@@@__crt_stdio_input@@AAE_NXZ 10090e65 f i libucrt:input.obj
 0001:0008fecb       ??$process_string_specifier_tchar@D@?$input_processor@DV?$string_input_adapter@D@__crt_stdio_input@@@__crt_stdio_input@@AAE_NW4conversion_mode@1@D@Z 10090ecb f i libucrt:input.obj
 0001:00090028       ??$process_string_specifier_tchar@_W@?$input_processor@DV?$string_input_adapter@D@__crt_stdio_input@@@__crt_stdio_input@@AAE_NW4conversion_mode@1@_W@Z 10091028 f i libucrt:input.obj
 0001:0009018f       ??$skip_whitespace@Vstring_input_adapter@__crt_stdio_input@@D@__crt_stdio_input@@YAHAAV?$string_input_adapter@D@0@QAU__crt_locale_pointers@@@Z 1009118f f i libucrt:input.obj
 0001:000901be       ??$write_floating_point@M@?$input_processor@DV?$string_input_adapter@D@__crt_stdio_input@@@__crt_stdio_input@@AAE_NABM@Z 100911be f i libucrt:input.obj
 0001:000901f2       ??$write_floating_point@N@?$input_processor@DV?$string_input_adapter@D@__crt_stdio_input@@@__crt_stdio_input@@AAE_NABN@Z 100911f2 f i libucrt:input.obj
 0001:0009022c       ??0?$format_string_parser@D@__crt_stdio_input@@QAE@_KQBE@Z 1009122c f i libucrt:input.obj
 0001:00090276       ??0?$input_adapter_character_source@V?$string_input_adapter@D@__crt_stdio_input@@@__crt_strtox@@QAE@QAV?$string_input_adapter@D@__crt_stdio_input@@_KQA_N@Z 10091276 f i libucrt:input.obj
 0001:000902a7       ??0?$input_processor@DV?$string_input_adapter@D@__crt_stdio_input@@@__crt_stdio_input@@QAE@ABV?$string_input_adapter@D@1@_KQBDQAU__crt_locale_pointers@@QAD@Z 100912a7 f i libucrt:input.obj
 0001:00090315       ?advance@?$format_string_parser@D@__crt_stdio_input@@QAE_NXZ 10091315 f i libucrt:input.obj
 0001:0009042d       ?as_double@floating_point_value@__crt_strtox@@QBEAANXZ 1009142d f i libucrt:input.obj
 0001:00090452       ?as_float@floating_point_value@__crt_strtox@@QBEAAMXZ 10091452 f i libucrt:input.obj
 0001:00090477       ?assemble_floating_point_infinity@__crt_strtox@@YAX_NABVfloating_point_value@1@@Z 10091477 f i libucrt:input.obj
 0001:000904b7       ?assemble_floating_point_value@__crt_strtox@@YA?AW4SLD_STATUS@@_KH_N1ABVfloating_point_value@1@@Z 100914b7 f i libucrt:input.obj
 0001:00090800       ?assemble_floating_point_value_from_big_integer@__crt_strtox@@YA?AW4SLD_STATUS@@ABUbig_integer@1@I_N1ABVfloating_point_value@1@@Z 10091800 f i libucrt:input.obj
 0001:00090994       ?assemble_floating_point_zero@__crt_strtox@@YAX_NABVfloating_point_value@1@@Z 10091994 f i libucrt:input.obj
 0001:000909c9       ?convert_decimal_string_to_floating_type_common@__crt_strtox@@YA?AW4SLD_STATUS@@ABUfloating_point_string@1@ABVfloating_point_value@1@@Z 100919c9 f i libucrt:input.obj
 0001:00092708       ?convert_hexadecimal_string_to_floating_type_common@__crt_strtox@@YA?AW4SLD_STATUS@@ABUfloating_point_string@1@ABVfloating_point_value@1@@Z 10093708 f i libucrt:input.obj
 0001:000927ae       ?denormal_mantissa_mask@floating_point_value@__crt_strtox@@QBE_KXZ 100937ae f i libucrt:input.obj
 0001:000927d0       ?divide@__crt_strtox@@YA_KAAUbig_integer@1@ABU21@@Z 100937d0 f i libucrt:input.obj
 0001:00092c68       ?get@?$input_adapter_character_source@V?$string_input_adapter@D@__crt_stdio_input@@@__crt_strtox@@QAEDXZ 10093c68 f i libucrt:input.obj
 0001:00092c9f       ?get@?$string_input_adapter@D@__crt_stdio_input@@QAEHXZ 10093c9f f i libucrt:input.obj
 0001:00092cb5       ?invert@?$scanset_buffer@E@__crt_stdio_input@@QAEXXZ 10093cb5 f i libucrt:input.obj
 0001:00092cd3       ?is_character_allowed_in_string@?$input_processor@DV?$string_input_adapter@D@__crt_stdio_input@@@__crt_stdio_input@@ABE_NW4conversion_mode@2@H@Z 10093cd3 f i libucrt:input.obj
 0001:00092d23       ?length@?$format_string_parser@D@__crt_stdio_input@@QBEIXZ 10093d23 f i libucrt:input.obj
 0001:00092d64       ?normal_mantissa_mask@floating_point_value@__crt_strtox@@QBE_KXZ 10093d64 f i libucrt:input.obj
 0001:00092d7b       ?process@?$input_processor@DV?$string_input_adapter@D@__crt_stdio_input@@@__crt_stdio_input@@QAEHXZ 10093d7b f i libucrt:input.obj
 0001:00092dff       ?process_character_count_specifier@?$input_processor@DV?$string_input_adapter@D@__crt_stdio_input@@@__crt_stdio_input@@AAE_NXZ 10093dff f i libucrt:input.obj
 0001:00092e17       ?process_conversion_specifier@?$input_processor@DV?$string_input_adapter@D@__crt_stdio_input@@@__crt_stdio_input@@AAE_NXZ 10093e17 f i libucrt:input.obj
 0001:00092e8b       ?process_floating_point_specifier@?$input_processor@DV?$string_input_adapter@D@__crt_stdio_input@@@__crt_stdio_input@@AAE_NXZ 10093e8b f i libucrt:input.obj
 0001:00092ebb       ?process_integer_specifier@?$input_processor@DV?$string_input_adapter@D@__crt_stdio_input@@@__crt_stdio_input@@AAE_NI_N@Z 10093ebb f i libucrt:input.obj
 0001:00092f1d       ?process_literal_character@?$input_processor@DV?$string_input_adapter@D@__crt_stdio_input@@@__crt_stdio_input@@AAE_NXZ 10093f1d f i libucrt:input.obj
 0001:00092f53       ?process_literal_character_tchar@?$input_processor@DV?$string_input_adapter@D@__crt_stdio_input@@@__crt_stdio_input@@AAE_ND@Z 10093f53 f i libucrt:input.obj
 0001:00092fa1       ?process_state@?$input_processor@DV?$string_input_adapter@D@__crt_stdio_input@@@__crt_stdio_input@@AAE_NXZ 10093fa1 f i libucrt:input.obj
 0001:00092fe3       ?process_string_specifier@?$input_processor@DV?$string_input_adapter@D@__crt_stdio_input@@@__crt_stdio_input@@AAE_NW4conversion_mode@2@@Z 10093fe3 f i libucrt:input.obj
 0001:0009302b       ?process_whitespace@?$input_processor@DV?$string_input_adapter@D@__crt_stdio_input@@@__crt_stdio_input@@AAE_NXZ 1009402b f i libucrt:input.obj
 0001:00093048       ?restore_state@?$input_adapter_character_source@V?$string_input_adapter@D@__crt_stdio_input@@@__crt_strtox@@QAE_N_K@Z 10094048 f i libucrt:input.obj
 0001:0009306d       ?scan_conversion_specifier@?$format_string_parser@D@__crt_stdio_input@@AAE_NXZ 1009406d f i libucrt:input.obj
 0001:000931dd       ?scan_optional_field_width@?$format_string_parser@D@__crt_stdio_input@@AAE_NXZ 100941dd f i libucrt:input.obj
 0001:0009327a       ?scan_optional_length_modifier@?$format_string_parser@D@__crt_stdio_input@@AAEXXZ 1009427a f i libucrt:input.obj
 0001:00093389       ?scan_optional_literal_character_trail_bytes_tchar@?$format_string_parser@D@__crt_stdio_input@@AAE_ND@Z 10094389 f i libucrt:input.obj
 0001:000933db       ?scan_optional_wide_modifier@?$format_string_parser@D@__crt_stdio_input@@AAEXXZ 100943db f i libucrt:input.obj
 0001:000933f9       ?scan_scanset_range@?$format_string_parser@D@__crt_stdio_input@@AAE_NXZ 100943f9 f i libucrt:input.obj
 0001:00093531       ?set_wide_for_c_s_or_scanset@?$format_string_parser@D@__crt_stdio_input@@AAEXXZ 10094531 f i libucrt:input.obj
 0001:00093551       ?to_floating_point_length@__crt_stdio_input@@YAIW4length_modifier@1@@Z 10094551 f i libucrt:input.obj
 0001:00093574       ?to_integer_length@__crt_stdio_input@@YAIW4length_modifier@1@@Z 10094574 f i libucrt:input.obj
 0001:000935c7       ?unget@?$input_adapter_character_source@V?$string_input_adapter@D@__crt_stdio_input@@@__crt_strtox@@QAEXD@Z 100945c7 f i libucrt:input.obj
 0001:0009360e       ?unget@?$string_input_adapter@D@__crt_stdio_input@@QAEXH@Z 1009460e f i libucrt:input.obj
 0001:0009362d       ?validate@?$format_string_parser@D@__crt_stdio_input@@QBE_NXZ 1009462d f i libucrt:input.obj
 0001:00093649       ?validate@?$input_adapter_character_source@V?$string_input_adapter@D@__crt_stdio_input@@@__crt_strtox@@QBE_NXZ 10094649 f i libucrt:input.obj
 0001:0009366a       ?validate@?$string_input_adapter@D@__crt_stdio_input@@QAE_NXZ 1009466a f i libucrt:input.obj
 0001:0009368c       ?write_character@?$input_processor@DV?$string_input_adapter@D@__crt_stdio_input@@@__crt_stdio_input@@AAE_NQA_WIAAPA_WAAID@Z 1009468c f i libucrt:input.obj
 0001:000936f9       ?write_integer@?$input_processor@DV?$string_input_adapter@D@__crt_stdio_input@@@__crt_stdio_input@@AAE_N_K@Z 100946f9 f i libucrt:input.obj
 0001:00093767       ___stdio_common_vsscanf    10094767 f   libucrt:input.obj
 0001:000937d0       _qsort                     100947d0 f   libucrt:qsort.obj
 0001:00093c14       __tolower_l                10094c14 f   libucrt:tolower_toupper.obj
 0001:00093d18       _tolower                   10094d18 f   libucrt:tolower_toupper.obj
 0001:00093d50       _strncmp                   10094d50 f   libucrt:strncmp.obj
 0001:00093dd0       __libm_sse2_acos_precise   10094dd0 f   libucrt:acos_sse2_precise.obj
 0001:00094354       ??$parse_floating_point@V?$c_string_character_source@D@__crt_strtox@@N@__crt_strtox@@YA?AW4SLD_STATUS@@QAU__crt_locale_pointers@@V?$c_string_character_source@D@0@QAN@Z 10095354 f i libucrt:atof.obj
 0001:000943c8       ??$parse_floating_point_from_source@V?$c_string_character_source@D@__crt_strtox@@@__crt_strtox@@YA?AW4floating_point_parse_result@0@QAU__crt_locale_pointers@@AAV?$c_string_character_source@D@0@AAUfloating_point_string@0@@Z 100953c8 f i libucrt:atof.obj
 0001:000947b1       ??$parse_floating_point_possible_infinity@DV?$c_string_character_source@D@__crt_strtox@@PBD@__crt_strtox@@YA?AW4floating_point_parse_result@0@AADAAV?$c_string_character_source@D@0@PBD@Z 100957b1 f i libucrt:atof.obj
 0001:00094852       ??$parse_floating_point_possible_nan@DV?$c_string_character_source@D@__crt_strtox@@PBD@__crt_strtox@@YA?AW4floating_point_parse_result@0@AADAAV?$c_string_character_source@D@0@PBD@Z 10095852 f i libucrt:atof.obj
 0001:00094961       ??$parse_floating_point_possible_nan_is_ind@DV?$c_string_character_source@D@__crt_strtox@@@__crt_strtox@@YA_NAADAAV?$c_string_character_source@D@0@@Z 10095961 f i libucrt:atof.obj
 0001:0009499d       ??$parse_floating_point_possible_nan_is_snan@DV?$c_string_character_source@D@__crt_strtox@@@__crt_strtox@@YA_NAADAAV?$c_string_character_source@D@0@@Z 1009599d f i libucrt:atof.obj
 0001:000949ff       _atof                      100959ff f   libucrt:atof.obj
 0001:00094a20       __libm_sse2_log_precise    10095a20 f   libucrt:log_sse2_precise.obj
 0001:00094cb0       _strcpy_s                  10095cb0 f   libucrt:strcpy_s.obj
 0001:00094d0a       __strdup                   10095d0a f   libucrt:strdup.obj
 0001:00094d5e       __strnicmp                 10095d5e f   libucrt:strnicmp.obj
 0001:00094dcb       __strnicmp_l               10095dcb f   libucrt:strnicmp.obj
 0001:00094f9c       _freopen_s                 10095f9c f   libucrt:freopen.obj
 0001:00094fc0       _strcspn                   10095fc0 f   libucrt:strcspn.obj
 0001:00095006       _calloc                    10096006 f   libucrt:calloc.obj
 0001:00095011       _frexp                     10096011 f   libucrt:frexp.obj
 0001:0009510b       _localeconv                1009610b f   libucrt:localeconv.obj
 0001:000953c2       __localtime64              100963c2 f   libucrt:localtime.obj
 0001:000954b0       ??$__acrt_wcs_to_mbs_cp@U__crt_win32_buffer_no_resizing@@@@YAHQB_WAAV?$__crt_win32_buffer@DU__crt_win32_buffer_no_resizing@@@@I@Z 100964b0 f i libucrt:strftime.obj
 0001:000954cd       ?allocate@?$__crt_win32_buffer@DU__crt_win32_buffer_no_resizing@@@@QAEHI@Z 100964cd f i libucrt:strftime.obj
 0001:000954f4       ?set_to_nullptr@?$__crt_win32_buffer@DU__crt_win32_buffer_no_resizing@@@@QAEXXZ 100964f4 f i libucrt:strftime.obj
 0001:00095508       __Strftime_l               10096508 f   libucrt:strftime.obj
 0001:00095605       _strftime                  10096605 f   libucrt:strftime.obj
 0001:0009569c       __fd_int                   1009669c f   libucrt:_test.obj
 0001:00095769       __fdtest                   10096769 f   libucrt:_test.obj
 0001:000957b7       __fperrraise               100967b7 f   libucrt:_test.obj
 0001:0009597b       __mbstowcs_s_l             1009697b f   libucrt:mbstowcs.obj
 0001:00095a5b       _mbstowcs_s                10096a5b f   libucrt:mbstowcs.obj
 0001:00095a80       _strcpy                    10096a80 f   libucrt:strcat.obj
 0001:00095a90       _strcat                    10096a90 f   libucrt:strcat.obj
 0001:00095b80       _strcmp                    10096b80 f   libucrt:strcmp.obj
 0001:00095c0c       ___acrt_initialize_locks   10096c0c f   libucrt:locks.obj
 0001:00095c4d       ___acrt_lock               10096c4d f   libucrt:locks.obj
 0001:00095c64       ___acrt_uninitialize_locks 10096c64 f   libucrt:locks.obj
 0001:00095c95       ___acrt_unlock             10096c95 f   libucrt:locks.obj
 0001:00095cac       __lock_locales             10096cac f   libucrt:locks.obj
 0001:00095cba       __unlock_locales           10096cba f   libucrt:locks.obj
 0001:00095cc3       ___pctype_func             10096cc3 f   libucrt:ctype.obj
 0001:00095ce7       __islower_l                10096ce7 f i libucrt:_ctype.obj
 0001:00095d1d       __isspace_l                10096d1d f i libucrt:_ctype.obj
 0001:00095d53       __isupper_l                10096d53 f i libucrt:_ctype.obj
 0001:00095d89       _islower                   10096d89 f i libucrt:_ctype.obj
 0001:00095dba       _isspace                   10096dba f i libucrt:_ctype.obj
 0001:00095deb       _isupper                   10096deb f i libucrt:_ctype.obj
 0001:00095e1c       __wcsdup                   10096e1c f   libucrt:wcsdup.obj
 0001:00095e7b       ____lc_codepage_func       10096e7b f   libucrt:initctype.obj
 0001:00095ea0       ____lc_locale_name_func    10096ea0 f   libucrt:initctype.obj
 0001:00095ec7       ____mb_cur_max_func        10096ec7 f   libucrt:initctype.obj
 0001:00095eec       ___acrt_locale_initialize_ctype 10096eec f   libucrt:initctype.obj
 0001:000965a4       _setlocale                 100975a4 f   libucrt:setlocale.obj
 0001:000965dc       _rand_s                    100975dc f   libucrt:rand_s.obj
 0001:00096624       _abort                     10097624 f   libucrt:abort.obj
 0001:00096668       ___strncnt                 10097668 f   libucrt:strncnt.obj
 0001:00096690       __CIpow                    10097690 f   libucrt:pow_impl.obj
 0001:000966cb       __CIpow_default            100976cb f   libucrt:pow_impl.obj
 0001:000966e4       __pow_default              100976e4     libucrt:pow_impl.obj
 0001:000968d9       _wcscpy_s                  100978d9 f   libucrt:wcscpy_s.obj
 0001:0009693d       _strnlen                   1009793d f   libucrt:strnlen.obj
 0001:00096a5f       _wcsnlen                   10097a5f f   libucrt:strnlen.obj
 0001:00096c0f       ??$__crt_time_is_leap_year@H@@YA_NH@Z 10097c0f f i libucrt:wcsftime.obj
 0001:00097ce9       __Wcsftime_l               10098ce9 f   libucrt:wcsftime.obj
 0001:00097e6c       ___acrt_initialize_new_handler 10098e6c f   libucrt:new_handler.obj
 0001:00097e7b       __callnewh                 10098e7b f   libucrt:new_handler.obj
 0001:00097ea8       __query_new_handler        10098ea8 f   libucrt:new_handler.obj
 0001:00097f04       __seh_filter_dll           10098f04 f   libucrt:exception_filter.obj
 0001:00097f24       __seh_filter_exe           10098f24 f   libucrt:exception_filter.obj
 0001:000982f2       ___acrt_initialize_thread_local_exit_callback 100992f2 f   libucrt:exit.obj
 0001:00098301       __cexit                    10099301 f   libucrt:exit.obj
 0001:00098310       __exit                     10099310 f   libucrt:exit.obj
 0001:00098326       __is_c_termination_complete 10099326 f   libucrt:exit.obj
 0001:000985da       ___acrt_allocate_buffer_for_argv 100995da f   libucrt:argv_parsing.obj
 0001:00098629       __configure_narrow_argv    10099629 f   libucrt:argv_parsing.obj
 0001:00098835       ??$uninitialize@A6AXAAPAPAD@Z@?$dual_state_global@PAPAD@__crt_state_management@@QAEXA6AXAAPAPAD@Z@Z 10099835 f i libucrt:environment_initialization.obj
 0001:00098835       ??$uninitialize@A6AXAAPAPA_W@Z@?$dual_state_global@PAPA_W@__crt_state_management@@QAEXA6AXAAPAPA_W@Z@Z 10099835 f i libucrt:environment_initialization.obj
 0001:00098894       ___dcrt_get_or_create_narrow_environment_nolock 10099894 f   libucrt:environment_initialization.obj
 0001:00098899       ___dcrt_uninitialize_environments_nolock 10099899 f   libucrt:environment_initialization.obj
 0001:000988d0       __initialize_narrow_environment 100998d0 f   libucrt:environment_initialization.obj
 0001:0009898b       ??$__crt_fast_encode_pointer@P6GHPA_WKJ@Z@@YAP6GHPA_WKJ@ZQ6GH0KJ@Z@Z 1009998b f i libucrt:winapi_thunks.obj
 0001:0009898b       ??$__crt_fast_encode_pointer@P6AHXZ@@YAP6AHXZQ6AHXZ@Z 1009998b f i libucrt:onexit.obj
 0001:00098bad       __crt_atexit               10099bad f   libucrt:onexit.obj
 0001:00098bc3       __execute_onexit_table     10099bc3 f   libucrt:onexit.obj
 0001:00098bf0       __initialize_onexit_table  10099bf0 f   libucrt:onexit.obj
 0001:00098c19       __register_onexit_function 10099c19 f   libucrt:onexit.obj
 0001:00098d47       ___acrt_initialize         10099d47 f   libucrt:initialization.obj
 0001:00098d59       ___acrt_thread_attach      10099d59 f   libucrt:initialization.obj
 0001:00098d64       ___acrt_thread_detach      10099d64 f   libucrt:initialization.obj
 0001:00098d6c       ___acrt_uninitialize       10099d6c f   libucrt:initialization.obj
 0001:00098d9c       ___acrt_uninitialize_critical 10099d9c f   libucrt:initialization.obj
 0001:00098dae       __errcode                  10099dae f   libucrt:fpexcept.obj
 0001:00098de2       __except1                  10099de2 f   libucrt:fpexcept.obj
 0001:00098eb0       __handle_exc               10099eb0 f   libucrt:fpexcept.obj
 0001:0009909b       __raise_exc                1009a09b f   libucrt:fpexcept.obj
 0001:000990be       __raise_exc_ex             1009a0be f   libucrt:fpexcept.obj
 0001:000993b4       __set_errno_from_matherr   1009a3b4 f   libucrt:fpexcept.obj
 0001:000993e3       __umatherr                 1009a3e3 f   libucrt:fpexcept.obj
 0001:00099483       __initterm                 1009a483 f   libucrt:initterm.obj
 0001:000994c8       __initterm_e               1009a4c8 f   libucrt:initterm.obj
 0001:00099500       __CIexp                    1009a500 f   libucrt:87ctran.obj
 0001:0009953b       __exp_default              1009a53b f   libucrt:87ctran.obj
 0001:00099545       __CIexp_default            1009a545 f   libucrt:87ctran.obj
 0001:00099550       __CIsqrt                   1009a550 f   libucrt:sqrt_impl.obj
 0001:00099564       __sqrt_common              1009a564     libucrt:sqrt_impl.obj
 0001:000996cc       _wcsncpy_s                 1009a6cc f   libucrt:wcsncpy_s.obj
 0001:000996d7       _wcsncmp                   1009a6d7 f   libucrt:wcsncmp.obj
 0001:00099711       __wtol                     1009a711 f   libucrt:atox.obj
 0001:00099734       _atol                      1009a734 f   libucrt:atox.obj
 0001:00099a95       ___acrt_freeptd            1009aa95 f   libucrt:per_thread_data.obj
 0001:00099ac1       ___acrt_getptd             1009aac1 f   libucrt:per_thread_data.obj
 0001:00099b7e       ___acrt_getptd_head        1009ab7e f   libucrt:per_thread_data.obj
 0001:00099c18       ___acrt_getptd_noexit      1009ac18 f   libucrt:per_thread_data.obj
 0001:00099ccd       ___acrt_initialize_ptd     1009accd f   libucrt:per_thread_data.obj
 0001:00099cf9       ___acrt_uninitialize_ptd   1009acf9 f   libucrt:per_thread_data.obj
 0001:00099d13       ___acrt_update_locale_info 1009ad13 f   libucrt:locale_update.obj
 0001:00099d40       ___acrt_update_multibyte_info 1009ad40 f   libucrt:locale_update.obj
 0001:00099e6d       ??0_expandlocale_locale_name_cache@@QAE@QA_WIQAU__crt_qualified_locale_data@@@Z 1009ae6d f i libucrt:wsetlocale.obj
 0001:00099eb7       ??1_expandlocale_locale_name_cache@@QAE@XZ 1009aeb7 f i libucrt:wsetlocale.obj
 0001:0009a04f       ?commit_locale_name@_expandlocale_locale_name_cache@@QAEXQB_WI@Z 1009b04f f i libucrt:wsetlocale.obj
 0001:0009a093       ?commit_locale_name_cache_already_updated@_expandlocale_locale_name_cache@@QAEXQB_WI@Z 1009b093 f i libucrt:wsetlocale.obj
 0001:0009a0c8       ___acrt_copy_locale_name   1009b0c8 f   libucrt:wsetlocale.obj
 0001:0009a128       ___acrt_set_locale_changed 1009b128 f   libucrt:wsetlocale.obj
 0001:0009a133       ___acrt_uninitialize_locale 1009b133 f   libucrt:wsetlocale.obj
 0001:0009a15a       ___lc_lctowcs              1009b15a f   libucrt:wsetlocale.obj
 0001:0009a1ca       ___lc_wcstolc              1009b1ca f   libucrt:wsetlocale.obj
 0001:0009a70f       __wcscats                  1009b70f f   libucrt:wsetlocale.obj
 0001:0009a750       __wsetlocale               1009b750 f   libucrt:wsetlocale.obj
 0001:0009b455       __free_base                1009c455 f   libucrt:free_base.obj
 0001:0009b48f       __realloc_base             1009c48f f   libucrt:realloc_base.obj
 0001:0009b4f8       __calloc_base              1009c4f8 f   libucrt:calloc_base.obj
 0001:0009b8a9       ___acrt_AppPolicyGetProcessTerminationMethodInternal@4 1009c8a9 f   libucrt:winapi_thunks.obj
 0001:0009b8e9       ___acrt_AppPolicyGetShowDeveloperDiagnosticInternal@4 1009c8e9 f   libucrt:winapi_thunks.obj
 0001:0009b929       ___acrt_AppPolicyGetWindowingModelInternal@4 1009c929 f   libucrt:winapi_thunks.obj
 0001:0009b969       ___acrt_AreFileApisANSI@0  1009c969 f   libucrt:winapi_thunks.obj
 0001:0009b988       ___acrt_CompareStringEx@36 1009c988 f   libucrt:winapi_thunks.obj
 0001:0009b9e5       ___acrt_EnumSystemLocalesEx@16 1009c9e5 f   libucrt:winapi_thunks.obj
 0001:0009ba39       ___acrt_FlsAlloc@4         1009ca39 f   libucrt:winapi_thunks.obj
 0001:0009ba78       ___acrt_FlsFree@4          1009ca78 f   libucrt:winapi_thunks.obj
 0001:0009bab7       ___acrt_FlsGetValue@4      1009cab7 f   libucrt:winapi_thunks.obj
 0001:0009baf6       ___acrt_FlsSetValue@8      1009caf6 f   libucrt:winapi_thunks.obj
 0001:0009bb38       ___acrt_GetDateFormatEx@28 1009cb38 f   libucrt:winapi_thunks.obj
 0001:0009bb8f       ___acrt_GetLocaleInfoEx@16 1009cb8f f   libucrt:winapi_thunks.obj
 0001:0009bbce       ___acrt_GetTimeFormatEx@24 1009cbce f   libucrt:winapi_thunks.obj
 0001:0009bc13       ___acrt_GetUserDefaultLocaleName@8 1009cc13 f   libucrt:winapi_thunks.obj
 0001:0009bc4f       ___acrt_InitializeCriticalSectionEx@12 1009cc4f f   libucrt:winapi_thunks.obj
 0001:0009bc9a       ___acrt_IsValidLocaleName@4 1009cc9a f   libucrt:winapi_thunks.obj
 0001:0009bcd2       ___acrt_LCIDToLocaleName@16 1009ccd2 f   libucrt:winapi_thunks.obj
 0001:0009bd11       ___acrt_LCMapStringEx@36   1009cd11 f   libucrt:winapi_thunks.obj
 0001:0009bd6e       ___acrt_LocaleNameToLCID@8 1009cd6e f   libucrt:winapi_thunks.obj
 0001:0009bd9f       ___acrt_MessageBoxW@16     1009cd9f f   libucrt:winapi_thunks.obj
 0001:0009bdd1       ___acrt_RtlGenRandom@8     1009cdd1 f   libucrt:winapi_thunks.obj
 0001:0009be11       ___acrt_can_show_message_box 1009ce11 f   libucrt:winapi_thunks.obj
 0001:0009be38       ___acrt_can_use_vista_locale_apis 1009ce38 f   libucrt:winapi_thunks.obj
 0001:0009be43       ___acrt_eagerly_load_locale_apis 1009ce43 f   libucrt:winapi_thunks.obj
 0001:0009be7a       ___acrt_get_parent_window  1009ce7a f   libucrt:winapi_thunks.obj
 0001:0009bee2       ___acrt_initialize_winapi_thunks 1009cee2 f   libucrt:winapi_thunks.obj
 0001:0009bf0d       ___acrt_is_interactive     1009cf0d f   libucrt:winapi_thunks.obj
 0001:0009bfac       ___acrt_uninitialize_winapi_thunks 1009cfac f   libucrt:winapi_thunks.obj
 0001:0009bfe2       __fcloseall                1009cfe2 f   libucrt:closeall.obj
 0001:0009c08d       ___acrt_stdio_free_buffer_nolock 1009d08d f   libucrt:_freebuf.obj
 0001:0009c237       ___acrt_initialize_lowio   1009d237 f   libucrt:ioinit.obj
 0001:0009c297       ___acrt_uninitialize_lowio 1009d297 f   libucrt:ioinit.obj
 0001:0009c34f       __close                    1009d34f f   libucrt:close.obj
 0001:0009c3dc       __close_nolock             1009d3dc f   libucrt:close.obj
 0001:0009c478       __fileno                   1009d478 f   libucrt:fileno.obj
 0001:0009c49f       ?__acrt_stdio_allocate_stream@@YA?AV__crt_stdio_stream@@XZ 1009d49f f   libucrt:stream.obj
 0001:0009c508       ?__acrt_stdio_free_stream@@YAXV__crt_stdio_stream@@@Z 1009d508 f   libucrt:stream.obj
 0001:0009c6a7       __commit                   1009d6a7 f   libucrt:commit.obj
 0001:0009ce9d       __write                    1009de9d f   libucrt:write.obj
 0001:0009cf8f       __write_nolock             1009df8f f   libucrt:write.obj
 0001:0009d2fb       ___acrt_stdio_refill_and_read_narrow_nolock 1009e2fb f   libucrt:_filbuf.obj
 0001:0009d753       ___acrt_stdio_flush_and_write_narrow_nolock 1009e753 f   libucrt:_flsbuf.obj
 0001:0009d75e       ___acrt_stdio_flush_and_write_wide_nolock 1009e75e f   libucrt:_flsbuf.obj
 0001:0009dc6d       __read                     1009ec6d f   libucrt:read.obj
 0001:0009dd81       __read_nolock              1009ed81 f   libucrt:read.obj
 0001:0009e2b9       __lseeki64                 1009f2b9 f   libucrt:lseek.obj
 0001:0009e2d4       __lseeki64_nolock          1009f2d4 f   libucrt:lseek.obj
 0001:0009e2ef       ___acrt_stdio_begin_temporary_buffering_nolock 1009f2ef f   libucrt:_sftbuf.obj
 0001:0009e3a2       ___acrt_stdio_end_temporary_buffering_nolock 1009f3a2 f   libucrt:_sftbuf.obj
 0001:0009e3dc       __malloc_base              1009f3dc f   libucrt:malloc_base.obj
 0001:0009e42a       ___acrt_stdio_allocate_buffer_nolock 1009f42a f   libucrt:_getbuf.obj
 0001:0009e490       __CIcos                    1009f490 f   libucrt:cos_impl.obj
 0001:0009e4cb       __CIcos_default            1009f4cb f   libucrt:cos_impl.obj
 0001:0009e4df       __cos_default              1009f4df     libucrt:cos_impl.obj
 0001:0009e580       __CIsin                    1009f580 f   libucrt:sin_impl.obj
 0001:0009e5bb       __CIsin_default            1009f5bb f   libucrt:sin_impl.obj
 0001:0009e5cf       __sin_default              1009f5cf     libucrt:sin_impl.obj
 0001:0009e662       ___libm_error_support      1009f662 f   libucrt:libm_error.obj
 0001:0009e860       _sqrt                      1009f860 f   libucrt:sqrt.obj
 0001:0009e86e       ___acrt_initialize_sse2    1009f86e f   libucrt:mathfcns.obj
 0001:0009e87e       __floor_default            1009f87e f   libucrt:floor.obj
 0001:0009e933       __fdunscale                1009f933 f   libucrt:_unscale.obj
 0001:0009e9ba       __ceil_default             1009f9ba f   libucrt:ceil.obj
 0001:0009ea90       __fFATN2                   1009fa90 f   libucrt:87triga.obj
 0001:0009eae0       __rtpiby2                  1009fae0     libucrt:87triga.obj
 0001:0009eaf0       __rtforatn20               1009faf0 f   libucrt:87triga.obj
 0001:0009eb20       __rtforatnby0              1009fb20 f   libucrt:87triga.obj
 0001:0009eb30       __cintrindisp2             1009fb30 f   libucrt:87cdisp.obj
 0001:0009eb80       __cintrindisp1             1009fb80 f   libucrt:87cdisp.obj
 0001:0009ebc9       __ctrandisp2               1009fbc9 f   libucrt:87cdisp.obj
 0001:0009ed58       __ctrandisp1               1009fd58 f   libucrt:87cdisp.obj
 0001:0009ed8b       __fload                    1009fd8b f   libucrt:87cdisp.obj
 0001:0009edd0       __CIasin                   1009fdd0 f   libucrt:asin_impl.obj
 0001:0009ee0b       __CIasin_default           1009fe0b f   libucrt:asin_impl.obj
 0001:0009ee1f       __asin_default             1009fe1f     libucrt:asin_impl.obj
 0001:0009eed6       __mbtowc_l                 1009fed6 f   libucrt:mbtowc.obj
 0001:0009f018       _mbtowc                    100a0018 f   libucrt:mbtowc.obj
 0001:0009f032       __wctomb_s_l               100a0032 f   libucrt:wctomb.obj
 0001:0009f18d       _wctomb_s                  100a018d f   libucrt:wctomb.obj
 0001:0009f1aa       ?__acrt_fp_classify@@YA?AW4__acrt_fp_class@@ABN@Z 100a01aa f i libucrt:cvt.obj
 0001:0009f9f5       ___acrt_fp_format          100a09f5 f   libucrt:cvt.obj
 0001:0009fb60       __fputwc_nolock            100a0b60 f   libucrt:fputwc.obj
 0001:0009fc89       __get_printf_count_output  100a0c89 f   libucrt:printf_count_output.obj
 0001:0009fca0       __trandisp1                100a0ca0 f   libucrt:87disp.obj
 0001:0009fd15       __trandisp2                100a0d15 f   libucrt:87disp.obj
 0001:0009fdaf       __rttospopde               100a0daf     libucrt:87disp.obj
 0001:0009fdb4       __rttospop                 100a0db4     libucrt:87disp.obj
 0001:0009fdc0       __rtnospop                 100a0dc0 f   libucrt:87disp.obj
 0001:0009fdd0       __rttosnpop                100a0dd0 f   libucrt:87disp.obj
 0001:0009fdd1       __rtnospopde               100a0dd1     libucrt:87disp.obj
 0001:0009fdd8       __rtzeropop                100a0dd8     libucrt:87disp.obj
 0001:0009fdda       __rtzeronpop               100a0dda     libucrt:87disp.obj
 0001:0009fde0       __rtzerospop               100a0de0 f   libucrt:87disp.obj
 0001:0009fded       __rtonepop                 100a0ded     libucrt:87disp.obj
 0001:0009fdf0       __rtonenpop                100a0df0 f   libucrt:87disp.obj
 0001:0009fe00       __tosnan1                  100a0e00 f   libucrt:87disp.obj
 0001:0009fe30       __nosnan2                  100a0e30 f   libucrt:87disp.obj
 0001:0009fe40       __tosnan2                  100a0e40 f   libucrt:87disp.obj
 0001:0009fe70       __nan2                     100a0e70 f   libucrt:87disp.obj
 0001:0009feb0       __rtindfpop                100a0eb0 f   libucrt:87disp.obj
 0001:0009feb2       __rtindfnpop               100a0eb2     libucrt:87disp.obj
 0001:0009fec3       __rttosnpopde              100a0ec3     libucrt:87disp.obj
 0001:0009fed0       __rtatan2inf               100a0ed0 f   libucrt:87disp.obj
 0001:0009feed       __rtchsifneg               100a0eed     libucrt:87disp.obj
 0001:0009fef4       _iswctype                  100a0ef4 f   libucrt:iswctype.obj
 0001:0009ff5d       __isctype_l                100a0f5d f   libucrt:isctype.obj
 0001:000a0028       ___acrt_MultiByteToWideChar 100a1028 f   libucrt:multibytetowidechar.obj
 0001:000a00a4       __wremove                  100a10a4 f   libucrt:wunlink.obj
 0001:000a00cc       __query_app_type           100a10cc f   libucrt:report_runtime_error.obj
 0001:000a01f7       __itow_s                   100a11f7 f   libucrt:xtoa.obj
 0001:000a022a       __set_error_mode           100a122a f   libucrt:set_error_mode.obj
 0001:000a0269       _wcscat_s                  100a1269 f   libucrt:wcscat_s.obj
 0001:000a03c5       _wcsncat_s                 100a13c5 f   libucrt:wcsncat_s.obj
 0001:000a03d0       ___acrt_GetModuleFileNameA 100a13d0 f   libucrt:getmodulefilenamea.obj
 0001:000a04ef       ___acrt_show_wide_message_box 100a14ef f   libucrt:crtmbox.obj
 0001:000a05c8       ___acrt_get_sigabrt_handler 100a15c8 f   libucrt:signal.obj
 0001:000a05ef       ___acrt_initialize_signal_handlers 100a15ef f   libucrt:signal.obj
 0001:000a060d       ___fpecode                 100a160d f   libucrt:signal.obj
 0001:000a0616       _raise                     100a1616 f   libucrt:signal.obj
 0001:000a0811       ??$__acrt_stdio_parse_mode@D@@YA?AU__acrt_stdio_stream_mode@@QBD@Z 100a1811 f i libucrt:openfile.obj
 0001:000a0a3b       ??$__acrt_stdio_parse_mode@_W@@YA?AU__acrt_stdio_stream_mode@@QB_W@Z 100a1a3b f i libucrt:openfile.obj
 0001:000a0dac       ?__acrt_stdio_parse_mode_D@@YA_NAAU__acrt_stdio_stream_mode@@@Z 100a1dac f i libucrt:openfile.obj
 0001:000a0dc7       ?__acrt_stdio_parse_mode_T@@YA_NAAU__acrt_stdio_stream_mode@@@Z 100a1dc7 f i libucrt:openfile.obj
 0001:000a0de6       ?__acrt_stdio_parse_mode_b@@YA_NAAU__acrt_stdio_stream_mode@@@Z 100a1de6 f i libucrt:openfile.obj
 0001:000a0e06       ?__acrt_stdio_parse_mode_c@@YA_NAAU__acrt_stdio_stream_mode@@AA_N@Z 100a1e06 f i libucrt:openfile.obj
 0001:000a0e28       ?__acrt_stdio_parse_mode_n@@YA_NAAU__acrt_stdio_stream_mode@@AA_N@Z 100a1e28 f i libucrt:openfile.obj
 0001:000a0e4a       ?__acrt_stdio_parse_mode_plus@@YA_NAAU__acrt_stdio_stream_mode@@AA_N@Z 100a1e4a f i libucrt:openfile.obj
 0001:000a0e80       ?__acrt_stdio_parse_mode_t@@YA_NAAU__acrt_stdio_stream_mode@@@Z 100a1e80 f i libucrt:openfile.obj
 0001:000a0ea0       ?__acrt_stdio_parse_mode_x@@YA_NAAU__acrt_stdio_stream_mode@@@Z 100a1ea0 f i libucrt:openfile.obj
 0001:000a0ec0       __openfile                 100a1ec0 f   libucrt:openfile.obj
 0001:000a0ecb       __wopenfile                100a1ecb f   libucrt:openfile.obj
 0001:000a0ed6       _fegetround                100a1ed6 f   libucrt:fegetround.obj
 0001:000a0ee3       __isleadbyte_l             100a1ee3 f i libucrt:_wctype.obj
 0001:000a1107       ___acrt_LCMapStringA       100a2107 f   libucrt:lcmapstringa.obj
 0001:000a1150       __CIacos                   100a2150 f   libucrt:acos_impl.obj
 0001:000a118b       __CIacos_default           100a218b f   libucrt:acos_impl.obj
 0001:000a119f       __acos_default             100a219f     libucrt:acos_impl.obj
 0001:000a1260       __CIlog                    100a2260 f   libucrt:log_impl.obj
 0001:000a129b       __CIlog_default            100a229b f   libucrt:log_impl.obj
 0001:000a12af       __log_default              100a22af     libucrt:log_impl.obj
 0001:000a1370       ___ascii_strnicmp          100a2370 f   libucrt:_strnicm.obj
 0001:000a13d1       __dsign                    100a23d1 f   libucrt:nan.obj
 0001:000a13e1       __decomp                   100a23e1 f   libucrt:util.obj
 0001:000a14b3       __set_exp                  100a24b3 f   libucrt:util.obj
 0001:000a14e0       __sptype                   100a24e0 f   libucrt:util.obj
 0001:000a153e       __clrfp                    100a253e f   libucrt:fpctrl.obj
 0001:000a154f       __ctrlfp                   100a254f f   libucrt:fpctrl.obj
 0001:000a1579       __set_statfp               100a2579 f   libucrt:fpctrl.obj
 0001:000a15d2       __statfp                   100a25d2 f   libucrt:fpctrl.obj
 0001:000a15e2       ___acrt_initialize_timeset 100a25e2 f   libucrt:timeset.obj
 0001:000a160d       ___daylight                100a260d f   libucrt:timeset.obj
 0001:000a1613       ___dstbias                 100a2613 f   libucrt:timeset.obj
 0001:000a1619       ___timezone                100a2619 f   libucrt:timeset.obj
 0001:000a161f       ___tzname                  100a261f f   libucrt:timeset.obj
 0001:000a1625       __get_daylight             100a2625 f   libucrt:timeset.obj
 0001:000a1651       __get_dstbias              100a2651 f   libucrt:timeset.obj
 0001:000a167d       __get_timezone             100a267d f   libucrt:timeset.obj
 0001:000a16a9       ??$__crt_time_elapsed_leap_years@H@@YAHH@Z 100a26a9 f i libucrt:gmtime.obj
 0001:000a18e6       ___getgmtimebuf            100a28e6 f   libucrt:gmtime.obj
 0001:000a1924       __gmtime64_s               100a2924 f   libucrt:gmtime.obj
 0001:000a209d       ___tzset                   100a309d f   libucrt:tzset.obj
 0001:000a20fa       __isindst                  100a30fa f   libucrt:tzset.obj
 0001:000a214e       ___acrt_WideCharToMultiByte 100a314e f   libucrt:widechartomultibyte.obj
 0001:000a21fb       _fegetexceptflag           100a31fb f   libucrt:fegetexceptflag.obj
 0001:000a222c       _fesetexceptflag           100a322c f   libucrt:fesetexceptflag.obj
 0001:000a2592       ___acrt_fenv_get_common_round_control 100a3592 f   libucrt:_fenvutils.obj
 0001:000a25b4       ___acrt_fenv_get_control   100a35b4 f   libucrt:_fenvutils.obj
 0001:000a2634       ___acrt_fenv_get_fp_status_word_from_exception_mask 100a3634 f   libucrt:_fenvutils.obj
 0001:000a264e       ___acrt_fenv_get_status    100a364e f   libucrt:_fenvutils.obj
 0001:000a2706       ___acrt_fenv_set_control   100a3706 f   libucrt:_fenvutils.obj
 0001:000a276e       ___acrt_fenv_set_status    100a376e f   libucrt:_fenvutils.obj
 0001:000a2891       ?__mbrtowc_utf8@__crt_mbstring@@YAIPA_WPBDIPAU_Mbstatet@@@Z 100a3891 f   libucrt:mbrtowc.obj
 0001:000a28d1       ?__mbsrtowcs_utf8@__crt_mbstring@@YAIPA_WPAPBDIPAU_Mbstatet@@@Z 100a38d1 f   libucrt:mbrtowc.obj
 0001:000a2aab       ___acrt_GetLocaleInfoA     100a3aab f   libucrt:getlocaleinfoa.obj
 0001:000a2c5b       ___acrt_GetStringTypeA     100a3c5b f   libucrt:getstringtypea.obj
 0001:000a3007       __wcstombs_s_l             100a4007 f   libucrt:wcstombs.obj
 0001:000a30d2       ___acrt_get_developer_information_policy 100a40d2 f   libucrt:win_policies.obj
 0001:000a3116       ___acrt_get_process_end_policy 100a4116 f   libucrt:win_policies.obj
 0001:000a3147       ___acrt_get_windowing_model_policy 100a4147 f   libucrt:win_policies.obj
 0001:000a31a3       __fpclass                  100a41a3 f   libucrt:ieeemisc.obj
 0001:000a3250       __CIpow_pentium4           100a4250 f   libucrt:pow_pentium4.obj
 0001:000a3269       __pow_pentium4             100a4269     libucrt:pow_pentium4.obj
 0001:000a3d90       __fFEXP                    100a4d90 f   libucrt:87tran.obj
 0001:000a3de7       __rtinfpopse               100a4de7     libucrt:87tran.obj
 0001:000a3de9       __rtinfnpopse              100a4de9     libucrt:87tran.obj
 0001:000a3df9       __fFLN                     100a4df9     libucrt:87tran.obj
 0001:000a3eae       __rtinfpop                 100a4eae     libucrt:87tran.obj
 0001:000a3eb0       __rtinfnpop                100a4eb0     libucrt:87tran.obj
 0001:000a3ec0       __rtforexpinf              100a4ec0 f   libucrt:87tran.obj
 0001:000a3ecd       __ffexpm1                  100a4ecd     libucrt:87tran.obj
 0001:000a3f80       __startTwoArgErrorHandling 100a4f80 f   libucrt:genexcep.obj
 0001:000a3f97       __startOneArgErrorHandling 100a4f97 f   libucrt:genexcep.obj
 0001:000a3fe0       __twoToTOS                 100a4fe0 f   libucrt:common.obj
 0001:000a3ff5       __load_CW                  100a4ff5 f   libucrt:common.obj
 0001:000a400c       __convertTOStoQNaN         100a500c f   libucrt:common.obj
 0001:000a4025       __fload_withFB             100a5025 f   libucrt:common.obj
 0001:000a4068       __checkTOS_withFB          100a5068 f   libucrt:common.obj
 0001:000a407e       __fast_exit                100a507e f   libucrt:common.obj
 0001:000a408b       __math_exit                100a508b f   libucrt:common.obj
 0001:000a40b5       __check_overflow_exit      100a50b5 f   libucrt:common.obj
 0001:000a40c9       __check_range_exit         100a50c9 f   libucrt:common.obj
 0001:000a416c       __d_inttype                100a516c f   libucrt:powhlp.obj
 0001:000a41d4       __powhlp                   100a51d4 f   libucrt:powhlp.obj
 0001:000a42ff       ___ascii_wcsicmp           100a52ff f   libucrt:wcsicmp.obj
 0001:000a433c       __towlower_internal        100a533c f i libucrt:wcsicmp.obj
 0001:000a437b       __wcsicmp                  100a537b f   libucrt:wcsicmp.obj
 0001:000a43c4       __wcsicmp_l                100a53c4 f   libucrt:wcsicmp.obj
 0001:000a4a5a       ?allocate@?$__crt_win32_buffer@DU__crt_win32_buffer_internal_dynamic_resizing@@@@QAEHI@Z 100a5a5a f i libucrt:argv_wildcards.obj
 0001:000a4b1d       ___acrt_expand_narrow_argv_wildcards 100a5b1d f   libucrt:argv_wildcards.obj
 0001:000a5046       ___acrt_initialize_multibyte 100a6046 f   libucrt:mbctype.obj
 0001:000a508e       ___acrt_update_thread_multibyte_data 100a608e f   libucrt:mbctype.obj
 0001:000a50a1       __setmbcp_nolock           100a60a1 f   libucrt:mbctype.obj
 0001:000a52eb       __ismbblead                100a62eb f   libucrt:ismbbyte.obj
 0001:000a5303       ___acrt_initialize_command_line 100a6303 f   libucrt:argv_data.obj
 0001:000a5353       ___dcrt_get_narrow_environment_from_os 100a6353 f   libucrt:get_environment_from_os.obj
 0001:000a5734       ___dcrt_set_variable_in_narrow_environment_nolock 100a6734 f   libucrt:setenv.obj
 0001:000a573f       __recalloc_base            100a673f f   libucrt:recalloc.obj
 0001:000a57ac       ___acrt_initialize_heap    100a67ac f   libucrt:heap_handle.obj
 0001:000a57bd       ___acrt_uninitialize_heap  100a67bd f   libucrt:heap_handle.obj
 0001:000a57c7       ___acrt_execute_initializers 100a67c7 f   libucrt:shared_initialization.obj
 0001:000a582f       ___acrt_execute_uninitializers 100a682f f   libucrt:shared_initialization.obj
 0001:000a5860       ___acrt_has_user_matherr   100a6860 f   libucrt:matherr.obj
 0001:000a5878       ___acrt_initialize_user_matherr 100a6878 f   libucrt:matherr.obj
 0001:000a5887       ___acrt_invoke_user_matherr 100a6887 f   libucrt:matherr.obj
 0001:000a58c0       __CIexp_pentium4           100a68c0 f   libucrt:exp_pentium4.obj
 0001:000a58d8       __exp_pentium4             100a68d8     libucrt:exp_pentium4.obj
 0001:000a5b80       ___acrt_add_locale_ref     100a6b80 f   libucrt:locale_refcounting.obj
 0001:000a5bfd       ___acrt_free_locale        100a6bfd f   libucrt:locale_refcounting.obj
 0001:000a5d45       ___acrt_locale_add_lc_time_reference 100a6d45 f   libucrt:locale_refcounting.obj
 0001:000a5d6e       ___acrt_locale_free_lc_time_if_unreferenced 100a6d6e f   libucrt:locale_refcounting.obj
 0001:000a5d9f       ___acrt_locale_release_lc_time_reference 100a6d9f f   libucrt:locale_refcounting.obj
 0001:000a5dc8       ___acrt_release_locale_ref 100a6dc8 f   libucrt:locale_refcounting.obj
 0001:000a5e49       ___acrt_update_thread_locale_data 100a6e49 f   libucrt:locale_refcounting.obj
 0001:000a5eca       __updatetlocinfoEx_nolock  100a6eca f   libucrt:locale_refcounting.obj
 0001:000a5f1a       ___acrt_locale_free_monetary 100a6f1a f   libucrt:initmon.obj
 0001:000a6018       ___acrt_locale_initialize_monetary 100a7018 f   libucrt:initmon.obj
 0001:000a63cf       ___acrt_locale_free_numeric 100a73cf f   libucrt:initnum.obj
 0001:000a6438       ___acrt_locale_initialize_numeric 100a7438 f   libucrt:initnum.obj
 0001:000a68fb       ___acrt_locale_free_time   100a78fb f   libucrt:inittime.obj
 0001:000a69df       ___acrt_locale_initialize_time 100a79df f   libucrt:inittime.obj
 0001:000a6a5a       _wcscspn                   100a7a5a f   libucrt:wcscspn.obj
 0001:000a6ab3       _wcspbrk                   100a7ab3 f   libucrt:wcspbrk.obj
 0001:000a71fd       ___acrt_get_qualified_locale 100a81fd f   libucrt:get_qualified_locale.obj
 0001:000a7b5e       ___acrt_get_qualified_locale_downlevel 100a8b5e f   libucrt:getqloc_downlevel.obj
 0001:000a7d53       __query_new_mode           100a8d53 f   libucrt:new_mode.obj
 0001:000a7daa       ___acrt_DownlevelLCIDToLocaleName 100a8daa f   libucrt:lcidtoname_downlevel.obj
 0001:000a7e54       ___acrt_DownlevelLocaleNameToLCID 100a8e54 f   libucrt:lcidtoname_downlevel.obj
 0001:000a7e80       ___acrt_lowio_create_handle_array 100a8e80 f   libucrt:osfinfo.obj
 0001:000a7efb       ___acrt_lowio_destroy_handle_array 100a8efb f   libucrt:osfinfo.obj
 0001:000a7f30       ___acrt_lowio_ensure_fh_exists 100a8f30 f   libucrt:osfinfo.obj
 0001:000a7fce       ___acrt_lowio_lock_fh      100a8fce f   libucrt:osfinfo.obj
 0001:000a7ff1       ___acrt_lowio_set_os_handle 100a8ff1 f   libucrt:osfinfo.obj
 0001:000a8083       ___acrt_lowio_unlock_fh    100a9083 f   libucrt:osfinfo.obj
 0001:000a80a6       __alloc_osfhnd             100a90a6 f   libucrt:osfinfo.obj
 0001:000a81b9       __free_osfhnd              100a91b9 f   libucrt:osfinfo.obj
 0001:000a824a       __get_osfhandle            100a924a f   libucrt:osfinfo.obj
 0001:000a82b4       __isatty                   100a92b4 f   libucrt:isatty.obj
 0001:000a830a       __putwch_nolock            100a930a f   libucrt:putwch.obj
 0001:000a8340       __CIcos_pentium4           100a9340 f   libucrt:cos_pentium4.obj
 0001:000a8358       __cos_pentium4             100a9358     libucrt:cos_pentium4.obj
 0001:000a84f0       __CIsin_pentium4           100a94f0 f   libucrt:sin_pentium4.obj
 0001:000a8508       __sin_pentium4             100a9508     libucrt:sin_pentium4.obj
 0001:000a86b8       __frnd                     100a96b8 f   libucrt:frnd.obj
 0001:000a86cc       __fdnorm                   100a96cc f   libucrt:_norm.obj
 0001:000a87a1       __87except                 100a97a1 f   libucrt:87except.obj
 0001:000a88b0       __CIasin_pentium4          100a98b0 f   libucrt:asin_pentium4.obj
 0001:000a88c8       __asin_pentium4            100a98c8     libucrt:asin_pentium4.obj
 0001:000a8e30       ?__c32rtomb_utf8@__crt_mbstring@@YAIPAD_UPAU_Mbstatet@@@Z 100a9e30 f   libucrt:c32rtomb.obj
 0001:000a8edb       ?return_illegal_sequence@__crt_mbstring@@YAIPAU_Mbstatet@@@Z 100a9edb f i libucrt:c32rtomb.obj
 0001:000a8efa       _c32rtomb                  100a9efa f   libucrt:c32rtomb.obj
 0001:000a8f05       ___acrt_fp_strflt_to_string 100a9f05 f   libucrt:_fptostr.obj
 0001:000a8fc5       ___acrt_fltout             100a9fc5 f   libucrt:cfout.obj
 0001:000aa30f       ___acrt_GetStringTypeW     100ab30f f   libucrt:getstringtypew.obj
 0001:000aa328       ___ascii_wcsnicmp          100ab328 f   libucrt:wcsnicmp.obj
 0001:000aa377       __wcsnicmp                 100ab377 f   libucrt:wcsnicmp.obj
 0001:000aa3c3       __wcsnicmp_l               100ab3c3 f   libucrt:wcsnicmp.obj
 0001:000aab24       __sopen_nolock             100abb24 f   libucrt:open.obj
 0001:000aab92       __sopen_s                  100abb92 f   libucrt:open.obj
 0001:000aabb2       __wsopen_nolock            100abbb2 f   libucrt:open.obj
 0001:000aaedc       __wsopen_s                 100abedc f   libucrt:open.obj
 0001:000aaf00       __CIacos_pentium4          100abf00 f   libucrt:acos_pentium4.obj
 0001:000aaf18       __acos_pentium4            100abf18     libucrt:acos_pentium4.obj
 0001:000ab460       __CIlog_pentium4           100ac460 f   libucrt:log_pentium4.obj
 0001:000ab478       __log_pentium4             100ac478     libucrt:log_pentium4.obj
 0001:000ab842       _getenv_s                  100ac842 f   libucrt:getenv.obj
 0001:000ab900       _strncpy_s                 100ac900 f   libucrt:strncpy_s.obj
 0001:000ab90b       _fetestexcept              100ac90b f   libucrt:fetestexcept.obj
 0001:000ab92b       ?__mbrtoc32_utf8@__crt_mbstring@@YAIPA_UPBDIPAU_Mbstatet@@@Z 100ac92b f   libucrt:mbrtoc32.obj
 0001:000abad2       ?__wcsrtombs_utf8@__crt_mbstring@@YAIPADPAPB_WIPAU_Mbstatet@@@Z 100acad2 f   libucrt:wcrtomb.obj
 0001:000abbd0       __towlower_l               100acbd0 f   libucrt:towlower.obj
 0001:000abc80       _strpbrk                   100acc80 f   libucrt:strpbrk.obj
 0001:000abcc0       __mbsdec                   100accc0 f   libucrt:mbsdec.obj
 0001:000abcd7       __mbsdec_l                 100accd7 f   libucrt:mbsdec.obj
 0001:000abd73       __strnicoll                100acd73 f   libucrt:strnicol.obj
 0001:000abd9c       __strnicoll_l              100acd9c f   libucrt:strnicol.obj
 0001:000abe64       ___acrt_SetEnvironmentVariableA 100ace64 f   libucrt:setenvironmentvariablea.obj
 0001:000abef9       __msize_base               100acef9 f   libucrt:msize.obj
 0001:000abf4b       ___dcrt_lowio_ensure_console_output_initialized 100acf4b f   libucrt:initcon.obj
 0001:000abf6a       ___dcrt_terminate_console_output 100acf6a f   libucrt:initcon.obj
 0001:000abf81       ___dcrt_write_console      100acf81 f   libucrt:initcon.obj
 0001:000abfd6       _fegetenv                  100acfd6 f   libucrt:fegetenv.obj
 0001:000abff3       _fesetenv                  100acff3 f   libucrt:fesetenv.obj
 0001:000ac03e       _feholdexcept              100ad03e f   libucrt:feholdexcept.obj
 0001:000ac090       __CIlog10                  100ad090 f   libucrt:log10_impl.obj
 0001:000ac0cb       __CIlog10_default          100ad0cb f   libucrt:log10_impl.obj
 0001:000ac0df       __log10_default            100ad0df     libucrt:log10_impl.obj
 0001:000ac1a0       __get_fmode                100ad1a0 f   libucrt:setmode.obj
 0001:000ac1cd       __setmode_nolock           100ad1cd f   libucrt:setmode.obj
 0001:000ac29c       ??0__crt_seek_guard@@QAE@H_J@Z 100ad29c f i libucrt:chsize.obj
 0001:000ac2e9       __chsize_nolock            100ad2e9 f   libucrt:chsize.obj
 0001:000ac459       ?__c16rtomb_utf8@__crt_mbstring@@YAIPAD_SPAU_Mbstatet@@@Z 100ad459 f   libucrt:c16rtomb.obj
 0001:000ac4f3       ___acrt_LCMapStringW       100ad4f3 f   libucrt:lcmapstringw.obj
 0001:000ac7bc       ___acrt_CompareStringA     100ad7bc f   libucrt:comparestringa.obj
 0001:000ac802       __clearfp                  100ad802 f   libucrt:ieee87.obj
 0001:000ac8e0       __CIlog10_pentium4         100ad8e0 f   libucrt:log10_pentium4.obj
 0001:000ac8f8       __log10_pentium4           100ad8f8     libucrt:log10_pentium4.obj
 0001:000acb70       _IsProcessorFeaturePresent@4 100adb70 f   kernel32:KERNEL32.dll
 0001:000acb80       __aullrem                  100adb80 f   LIBCMT:ullrem.obj
 0001:000acc00       __FindPESection            100adc00 f   LIBCMT:pesect.obj
 0001:000acc50       __IsNonwritableInCurrentImage 100adc50 f   LIBCMT:pesect.obj
 0001:000acd10       __ValidateImageBase        100add10 f   LIBCMT:pesect.obj
 0001:000acd50       __allshl                   100add50 f   LIBCMT:llshl.obj
 0001:000acd70       __aullshr                  100add70 f   LIBCMT:ullshr.obj
 0001:000acd90       __allrem                   100add90 f   LIBCMT:llrem.obj
 0001:000ace50       _strrchr                   100ade50 f   libvcruntime:strrchr.obj
 0001:000acf87       _wcschr                    100adf87 f   libvcruntime:wcschr.obj
 0002:00000000       __imp__AddFontResourceA@4  100b2000     gdi32:GDI32.dll
 0002:00000004       \177GDI32_NULL_THUNK_DATA  100b2004     gdi32:GDI32.dll
 0002:00000008       __imp__ImmGetContext@4     100b2008     imm32:IMM32.dll
 0002:0000000c       __imp__ImmReleaseContext@8 100b200c     imm32:IMM32.dll
 0002:00000010       __imp__ImmSetCompositionWindow@8 100b2010     imm32:IMM32.dll
 0002:00000014       \177IMM32_NULL_THUNK_DATA  100b2014     imm32:IMM32.dll
 0002:00000018       __imp__GetProcAddress@8    100b2018     kernel32:KERNEL32.dll
 0002:0000001c       __imp__LoadLibraryA@4      100b201c     kernel32:KERNEL32.dll
 0002:00000020       __imp__IsBadReadPtr@8      100b2020     kernel32:KERNEL32.dll
 0002:00000024       __imp__GetModuleHandleA@4  100b2024     kernel32:KERNEL32.dll
 0002:00000028       __imp__GetTickCount@0      100b2028     kernel32:KERNEL32.dll
 0002:0000002c       __imp__FindFirstFileA@8    100b202c     kernel32:KERNEL32.dll
 0002:00000030       __imp__FindNextFileA@8     100b2030     kernel32:KERNEL32.dll
 0002:00000034       __imp__GlobalAlloc@8       100b2034     kernel32:KERNEL32.dll
 0002:00000038       __imp__GlobalUnlock@4      100b2038     kernel32:KERNEL32.dll
 0002:0000003c       __imp__GlobalLock@4        100b203c     kernel32:KERNEL32.dll
 0002:00000040       __imp__GlobalFree@4        100b2040     kernel32:KERNEL32.dll
 0002:00000044       __imp__MultiByteToWideChar@24 100b2044     kernel32:KERNEL32.dll
 0002:00000048       __imp__WideCharToMultiByte@32 100b2048     kernel32:KERNEL32.dll
 0002:0000004c       __imp__QueryPerformanceCounter@4 100b204c     kernel32:KERNEL32.dll
 0002:00000050       __imp__QueryPerformanceFrequency@4 100b2050     kernel32:KERNEL32.dll
 0002:00000054       __imp__CreateDirectoryA@8  100b2054     kernel32:KERNEL32.dll
 0002:00000058       __imp__Sleep@4             100b2058     kernel32:KERNEL32.dll
 0002:0000005c       __imp__GetCurrentProcessId@0 100b205c     kernel32:KERNEL32.dll
 0002:00000060       __imp__CreateThread@24     100b2060     kernel32:KERNEL32.dll
 0002:00000064       __imp__FreeLibraryAndExitThread@8 100b2064     kernel32:KERNEL32.dll
 0002:00000068       __imp__AllocConsole@0      100b2068     kernel32:KERNEL32.dll
 0002:0000006c       __imp__FreeConsole@0       100b206c     kernel32:KERNEL32.dll
 0002:00000070       __imp__GetModuleHandleExA@12 100b2070     kernel32:KERNEL32.dll
 0002:00000074       __imp__GetCurrentProcess@0 100b2074     kernel32:KERNEL32.dll
 0002:00000078       __imp__K32GetModuleInformation@16 100b2078     kernel32:KERNEL32.dll
 0002:0000007c       __imp__VirtualQuery@12     100b207c     kernel32:KERNEL32.dll
 0002:00000080       __imp__SetEndOfFile@4      100b2080     kernel32:KERNEL32.dll
 0002:00000084       __imp__HeapSize@12         100b2084     kernel32:KERNEL32.dll
 0002:00000088       __imp__CreateFileW@28      100b2088     kernel32:KERNEL32.dll
 0002:0000008c       __imp__SetStdHandle@8      100b208c     kernel32:KERNEL32.dll
 0002:00000090       __imp__SetEnvironmentVariableW@8 100b2090     kernel32:KERNEL32.dll
 0002:00000094       __imp__FreeEnvironmentStringsW@4 100b2094     kernel32:KERNEL32.dll
 0002:00000098       __imp__GetEnvironmentStringsW@0 100b2098     kernel32:KERNEL32.dll
 0002:0000009c       __imp__FreeLibrary@4       100b209c     kernel32:KERNEL32.dll
 0002:000000a0       __imp__GetCommandLineA@0   100b20a0     kernel32:KERNEL32.dll
 0002:000000a4       __imp__GetOEMCP@0          100b20a4     kernel32:KERNEL32.dll
 0002:000000a8       __imp__GetACP@0            100b20a8     kernel32:KERNEL32.dll
 0002:000000ac       __imp__IsValidCodePage@4   100b20ac     kernel32:KERNEL32.dll
 0002:000000b0       __imp__FindNextFileW@8     100b20b0     kernel32:KERNEL32.dll
 0002:000000b4       __imp__FindFirstFileExW@24 100b20b4     kernel32:KERNEL32.dll
 0002:000000b8       __imp__FindClose@4         100b20b8     kernel32:KERNEL32.dll
 0002:000000bc       __imp__GetTimeZoneInformation@4 100b20bc     kernel32:KERNEL32.dll
 0002:000000c0       __imp__DeleteFileW@4       100b20c0     kernel32:KERNEL32.dll
 0002:000000c4       __imp__ReadConsoleW@20     100b20c4     kernel32:KERNEL32.dll
 0002:000000c8       __imp__SetFilePointerEx@20 100b20c8     kernel32:KERNEL32.dll
 0002:000000cc       __imp__GetFileSizeEx@8     100b20cc     kernel32:KERNEL32.dll
 0002:000000d0       __imp__GetConsoleMode@8    100b20d0     kernel32:KERNEL32.dll
 0002:000000d4       __imp__GetConsoleCP@0      100b20d4     kernel32:KERNEL32.dll
 0002:000000d8       __imp__WriteFile@20        100b20d8     kernel32:KERNEL32.dll
 0002:000000dc       __imp__FlushFileBuffers@4  100b20dc     kernel32:KERNEL32.dll
 0002:000000e0       __imp__EnumSystemLocalesW@8 100b20e0     kernel32:KERNEL32.dll
 0002:000000e4       __imp__GetUserDefaultLCID@0 100b20e4     kernel32:KERNEL32.dll
 0002:000000e8       __imp__IsValidLocale@8     100b20e8     kernel32:KERNEL32.dll
 0002:000000ec       __imp__GetTimeFormatW@24   100b20ec     kernel32:KERNEL32.dll
 0002:000000f0       __imp__GetDateFormatW@24   100b20f0     kernel32:KERNEL32.dll
 0002:000000f4       __imp__HeapReAlloc@16      100b20f4     kernel32:KERNEL32.dll
 0002:000000f8       __imp__ExitProcess@4       100b20f8     kernel32:KERNEL32.dll
 0002:000000fc       __imp__VirtualFree@12      100b20fc     kernel32:KERNEL32.dll
 0002:00000100       __imp__VirtualProtect@16   100b2100     kernel32:KERNEL32.dll
 0002:00000104       __imp__VirtualAlloc@16     100b2104     kernel32:KERNEL32.dll
 0002:00000108       __imp__GetNativeSystemInfo@4 100b2108     kernel32:KERNEL32.dll
 0002:0000010c       __imp__GetProcessHeap@0    100b210c     kernel32:KERNEL32.dll
 0002:00000110       __imp__ReadFile@20         100b2110     kernel32:KERNEL32.dll
 0002:00000114       __imp__WriteConsoleW@20    100b2114     kernel32:KERNEL32.dll
 0002:00000118       __imp__GetModuleHandleExW@12 100b2118     kernel32:KERNEL32.dll
 0002:0000011c       __imp__GetFileType@4       100b211c     kernel32:KERNEL32.dll
 0002:00000120       __imp__GetStdHandle@4      100b2120     kernel32:KERNEL32.dll
 0002:00000124       __imp__RtlUnwind@16        100b2124     kernel32:KERNEL32.dll
 0002:00000128       __imp__RaiseException@16   100b2128     kernel32:KERNEL32.dll
 0002:0000012c       __imp__HeapFree@12         100b212c     kernel32:KERNEL32.dll
 0002:00000130       __imp__HeapAlloc@12        100b2130     kernel32:KERNEL32.dll
 0002:00000134       __imp__GetCommandLineW@0   100b2134     kernel32:KERNEL32.dll
 0002:00000138       __imp__SetLastError@4      100b2138     kernel32:KERNEL32.dll
 0002:0000013c       __imp__InterlockedFlushSList@4 100b213c     kernel32:KERNEL32.dll
 0002:00000140       __imp__FlushInstructionCache@12 100b2140     kernel32:KERNEL32.dll
 0002:00000144       __imp__GetLastError@0      100b2144     kernel32:KERNEL32.dll
 0002:00000148       __imp__CloseHandle@4       100b2148     kernel32:KERNEL32.dll
 0002:0000014c       __imp__WaitForSingleObjectEx@12 100b214c     kernel32:KERNEL32.dll
 0002:00000150       __imp__SwitchToThread@0    100b2150     kernel32:KERNEL32.dll
 0002:00000154       __imp__GetCurrentThread@0  100b2154     kernel32:KERNEL32.dll
 0002:00000158       __imp__GetCurrentThreadId@0 100b2158     kernel32:KERNEL32.dll
 0002:0000015c       __imp__EnterCriticalSection@4 100b215c     kernel32:KERNEL32.dll
 0002:00000160       __imp__LeaveCriticalSection@4 100b2160     kernel32:KERNEL32.dll
 0002:00000164       __imp__DeleteCriticalSection@4 100b2164     kernel32:KERNEL32.dll
 0002:00000168       __imp__EncodePointer@4     100b2168     kernel32:KERNEL32.dll
 0002:0000016c       __imp__DecodePointer@4     100b216c     kernel32:KERNEL32.dll
 0002:00000170       __imp__InitializeCriticalSectionAndSpinCount@8 100b2170     kernel32:KERNEL32.dll
 0002:00000174       __imp__CreateEventW@16     100b2174     kernel32:KERNEL32.dll
 0002:00000178       __imp__TlsAlloc@0          100b2178     kernel32:KERNEL32.dll
 0002:0000017c       __imp__TlsGetValue@4       100b217c     kernel32:KERNEL32.dll
 0002:00000180       __imp__TlsSetValue@8       100b2180     kernel32:KERNEL32.dll
 0002:00000184       __imp__TlsFree@4           100b2184     kernel32:KERNEL32.dll
 0002:00000188       __imp__GetSystemTimeAsFileTime@4 100b2188     kernel32:KERNEL32.dll
 0002:0000018c       __imp__GetModuleHandleW@4  100b218c     kernel32:KERNEL32.dll
 0002:00000190       __imp__CompareStringW@24   100b2190     kernel32:KERNEL32.dll
 0002:00000194       __imp__LCMapStringW@24     100b2194     kernel32:KERNEL32.dll
 0002:00000198       __imp__GetLocaleInfoW@16   100b2198     kernel32:KERNEL32.dll
 0002:0000019c       __imp__GetStringTypeW@16   100b219c     kernel32:KERNEL32.dll
 0002:000001a0       __imp__GetCPInfo@8         100b21a0     kernel32:KERNEL32.dll
 0002:000001a4       __imp__SetEvent@4          100b21a4     kernel32:KERNEL32.dll
 0002:000001a8       __imp__ResetEvent@4        100b21a8     kernel32:KERNEL32.dll
 0002:000001ac       __imp__UnhandledExceptionFilter@4 100b21ac     kernel32:KERNEL32.dll
 0002:000001b0       __imp__SetUnhandledExceptionFilter@4 100b21b0     kernel32:KERNEL32.dll
 0002:000001b4       __imp__TerminateProcess@8  100b21b4     kernel32:KERNEL32.dll
 0002:000001b8       __imp__IsProcessorFeaturePresent@4 100b21b8     kernel32:KERNEL32.dll
 0002:000001bc       __imp__IsDebuggerPresent@0 100b21bc     kernel32:KERNEL32.dll
 0002:000001c0       __imp__GetStartupInfoW@4   100b21c0     kernel32:KERNEL32.dll
 0002:000001c4       __imp__InitializeSListHead@4 100b21c4     kernel32:KERNEL32.dll
 0002:000001c8       __imp__LocalFree@4         100b21c8     kernel32:KERNEL32.dll
 0002:000001cc       __imp__OutputDebugStringW@4 100b21cc     kernel32:KERNEL32.dll
 0002:000001d0       __imp__GetThreadTimes@20   100b21d0     kernel32:KERNEL32.dll
 0002:000001d4       __imp__GetModuleFileNameW@12 100b21d4     kernel32:KERNEL32.dll
 0002:000001d8       __imp__LoadLibraryExW@12   100b21d8     kernel32:KERNEL32.dll
 0002:000001dc       \177KERNEL32_NULL_THUNK_DATA 100b21dc     kernel32:KERNEL32.dll
 0002:000001e0       __imp__VariantClear@4      100b21e0     oleaut32:OLEAUT32.dll
 0002:000001e4       \177OLEAUT32_NULL_THUNK_DATA 100b21e4     oleaut32:OLEAUT32.dll
 0002:000001e8       __imp__SetClipboardData@8  100b21e8     user32:USER32.dll
 0002:000001ec       __imp__OpenClipboard@4     100b21ec     user32:USER32.dll
 0002:000001f0       __imp__GetAsyncKeyState@4  100b21f0     user32:USER32.dll
 0002:000001f4       __imp__CloseClipboard@0    100b21f4     user32:USER32.dll
 0002:000001f8       __imp__GetClipboardData@4  100b21f8     user32:USER32.dll
 0002:000001fc       __imp__FindWindowA@8       100b21fc     user32:USER32.dll
 0002:00000200       __imp__MapVirtualKeyA@8    100b2200     user32:USER32.dll
 0002:00000204       __imp__ToAscii@20          100b2204     user32:USER32.dll
 0002:00000208       __imp__GetKeyboardState@4  100b2208     user32:USER32.dll
 0002:0000020c       __imp__GetWindowThreadProcessId@8 100b220c     user32:USER32.dll
 0002:00000210       __imp__EnumWindows@8       100b2210     user32:USER32.dll
 0002:00000214       __imp__SetWindowLongA@12   100b2214     user32:USER32.dll
 0002:00000218       __imp__CallWindowProcA@20  100b2218     user32:USER32.dll
 0002:0000021c       __imp__LoadCursorA@8       100b221c     user32:USER32.dll
 0002:00000220       __imp__ScreenToClient@8    100b2220     user32:USER32.dll
 0002:00000224       __imp__ClientToScreen@8    100b2224     user32:USER32.dll
 0002:00000228       __imp__GetCursorPos@4      100b2228     user32:USER32.dll
 0002:0000022c       __imp__SetCursor@4         100b222c     user32:USER32.dll
 0002:00000230       __imp__SetCursorPos@8      100b2230     user32:USER32.dll
 0002:00000234       __imp__GetClientRect@8     100b2234     user32:USER32.dll
 0002:00000238       __imp__GetForegroundWindow@0 100b2238     user32:USER32.dll
 0002:0000023c       __imp__ReleaseCapture@0    100b223c     user32:USER32.dll
 0002:00000240       __imp__SetCapture@4        100b2240     user32:USER32.dll
 0002:00000244       __imp__GetCapture@0        100b2244     user32:USER32.dll
 0002:00000248       __imp__GetKeyState@4       100b2248     user32:USER32.dll
 0002:0000024c       __imp__IsChild@8           100b224c     user32:USER32.dll
 0002:00000250       __imp__EmptyClipboard@0    100b2250     user32:USER32.dll
 0002:00000254       \177USER32_NULL_THUNK_DATA 100b2254     user32:USER32.dll
 0002:00000258       __imp__timeBeginPeriod@4   100b2258     Winmm:WINMM.dll
 0002:0000025c       __imp__PlaySoundA@12       100b225c     Winmm:WINMM.dll
 0002:00000260       __imp__timeGetTime@0       100b2260     Winmm:WINMM.dll
 0002:00000264       \177WINMM_NULL_THUNK_DATA  100b2264     Winmm:WINMM.dll
 0002:00000268       __imp__Direct3DCreate9@4   100b2268     d3d9:d3d9.dll
 0002:0000026c       \177d3d9_NULL_THUNK_DATA   100b226c     d3d9:d3d9.dll
 0002:00000270       __imp__URLDownloadToFileA@20 100b2270     urlmon:urlmon.dll
 0002:00000274       \177urlmon_NULL_THUNK_DATA 100b2274     urlmon:urlmon.dll
 0002:00000278       ___guard_check_icall_fptr  100b2278     LIBCMT:guard_support.obj
 0002:0000027c       ___xc_a                    100b227c     LIBCMT:initializers.obj
 0002:00000334       ___xc_z                    100b2334     LIBCMT:initializers.obj
 0002:00000338       ___xi_a                    100b2338     LIBCMT:initializers.obj
 0002:00000344       ___acrt_stdio_initializer  100b2344     libucrt:stdio_initializer.obj
 0002:00000348       ___acrt_tran_sse2_initializer 100b2348     libucrt:sse2_initializer.obj
 0002:0000034c       ___acrt_timeset_initializer 100b234c     libucrt:timeset_initializer.obj
 0002:00000350       ___acrt_multibyte_initializer 100b2350     libucrt:multibyte_initializer.obj
 0002:00000354       ___xi_z                    100b2354     LIBCMT:initializers.obj
 0002:00000358       ___xl_a                    100b2358     LIBCMT:tlssup.obj
 0002:0000035c       ___xl_z                    100b235c     LIBCMT:tlssup.obj
 0002:00000360       ___xp_a                    100b2360     LIBCMT:initializers.obj
 0002:00000368       ___acrt_locale_terminator  100b2368     libucrt:locale_initializer.obj
 0002:0000036c       ___dcrt_console_output_terminator 100b236c     libucrt:console_output_initializer.obj
 0002:00000370       ___acrt_stdio_terminator   100b2370     libucrt:stdio_initializer.obj
 0002:00000374       ___xp_z                    100b2374     LIBCMT:initializers.obj
 0002:00000378       ___xt_a                    100b2378     LIBCMT:initializers.obj
 0002:0000037c       ___xt_z                    100b237c     LIBCMT:initializers.obj
 0002:00000384       ??_7exception@std@@6B@     100b2384     dll.obj
 0002:0000038c       ??_C@_0BC@EOODALEL@Unknown?5exception@ 100b238c     dll.obj
 0002:000003a4       ??_7runtime_error@std@@6B@ 100b23a4     dll.obj
 0002:000003ac       ??_C@_0BA@ELKIONDK@bad?5locale?5name@ 100b23ac     dll.obj
 0002:000003c0       ??_7_Facet_base@std@@6B@   100b23c0     dll.obj
 0002:000003cc       ??_C@_00CNPNBAHC@@         100b23cc     dll.obj
 0002:000003d4       ??_7?$ctype@D@std@@6B@     100b23d4     dll.obj
 0002:00000404       ??_7_System_error@std@@6B@ 100b2404     dll.obj
 0002:0000040c       ??_C@_02LMMGGCAJ@?3?5@     100b240c     dll.obj
 0002:00000414       ??_7system_error@std@@6B@  100b2414     dll.obj
 0002:00000420       ??_7_Iostream_error_category@std@@6B@ 100b2420     dll.obj
 0002:00000438       ??_C@_08LLGCOLLL@iostream@ 100b2438     dll.obj
 0002:00000444       ??_C@_0BG@PADBLCHM@iostream?5stream?5error@ 100b2444     dll.obj
 0002:00000460       ??_7failure@ios_base@std@@6B@ 100b2460     dll.obj
 0002:0000046c       ??_7ios_base@std@@6B@      100b246c     dll.obj
 0002:00000470       ??_C@_0BF@PHHKMMFD@ios_base?3?3badbit?5set@ 100b2470     dll.obj
 0002:00000488       ??_C@_0BG@FMKFHCIL@ios_base?3?3failbit?5set@ 100b2488     dll.obj
 0002:000004a0       ??_C@_0BF@OOHOMBOF@ios_base?3?3eofbit?5set@ 100b24a0     dll.obj
 0002:000004bc       ??_7?$basic_ios@DU?$char_traits@D@std@@@std@@6B@ 100b24bc     dll.obj
 0002:000004c4       ??_7?$basic_istream@DU?$char_traits@D@std@@@std@@6B@ 100b24c4     dll.obj
 0002:000004cc       ??_7?$basic_ostream@DU?$char_traits@D@std@@@std@@6B@ 100b24cc     dll.obj
 0002:000004d0       ??_8?$basic_ostream@DU?$char_traits@D@std@@@std@@7B@ 100b24d0     dll.obj
 0002:000004dc       ??_7?$basic_iostream@DU?$char_traits@D@std@@@std@@6B@ 100b24dc     dll.obj
 0002:000004e0       ??_8?$basic_iostream@DU?$char_traits@D@std@@@std@@7B?$basic_istream@DU?$char_traits@D@std@@@1@@ 100b24e0     dll.obj
 0002:000004e8       ??_8?$basic_iostream@DU?$char_traits@D@std@@@std@@7B?$basic_ostream@DU?$char_traits@D@std@@@1@@ 100b24e8     dll.obj
 0002:000004f4       ??_7?$basic_streambuf@DU?$char_traits@D@std@@@std@@6B@ 100b24f4     dll.obj
 0002:00000534       ??_7?$basic_filebuf@DU?$char_traits@D@std@@@std@@6B@ 100b2534     dll.obj
 0002:00000574       ??_7?$basic_fstream@DU?$char_traits@D@std@@@std@@6B@ 100b2574     dll.obj
 0002:00000578       ??_8?$basic_fstream@DU?$char_traits@D@std@@@std@@7B?$basic_istream@DU?$char_traits@D@std@@@1@@ 100b2578     dll.obj
 0002:00000580       ??_8?$basic_fstream@DU?$char_traits@D@std@@@std@@7B?$basic_ostream@DU?$char_traits@D@std@@@1@@ 100b2580     dll.obj
 0002:0000058c       ??_7?$codecvt@DDU_Mbstatet@@@std@@6B@ 100b258c     dll.obj
 0002:000005b4       ??_C@_0BI@CFPLBAOH@invalid?5string?5position@ 100b25b4     dll.obj
 0002:000005cc       ??_C@_0BA@JFNIOLAK@string?5too?5long@ 100b25cc     dll.obj
 0002:000005dc       ??_C@_0M@EINGCJHB@vstdlib?4dll@ 100b25dc     Aimbot.obj
 0002:000005ec       ??_7CTraceFilterOneEntity@SDK@@6B@ 100b25ec     Aimbot.obj
 0002:000005f8       ??_7CTraceFilterOneEntity2@SDK@@6B@ 100b25f8     Aimbot.obj
 0002:00000600       ??_C@_0M@MPLEGCP@RandomFloat@ 100b2600     Aimbot.obj
 0002:0000060c       ??_C@_0BD@OLBABOEK@vector?$DMT?$DO?5too?5long@ 100b260c     Aimbot.obj
 0002:00000620       __real@3a83126f            100b2620     Aimbot.obj
 0002:00000624       __real@3b800000            100b2624     Aimbot.obj
 0002:00000628       __real@3c23d70a            100b2628     Aimbot.obj
 0002:0000062c       __real@3dcccccd            100b262c     Aimbot.obj
 0002:00000630       __real@3f000000            100b2630     Aimbot.obj
 0002:00000634       __real@3f800000            100b2634     Aimbot.obj
 0002:00000638       __real@40400000            100b2638     Aimbot.obj
 0002:0000063c       __real@41a00000            100b263c     Aimbot.obj
 0002:00000640       __real@42480000            100b2640     Aimbot.obj
 0002:00000644       __real@425c0000            100b2644     Aimbot.obj
 0002:00000648       __real@42940000            100b2648     Aimbot.obj
 0002:0000064c       __real@42b20000            100b264c     Aimbot.obj
 0002:00000650       __real@42b40000            100b2650     Aimbot.obj
 0002:00000654       __real@42c80000            100b2654     Aimbot.obj
 0002:00000658       __real@43340000            100b2658     Aimbot.obj
 0002:0000065c       __real@43b40000            100b265c     Aimbot.obj
 0002:00000660       __real@43e10000            100b2660     Aimbot.obj
 0002:00000664       __real@45fce000            100b2664     Aimbot.obj
 0002:00000668       __real@7f7fffff            100b2668     Aimbot.obj
 0002:0000066c       __real@c2b20000            100b266c     Aimbot.obj
 0002:00000670       __real@c3340000            100b2670     Aimbot.obj
 0002:00000678       ??_7CTraceFilter@SDK@@6B@  100b2678     Antiaim.obj
 0002:00000684       ??_7CTraceWorldOnly@SDK@@6B@ 100b2684     Antiaim.obj
 0002:0000068c       __real@00000000            100b268c     Antiaim.obj
 0002:00000690       __real@3fb999999999999a    100b2690     Antiaim.obj
 0002:00000698       __real@3fcc28f5c28f5c29    100b2698     Antiaim.obj
 0002:000006a0       __real@3fd3333333333333    100b26a0     Antiaim.obj
 0002:000006a8       __real@3ff199999999999a    100b26a8     Antiaim.obj
 0002:000006b0       __real@40a00000            100b26b0     Antiaim.obj
 0002:000006b4       __real@41700000            100b26b4     Antiaim.obj
 0002:000006b8       __real@41880000            100b26b8     Antiaim.obj
 0002:000006bc       __real@41900000            100b26bc     Antiaim.obj
 0002:000006c0       __real@41c00000            100b26c0     Antiaim.obj
 0002:000006c4       __real@41c80000            100b26c4     Antiaim.obj
 0002:000006c8       __real@420c0000            100b26c8     Antiaim.obj
 0002:000006cc       __real@42440000            100b26cc     Antiaim.obj
 0002:000006d0       __real@42700000            100b26d0     Antiaim.obj
 0002:000006d4       __real@42800000            100b26d4     Antiaim.obj
 0002:000006d8       __real@42e60000            100b26d8     Antiaim.obj
 0002:000006dc       __real@43020000            100b26dc     Antiaim.obj
 0002:000006e0       __real@4f800000            100b26e0     Antiaim.obj
 0002:000006e4       __real@bf000000            100b26e4     Antiaim.obj
 0002:000006e8       __real@bf800000            100b26e8     Antiaim.obj
 0002:000006ec       __real@c2e60000            100b26ec     Antiaim.obj
 0002:000006f0       __xmm@41f00000000000000000000000000000 100b26f0     Antiaim.obj
 0002:00000700       __xmm@7fffffffffffffff7fffffffffffffff 100b2700     Antiaim.obj
 0002:00000710       __xmm@80000000800000008000000080000000 100b2710     Antiaim.obj
 0002:00000720       __real@402e000000000000    100b2720     Autostrafer.obj
 0002:00000728       __real@41f00000            100b2728     Autostrafer.obj
 0002:0000072c       __real@42340000            100b272c     Autostrafer.obj
 0002:00000730       __real@42652ee0            100b2730     Autostrafer.obj
 0002:00000734       __real@43070000            100b2734     Autostrafer.obj
 0002:00000738       __real@c2340000            100b2738     Autostrafer.obj
 0002:0000073c       __real@c2b40000            100b273c     Autostrafer.obj
 0002:00000740       __real@c3070000            100b2740     Autostrafer.obj
 0002:00000744       __real@c3e10000            100b2744     Autostrafer.obj
 0002:0000074c       ??_7logic_error@std@@6B@   100b274c     Autowall.obj
 0002:00000754       ??_C@_0L@PHFEFMEF@client?4dll@ 100b2754     Autowall.obj
 0002:00000760       ??_C@_0CA@PLJFAFPH@xxxxxxxxxxxxxxxxxxxxxxxx?$DP?$DP?$DP?$DPxxx@ 100b2760     Autowall.obj
 0002:00000780       ??_C@_0CA@NCNDOMBC@S?$IL?$NM?$ID?l?$AI?$ID?d?p?$ID?D?$AEU?$ILk?$AE?$IJl$?$AE?$IL?l?$IB?l?$AA?$AA?$AA?$AA?$ILC?$BA@ 100b2780     Autowall.obj
 0002:000007a0       ??_C@_0BN@CCHNNEEM@xxxxxxxxxxxxxxxxxxxxxxxxxxxx@ 100b27a0     Autowall.obj
 0002:000007c0       ??_C@_0BN@HMPJPBK@S?$IL?$NM?$ID?l?$AI?$ID?d?x?$ID?D?$AEU?$ILk?$AE?$IJl$?$AE?$IL?l?$ID?lx?$ILS?$BE@ 100b27c0     Autowall.obj
 0002:000007e0       ??_C@_0BC@BCICHOML@CBreakableSurface@ 100b27e0     Autowall.obj
 0002:000007f4       __real@3d4ccccd            100b27f4     Autowall.obj
 0002:000007f8       __real@3f400000            100b27f8     Autowall.obj
 0002:000007fc       __real@3f7d70a4            100b27fc     Autowall.obj
 0002:00000800       __real@3fa00000            100b2800     Autowall.obj
 0002:00000804       __real@40000000            100b2804     Autowall.obj
 0002:00000808       __real@40800000            100b2808     Autowall.obj
 0002:0000080c       __real@42200000            100b280c     Autowall.obj
 0002:00000810       __real@43fa0000            100b2810     Autowall.obj
 0002:00000814       ??_C@_0BA@NAOEFMHJ@xxxxxxxxxxxxx?$DP?$DP@ 100b2814     Backtracking.obj
 0002:00000824       ??_C@_0BA@LIFLIIA@U?$IL?l?$ID?d?xQSVW?$IL?q?h?$AA?$AA@ 100b2824     Backtracking.obj
 0002:00000834       ??_C@_0BA@BKAJBOPO@xxxxxxxxxxxxxxx@ 100b2834     Backtracking.obj
 0002:00000844       ??_C@_0BA@KOOOMFIC@U?$IL?l?$ID?d?x?$ID?ldSVW?$IL?q?h@ 100b2844     Backtracking.obj
 0002:00000854       ??_C@_0L@FKMMBKBD@sv_gravity@ 100b2854     Backtracking.obj
 0002:00000860       ??_C@_0L@OJEIPPLD@xx?$DP?$DP?$DP?$DPxxxx@ 100b2860     Backtracking.obj
 0002:0000086c       ??_C@_0L@DFHOBHKF@?$IA?$DN?$AA?$AA?$AA?$AA?$AAt?$BG?$KB@ 100b286c     Backtracking.obj
 0002:00000878       ??_C@_0BA@EALHDOPA@cl_interp_ratio@ 100b2878     Backtracking.obj
 0002:00000888       ??_C@_0O@GLEIJHMA@cl_updaterate@ 100b2888     Backtracking.obj
 0002:00000898       ??_C@_09EEMEFIMK@cl_interp@ 100b2898     Backtracking.obj
 0002:000008a4       ??_C@_0BC@KBDMBKEH@deque?$DMT?$DO?5too?5long@ 100b28a4     Backtracking.obj
 0002:000008b8       __real@3e4ccccc            100b28b8     Backtracking.obj
 0002:000008c0       __real@3fe0000000000000    100b28c0     Backtracking.obj
 0002:000008c8       ??_C@_02NJPGOMH@?$CFf@     100b28c8     BoxESP.obj
 0002:000008cc       ??_C@_0N@CNADAMED@Breaking?5LBY@ 100b28cc     BoxESP.obj
 0002:000008dc       ??_C@_05BOOJJLKO@LBY?3?5@  100b28dc     BoxESP.obj
 0002:000008e4       ??_C@_05INKFKLBN@?$CFs?5?$CFi@ 100b28e4     BoxESP.obj
 0002:000008ec       __real@3b449ba6            100b28ec     BoxESP.obj
 0002:000008f0       __real@3f0ccccd            100b28f0     BoxESP.obj
 0002:000008f4       __real@40c00000            100b28f4     BoxESP.obj
 0002:000008f8       __real@41000000            100b28f8     BoxESP.obj
 0002:000008fc       __real@41100000            100b28fc     BoxESP.obj
 0002:00000900       __real@43160000            100b2900     BoxESP.obj
 0002:00000904       __real@437f0000            100b2904     BoxESP.obj
 0002:00000908       ??_C@_0BA@MMAMBACG@KeyValuesSystem@ 100b2908     Chams.obj
 0002:00000918       ??_C@_0BI@LDFJIEBB@55?58B?5EC?551?533?5C0?5C7?545@ 100b2918     Chams.obj
 0002:00000930       ??_C@_0DD@PILKPPAK@55?58B?5EC?583?5E4?5F8?583?5EC?534?553?58@ 100b2930     Chams.obj
 0002:00000a94       ??_C@_0BB@PJFNHEEA@VertexLitGeneric@ 100b2a94     Chams.obj
 0002:00000aa8       ??_C@_0N@KOCEKFOI@UnlitGeneric@ 100b2aa8     Chams.obj
 0002:00000ab8       ??_C@_0BL@GHDFFJPE@?$CDnice_pener_material?$CFi?4vmt@ 100b2ab8     Chams.obj
 0002:00000ad4       __real@447a0000            100b2ad4     CircleStrafer.obj
 0002:00000ad8       ??_C@_0BE@HPOMLKFC@xx?$DP?$DP?$DP?$DPx?$DP?$DP?$DP?$DPx?$DP?$DP?$DP?$DPxxx@ 100b2ad8     EnginePrediction.obj
 0002:00000aec       ??_C@_0BE@OINIJPGK@?$IL?$AN?$AA?$AA?$AA?$AA?$LK?$AA?$AA?$AA?$AA?h?$AA?$AA?$AA?$AA?$ID?D?$AE@ 100b2aec     EnginePrediction.obj
 0002:00000b04       ??_7IGameEventListener@SDK@@6B@ 100b2b04     EventListeners.obj
 0002:00000b14       ??_7ItemPurchaseListener@MISC@FEATURES@@6B@ 100b2b14     EventListeners.obj
 0002:00000b24       ??_7PlayerHurtListener@MISC@FEATURES@@6B@ 100b2b24     EventListeners.obj
 0002:00000b34       ??_7BulletImpactListener@MISC@FEATURES@@6B@ 100b2b34     EventListeners.obj
 0002:00000b44       ??_7WeaponFireListener@MISC@FEATURES@@6B@ 100b2b44     EventListeners.obj
 0002:00000b50       ??_C@_0O@JAENPIHH@item_purchase@ 100b2b50     EventListeners.obj
 0002:00000b60       ??_C@_0M@GPCKBPEK@player_hurt@ 100b2b60     EventListeners.obj
 0002:00000b6c       ??_C@_0O@FEPDDHEK@bullet_impact@ 100b2b6c     EventListeners.obj
 0002:00000b7c       ??_C@_0M@LMEOBDP@weapon_fire@ 100b2b7c     EventListeners.obj
 0002:00000b88       ??_C@_06IHAGGOEE@userid@   100b2b88     EventListeners.obj
 0002:00000b90       ??_C@_0L@HKNLFHNA@?5bought?5a?5@ 100b2b90     EventListeners.obj
 0002:00000b9c       ??_C@_06GEPNGEJI@weapon@   100b2b9c     EventListeners.obj
 0002:00000ba4       ??_C@_08MANLKGDL@attacker@ 100b2ba4     EventListeners.obj
 0002:00000bb0       ??_C@_0L@CPHGICGA@dmg_health@ 100b2bb0     EventListeners.obj
 0002:00000bbc       ??_C@_04NBAMEHMN@Hit?5@    100b2bbc     EventListeners.obj
 0002:00000bc4       ??_C@_08KBGNDPBA@hitgroup@ 100b2bc4     EventListeners.obj
 0002:00000bd0       ??_C@_08KBNOFEGG@?5in?5the?5@ 100b2bd0     EventListeners.obj
 0002:00000bdc       ??_C@_05POFHKGEO@?5for?5@  100b2bdc     EventListeners.obj
 0002:00000be4       ??_C@_08BBLFANMG@?5damage?4@ 100b2be4     EventListeners.obj
 0002:00000bf0       ??_C@_01GLPGHMHM@z@        100b2bf0     EventListeners.obj
 0002:00000bf4       ??_C@_01EANLCPLP@y@        100b2bf4     EventListeners.obj
 0002:00000bf8       ??_C@_01FJMABOPO@x@        100b2bf8     EventListeners.obj
 0002:00000c00       __real@3fc3333333333333    100b2c00     Fakewalk.obj
 0002:00000c08       ?piecewise_construct@std@@3Upiecewise_construct_t@1@B 100b2c08     Misc.obj
 0002:00000c0c       ??_C@_0L@EMPDFJNI@engine?4dll@ 100b2c0c     Misc.obj
 0002:00000c18       ??_C@_09CPPOEBIG@xxxxxxxxx@ 100b2c18     Misc.obj
 0002:00000c24       ??_C@_09JNDMODPH@SVW?$IL?Z?$IL?y?$PP?$BF@ 100b2c24     Misc.obj
 0002:00000d34       ??_C@_0DJ@JGNBOHDK@?2?2?5These?5are?5options?5that?5are?5r@ 100b2d34     Misc.obj
 0002:00000d70       ??_C@_0DO@JNMLMOP@?2?2?5Use?5?$CIENABLED?$CJ?5and?5?$CIDISABLED?$CJ@ 100b2d70     Misc.obj
 0002:00000db0       ??_C@_0EF@IIFAIFIA@?$FLLoad?5config?$FN?5?$CIDISABLED?$CJ?5?2?2?5rag@ 100b2db0     Misc.obj
 0002:00000df8       ??_C@_0FH@JDAANJIH@?$FLLoad?5visuals?1misc?5config?$FN?5?$CIDIS@ 100b2df8     Misc.obj
 0002:00000e50       ??_C@_0CF@EPGJBHPJ@?$FLLoad?5skins?5on?5injection?$FN?5?$CIDISA@ 100b2e50     Misc.obj
 0002:00000e78       ??_C@_08GLNGGDPJ@DISABLED@ 100b2e78     Misc.obj
 0002:00000e84       ??_C@_07DKCFBCHE@ENABLED@  100b2e84     Misc.obj
 0002:00000e8c       ??_C@_0BC@LPEFKFMP@skins_config?4scfg@ 100b2e8c     Misc.obj
 0002:00000ea0       ?bameware_text@?4???R<lambda_8598c850d2f80c08bd6af5fc93c9f3cd>@@QBE@XZ@4QBDB 100b2ea0     Misc.obj
 0002:00000eb4       ??_C@_03BHBOHINF@LBY@      100b2eb4     Misc.obj
 0002:00000eb8       ??_C@_0BE@JONHPENG@map?1set?$DMT?$DO?5too?5long@ 100b2eb8     Misc.obj
 0002:00000ecc       __real@3c8efa35            100b2ecc     Misc.obj
 0002:00000ed0       __real@3e19999a            100b2ed0     Misc.obj
 0002:00000ed4       __real@40200000            100b2ed4     Misc.obj
 0002:00000ed8       __real@4024000000000000    100b2ed8     Misc.obj
 0002:00000ee0       __real@41200000            100b2ee0     Misc.obj
 0002:00000ee4       __real@42fa0000            100b2ee4     Misc.obj
 0002:00000ee8       ??_C@_0CE@LNFEJFHG@55?58B?5EC?583?57D?508?5FF?556?58B?5F1?57@ 100b2ee8     Resolver.obj
 0002:00000f0c       ??_C@_0N@BCODAK@Hit?5shot?5at?5@ 100b2f0c     Resolver.obj
 0002:00000f1c       ??_C@_0BA@CNOHEFKK@Missed?5shot?5at?5@ 100b2f1c     Resolver.obj
 0002:00000f2c       ??_C@_08ICLDDLKE@OVERRIDE@ 100b2f2c     Resolver.obj
 0002:00000f38       ??_C@_07BGPPLLDP@NO?5FAKE@ 100b2f38     Resolver.obj
 0002:00000f40       ??_C@_0L@OAOBLFMH@LBY?5UPDATE@ 100b2f40     Resolver.obj
 0002:00000f4c       ??_C@_0BF@DHIMLONP@PREDICTED?5LBY?5UPDATE@ 100b2f4c     Resolver.obj
 0002:00000f64       ??_C@_0BB@PMIJMFPH@NOT?5BREAKING?5LBY@ 100b2f64     Resolver.obj
 0002:00000f78       ??_C@_0L@MFFDHCIK@BRUTEFORCE@ 100b2f78     Resolver.obj
 0002:00000f84       ??_C@_0BG@MKHIMGK@LAST?5MOVING?5LBY?5DELTA@ 100b2f84     Resolver.obj
 0002:00000f9c       ??_C@_0BA@CIIKPDGJ@LAST?5MOVING?5LBY@ 100b2f9c     Resolver.obj
 0002:00000fac       ??_C@_0P@BBFCPCM@ANTI?5FREESTAND@ 100b2fac     Resolver.obj
 0002:00000fbc       ??_C@_03MCFJEBIN@GAY@      100b2fbc     Resolver.obj
 0002:00000fc0       ??_C@_03NIBMKKKC@?5?1?5@   100b2fc0     Resolver.obj
 0002:00000fc4       __real@41800000            100b2fc4     Resolver.obj
 0002:00000fc8       __real@428c0000            100b2fc8     Resolver.obj
 0002:00000fcc       __real@42920000            100b2fcc     Resolver.obj
 0002:00000fd0       __real@42960000            100b2fd0     Resolver.obj
 0002:00000fd4       __real@430c0000            100b2fd4     Resolver.obj
 0002:00000fd8       __real@43200000            100b2fd8     Resolver.obj
 0002:00000fdc       ??_C@_0P@BNCJGDPG@gg?4gg?1chadhook@ 100b2fdc     Configurations.obj
 0002:00000fec       ??_C@_0BH@LABFDBK@C?3?2Bameware?2Configs?2?$CFs@ 100b2fec     Configurations.obj
 0002:00001004       ??_C@_05ODCCPGFJ@0x?$CFX?5@ 100b3004     Configurations.obj
 0002:0000100c       ??_C@_07BGCLIMJD@?$FLH?$FN0x?$CFX@ 100b300c     Configurations.obj
 0002:00001014       ??_C@_0BG@JEBIAHIG@C?3?2Bameware?2Configs?2?$CK@ 100b3014     Configurations.obj
 0002:0000102c       ??_C@_0BJ@HINLFPKK@C?3?2Bameware?2Configs?2?$CFs?$CFs@ 100b302c     Configurations.obj
 0002:00001048       ??_C@_05EECHHEFG@AK?947@   100b3048     SkinChanger.obj
 0002:00001050       ??_C@_09HEJEKDNG@CZ75?5Auto@ 100b3050     SkinChanger.obj
 0002:0000105c       ??_C@_0N@FAMDEIAF@Desert?5Eagle@ 100b305c     SkinChanger.obj
 0002:0000106c       ??_C@_0O@JJEHDGFO@Dual?5Berettas@ 100b306c     SkinChanger.obj
 0002:0000107c       ??_C@_05HLBPKPFE@FAMAS@    100b307c     SkinChanger.obj
 0002:00001084       ??_C@_0L@IHNFOILN@Five?9SeveN@ 100b3084     SkinChanger.obj
 0002:00001090       ??_C@_05NANBJKGF@G3SG1@    100b3090     SkinChanger.obj
 0002:00001098       ??_C@_08NJIMLAOK@Galil?5AR@ 100b3098     SkinChanger.obj
 0002:000010a4       ??_C@_08FJFDHDHA@Glock?918@ 100b30a4     SkinChanger.obj
 0002:000010b0       ??_C@_04OOHKGEMG@M249@     100b30b0     SkinChanger.obj
 0002:000010b8       ??_C@_06FEKDEEJK@M4A1?9S@  100b30b8     SkinChanger.obj
 0002:000010c0       ??_C@_04CMIFOPOM@M4A4@     100b30c0     SkinChanger.obj
 0002:000010c8       ??_C@_06DEKPABNP@MAC?910@  100b30c8     SkinChanger.obj
 0002:000010d0       ??_C@_05DODJCDBE@MAG?97@   100b30d0     SkinChanger.obj
 0002:000010d8       ??_C@_05LLDFNFHM@Negev@    100b30d8     SkinChanger.obj
 0002:000010e0       ??_C@_04JBMBEHJL@Nova@     100b30e0     SkinChanger.obj
 0002:000010e8       ??_C@_05JCFEJGIP@P2000@    100b30e8     SkinChanger.obj
 0002:000010f0       ??_C@_04KGAKOGIL@P250@     100b30f0     SkinChanger.obj
 0002:000010f8       ??_C@_08PKCNDFCK@PP?9Bizon@ 100b30f8     SkinChanger.obj
 0002:00001104       ??_C@_0M@HKKILMII@R8?5Revolver@ 100b3104     SkinChanger.obj
 0002:00001110       ??_C@_09GMOLFBMP@Sawed?9Off@ 100b3110     SkinChanger.obj
 0002:0000111c       ??_C@_07BILBIONL@SCAR?920@ 100b311c     SkinChanger.obj
 0002:00001124       ??_C@_06IDKBNLPO@SSG?508@  100b3124     SkinChanger.obj
 0002:0000112c       ??_C@_06LCAMIMKD@SG?5553@  100b312c     SkinChanger.obj
 0002:00001134       ??_C@_05JPHCOMGE@Tec?99@   100b3134     SkinChanger.obj
 0002:0000113c       ??_C@_06ELKAMIPB@UMP?945@  100b313c     SkinChanger.obj
 0002:00001144       ??_C@_05HMDKGIF@USP?9S@    100b3144     SkinChanger.obj
 0002:0000114c       ??_C@_06DDIGILCE@XM1014@   100b314c     SkinChanger.obj
 0002:00001154       ??_C@_08ONJOKMEB@KNIFE?5CT@ 100b3154     SkinChanger.obj
 0002:00001160       ??_C@_07EPKKHAPL@KNIFE?5T@ 100b3160     SkinChanger.obj
 0002:00001168       ??_C@_07MCAEODGB@Default@  100b3168     SkinChanger.obj
 0002:00001170       ??_C@_07HPCKEIPE@Genuine@  100b3170     SkinChanger.obj
 0002:00001178       ??_C@_07PPJOCJOF@Vintage@  100b3178     SkinChanger.obj
 0002:00001180       ??_C@_07GFLDDJPD@Unusual@  100b3180     SkinChanger.obj
 0002:00001188       ??_C@_09NNGLBCPE@Community@ 100b3188     SkinChanger.obj
 0002:00001194       ??_C@_09HCBPJCHD@Developer@ 100b3194     SkinChanger.obj
 0002:000011a0       ??_C@_09PIBPEEGK@Self?9Made@ 100b31a0     SkinChanger.obj
 0002:000011ac       ??_C@_0L@DMDPMNHP@Customized@ 100b31ac     SkinChanger.obj
 0002:000011b8       ??_C@_07DFAABAML@Strange@  100b31b8     SkinChanger.obj
 0002:000011c0       ??_C@_09MIJAKHKB@Completed@ 100b31c0     SkinChanger.obj
 0002:000011cc       ??_C@_0L@FENDKKGN@Tournament@ 100b31cc     SkinChanger.obj
 0002:000011d8       ??_C@_0M@EDOCMJDF@Groundwater@ 100b31d8     SkinChanger.obj
 0002:000011e4       ??_C@_0M@OPCAHGBI@Candy?5Apple@ 100b31e4     SkinChanger.obj
 0002:000011f0       ??_C@_0N@FFBELPGE@Forest?5DDPAT@ 100b31f0     SkinChanger.obj
 0002:00001200       ??_C@_0M@FCMIHBKN@Arctic?5Camo@ 100b3200     SkinChanger.obj
 0002:0000120c       ??_C@_0N@DGJJJNOM@Desert?5Storm@ 100b320c     SkinChanger.obj
 0002:0000121c       ??_C@_0N@FJAKLPOF@Bengal?5Tiger@ 100b321c     SkinChanger.obj
 0002:0000122c       ??_C@_0L@NFJHMHME@Copperhead@ 100b322c     SkinChanger.obj
 0002:00001238       ??_C@_06BHIABDEH@Skulls@   100b3238     SkinChanger.obj
 0002:00001240       ??_C@_0M@GFECCEP@Crimson?5Web@ 100b3240     SkinChanger.obj
 0002:0000124c       ??_C@_0M@DPCGOHHJ@Blue?5Streak@ 100b324c     SkinChanger.obj
 0002:00001258       ??_C@_0N@IJGLODJA@Red?5Laminate@ 100b3258     SkinChanger.obj
 0002:00001268       ??_C@_08EPGFLNDG@Gunsmoke@ 100b3268     SkinChanger.obj
 0002:00001274       ??_C@_0N@OBBBHNAI@Jungle?5Tiger@ 100b3274     SkinChanger.obj
 0002:00001284       ??_C@_0M@EPFCPDPH@Urban?5DDPAT@ 100b3284     SkinChanger.obj
 0002:00001290       ??_C@_05JHNGEIBD@Virus@    100b3290     SkinChanger.obj
 0002:00001298       ??_C@_0BD@GLPPKINJ@Granite?5Marbleized@ 100b3298     SkinChanger.obj
 0002:000012ac       ??_C@_0P@EJEOPGBF@Contrast?5Spray@ 100b32ac     SkinChanger.obj
 0002:000012bc       ??_C@_0O@GFJDNNLG@Forest?5Leaves@ 100b32bc     SkinChanger.obj
 0002:000012cc       ??_C@_0O@FPCNGBIN@Lichen?5Dashed@ 100b32cc     SkinChanger.obj
 0002:000012dc       ??_C@_09ONOELCGH@Bone?5Mask@ 100b32dc     SkinChanger.obj
 0002:000012e8       ??_C@_0O@NONFFFGP@Anodized?5Navy@ 100b32e8     SkinChanger.obj
 0002:000012f8       ??_C@_0L@JMBCBDGP@Snake?5Camo@ 100b32f8     SkinChanger.obj
 0002:00001304       ??_C@_06BONGPKIK@Silver@   100b3304     SkinChanger.obj
 0002:0000130c       ??_C@_07GPDHEAIG@Hot?5Rod@ 100b330c     SkinChanger.obj
 0002:00001314       ??_C@_0P@HCCJKNJE@Metallic?5DDPAT@ 100b3314     SkinChanger.obj
 0002:00001324       ??_C@_08NHKILINM@Ossified@ 100b3324     SkinChanger.obj
 0002:00001330       ??_C@_05JCBJINHF@Blaze@    100b3330     SkinChanger.obj
 0002:00001338       ??_C@_04DKKAMJHD@Fade@     100b3338     SkinChanger.obj
 0002:00001340       ??_C@_09CIMMKKHM@Bulldozer@ 100b3340     SkinChanger.obj
 0002:0000134c       ??_C@_05EECLMJKM@Night@    100b334c     SkinChanger.obj
 0002:00001354       ??_C@_06CPCKKAAG@Copper@   100b3354     SkinChanger.obj
 0002:0000135c       ??_C@_0L@DBOBANBN@Blue?5Steel@ 100b335c     SkinChanger.obj
 0002:00001368       ??_C@_07JKKNMOBA@Stained@  100b3368     SkinChanger.obj
 0002:00001370       ??_C@_0O@KJMMGPHG@Case?5Hardened@ 100b3370     SkinChanger.obj
 0002:00001380       ??_C@_0L@JLJHBLJO@Contractor@ 100b3380     SkinChanger.obj
 0002:0000138c       ??_C@_06GNOBKLGG@Colony@   100b338c     SkinChanger.obj
 0002:00001394       ??_C@_0O@HGAJGILG@Dragon?5Tattoo@ 100b3394     SkinChanger.obj
 0002:000013a4       ??_C@_0BB@PJJIOMOB@Lightning?5Strike@ 100b33a4     SkinChanger.obj
 0002:000013b8       ??_C@_09FNOLKBMB@Slaughter@ 100b33b8     SkinChanger.obj
 0002:000013c4       ??_C@_0L@FCDEGGNE@Dark?5Water@ 100b33c4     SkinChanger.obj
 0002:000013d0       ??_C@_08OHNMGBGI@Hypnotic@ 100b33d0     SkinChanger.obj
 0002:000013dc       ??_C@_0L@LKKFJNHI@Bloomstick@ 100b33dc     SkinChanger.obj
 0002:000013e8       ??_C@_0N@JEJOOMBJ@Cold?5Blooded@ 100b33e8     SkinChanger.obj
 0002:000013f8       ??_C@_0N@DGHIEPBK@Carbon?5Fiber@ 100b33f8     SkinChanger.obj
 0002:00001408       ??_C@_08DAFADDAO@Scorpion@ 100b3408     SkinChanger.obj
 0002:00001414       ??_C@_0M@GJILCPMG@Safari?5Mesh@ 100b3414     SkinChanger.obj
 0002:00001420       ??_C@_05FJOHAEIP@Wings@    100b3420     SkinChanger.obj
 0002:00001428       ??_C@_0L@CIMEEHIP@Polar?5Camo@ 100b3428     SkinChanger.obj
 0002:00001434       ??_C@_0BE@GEADEPCF@Blizzard?5Marbleized@ 100b3434     SkinChanger.obj
 0002:00001448       ??_C@_0O@DGOGMMCM@Winter?5Forest@ 100b3448     SkinChanger.obj
 0002:00001458       ??_C@_0O@HPJBMDBP@Boreal?5Forest@ 100b3458     SkinChanger.obj
 0002:00001468       ??_C@_0N@CDKOOGC@Forest?5Night@ 100b3468     SkinChanger.obj
 0002:00001478       ??_C@_0N@MOPPCCGL@Orange?5DDPAT@ 100b3478     SkinChanger.obj
 0002:00001488       ??_C@_0L@EKJBKFDM@Pink?5DDPAT@ 100b3488     SkinChanger.obj
 0002:00001494       ??_C@_06JHEDALCM@Mudder@   100b3494     SkinChanger.obj
 0002:0000149c       ??_C@_0N@CCIEDFOP@Cyanospatter@ 100b349c     SkinChanger.obj
 0002:000014ac       ??_C@_07LMKOFCEA@Caramel@  100b34ac     SkinChanger.obj
 0002:000014b4       ??_C@_09GOLBDHFM@Grassland@ 100b34b4     SkinChanger.obj
 0002:000014c0       ??_C@_0M@GJKJALBA@Blue?5Spruce@ 100b34c0     SkinChanger.obj
 0002:000014cc       ??_C@_0M@IIBENIHK@Ultraviolet@ 100b34cc     SkinChanger.obj
 0002:000014d8       ??_C@_09BDCLDHID@Sand?5Dune@ 100b34d8     SkinChanger.obj
 0002:000014e4       ??_C@_05CMBGCMIL@Storm@    100b34e4     SkinChanger.obj
 0002:000014ec       ??_C@_07HIIGAALC@Tornado@  100b34ec     SkinChanger.obj
 0002:000014f4       ??_C@_08KJKIDDCA@Whiteout@ 100b34f4     SkinChanger.obj
 0002:00001500       ??_C@_0BB@IJLIHELD@Grassland?5Leaves@ 100b3500     SkinChanger.obj
 0002:00001514       ??_C@_0L@EBGPHGAE@Polar?5Mesh@ 100b3514     SkinChanger.obj
 0002:00001520       ??_C@_09PNFFLFGN@Condemned@ 100b3520     SkinChanger.obj
 0002:0000152c       ??_C@_0N@PFDPAIPH@Glacier?5Mesh@ 100b352c     SkinChanger.obj
 0002:0000153c       ??_C@_09OPHCEMAD@Sand?5Mesh@ 100b353c     SkinChanger.obj
 0002:00001548       ??_C@_0L@CBKDHAHP@Sage?5Spray@ 100b3548     SkinChanger.obj
 0002:00001554       ??_C@_0N@BCNOGOPJ@Jungle?5Spray@ 100b3554     SkinChanger.obj
 0002:00001564       ??_C@_0L@EBKKMGLK@Sand?5Spray@ 100b3564     SkinChanger.obj
 0002:00001570       ??_C@_0BB@HEBGBBOB@Urban?5Perforated@ 100b3570     SkinChanger.obj
 0002:00001584       ??_C@_0BB@ELFMLINJ@Waves?5Perforated@ 100b3584     SkinChanger.obj
 0002:00001598       ??_C@_0M@HNKEOFBH@Orange?5Peel@ 100b3598     SkinChanger.obj
 0002:000015a4       ??_C@_0N@IMLJNPJA@Urban?5Masked@ 100b35a4     SkinChanger.obj
 0002:000015b4       ??_C@_0O@PKEFHFCF@Jungle?5Dashed@ 100b35b4     SkinChanger.obj
 0002:000015c4       ??_C@_0M@BFMDBBKH@Sand?5Dashed@ 100b35c4     SkinChanger.obj
 0002:000015d0       ??_C@_0N@LJEDFKN@Urban?5Dashed@ 100b35d0     SkinChanger.obj
 0002:000015e0       ??_C@_06LDDNPE@Jungle@     100b35e0     SkinChanger.obj
 0002:000015e8       ??_C@_0L@PAKEHDBP@Demolition@ 100b35e8     SkinChanger.obj
 0002:000015f4       ??_C@_0L@IJCFDOEA@Afterimage@ 100b35f4     SkinChanger.obj
 0002:00001600       ??_C@_0M@FMDKJNJK@Bullet?5Rain@ 100b3600     SkinChanger.obj
 0002:0000160c       ??_C@_0P@IHGEAONB@Death?5by?5Kitty@ 100b360c     SkinChanger.obj
 0002:0000161c       ??_C@_04BDMKHAOB@Palm@     100b361c     SkinChanger.obj
 0002:00001624       ??_C@_06NJBLCHHC@Walnut@   100b3624     SkinChanger.obj
 0002:0000162c       ??_C@_05FOIACKMO@Brass@    100b362c     SkinChanger.obj
 0002:00001634       ??_C@_06FPEHODOG@Splash@   100b3634     SkinChanger.obj
 0002:0000163c       ??_C@_0O@NJHJEFAF@Modern?5Hunter@ 100b363c     SkinChanger.obj
 0002:0000164c       ??_C@_0L@LAHCMGBK@Splash?5Jam@ 100b364c     SkinChanger.obj
 0002:00001658       ??_C@_0N@EBKBHDNA@Blaze?5Orange@ 100b3658     SkinChanger.obj
 0002:00001668       ??_C@_0BB@JFAAMFPH@Radiation?5Hazard@ 100b3668     SkinChanger.obj
 0002:0000167c       ??_C@_0P@HJBNOAPI@Nuclear?5Threat@ 100b367c     SkinChanger.obj
 0002:0000168c       ??_C@_0BA@DDPOBJDM@Fallout?5Warning@ 100b368c     SkinChanger.obj
 0002:0000169c       ??_C@_08NBLHOMJL@Predator@ 100b369c     SkinChanger.obj
 0002:000016a8       ??_C@_0BB@PNJHOBHG@Irradiated?5Alert@ 100b36a8     SkinChanger.obj
 0002:000016bc       ??_C@_0P@FDOPKCNK@Black?5Laminate@ 100b36bc     SkinChanger.obj
 0002:000016cc       ??_C@_04OGIILABF@BOOM@     100b36cc     SkinChanger.obj
 0002:000016d4       ??_C@_08FINENEGF@Scorched@ 100b36d4     SkinChanger.obj
 0002:000016e0       ??_C@_0M@NJLBJPLI@Faded?5Zebra@ 100b36e0     SkinChanger.obj
 0002:000016ec       ??_C@_07HOBHEHIF@Memento@  100b36ec     SkinChanger.obj
 0002:000016f4       ??_C@_09FEBNDOEJ@Doomkitty@ 100b36f4     SkinChanger.obj
 0002:00001700       ??_C@_0N@PDJEIBLM@Fire?5Serpent@ 100b3700     SkinChanger.obj
 0002:00001710       ??_C@_09MKHCLFGM@Corticera@ 100b3710     SkinChanger.obj
 0002:0000171c       ??_C@_0P@NPFKAJJB@Emerald?5Dragon@ 100b371c     SkinChanger.obj
 0002:0000172c       ??_C@_0L@MJLDIDNI@Overgrowth@ 100b372c     SkinChanger.obj
 0002:00001738       ??_C@_0L@DEABGANA@Golden?5Koi@ 100b3738     SkinChanger.obj
 0002:00001744       ??_C@_0L@CKMBFFMP@Wave?5Spray@ 100b3744     SkinChanger.obj
 0002:00001750       ??_C@_05IOFIHGMB@Zirka@    100b3750     SkinChanger.obj
 0002:00001758       ??_C@_06PKLBCJOD@Graven@   100b3758     SkinChanger.obj
 0002:00001760       ??_C@_0N@PPAEPDMO@Bright?5Water@ 100b3760     SkinChanger.obj
 0002:00001770       ??_C@_0M@JAKPGAD@Black?5Limba@ 100b3770     SkinChanger.obj
 0002:0000177c       ??_C@_07MOJLCPGJ@Tempest@  100b377c     SkinChanger.obj
 0002:00001784       ??_C@_09OCFBKFPG@Shattered@ 100b3784     SkinChanger.obj
 0002:00001790       ??_C@_09DJNJAAHI@Bone?5Pile@ 100b3790     SkinChanger.obj
 0002:0000179c       ??_C@_08GPEHFICL@Spitfire@ 100b379c     SkinChanger.obj
 0002:000017a8       ??_C@_07LMHEEOAO@Demeter@  100b37a8     SkinChanger.obj
 0002:000017b0       ??_C@_07JCMOAPN@Emerald@   100b37b0     SkinChanger.obj
 0002:000017b8       ??_C@_06LAMDLNPF@Hazard@   100b37b8     SkinChanger.obj
 0002:000017c0       ??_C@_0L@IKAKJAHL@Dry?5Season@ 100b37c0     SkinChanger.obj
 0002:000017cc       ??_C@_0N@PLLLECK@Mayan?5Dreams@ 100b37cc     SkinChanger.obj
 0002:000017dc       ??_C@_0N@EKPADJCG@Jungle?5DDPAT@ 100b37dc     SkinChanger.obj
 0002:000017ec       ??_C@_09FIKEPIDC@Rust?5Coat@ 100b37ec     SkinChanger.obj
 0002:000017f8       ??_C@_07JCIFFAKM@Mosaico@  100b37f8     SkinChanger.obj
 0002:00001800       ??_C@_06DGAFMCI@Facets@    100b3800     SkinChanger.obj
 0002:00001808       ??_C@_0BC@DJOAJEGD@Anodized?5Gunmetal@ 100b3808     SkinChanger.obj
 0002:0000181c       ??_C@_0L@BADILEEI@Ocean?5Foam@ 100b381c     SkinChanger.obj
 0002:00001828       ??_C@_08MPINICIJ@Graphite@ 100b3828     SkinChanger.obj
 0002:00001834       ??_C@_05EBFNJLPC@X?9Ray@   100b3834     SkinChanger.obj
 0002:0000183c       ??_C@_0O@BBDNFEFG@Blue?5Titanium@ 100b383c     SkinChanger.obj
 0002:0000184c       ??_C@_0M@MMEPBAIN@Blood?5Tiger@ 100b384c     SkinChanger.obj
 0002:00001858       ??_C@_06FNLFMHNG@Hexane@   100b3858     SkinChanger.obj
 0002:00001860       ??_C@_04FPIGCIOD@Hive@     100b3860     SkinChanger.obj
 0002:00001868       ??_C@_0L@GMMIHJLB@Hemoglobin@ 100b3868     SkinChanger.obj
 0002:00001874       ??_C@_05NGKKALHO@Serum@    100b3874     SkinChanger.obj
 0002:0000187c       ??_C@_0BD@GDDEIJIB@Blood?5in?5the?5Water@ 100b387c     SkinChanger.obj
 0002:00001890       ??_C@_0L@OOKFNPIA@Nightshade@ 100b3890     SkinChanger.obj
 0002:0000189c       ??_C@_0M@KDIKPJEI@Water?5Sigil@ 100b389c     SkinChanger.obj
 0002:000018a8       ??_C@_0L@CJBGLCBH@Ghost?5Camo@ 100b38a8     SkinChanger.obj
 0002:000018b4       ??_C@_0O@MHHKDMCK@Blue?5Laminate@ 100b38b4     SkinChanger.obj
 0002:000018c4       ??_C@_0O@DDCKJBEO@Electric?5Hive@ 100b38c4     SkinChanger.obj
 0002:000018d4       ??_C@_0L@IACHMHBN@Blind?5Spot@ 100b38d4     SkinChanger.obj
 0002:000018e0       ??_C@_0M@OMJJPAEI@Azure?5Zebra@ 100b38e0     SkinChanger.obj
 0002:000018ec       ??_C@_0BB@PKLGBOHF@Steel?5Disruption@ 100b38ec     SkinChanger.obj
 0002:00001900       ??_C@_0BC@NHDLPGLP@Cobalt?5Disruption@ 100b3900     SkinChanger.obj
 0002:00001914       ??_C@_0P@FKICPIKI@Tropical?5Storm@ 100b3914     SkinChanger.obj
 0002:00001924       ??_C@_08OGFJLLOC@Ash?5Wood@ 100b3924     SkinChanger.obj
 0002:00001930       ??_C@_08GOFAHBPM@VariCamo@ 100b3930     SkinChanger.obj
 0002:0000193c       ??_C@_09MMFHFGJI@Night?5Ops@ 100b393c     SkinChanger.obj
 0002:00001948       ??_C@_0N@LDCKIIEM@Urban?5Rubble@ 100b3948     SkinChanger.obj
 0002:00001958       ??_C@_0O@NHFKGBMB@VariCamo?5Blue@ 100b3958     SkinChanger.obj
 0002:00001968       ??_C@_08LPOGJBFB@CaliCamo@ 100b3968     SkinChanger.obj
 0002:00001974       ??_C@_0O@MDIDBKJG@Hunting?5Blind@ 100b3974     SkinChanger.obj
 0002:00001984       ??_C@_09NBOCJJIP@Army?5Mesh@ 100b3984     SkinChanger.obj
 0002:00001990       ??_C@_0L@NKPJGFKE@Gator?5Mesh@ 100b3990     SkinChanger.obj
 0002:0000199c       ??_C@_08GAFPLAEL@Teardown@ 100b399c     SkinChanger.obj
 0002:000019a8       ??_C@_0L@CBHOMLFF@Army?5Recon@ 100b39a8     SkinChanger.obj
 0002:000019b4       ??_C@_0L@DCBPAFKE@Amber?5Fade@ 100b39b4     SkinChanger.obj
 0002:000019c0       ??_C@_0P@IEPDKCON@Damascus?5Steel@ 100b39c0     SkinChanger.obj
 0002:000019d0       ??_C@_0L@EGJMEOFH@Red?5Quartz@ 100b39d0     SkinChanger.obj
 0002:000019dc       ??_C@_0O@MNMPONAM@Cobalt?5Quartz@ 100b39dc     SkinChanger.obj
 0002:000019ec       ??_C@_09OEBIHJM@Full?5Stop@ 100b39ec     SkinChanger.obj
 0002:000019f8       ??_C@_09MENJMMDN@Pit?5Viper@ 100b39f8     SkinChanger.obj
 0002:00001a04       ??_C@_0O@OKGLFOKL@Silver?5Quartz@ 100b3a04     SkinChanger.obj
 0002:00001a14       ??_C@_09LMGPFBLH@Acid?5Fade@ 100b3a14     SkinChanger.obj
 0002:00001a20       ??_C@_05LOAANMOB@Nitro@    100b3a20     SkinChanger.obj
 0002:00001a28       ??_C@_07OKBBBOEO@Asiimov@  100b3a28     SkinChanger.obj
 0002:00001a30       ??_C@_0L@IMFMOONI@The?5Kraken@ 100b3a30     SkinChanger.obj
 0002:00001a3c       ??_C@_08LEGJHPMK@Guardian@ 100b3a3c     SkinChanger.obj
 0002:00001a48       ??_C@_06JGCMKFHP@Mehndi@   100b3a48     SkinChanger.obj
 0002:00001a50       ??_C@_07IHBKKBCO@Redline@  100b3a50     SkinChanger.obj
 0002:00001a58       ??_C@_05EMEMDIEE@Pulse@    100b3a58     SkinChanger.obj
 0002:00001a60       ??_C@_06HPHEFPCN@Marina@   100b3a60     SkinChanger.obj
 0002:00001a68       ??_C@_09PCJDOHJF@Rose?5Iron@ 100b3a68     SkinChanger.obj
 0002:00001a74       ??_C@_0N@FHDKMGNK@Rising?5Skull@ 100b3a74     SkinChanger.obj
 0002:00001a84       ??_C@_09NKFBJCLL@Sandstorm@ 100b3a84     SkinChanger.obj
 0002:00001a90       ??_C@_04GBFEHJEB@Kami@     100b3a90     SkinChanger.obj
 0002:00001a98       ??_C@_05MDLBNEDM@Magma@    100b3a98     SkinChanger.obj
 0002:00001aa0       ??_C@_0BA@EOAICINF@Cobalt?5Halftone@ 100b3aa0     SkinChanger.obj
 0002:00001ab0       ??_C@_0M@GCHHCDGM@Tread?5Plate@ 100b3ab0     SkinChanger.obj
 0002:00001abc       ??_C@_0BD@JMFFBFHD@The?5Fuschia?5Is?5Now@ 100b3abc     SkinChanger.obj
 0002:00001ad0       ??_C@_08BMEDFDFA@Victoria@ 100b3ad0     SkinChanger.obj
 0002:00001adc       ??_C@_08IHCIEMLG@Undertow@ 100b3adc     SkinChanger.obj
 0002:00001ae8       ??_C@_0N@FBCLANHN@Titanium?5Bit@ 100b3ae8     SkinChanger.obj
 0002:00001af8       ??_C@_08BACMKFID@Heirloom@ 100b3af8     SkinChanger.obj
 0002:00001b04       ??_C@_0O@MJNJKIDK@Copper?5Galaxy@ 100b3b04     SkinChanger.obj
 0002:00001b14       ??_C@_0M@EDEMNPDE@Red?5FragCam@ 100b3b14     SkinChanger.obj
 0002:00001b20       ??_C@_07HBBBHBHH@Panther@  100b3b20     SkinChanger.obj
 0002:00001b28       ??_C@_09NBBHJOGD@Stainless@ 100b3b28     SkinChanger.obj
 0002:00001b34       ??_C@_0N@OLEOFLGM@Blue?5Fissure@ 100b3b34     SkinChanger.obj
 0002:00001b44       ??_C@_09MIJFEMDG@Chameleon@ 100b3b44     SkinChanger.obj
 0002:00001b50       ??_C@_08NNPOKHHA@Corporal@ 100b3b50     SkinChanger.obj
 0002:00001b5c       ??_C@_06HJMFFBFN@Trigon@   100b3b5c     SkinChanger.obj
 0002:00001b64       ??_C@_04FPOAABLO@Heat@     100b3b64     SkinChanger.obj
 0002:00001b6c       ??_C@_07GICFIHGN@Terrain@  100b3b6c     SkinChanger.obj
 0002:00001b74       ??_C@_07DJMBHNBG@Antique@  100b3b74     SkinChanger.obj
 0002:00001b7c       ??_C@_08HPHGPEFO@Sergeant@ 100b3b7c     SkinChanger.obj
 0002:00001b88       ??_C@_0N@CHMAMEOK@Heaven?5Guard@ 100b3b88     SkinChanger.obj
 0002:00001b98       ??_C@_0N@ILNBIMKL@Death?5Rattle@ 100b3b98     SkinChanger.obj
 0002:00001ba8       ??_C@_0M@ECNHDICL@Green?5Apple@ 100b3ba8     SkinChanger.obj
 0002:00001bb4       ??_C@_08GGFOJGCL@Franklin@ 100b3bb4     SkinChanger.obj
 0002:00001bc0       ??_C@_09OHLNMKJN@Meteorite@ 100b3bc0     SkinChanger.obj
 0002:00001bcc       ??_C@_06IGAHMJPM@Tuxedo@   100b3bcc     SkinChanger.obj
 0002:00001bd4       ??_C@_0L@DKEOAGEL@Army?5Sheen@ 100b3bd4     SkinChanger.obj
 0002:00001be0       ??_C@_0M@OBLKEPFA@Caged?5Steel@ 100b3be0     SkinChanger.obj
 0002:00001bec       ??_C@_0BC@CKJIEBBE@Emerald?5Pinstripe@ 100b3bec     SkinChanger.obj
 0002:00001c00       ??_C@_0N@GFLAEKEB@Atomic?5Alloy@ 100b3c00     SkinChanger.obj
 0002:00001c10       ??_C@_06LOEDEFOB@Vulcan@   100b3c10     SkinChanger.obj
 0002:00001c18       ??_C@_05FMEHJGPC@Isaac@    100b3c18     SkinChanger.obj
 0002:00001c20       ??_C@_07MBKHMMEG@Slashed@  100b3c20     SkinChanger.obj
 0002:00001c28       ??_C@_06FGIKBBKF@Torque@   100b3c28     SkinChanger.obj
 0002:00001c30       ??_C@_0M@COPFEHFE@Retribution@ 100b3c30     SkinChanger.obj
 0002:00001c3c       ??_C@_04KKONKGEB@Howl@     100b3c3c     SkinChanger.obj
 0002:00001c44       ??_C@_05HJMIGINN@Curse@    100b3c44     SkinChanger.obj
 0002:00001c4c       ??_C@_0P@OCNIGEHA@Desert?5Warfare@ 100b3c4c     SkinChanger.obj
 0002:00001c5c       ??_C@_05FLPPDGAC@Cyrex@    100b3c5c     SkinChanger.obj
 0002:00001c64       ??_C@_05MNPKCHPH@Orion@    100b3c64     SkinChanger.obj
 0002:00001c6c       ??_C@_0M@HIIADPHC@Poison?5Dart@ 100b3c6c     SkinChanger.obj
 0002:00001c78       ??_C@_06GCKPJHNJ@Jaguar@   100b3c78     SkinChanger.obj
 0002:00001c80       ??_C@_08PINMCKGI@Bratatat@ 100b3c80     SkinChanger.obj
 0002:00001c8c       ??_C@_09HMIAHJAH@Road?5Rash@ 100b3c8c     SkinChanger.obj
 0002:00001c98       ??_C@_06KKMKPPJH@Detour@   100b3c98     SkinChanger.obj
 0002:00001ca0       ??_C@_0L@DOFALBFF@Red?5Python@ 100b3ca0     SkinChanger.obj
 0002:00001cac       ??_C@_0N@NAMMOCCE@Master?5Piece@ 100b3cac     SkinChanger.obj
 0002:00001cbc       ??_C@_07OMJPDLL@Chalice@   100b3cbc     SkinChanger.obj
 0002:00001cc4       ??_C@_06CJCFJDME@Knight@   100b3cc4     SkinChanger.obj
 0002:00001ccc       ??_C@_09NCKEDIDB@Chainmail@ 100b3ccc     SkinChanger.obj
 0002:00001cd8       ??_C@_0M@OHINAHGI@Hand?5Cannon@ 100b3cd8     SkinChanger.obj
 0002:00001ce4       ??_C@_08CIHGHFPP@Dark?5Age@ 100b3ce4     SkinChanger.obj
 0002:00001cf0       ??_C@_05JNINEEHO@Briar@    100b3cf0     SkinChanger.obj
 0002:00001cf8       ??_C@_0L@IGMOPFMM@Royal?5Blue@ 100b3cf8     SkinChanger.obj
 0002:00001d04       ??_C@_06EJPLNMI@Indigo@    100b3d04     SkinChanger.obj
 0002:00001d0c       ??_C@_05MJBKPKBA@Twist@    100b3d0c     SkinChanger.obj
 0002:00001d14       ??_C@_06NHPJKFDC@Module@   100b3d14     SkinChanger.obj
 0002:00001d1c       ??_C@_0O@DBOAECOC@Desert?9Strike@ 100b3d1c     SkinChanger.obj
 0002:00001d2c       ??_C@_06MNLLFCKB@Tatter@   100b3d2c     SkinChanger.obj
 0002:00001d34       ??_C@_06DLNNEOEG@Caiman@   100b3d34     SkinChanger.obj
 0002:00001d3c       ??_C@_07HGILOIFH@Jet?5Set@ 100b3d3c     SkinChanger.obj
 0002:00001d44       ??_C@_0M@KIOJABKK@First?5Class@ 100b3d44     SkinChanger.obj
 0002:00001d50       ??_C@_07FPBMMDNF@Leather@  100b3d50     SkinChanger.obj
 0002:00001d58       ??_C@_08CPFDBNOO@Commuter@ 100b3d58     SkinChanger.obj
 0002:00001d64       ??_C@_0M@HDHBCMFG@Dragon?5Lore@ 100b3d64     SkinChanger.obj
 0002:00001d70       ??_C@_0M@JDLCOAAH@Coach?5Class@ 100b3d70     SkinChanger.obj
 0002:00001d7c       ??_C@_05KPLJDLMD@Pilot@    100b3d7c     SkinChanger.obj
 0002:00001d84       ??_C@_0M@OKNFACJD@Red?5Leather@ 100b3d84     SkinChanger.obj
 0002:00001d90       ??_C@_06ELGGPNMP@Osiris@   100b3d90     SkinChanger.obj
 0002:00001d98       ??_C@_06DDMCKKGH@Tigris@   100b3d98     SkinChanger.obj
 0002:00001da0       ??_C@_0L@DKDHLIPD@Conspiracy@ 100b3da0     SkinChanger.obj
 0002:00001dac       ??_C@_09BPCPPBON@Fowl?5Play@ 100b3dac     SkinChanger.obj
 0002:00001db8       ??_C@_0BA@NJEGAHAD@Water?5Elemental@ 100b3db8     SkinChanger.obj
 0002:00001dc8       ??_C@_0N@KFEFMHNH@Urban?5Hazard@ 100b3dc8     SkinChanger.obj
 0002:00001dd8       ??_C@_05NKDFIJED@Ivory@    100b3dd8     SkinChanger.obj
 0002:00001de0       ??_C@_09KOILBCDN@Supernova@ 100b3de0     SkinChanger.obj
 0002:00001dec       ??_C@_05CNFJLAJC@Abyss@    100b3dec     SkinChanger.obj
 0002:00001df4       ??_C@_09MPDIMPJL@Labyrinth@ 100b3df4     SkinChanger.obj
 0002:00001e00       ??_C@_08FLLAGGHC@Traveler@ 100b3e00     SkinChanger.obj
 0002:00001e0c       ??_C@_0P@IDEJABCO@Business?5Class@ 100b3e0c     SkinChanger.obj
 0002:00001e1c       ??_C@_0M@PAKPELJJ@Olive?5Plaid@ 100b3e1c     SkinChanger.obj
 0002:00001e28       ??_C@_0M@NIDIFAMG@Green?5Plaid@ 100b3e28     SkinChanger.obj
 0002:00001e34       ??_C@_07PDLFMGKP@Reactor@  100b3e34     SkinChanger.obj
 0002:00001e3c       ??_C@_0M@MEAOMDN@Setting?5Sun@ 100b3e3c     SkinChanger.obj
 0002:00001e48       ??_C@_0O@NMIAJCNF@Nuclear?5Waste@ 100b3e48     SkinChanger.obj
 0002:00001e58       ??_C@_0N@GEJHIOBJ@Bone?5Machine@ 100b3e58     SkinChanger.obj
 0002:00001e68       ??_C@_04BOPFCKBD@Styx@     100b3e68     SkinChanger.obj
 0002:00001e70       ??_C@_0P@HLMACAB@Nuclear?5Garden@ 100b3e70     SkinChanger.obj
 0002:00001e80       ??_C@_0O@DICKIMG@Contamination@ 100b3e80     SkinChanger.obj
 0002:00001e90       ??_C@_05GFBNLEJJ@Toxic@    100b3e90     SkinChanger.obj
 0002:00001e98       ??_C@_0P@NDHCLHEB@Chemical?5Green@ 100b3e98     SkinChanger.obj
 0002:00001ea8       ??_C@_08ODAFFDEP@Hot?5Shot@ 100b3ea8     SkinChanger.obj
 0002:00001eb4       ??_C@_08JOOFAFLL@Cerberus@ 100b3eb4     SkinChanger.obj
 0002:00001ec0       ??_C@_0BA@OMCKGEFH@Wasteland?5Rebel@ 100b3ec0     SkinChanger.obj
 0002:00001ed0       ??_C@_07CMNKMPDF@Grinder@  100b3ed0     SkinChanger.obj
 0002:00001ed8       ??_C@_05LHIAKGDI@Murky@    100b3ed8     SkinChanger.obj
 0002:00001ee0       ??_C@_08MNPKLCHB@Basilisk@ 100b3ee0     SkinChanger.obj
 0002:00001eec       ??_C@_07FJMOOIEG@Griffin@  100b3eec     SkinChanger.obj
 0002:00001ef4       ??_C@_0M@FJKPDKBM@Firestarter@ 100b3ef4     SkinChanger.obj
 0002:00001f00       ??_C@_04LBCGGMB@Dart@      100b3f00     SkinChanger.obj
 0002:00001f08       ??_C@_06DEMDDKJO@Cartel@   100b3f08     SkinChanger.obj
 0002:00001f10       ??_C@_0P@KEPGKGOC@Fire?5Elemental@ 100b3f10     SkinChanger.obj
 0002:00001f20       ??_C@_0L@ILIPLGGE@Highwayman@ 100b3f20     SkinChanger.obj
 0002:00001f2c       ??_C@_07HLLNPOHE@Cardiac@  100b3f2c     SkinChanger.obj
 0002:00001f34       ??_C@_08FFNDEFME@Delusion@ 100b3f34     SkinChanger.obj
 0002:00001f40       ??_C@_0M@PBCFJGEP@Tranquility@ 100b3f40     SkinChanger.obj
 0002:00001f4c       ??_C@_0L@LNKBJIHF@Man?9o?8?9war@ 100b3f4c     SkinChanger.obj
 0002:00001f58       ??_C@_0M@JOOPFDJE@Urban?5Shock@ 100b3f58     SkinChanger.obj
 0002:00001f64       ??_C@_04GMPKPJOP@Naga@     100b3f64     SkinChanger.obj
 0002:00001f6c       ??_C@_0L@IMKOOGOB@Chatterbox@ 100b3f6c     SkinChanger.obj
 0002:00001f78       ??_C@_09DEDEOBDL@Catacombs@ 100b3f78     SkinChanger.obj
 0002:00001f84       ??_C@_0BB@HNNCLGJD@?$DP?$DP?5?$CIDragon?5King?$CJ@ 100b3f84     SkinChanger.obj
 0002:00001f98       ??_C@_0M@LNIJGCJM@System?5Lock@ 100b3f98     SkinChanger.obj
 0002:00001fa4       ??_C@_09LMNCNKEE@Malachite@ 100b3fa4     SkinChanger.obj
 0002:00001fb0       ??_C@_0O@NHPACFCG@Deadly?5Poison@ 100b3fb0     SkinChanger.obj
 0002:00001fc0       ??_C@_07OOPKLEID@Muertos@  100b3fc0     SkinChanger.obj
 0002:00001fc8       ??_C@_08CEMFBEEA@Serenity@ 100b3fc8     SkinChanger.obj
 0002:00001fd4       ??_C@_06OLHHKHAP@Grotto@   100b3fd4     SkinChanger.obj
 0002:00001fdc       ??_C@_0M@NKOEBMOD@Quicksilver@ 100b3fdc     SkinChanger.obj
 0002:00001fe8       ??_C@_0M@IFCNOIMG@Tiger?5Tooth@ 100b3fe8     SkinChanger.obj
 0002:00001ff4       ??_C@_0M@GBIOCIOA@Marble?5Fade@ 100b3ff4     SkinChanger.obj
 0002:00002000       ??_C@_07JKOBGHIH@Doppler@  100b4000     SkinChanger.obj
 0002:00002008       ??_C@_0M@NEPPDHBJ@Elite?5Build@ 100b4008     SkinChanger.obj
 0002:00002014       ??_C@_0L@JKFHCLFJ@Armor?5Core@ 100b4014     SkinChanger.obj
 0002:00002020       ??_C@_08EMILMFEB@Worm?5God@ 100b4020     SkinChanger.obj
 0002:0000202c       ??_C@_0M@KALMOOID@Bronze?5Deco@ 100b402c     SkinChanger.obj
 0002:00002038       ??_C@_07IDFDMADB@Valence@  100b4038     SkinChanger.obj
 0002:00002040       ??_C@_0BA@GIIJFPON@Monkey?5Business@ 100b4040     SkinChanger.obj
 0002:00002050       ??_C@_05PGGPGBEA@Djinn@    100b4050     SkinChanger.obj
 0002:00002058       ??_C@_0M@HLGDNDCN@Hyper?5Beast@ 100b4058     SkinChanger.obj
 0002:00002064       ??_C@_0L@JMLLLIIF@Neon?5Rider@ 100b4064     SkinChanger.obj
 0002:00002070       ??_C@_07GCNENMOB@Origami@  100b4070     SkinChanger.obj
 0002:00002078       ??_C@_0O@BICBAJBK@Pole?5Position@ 100b4078     SkinChanger.obj
 0002:00002088       ??_C@_0L@DGFOPJPJ@Grand?5Prix@ 100b4088     SkinChanger.obj
 0002:00002094       ??_C@_0BA@EHONPBGP@Twilight?5Galaxy@ 100b4094     SkinChanger.obj
 0002:000020a4       ??_C@_07EEHOINFE@Chronos@  100b40a4     SkinChanger.obj
 0002:000020ac       ??_C@_05PHCOMLAK@Hades@    100b40ac     SkinChanger.obj
 0002:000020b4       ??_C@_0M@GNPECMJG@Icarus?5Fell@ 100b40b4     SkinChanger.obj
 0002:000020c0       ??_C@_0BF@KNHBCLKE@Minotaur?8s?5Labyrinth@ 100b40c0     SkinChanger.obj
 0002:000020d8       ??_C@_08MPBHMBKF@Asterion@ 100b40d8     SkinChanger.obj
 0002:000020e4       ??_C@_0L@HKGMEJCE@Pathfinder@ 100b40e4     SkinChanger.obj
 0002:000020f0       ??_C@_08EPKIKBLJ@Daedalus@ 100b40f0     SkinChanger.obj
 0002:000020fc       ??_C@_06FHEKHBN@Medusa@    100b40fc     SkinChanger.obj
 0002:00002104       ??_C@_07NGGLMFNK@Duelist@  100b4104     SkinChanger.obj
 0002:0000210c       ??_C@_0O@MKKBLIHF@Pandora?8s?5Box@ 100b410c     SkinChanger.obj
 0002:0000211c       ??_C@_08HPEFPDDD@Poseidon@ 100b411c     SkinChanger.obj
 0002:00002128       ??_C@_0O@EKKFPJPP@Moon?5in?5Libra@ 100b4128     SkinChanger.obj
 0002:00002138       ??_C@_0L@JIDJFCLE@Sun?5in?5Leo@ 100b4138     SkinChanger.obj
 0002:00002144       ??_C@_0BC@MCGGLMDC@Shipping?5Forecast@ 100b4144     SkinChanger.obj
 0002:00002158       ??_C@_0L@PHJPEPDL@Para?5Green@ 100b4158     SkinChanger.obj
 0002:00002164       ??_C@_0BB@GDPCACML@Akihabara?5Accept@ 100b4164     SkinChanger.obj
 0002:00002178       ??_C@_0L@KCMEMHAE@Hydroponic@ 100b4178     SkinChanger.obj
 0002:00002184       ??_C@_0N@FFPLCOHP@Bamboo?5Print@ 100b4184     SkinChanger.obj
 0002:00002194       ??_C@_0O@HMIKKEOG@Bamboo?5Shadow@ 100b4194     SkinChanger.obj
 0002:000021a4       ??_C@_0O@PFIEKENH@Bamboo?5Forest@ 100b41a4     SkinChanger.obj
 0002:000021b4       ??_C@_0N@EFNEHC@Aqua?5Terrace@ 100b41b4     SkinChanger.obj
 0002:000021c4       ??_C@_0BA@PCIENHAL@Counter?5Terrace@ 100b41c4     SkinChanger.obj
 0002:000021d4       ??_C@_07IGEGNLHA@Terrace@  100b41d4     SkinChanger.obj
 0002:000021dc       ??_C@_0M@PKPMLKGD@Neon?5Kimono@ 100b41dc     SkinChanger.obj
 0002:000021e8       ??_C@_0O@EFBBJCOH@Orange?5Kimono@ 100b41e8     SkinChanger.obj
 0002:000021f8       ??_C@_0P@CGPHMODB@Crimson?5Kimono@ 100b41f8     SkinChanger.obj
 0002:00002208       ??_C@_0M@FBFEFJIF@Mint?5Kimono@ 100b4208     SkinChanger.obj
 0002:00002214       ??_C@_0P@EJOOMKPH@Midnight?5Storm@ 100b4214     SkinChanger.obj
 0002:00002224       ??_C@_0P@DCPEPKJF@Sunset?5Storm?5?$DP@ 100b4224     SkinChanger.obj
 0002:00002234       ??_C@_08PKPDIFDD@Daybreak@ 100b4234     SkinChanger.obj
 0002:00002240       ??_C@_0N@OHFADMEB@Impact?5Drill@ 100b4240     SkinChanger.obj
 0002:00002250       ??_C@_07KIGKOFDH@Seabird@  100b4250     SkinChanger.obj
 0002:00002258       ??_C@_0BD@CFPHDDIA@Aquamarine?5Revenge@ 100b4258     SkinChanger.obj
 0002:0000226c       ??_C@_0O@JKCCFDAH@Yellow?5Jacket@ 100b426c     SkinChanger.obj
 0002:0000227c       ??_C@_0L@JOHLJOPK@Neural?5Net@ 100b427c     SkinChanger.obj
 0002:00002288       ??_C@_0L@FDGMINFP@Rocket?5Pop@ 100b4288     SkinChanger.obj
 0002:00002294       ??_C@_0O@FGHHNPEB@Bunsen?5Burner@ 100b4294     SkinChanger.obj
 0002:000022a4       ??_C@_0M@MDGJMNFM@Evil?5Daimyo@ 100b42a4     SkinChanger.obj
 0002:000022b0       ??_C@_07KAGCKCFK@Nemesis@  100b42b0     SkinChanger.obj
 0002:000022b8       ??_C@_0BB@OMFBPJGD@Ruby?5Poison?5Dart@ 100b42b8     SkinChanger.obj
 0002:000022cc       ??_C@_09INFFEEEF@Loudmouth@ 100b42cc     SkinChanger.obj
 0002:000022d8       ??_C@_06MGJHBAMJ@Ranger@   100b42d8     SkinChanger.obj
 0002:000022e0       ??_C@_07BMJNCCBA@Handgun@  100b42e0     SkinChanger.obj
 0002:000022e8       ??_C@_04DFPIBMCP@Riot@     100b42e8     SkinChanger.obj
 0002:000022f0       ??_C@_0BA@CGABEKFP@Frontside?5Misty@ 100b42f0     SkinChanger.obj
 0002:00002300       ??_C@_0BA@EEFMEAPK@Dualing?5Dragons@ 100b4300     SkinChanger.obj
 0002:00002310       ??_C@_0L@LADGFEPB@Survivor?5Z@ 100b4310     SkinChanger.obj
 0002:0000231c       ??_C@_04CKECLEPF@Flux@     100b431c     SkinChanger.obj
 0002:00002324       ??_C@_0L@COFFBDHH@Stone?5Cold@ 100b4324     SkinChanger.obj
 0002:00002330       ??_C@_07EPMIFFOO@Wraiths@  100b4330     SkinChanger.obj
 0002:00002338       ??_C@_0BA@CMLJKFPL@Nebula?5Crusader@ 100b4338     SkinChanger.obj
 0002:00002348       ??_C@_0M@HPNPLMNO@Golden?5Coil@ 100b4348     SkinChanger.obj
 0002:00002354       ??_C@_07GJBONI@Rangeen@    100b4354     SkinChanger.obj
 0002:0000235c       ??_C@_0M@DFNHNNCO@Cobalt?5Core@ 100b435c     SkinChanger.obj
 0002:00002368       ??_C@_0BB@PFIGFEDK@Special?5Delivery@ 100b4368     SkinChanger.obj
 0002:0000237c       ??_C@_08EGCBABDI@Wingshot@ 100b437c     SkinChanger.obj
 0002:00002388       ??_C@_0N@PKBFEGGD@Green?5Marine@ 100b4388     SkinChanger.obj
 0002:00002398       ??_C@_08EDKLJEAG@Big?5Iron@ 100b4398     SkinChanger.obj
 0002:000023a4       ??_C@_0P@NAFNMAAC@Kill?5Confirmed@ 100b43a4     SkinChanger.obj
 0002:000023b4       ??_C@_08BPFDDEMB@Scumbria@ 100b43b4     SkinChanger.obj
 0002:000023c0       ??_C@_0P@JCGBCJDG@Point?5Disarray@ 100b43c0     SkinChanger.obj
 0002:000023d0       ??_C@_08OMEFLFIO@Ricochet@ 100b43d0     SkinChanger.obj
 0002:000023dc       ??_C@_08BEKJGINI@Fuel?5Rod@ 100b43dc     SkinChanger.obj
 0002:000023e8       ??_C@_0L@PMPCCFJH@Corinthian@ 100b43e8     SkinChanger.obj
 0002:000023f4       ??_C@_0M@OIJKEOND@Retrobution@ 100b43f4     SkinChanger.obj
 0002:00002400       ??_C@_0BA@MHHIFFNC@The?5Executioner@ 100b4400     SkinChanger.obj
 0002:00002410       ??_C@_0O@LIOOBDK@Royal?5Paladin@ 100b4410     SkinChanger.obj
 0002:00002420       ??_C@_0N@FNDJPCKA@Power?5Loader@ 100b4420     SkinChanger.obj
 0002:00002430       ??_C@_08NBBJCLDP@Imperial@ 100b4430     SkinChanger.obj
 0002:0000243c       ??_C@_09GLFAJOKN@Shapewood@ 100b443c     SkinChanger.obj
 0002:00002448       ??_C@_06CENIPNFJ@Yorick@   100b4448     SkinChanger.obj
 0002:00002450       ??_C@_08OBIAEFPP@Outbreak@ 100b4450     SkinChanger.obj
 0002:0000245c       ??_C@_0L@JAEFBDAH@Tiger?5Moth@ 100b445c     SkinChanger.obj
 0002:00002468       ??_C@_09CMJEIPLI@Avalanche@ 100b4468     SkinChanger.obj
 0002:00002474       ??_C@_0N@ELGDNGIL@Teclu?5Burner@ 100b4474     SkinChanger.obj
 0002:00002484       ??_C@_0O@DBGEMOHH@Fuel?5Injector@ 100b4484     SkinChanger.obj
 0002:00002494       ??_C@_0M@OGJGHIOM@Photic?5Zone@ 100b4494     SkinChanger.obj
 0002:000024a0       ??_C@_0P@JDJJCOEH@Kumicho?5Dragon@ 100b44a0     SkinChanger.obj
 0002:000024b0       ??_C@_0M@CKIIGILP@Triumvirate@ 100b44b0     SkinChanger.obj
 0002:000024bc       ??_C@_0N@DFKLIDOE@Royal?5Legion@ 100b44bc     SkinChanger.obj
 0002:000024cc       ??_C@_0P@LHOIDDPP@The?5Battlestar@ 100b44cc     SkinChanger.obj
 0002:000024dc       ??_C@_0M@MHCCFDBK@Lapis?5Gator@ 100b44dc     SkinChanger.obj
 0002:000024e8       ??_C@_0L@FLLLFIAF@Praetorian@ 100b44e8     SkinChanger.obj
 0002:000024f4       ??_C@_06PHGJHHDF@Impire@   100b44f4     SkinChanger.obj
 0002:000024fc       ??_C@_08FMNNIBIB@Necropos@ 100b44fc     SkinChanger.obj
 0002:00002508       ??_C@_07DJDBDAPL@Jambiya@  100b4508     SkinChanger.obj
 0002:00002510       ??_C@_0N@HIPOLPDC@Lead?5Conduit@ 100b4510     SkinChanger.obj
 0002:00002520       ??_C@_0M@ONDJNBCL@Fleet?5Flock@ 100b4520     SkinChanger.obj
 0002:0000252c       ??_C@_0BE@OGMEGIC@Judgement?5of?5Anubis@ 100b452c     SkinChanger.obj
 0002:00002540       ??_C@_09OMNFHBLO@Red?5Astor@ 100b4540     SkinChanger.obj
 0002:0000254c       ??_C@_0M@GIOECMLD@Ventilators@ 100b454c     SkinChanger.obj
 0002:00002558       ??_C@_0N@OBBAIIDA@Orange?5Crash@ 100b4558     SkinChanger.obj
 0002:00002568       ??_C@_09KJADDCJF@Firefight@ 100b4568     SkinChanger.obj
 0002:00002574       ??_C@_07IABFIDPL@Spectre@  100b4574     SkinChanger.obj
 0002:0000257c       ??_C@_0BA@DOKALGDE@Chantico?8s?5Fire@ 100b457c     SkinChanger.obj
 0002:0000258c       ??_C@_07IJMPNPLJ@Bioleak@  100b458c     SkinChanger.obj
 0002:00002594       ??_C@_07POHKCOEA@Oceanic@  100b4594     SkinChanger.obj
 0002:0000259c       ??_C@_05GDDNFNHJ@Fubar@    100b459c     SkinChanger.obj
 0002:000025a4       ??_C@_05LKJMACAD@Atlas@    100b45a4     SkinChanger.obj
 0002:000025ac       ??_C@_0P@MECMGCHE@Ghost?5Crusader@ 100b45ac     SkinChanger.obj
 0002:000025bc       ??_C@_08EHHBGPJL@Re?9Entry@ 100b45bc     SkinChanger.obj
 0002:000025c8       ??_C@_0N@NBGDKGAG@Primal?5Saber@ 100b45c8     SkinChanger.obj
 0002:000025d8       ??_C@_09CCGDODNM@Black?5Tie@ 100b45d8     SkinChanger.obj
 0002:000025e4       ??_C@_04IIGEHJCD@Lore@     100b45e4     SkinChanger.obj
 0002:000025ec       ??_C@_0O@EIAAMEPH@Gamma?5Doppler@ 100b45ec     SkinChanger.obj
 0002:000025fc       ??_C@_0L@KANKBGLL@Autotronic@ 100b45fc     SkinChanger.obj
 0002:00002608       ??_C@_08LCLMBOPJ@Freehand@ 100b4608     SkinChanger.obj
 0002:00002614       ??_C@_0L@FPHKENMN@Aristocrat@ 100b4614     SkinChanger.obj
 0002:00002620       ??_C@_06GIDFDNDN@Phobos@   100b4620     SkinChanger.obj
 0002:00002628       ??_C@_0P@IPEMPPKF@Violent?5Daimyo@ 100b4628     SkinChanger.obj
 0002:00002638       ??_C@_0BB@FIHGAPNP@Mecha?5Industries@ 100b4638     SkinChanger.obj
 0002:0000264c       ??_C@_0P@BHGGODB@Desolate?5Space@ 100b464c     SkinChanger.obj
 0002:0000265c       ??_C@_09GCMPJAOM@Carnivore@ 100b465c     SkinChanger.obj
 0002:00002668       ??_C@_0BA@HFNGMPME@Imperial?5Dragon@ 100b4668     SkinChanger.obj
 0002:00002678       ??_C@_09FDEGLFLP@Iron?5Clad@ 100b4678     SkinChanger.obj
 0002:00002684       ??_C@_07LNMMAIHJ@Chopper@  100b4684     SkinChanger.obj
 0002:0000268c       ??_C@_09OKMOBHEE@Harvester@ 100b468c     SkinChanger.obj
 0002:00002698       ??_C@_06GIPLFGB@Reboot@    100b4698     SkinChanger.obj
 0002:000026a0       ??_C@_09LKCBKCLN@Limelight@ 100b46a0     SkinChanger.obj
 0002:000026ac       ??_C@_0L@CPGIOGGO@Bloodsport@ 100b46ac     SkinChanger.obj
 0002:000026b8       ??_C@_06JNLHEODP@Aerial@   100b46b8     SkinChanger.obj
 0002:000026c0       ??_C@_07GACCDBPH@Ice?5Cap@ 100b46c0     SkinChanger.obj
 0002:000026c8       ??_C@_0BA@CCHCFEJC@Neon?5Revolution@ 100b46c8     SkinChanger.obj
 0002:000026d8       ??_C@_08HNHMOFOE@Syd?5Mead@ 100b46d8     SkinChanger.obj
 0002:000026e4       ??_C@_07IBGKIIEK@Imprint@  100b46e4     SkinChanger.obj
 0002:000026ec       ??_C@_09MAPFPKHB@Directive@ 100b46ec     SkinChanger.obj
 0002:000026f8       ??_C@_09CHGLOJGC@Roll?5Cage@ 100b46f8     SkinChanger.obj
 0002:00002704       ??_C@_0L@PAJDGLFE@Ventilator@ 100b4704     SkinChanger.obj
 0002:00002710       ??_C@_06IGFEBFLO@Weasel@   100b4710     SkinChanger.obj
 0002:00002718       ??_C@_0L@EDBNKHHM@Petroglyph@ 100b4718     SkinChanger.obj
 0002:00002724       ??_C@_07NEDBPNBF@Airlock@  100b4724     SkinChanger.obj
 0002:0000272c       ??_C@_06PPNILICE@Dazzle@   100b472c     SkinChanger.obj
 0002:00002734       ??_C@_04IFGNABOJ@Grim@     100b4734     SkinChanger.obj
 0002:0000273c       ??_C@_09ONGCMBKB@Powercore@ 100b473c     SkinChanger.obj
 0002:00002748       ??_C@_07JNGMOAAG@Triarch@  100b4748     SkinChanger.obj
 0002:00002750       ??_C@_08HJFJOAMM@Briefing@ 100b4750     SkinChanger.obj
 0002:0000275c       ??_C@_0L@LJPADCKF@Slipstream@ 100b475c     SkinChanger.obj
 0002:00002768       ??_C@_07KDKIJPKC@Polymer@  100b4768     SkinChanger.obj
 0002:00002770       ??_C@_08DDHJEPBO@Ironwork@ 100b4770     SkinChanger.obj
 0002:0000277c       ??_C@_0L@MBMAAGAA@Dragonfire@ 100b477c     SkinChanger.obj
 0002:00002788       ??_C@_0P@HKCKGEHA@Royal?5Consorts@ 100b4788     SkinChanger.obj
 0002:00002798       ??_C@_06CMIHEKMB@Cirrus@   100b4798     SkinChanger.obj
 0002:000027a0       ??_C@_07KFEOGKDA@Stinger@  100b47a0     SkinChanger.obj
 0002:000027a8       ??_C@_0L@PFBHEIKB@Black?5Sand@ 100b47a8     SkinChanger.obj
 0002:000027b4       ??_C@_0L@MKOJBNJH@Sand?5Scale@ 100b47b4     SkinChanger.obj
 0002:000027c0       ??_C@_09LMBAAGCE@Flashback@ 100b47c0     SkinChanger.obj
 0002:000027cc       ??_C@_09KPKCAGLL@Buzz?5Kill@ 100b47cc     SkinChanger.obj
 0002:000027d8       ??_C@_05FAKAPOMK@Sonar@    100b47d8     SkinChanger.obj
 0002:000027e0       ??_C@_04KIALFMJA@Gila@     100b47e0     SkinChanger.obj
 0002:000027e8       ??_C@_04MMHNEBFI@Turf@     100b47e8     SkinChanger.obj
 0002:000027f0       ??_C@_0O@LDONNMFG@Shallow?5Grave@ 100b47f0     SkinChanger.obj
 0002:00002800       ??_C@_0BD@FPJMIHPN@Wasteland?5Princess@ 100b4800     SkinChanger.obj
 0002:00002814       ??_C@_0M@DEPJMHKG@Fever?5Dream@ 100b4814     SkinChanger.obj
 0002:00002820       ??_C@_0BC@OAEHEGHA@Jungle?5Slipstream@ 100b4820     SkinChanger.obj
 0002:00002834       ??_C@_09MGFHJCCN@Blueprint@ 100b4834     SkinChanger.obj
 0002:00002840       ??_C@_08EPELAECO@Xiangliu@ 100b4840     SkinChanger.obj
 0002:0000284c       ??_C@_09HHHNLIAN@Decimator@ 100b484c     SkinChanger.obj
 0002:00002858       ??_C@_0M@CFNDBJNP@Oxide?5Blaze@ 100b4858     SkinChanger.obj
 0002:00002864       ??_C@_09JJHIJNOB@Capillary@ 100b4864     SkinChanger.obj
 0002:00002870       ??_C@_0BA@KPAKKGD@Crimson?5Tsunami@ 100b4870     SkinChanger.obj
 0002:00002880       ??_C@_0BE@ELABFEEP@Emerald?5Poison?5Dart@ 100b4880     SkinChanger.obj
 0002:00002894       ??_C@_06NNPDDBCD@Akoben@   100b4894     SkinChanger.obj
 0002:0000289c       ??_C@_06DCIIGLHI@Ripple@   100b489c     SkinChanger.obj
 0002:000028a4       ??_C@_09ENBEEPDN@Last?5Dive@ 100b48a4     SkinChanger.obj
 0002:000028b0       ??_C@_08MKEKGDPD@Scaffold@ 100b48b0     SkinChanger.obj
 0002:000028bc       ??_C@_08IPOIFNFJ@Neo?9Noir@ 100b48bc     SkinChanger.obj
 0002:000028c8       ??_C@_07MADONKFL@Seasons@  100b48c8     SkinChanger.obj
 0002:000028d0       ??_C@_06OHMNPBEA@Zander@   100b48d0     SkinChanger.obj
 0002:000028d8       ??_C@_0L@CPLMBLPL@Orbit?5Mk01@ 100b48d8     SkinChanger.obj
 0002:000028e4       ??_C@_0N@PJNKDGHE@Cobra?5Strike@ 100b48e4     SkinChanger.obj
 0002:000028f4       ??_C@_07PBGGIPKG@Macabre@  100b48f4     SkinChanger.obj
 0002:000028fc       ??_C@_0L@NIPNMIDF@Sugar?5Rush@ 100b48fc     SkinChanger.obj
 0002:00002908       ??_C@_09GDGACBBD@Oni?5Taiji@ 100b4908     SkinChanger.obj
 0002:00002914       ??_C@_08MIDEBEJJ@Hellfire@ 100b4914     SkinChanger.obj
 0002:00002920       ??_C@_05IPJMDKPC@Aloha@    100b4920     SkinChanger.obj
 0002:00002928       ??_C@_0L@IBAOOGLP@Hard?5Water@ 100b4928     SkinChanger.obj
 0002:00002934       ??_C@_08CNMAFGEG@Woodsman@ 100b4934     SkinChanger.obj
 0002:00002940       ??_C@_08EIACPNFF@Red?5Rock@ 100b4940     SkinChanger.obj
 0002:0000294c       ??_C@_0L@FKAMIDGE@Death?5Grip@ 100b494c     SkinChanger.obj
 0002:00002958       ??_C@_0N@LBGNKJDM@Death?8s?5Head@ 100b4958     SkinChanger.obj
 0002:00002968       ??_C@_07IPDCEOF@Cut?5Out@  100b4968     SkinChanger.obj
 0002:00002970       ??_C@_0O@HKMMAAGA@Metal?5Flowers@ 100b4970     SkinChanger.obj
 0002:00002980       ??_C@_06LPNNIIJF@Morris@   100b4980     SkinChanger.obj
 0002:00002988       ??_C@_06JKJOGDHH@Triqua@   100b4988     SkinChanger.obj
 0002:00002990       ??_C@_0M@LJAOMGMG@The?5Empress@ 100b4990     SkinChanger.obj
 0002:0000299c       ??_C@_0M@IHOFILJJ@High?5Roller@ 100b499c     SkinChanger.obj
 0002:000029a8       ??_C@_06NPNCGLLF@Hunter@   100b49a8     SkinChanger.obj
 0002:000029b0       ??_C@_0N@PMGJBPHK@See?5Ya?5Later@ 100b49b0     SkinChanger.obj
 0002:000029c0       ??_C@_09OAHIPAJ@Off?5World@ 100b49c0     SkinChanger.obj
 0002:000029cc       ??_C@_0N@DMFDPIDD@Leaded?5Glass@ 100b49cc     SkinChanger.obj
 0002:000029dc       ??_C@_0N@OIMLBBO@Llama?5Cannon@ 100b49dc     SkinChanger.obj
 0002:000029ec       ??_C@_0N@JMJOJLCG@Cracked?5Opal@ 100b49ec     SkinChanger.obj
 0002:000029fc       ??_C@_07OFINGKDN@Phantom@  100b49fc     SkinChanger.obj
 0002:00002a04       ??_C@_08LPBDBCJF@Tacticat@ 100b4a04     SkinChanger.obj
 0002:00002a10       ??_C@_08EKOAKDPF@Exposure@ 100b4a10     SkinChanger.obj
 0002:00002a1c       ??_C@_05GCJOLAFB@Ziggy@    100b4a1c     SkinChanger.obj
 0002:00002a24       ??_C@_0M@FJGCNCKK@Stymphalian@ 100b4a24     SkinChanger.obj
 0002:00002a30       ??_C@_06JKLGNHEJ@Mortis@   100b4a30     SkinChanger.obj
 0002:00002a38       ??_C@_0L@BFBGOBOA@Night?5Riot@ 100b4a38     SkinChanger.obj
 0002:00002a44       ??_C@_0L@GDAFDLHJ@Flame?5Test@ 100b4a44     SkinChanger.obj
 0002:00002a50       ??_C@_08PLOBKNPN@Moonrise@ 100b4a50     SkinChanger.obj
 0002:00002a5c       ??_C@_08KDLPPDG@Lionfish@  100b4a5c     SkinChanger.obj
 0002:00002a68       ??_C@_08KHILJLLK@Wild?5Six@ 100b4a68     SkinChanger.obj
 0002:00002a74       ??_C@_04HKABGNPF@Grip@     100b4a74     SkinChanger.obj
 0002:00002a7c       ??_C@_06KCOHIPBO@SWAG?97@  100b4a7c     SkinChanger.obj
 0002:00002a84       ??_C@_0M@PHHHOGKC@Arctic?5Wolf@ 100b4a84     SkinChanger.obj
 0002:00002a90       ??_C@_06CAGHIMLL@Cortex@   100b4a90     SkinChanger.obj
 0002:00002a98       ??_C@_07ELJHEHDF@Charred@  100b4a98     SkinChanger.obj
 0002:00002aa0       ??_C@_09PJJABFON@Snakebite@ 100b4aa0     SkinChanger.obj
 0002:00002aac       ??_C@_07BODNLHDH@Bronzed@  100b4aac     SkinChanger.obj
 0002:00002ab4       ??_C@_0N@LJMPCKAM@Spruce?5DDPAT@ 100b4ab4     SkinChanger.obj
 0002:00002ac4       ??_C@_0M@BAPNOIBB@Lunar?5Weave@ 100b4ac4     SkinChanger.obj
 0002:00002ad0       ??_C@_06DLPCIKCE@Convoy@   100b4ad0     SkinChanger.obj
 0002:00002ad8       ??_C@_0O@PIMCDAJE@Crimson?5Weave@ 100b4ad8     SkinChanger.obj
 0002:00002ae8       ??_C@_0P@EJHPDJOB@Superconductor@ 100b4ae8     SkinChanger.obj
 0002:00002af8       ??_C@_04NLOPEPAA@Arid@     100b4af8     SkinChanger.obj
 0002:00002b00       ??_C@_07IPOIIJAN@Eclipse@  100b4b00     SkinChanger.obj
 0002:00002b08       ??_C@_09GDEDHNPO@Spearmint@ 100b4b08     SkinChanger.obj
 0002:00002b14       ??_C@_05LIBKLPGC@Boom?$CB@ 100b4b14     SkinChanger.obj
 0002:00002b1c       ??_C@_09EHAEIKEG@Cool?5Mint@ 100b4b1c     SkinChanger.obj
 0002:00002b28       ??_C@_0M@BDMPNFCB@Emerald?5Web@ 100b4b28     SkinChanger.obj
 0002:00002b34       ??_C@_0L@LLOEHGOK@Foundation@ 100b4b34     SkinChanger.obj
 0002:00002b40       ??_C@_08MBHLFACG@Badlands@ 100b4b40     SkinChanger.obj
 0002:00002b4c       ??_C@_0L@KIKLBIAJ@Hedge?5Maze@ 100b4b4c     SkinChanger.obj
 0002:00002b58       ??_C@_09KHMIPLPI@Guerrilla@ 100b4b58     SkinChanger.obj
 0002:00002b64       ??_C@_0M@OCAIKPKC@Diamondback@ 100b4b64     SkinChanger.obj
 0002:00002b70       ??_C@_0L@LOFLKNDK@King?5Snake@ 100b4b70     SkinChanger.obj
 0002:00002b7c       ??_C@_0P@LIJLIJDC@Imperial?5Plaid@ 100b4b7c     SkinChanger.obj
 0002:00002b8c       ??_C@_08DOEGBNFC@Overtake@ 100b4b8c     SkinChanger.obj
 0002:00002b98       ??_C@_0N@GHIJMPAD@Racing?5Green@ 100b4b98     SkinChanger.obj
 0002:00002ba8       ??_C@_0L@KOFHKKKH@Amphibious@ 100b4ba8     SkinChanger.obj
 0002:00002bb4       ??_C@_0N@ELFFBCAF@Bronze?5Morph@ 100b4bb4     SkinChanger.obj
 0002:00002bc4       ??_C@_05OMBHNFGL@Omega@    100b4bc4     SkinChanger.obj
 0002:00002bcc       ??_C@_04JKLLGAJL@Vice@     100b4bcc     SkinChanger.obj
 0002:00002bd4       ??_C@_04CHNFKCJE@POW?$CB@  100b4bd4     SkinChanger.obj
 0002:00002bdc       ??_C@_06NAOOFIJF@Turtle@   100b4bdc     SkinChanger.obj
 0002:00002be4       ??_C@_09LOBALFEM@Transport@ 100b4be4     SkinChanger.obj
 0002:00002bf0       ??_C@_07CHPFKHEN@Polygon@  100b4bf0     SkinChanger.obj
 0002:00002bf8       ??_C@_0O@IFNNMHKB@Cobalt?5Skulls@ 100b4bf8     SkinChanger.obj
 0002:00002c08       ??_C@_09NEIFECBJ@Overprint@ 100b4c08     SkinChanger.obj
 0002:00002c14       ??_C@_09HCINOOEA@Duct?5Tape@ 100b4c14     SkinChanger.obj
 0002:00002c20       ??_C@_08NEFGLLJJ@Arboreal@ 100b4c20     SkinChanger.obj
 0002:00002c2c       ??_C@_08EMLDHIIE@Mangrove@ 100b4c2c     SkinChanger.obj
 0002:00002c38       ??_C@_07BOBLMAKA@Rattler@  100b4c38     SkinChanger.obj
 0002:00002c40       ??_C@_08JNHHIDNJ@Buckshot@ 100b4c40     SkinChanger.obj
 0002:00002c4c       ??_C@_05NLBKOGNI@Mogul@    100b4c4c     SkinChanger.obj
 0002:00002c54       ??_C@_0P@IIPEELKE@Other?5textures@ 100b4c54     VisualsMisc.obj
 0002:00002c64       ??_C@_0CI@PNMOKBEK@particle?1vistasmokev1?1vistasmok@ 100b4c64     VisualsMisc.obj
 0002:00002c8c       ??_C@_0DA@OJKONOI@particle?1vistasmokev1?1vistasmok@ 100b4c8c     VisualsMisc.obj
 0002:00002cbc       ??_C@_0CJ@ECEDHNAB@particle?1vistasmokev1?1vistasmok@ 100b4cbc     VisualsMisc.obj
 0002:00002ce8       ??_C@_0DE@OEEJFIDN@particle?1vistasmokev1?1vistasmok@ 100b4ce8     VisualsMisc.obj
 0002:00002d1c       ??_C@_0BM@LCODMDEN@molotov_throw_detonate_time@ 100b4d1c     VisualsMisc.obj
 0002:00002d38       ??_C@_0CA@OALJAIHG@weapon_molotov_maxdetonateslope@ 100b4d38     VisualsMisc.obj
 0002:00002d58       __real@34000000            100b4d58     VisualsMisc.obj
 0002:00002d5c       __real@3de38e39            100b4d5c     VisualsMisc.obj
 0002:00002d60       __real@3e99999a            100b4d60     VisualsMisc.obj
 0002:00002d64       __real@3ecccccd            100b4d64     VisualsMisc.obj
 0002:00002d68       __real@3ee66666            100b4d68     VisualsMisc.obj
 0002:00002d6c       __real@3f333333            100b4d6c     VisualsMisc.obj
 0002:00002d70       __real@3f666666            100b4d70     VisualsMisc.obj
 0002:00002d74       __real@3fc00000            100b4d74     VisualsMisc.obj
 0002:00002d78       __real@3ff0000000000000    100b4d78     VisualsMisc.obj
 0002:00002d80       __real@401921fb60000000    100b4d80     VisualsMisc.obj
 0002:00002d88       __real@41400000            100b4d88     VisualsMisc.obj
 0002:00002d8c       __real@41b00000            100b4d8c     VisualsMisc.obj
 0002:00002d90       __real@46000000            100b4d90     VisualsMisc.obj
 0002:00002d94       __real@bdcccccd            100b4d94     VisualsMisc.obj
 0002:00002d98       ??_C@_0BC@HGLEFIAP@cs_baggage_skybox@ 100b4d98     World Textures.obj
 0002:00002dac       ??_C@_08BLKLIJEH@cs_tibet@ 100b4dac     World Textures.obj
 0002:00002db8       ??_C@_08KBJNAGNK@clearsky@ 100b4db8     World Textures.obj
 0002:00002dc4       ??_C@_0N@DOFMLNBI@clearsky_hdr@ 100b4dc4     World Textures.obj
 0002:00002dd4       ??_C@_07NIBJEIAE@embassy@  100b4dd4     World Textures.obj
 0002:00002ddc       ??_C@_05FBDOCGFM@italy@    100b4ddc     World Textures.obj
 0002:00002de4       ??_C@_06MPAOAEGI@jungle@   100b4de4     World Textures.obj
 0002:00002dec       ??_C@_09GDEEAKEC@nukeblank@ 100b4dec     World Textures.obj
 0002:00002df8       ??_C@_06MDIHCADF@office@   100b4df8     World Textures.obj
 0002:00002e00       ??_C@_0BI@EHOLFNKI@sky_cs15_daylight01_hdr@ 100b4e00     World Textures.obj
 0002:00002e18       ??_C@_0BI@MBHPCPAG@sky_cs15_daylight02_hdr@ 100b4e18     World Textures.obj
 0002:00002e30       ??_C@_0BI@KCDPMKD@sky_cs15_daylight03_hdr@ 100b4e30     World Textures.obj
 0002:00002e48       ??_C@_0BI@BHCGMMBL@sky_cs15_daylight04_hdr@ 100b4e48     World Textures.obj
 0002:00002e60       ??_C@_0BC@NJBKFELC@sky_csgo_cloudy01@ 100b4e60     World Textures.obj
 0002:00002e74       ??_C@_0BB@DNKKAGKJ@sky_csgo_night02@ 100b4e74     World Textures.obj
 0002:00002e88       ??_C@_0BC@PIPMLIGP@sky_csgo_night02b@ 100b4e88     World Textures.obj
 0002:00002e9c       ??_C@_0BE@PBHHAKHI@sky_csgo_night_flat@ 100b4e9c     World Textures.obj
 0002:00002eb0       ??_C@_0BB@JFCHDEMK@sky_day02_05_hdr@ 100b4eb0     World Textures.obj
 0002:00002ec4       ??_C@_0N@MNJEOBGO@sky_day02_05@ 100b4ec4     World Textures.obj
 0002:00002ed4       ??_C@_08PEMGGMKO@sky_dust@ 100b4ed4     World Textures.obj
 0002:00002ee0       ??_C@_0BE@IOKGLHFD@sky_l4d_rural02_ldr@ 100b4ee0     World Textures.obj
 0002:00002ef4       ??_C@_0M@FPDMGLII@vertigo_hdr@ 100b4ef4     World Textures.obj
 0002:00002f00       ??_C@_0BA@HGAAPMNH@vertigoblue_hdr@ 100b4f00     World Textures.obj
 0002:00002f10       ??_C@_07IKAHCDEC@vertigo@  100b4f10     World Textures.obj
 0002:00002f18       ??_C@_07PIBIFNJM@vietnam@  100b4f18     World Textures.obj
 0002:00002f20       ??_C@_09JEAMLPFC@sky150day@ 100b4f20     World Textures.obj
 0002:00002f2c       ??_C@_06EMJDMICC@sky149@   100b4f2c     World Textures.obj
 0002:00002f34       ??_C@_06OACGIHCO@sky145@   100b4f34     World Textures.obj
 0002:00002f3c       ??_C@_06KPGHBBOJ@sky142@   100b4f3c     World Textures.obj
 0002:00002f44       ??_C@_07DEBNLAHD@sky139a@  100b4f44     World Textures.obj
 0002:00002f4c       ??_C@_06EJNMNOKH@sky139@   100b4f4c     World Textures.obj
 0002:00002f54       ??_C@_04IIICLNHD@mars@     100b4f54     World Textures.obj
 0002:00002f5c       ??_C@_0L@DOOKJNDL@WhiteDwarf@ 100b4f5c     World Textures.obj
 0002:00002f68       ??_C@_08MMFHLCCK@space_13@ 100b4f68     World Textures.obj
 0002:00002f74       ??_C@_01GBGANLPD@0@        100b4f74     World Textures.obj
 0002:00002f78       ??_C@_0L@NPFKENCH@sv_skyname@ 100b4f78     World Textures.obj
 0002:00002f84       ??_C@_0BJ@FDCFOANE@r_drawspecificstaticprop@ 100b4f84     World Textures.obj
 0002:00002fa0       ??_C@_0P@HPCHOLAI@World?5textures@ 100b4fa0     World Textures.obj
 0002:00002fb0       ??_C@_0BE@GFCHNMFC@StaticProp?5textures@ 100b4fb0     World Textures.obj
 0002:00002fc4       ??_C@_06HDCPEBNJ@SkyBox@   100b4fc4     World Textures.obj
 0002:000034f0       ??_C@_1II@LNPMEDNO@?$AAc?$AA?3?$AA?2?$AAu?$AAs?$AAe?$AAr?$AAs?$AA?2?$AAa?$AAd?$AAm?$AAi?$AAn?$AAi@ 100b54f0     imgui.obj
 0002:00003578       ??_C@_1BC@IIGHOJGM@?$AAi?$AAd?$AAx?$AA?5?$AA?$DM?$AA?$DN?$AA?5?$AA1@ 100b5578     imgui.obj
 0002:00003590       ??_C@_1JK@EBFMDDBN@?$AAc?$AA?3?$AA?2?$AAu?$AAs?$AAe?$AAr?$AAs?$AA?2?$AAa?$AAd?$AAm?$AAi?$AAn?$AAi@ 100b5590     imgui.obj
 0002:0000362c       ??_C@_09BJIHMJFE@imgui?4ini@ 100b562c     imgui.obj
 0002:00003638       ??_C@_0O@HCOAADPE@imgui_log?4txt@ 100b5638     imgui.obj
 0002:00003648       ??_C@_1IM@IEPJCNLI@?$AAc?$AA?3?$AA?2?$AAu?$AAs?$AAe?$AAr?$AAs?$AA?2?$AAa?$AAd?$AAm?$AAi?$AAn?$AAi@ 100b5648     imgui.obj
 0002:000036d4       ??_C@_1CC@MDBCLFOC@?$AAf?$AAi?$AAl?$AAe?$AAn?$AAa?$AAm?$AAe?$AA?5?$AA?$CG?$AA?$CG?$AA?5?$AAm?$AAo?$AAd@ 100b56d4     imgui.obj
 0002:00003768       ??_C@_13COJANIEC@?$AA0@    100b5768     imgui.obj
 0002:00003770       ??_C@_1NE@MGLAEJCB@?$AAG?$AAI?$AAm?$AAG?$AAu?$AAi?$AA?5?$AA?$CB?$AA?$DN?$AA?5?$AA0?$AA?5?$AA?$CG?$AA?$CG?$AA?5@ 100b5770     imgui.obj
 0002:00003848       ??_C@_1EM@KGOACLAI@?$AAi?$AAd?$AAx?$AA?5?$AA?$DO?$AA?$DN?$AA?5?$AA0?$AA?5?$AA?$CG?$AA?$CG?$AA?5?$AAi?$AAd?$AAx@ 100b5848     imgui.obj
 0002:00003898       ??_C@_1JA@BICGEIG@?$AA0?$AA?5?$AA?$CG?$AA?$CG?$AA?5?$AA?$CC?$AAC?$AAa?$AAl?$AAl?$AAe?$AAd?$AA?5?$AAP?$AAu@ 100b5898     imgui.obj
 0002:00003928       ??_C@_06LKBCGDFD@Button@   100b5928     imgui.obj
 0002:00003930       ??_C@_09IBFEOKHN@Separator@ 100b5930     imgui.obj
 0002:0000393c       ??_C@_03IEAKBACE@Tab@      100b593c     imgui.obj
 0002:00003940       ??_C@_05EJCOBEBF@?$CDMOVE@ 100b5940     imgui.obj
 0002:00003948       ??_C@_1HA@DMBDPHAC@?$AAg?$AA?4?$AAA?$AAc?$AAt?$AAi?$AAv?$AAe?$AAI?$AAd?$AA?5?$AA?$DN?$AA?$DN?$AA?5?$AAi@ 100b5948     imgui.obj
 0002:000039b8       ??_C@_1JO@PPIAHLHG@?$AA?$CI?$AAf?$AAl?$AAa?$AAg?$AAs?$AA?5?$AA?$CG?$AA?5?$AA?$CI?$AAI?$AAm?$AAG?$AAu?$AAi@ 100b59b8     imgui.obj
 0002:00003a58       ??_C@_1KI@ECMHEDEI@?$AAd?$AAr?$AAa?$AAw?$AAl?$AAi?$AAs?$AAt?$AA_?$AAn?$AAo?$AA?5?$AA?$DM?$AA?5?$AA?$CI@ 100b5a58     imgui.obj
 0002:00003b00       ??_C@_0N@MFFOHPLI@?$CD?$CDBackground@ 100b5b00     imgui.obj
 0002:00003b10       ??_C@_0N@MFHPHIIJ@?$CD?$CDForeground@ 100b5b10     imgui.obj
 0002:00003b20       ??_C@_1FK@PIJFGHBG@?$AAg?$AA?4?$AAM?$AAo?$AAv?$AAi?$AAn?$AAg?$AAW?$AAi?$AAn?$AAd?$AAo?$AAw?$AA?5@ 100b5b20     imgui.obj
 0002:00003b7c       ??_C@_1CG@DCCAIGN@?$AAg?$AA?4?$AAF?$AAo?$AAn?$AAt?$AA?9?$AA?$DO?$AAI?$AAs?$AAL?$AAo?$AAa?$AAd?$AAe@ 100b5b7c     imgui.obj
 0002:00003ba8       ??_C@_1FG@GBBMCDKF@?$AAg?$AA?4?$AAW?$AAi?$AAn?$AAd?$AAo?$AAw?$AAs?$AAF?$AAo?$AAc?$AAu?$AAs?$AAO@ 100b5ba8     imgui.obj
 0002:00003c00       ??_C@_0P@IMLDNMEK@Debug?$CD?$CDDefault@ 100b5c00     imgui.obj
 0002:00003c10       ??_C@_1FE@JJEPGBAD@?$AAg?$AA?4?$AAC?$AAu?$AAr?$AAr?$AAe?$AAn?$AAt?$AAW?$AAi?$AAn?$AAd?$AAo?$AAw@ 100b5c10     imgui.obj
 0002:00003c64       ??_C@_0BC@JHPKFIGH@HoveredId?3?50x?$CF08X@ 100b5c64     imgui.obj
 0002:00003c78       ??_C@_0BM@IIPBLKLJ@Press?5ESC?5to?5abort?5picking?4@ 100b5c78     imgui.obj
 0002:00003c94       ??_C@_0BM@OPIPEIJO@Click?5to?5break?5in?5debugger?$CB@ 100b5c94     imgui.obj
 0002:00003cb0       ??_C@_1EI@IBBBPCIN@?$AA?$CB?$AAg?$AA?4?$AAI?$AAn?$AAi?$AAt?$AAi?$AAa?$AAl?$AAi?$AAz?$AAe?$AAd?$AA?5@ 100b5cb0     imgui.obj
 0002:00003cf8       ??_C@_06BKKJGDHO@Window@   100b5cf8     imgui.obj
 0002:00003d00       ??_C@_1OG@INBPPELJ@?$AAd?$AAr?$AAa?$AAw?$AA_?$AAl?$AAi?$AAs?$AAt?$AA?9?$AA?$DO?$AAV?$AAt?$AAx?$AAB@ 100b5d00     imgui.obj
 0002:00003de8       ??_C@_1OG@ICPLNDEC@?$AAd?$AAr?$AAa?$AAw?$AA_?$AAl?$AAi?$AAs?$AAt?$AA?9?$AA?$DO?$AAI?$AAd?$AAx?$AAB@ 100b5de8     imgui.obj
 0002:00003ed0       ??_C@_1HI@ENCAIJO@?$AA?$CI?$AAi?$AAn?$AAt?$AA?$CJ?$AAd?$AAr?$AAa?$AAw?$AA_?$AAl?$AAi?$AAs?$AAt?$AA?9@ 100b5ed0     imgui.obj
 0002:00003f48       ??_C@_1OI@BGNIEPFI@?$AAd?$AAr?$AAa?$AAw?$AA_?$AAl?$AAi?$AAs?$AAt?$AA?9?$AA?$DO?$AA_?$AAV?$AAt?$AAx@ 100b5f48     imgui.obj
 0002:00004030       ??_C@_1BM@ICEHPMG@?$AAg?$AA?4?$AAI?$AAn?$AAi?$AAt?$AAi?$AAa?$AAl?$AAi?$AAz?$AAe?$AAd@ 100b6030     imgui.obj
 0002:00004050       ??_C@_1HE@BFIFNNBB@?$AAg?$AA?4?$AAW?$AAi?$AAt?$AAh?$AAi?$AAn?$AAF?$AAr?$AAa?$AAm?$AAe?$AAS?$AAc@ 100b6050     imgui.obj
 0002:000040c4       ??_C@_03KHICJKCI@?4?4?4@   100b60c4     imgui.obj
 0002:000040c8       ??_C@_1FO@HCCAMJFH@?$AAg?$AA?4?$AAW?$AAi?$AAn?$AAd?$AAo?$AAw?$AAs?$AA?4?$AAS?$AAi?$AAz?$AAe?$AA?5@ 100b60c8     imgui.obj
 0002:00004128       ??_C@_1ME@GKDHJBBA@?$AAu?$AAs?$AAe?$AAr?$AA_?$AAk?$AAe?$AAy?$AA_?$AAi?$AAn?$AAd?$AAe?$AAx?$AA?5@ 100b6128     imgui.obj
 0002:000041f0       ??_C@_1LA@MNMNDIA@?$AAk?$AAe?$AAy?$AA_?$AAi?$AAn?$AAd?$AAe?$AAx?$AA?5?$AA?$DO?$AA?$DN?$AA?5?$AA0?$AA?5@ 100b61f0     imgui.obj
 0002:000042a0       ??_C@_1KI@IKDPMEHK@?$AAb?$AAu?$AAt?$AAt?$AAo?$AAn?$AA?5?$AA?$DO?$AA?$DN?$AA?5?$AA0?$AA?5?$AA?$CG?$AA?$CG?$AA?5@ 100b62a0     imgui.obj
 0002:00004348       ??_C@_1BI@DLHMADOF@?$AAG?$AAI?$AAm?$AAG?$AAu?$AAi?$AA?5?$AA?$CB?$AA?$DN?$AA?5?$AA0@ 100b6348     imgui.obj
 0002:00004360       ??_C@_0L@BDFLDJGI@?$CFs?1?$CFs_?$CF08X@ 100b6360     imgui.obj
 0002:0000436c       ??_C@_07KBCBAKFA@?$CFs?1?$CF08X@ 100b636c     imgui.obj
 0002:00004374       ??_C@_0M@LLMLKFDF@SpacingYEAH@ 100b6374     imgui.obj
 0002:00004380       ??_C@_1BA@DDOODPOM@?$AAi?$AAd?$AA?5?$AA?$CB?$AA?$DN?$AA?5?$AA0@ 100b6380     imgui.obj
 0002:00004390       ??_C@_1DE@LOOJAFFK@?$AAg?$AA?4?$AAW?$AAi?$AAt?$AAh?$AAi?$AAn?$AAE?$AAn?$AAd?$AAC?$AAh?$AAi?$AAl@ 100b6390     imgui.obj
 0002:000043c8       ??_C@_1FK@ONDIMCKL@?$AAw?$AAi?$AAn?$AAd?$AAo?$AAw?$AA?9?$AA?$DO?$AAF?$AAl?$AAa?$AAg?$AAs?$AA?5?$AA?$CG@ 100b63c8     imgui.obj
 0002:00004424       ??_C@_07HDHBJEOI@?$CDRESIZE@ 100b6424     imgui.obj
 0002:0000442c       ??_C@_1DA@CEGNFBKM@?$AAw?$AAi?$AAn?$AAd?$AAo?$AAw?$AA?9?$AA?$DO?$AAB?$AAe?$AAg?$AAi?$AAn?$AAC?$AAo@ 100b642c     imgui.obj
 0002:0000445c       ??_C@_09BJOGEADB@?$CDCOLLAPSE@ 100b645c     imgui.obj
 0002:00004468       ??_C@_06KIIKKNMI@?$CDCLOSE@ 100b6468     imgui.obj
 0002:00004470       ??_C@_01NBENCBCI@?$CK@     100b6470     imgui.obj
 0002:00004478       ??_C@_1FI@JBDNHGBD@?$AAw?$AAi?$AAn?$AAd?$AAo?$AAw?$AA?9?$AA?$DO?$AAR?$AAo?$AAo?$AAt?$AAW?$AAi?$AAn@ 100b6478     imgui.obj
 0002:000044d0       ??_C@_1DK@CDEKKEL@?$AAn?$AAa?$AAm?$AAe?$AA?5?$AA?$CB?$AA?$DN?$AA?5?$AA0?$AA?5?$AA?$CG?$AA?$CG?$AA?5?$AAn?$AAa@ 100b64d0     imgui.obj
 0002:0000450c       ??_C@_1CG@FEBKCKMN@?$AAg?$AA?4?$AAW?$AAi?$AAt?$AAh?$AAi?$AAn?$AAF?$AAr?$AAa?$AAm?$AAe?$AAS?$AAc@ 100b650c     imgui.obj
 0002:00004538       ??_C@_1EE@GGBMECGG@?$AAg?$AA?4?$AAF?$AAr?$AAa?$AAm?$AAe?$AAC?$AAo?$AAu?$AAn?$AAt?$AAE?$AAn?$AAd@ 100b6538     imgui.obj
 0002:00004580       ??_C@_1EK@IADLALGG@?$AAf?$AAl?$AAa?$AAg?$AAs?$AA?5?$AA?$CG?$AA?5?$AAI?$AAm?$AAG?$AAu?$AAi?$AAW?$AAi@ 100b6580     imgui.obj
 0002:000045d0       ??_C@_1HM@BDHFFAHO@?$AAp?$AAa?$AAr?$AAe?$AAn?$AAt?$AA_?$AAw?$AAi?$AAn?$AAd?$AAo?$AAw?$AA?5?$AA?$CB@ 100b65d0     imgui.obj
 0002:00004650       ??_C@_1EO@GBMDJNAA@?$AAp?$AAa?$AAr?$AAe?$AAn?$AAt?$AA_?$AAw?$AAi?$AAn?$AAd?$AAo?$AAw?$AA?5?$AA?$CG@ 100b6650     imgui.obj
 0002:000046a0       ??_C@_1KO@GJELMBN@?$AAw?$AAi?$AAn?$AAd?$AAo?$AAw?$AA?9?$AA?$DO?$AAD?$AAr?$AAa?$AAw?$AAL?$AAi?$AAs@ 100b66a0     imgui.obj
 0002:00004750       ??_C@_1FG@JPKHCDHL@?$AA?$CI?$AAf?$AAl?$AAa?$AAg?$AAs?$AA?5?$AA?$CG?$AA?5?$AAI?$AAm?$AAG?$AAu?$AAi?$AAW@ 100b6750     imgui.obj
 0002:000047a8       ??_C@_1IG@DKOLGHNA@?$AA?$CI?$AAg?$AA?4?$AAC?$AAu?$AAr?$AAr?$AAe?$AAn?$AAt?$AAW?$AAi?$AAn?$AAd?$AAo@ 100b67a8     imgui.obj
 0002:00004830       ??_C@_1DM@FOOGCAMP@?$AAg?$AA?4?$AAC?$AAu?$AAr?$AAr?$AAe?$AAn?$AAt?$AAW?$AAi?$AAn?$AAd?$AAo?$AAw@ 100b6830     imgui.obj
 0002:00004870       ??_C@_1HI@MIOLBHIM@?$AA?$CI?$AAg?$AA?4?$AAW?$AAi?$AAt?$AAh?$AAi?$AAn?$AAE?$AAn?$AAd?$AAC?$AAh?$AAi@ 100b6870     imgui.obj
 0002:000048e8       ??_C@_1EO@CDDKCBBF@?$AAw?$AAi?$AAn?$AAd?$AAo?$AAw?$AA?5?$AA?$DN?$AA?$DN?$AA?5?$AA0?$AA?5?$AA?$HM?$AA?$HM?$AA?5@ 100b68e8     imgui.obj
 0002:00004938       ??_C@_1DC@JABAIOEL@?$AAf?$AAo?$AAn?$AAt?$AA?5?$AA?$CG?$AA?$CG?$AA?5?$AAf?$AAo?$AAn?$AAt?$AA?9?$AA?$DO?$AAI@ 100b6938     imgui.obj
 0002:0000496c       ??_C@_1CG@FNLEAELN@?$AAf?$AAo?$AAn?$AAt?$AA?9?$AA?$DO?$AAS?$AAc?$AAa?$AAl?$AAe?$AA?5?$AA?$DO?$AA?5?$AA0@ 100b696c     imgui.obj
 0002:00004998       ??_C@_1EE@PBEDMJFL@?$AAc?$AAo?$AAn?$AAd?$AA?5?$AA?$DN?$AA?$DN?$AA?5?$AA0?$AA?5?$AA?$HM?$AA?$HM?$AA?5?$AAI?$AAm@ 100b6998     imgui.obj
 0002:000049dc       ??_C@_1DC@KOOPJPAL@?$AAw?$AAi?$AAn?$AAd?$AAo?$AAw?$AA?9?$AA?$DO?$AAI?$AAD?$AAS?$AAt?$AAa?$AAc?$AAk@ 100b69dc     imgui.obj
 0002:00004a10       ??_C@_1JK@GMCNDFJ@?$AA?$CI?$AAg?$AA?4?$AAI?$AAO?$AA?4?$AAD?$AAe?$AAl?$AAt?$AAa?$AAT?$AAi?$AAm?$AAe@ 100b6a10     imgui.obj
 0002:00004ab0       ??_C@_1BAM@KGEBLPLP@?$AA?$CI?$AAg?$AA?4?$AAF?$AAr?$AAa?$AAm?$AAe?$AAC?$AAo?$AAu?$AAn?$AAt?$AA?5?$AA?$DN@ 100b6ab0     imgui.obj
 0002:00004bc0       ??_C@_1LC@PGGPGCKP@?$AAg?$AA?4?$AAI?$AAO?$AA?4?$AAD?$AAi?$AAs?$AAp?$AAl?$AAa?$AAy?$AAS?$AAi?$AAz@ 100b6bc0     imgui.obj
 0002:00004c78       ??_C@_1PE@FGNJKIDP@?$AAg?$AA?4?$AAI?$AAO?$AA?4?$AAF?$AAo?$AAn?$AAt?$AAs?$AA?9?$AA?$DO?$AAF?$AAo?$AAn@ 100b6c78     imgui.obj
 0002:00004d70       ??_C@_1BAA@LPHFDOOJ@?$AAg?$AA?4?$AAI?$AAO?$AA?4?$AAF?$AAo?$AAn?$AAt?$AAs?$AA?9?$AA?$DO?$AAF?$AAo?$AAn@ 100b6d70     imgui.obj
 0002:00004e70       ??_C@_1IA@HHCKGFKM@?$AAg?$AA?4?$AAS?$AAt?$AAy?$AAl?$AAe?$AA?4?$AAC?$AAu?$AAr?$AAv?$AAe?$AAT?$AAe@ 100b6e70     imgui.obj
 0002:00004ef0       ??_C@_1IM@BBAKCECH@?$AAg?$AA?4?$AAS?$AAt?$AAy?$AAl?$AAe?$AA?4?$AAC?$AAi?$AAr?$AAc?$AAl?$AAe?$AAT@ 100b6ef0     imgui.obj
 0002:00004f80       ??_C@_1JG@HBCMMEC@?$AAg?$AA?4?$AAS?$AAt?$AAy?$AAl?$AAe?$AA?4?$AAA?$AAl?$AAp?$AAh?$AAa?$AA?5?$AA?$DO@ 100b6f80     imgui.obj
 0002:00005018       ??_C@_1LO@BODAGONP@?$AAg?$AA?4?$AAS?$AAt?$AAy?$AAl?$AAe?$AA?4?$AAW?$AAi?$AAn?$AAd?$AAo?$AAw?$AAM@ 100b7018     imgui.obj
 0002:000050d8       ??_C@_1BDK@FANHHEDI@?$AAg?$AA?4?$AAS?$AAt?$AAy?$AAl?$AAe?$AA?4?$AAW?$AAi?$AAn?$AAd?$AAo?$AAw?$AAM@ 100b70d8     imgui.obj
 0002:00005218       ??_C@_1BHO@ICEKAIPC@?$AAg?$AA?4?$AAI?$AAO?$AA?4?$AAK?$AAe?$AAy?$AAM?$AAa?$AAp?$AA?$FL?$AAn?$AA?$FN?$AA?5@ 100b7218     imgui.obj
 0002:00005398       ??_C@_1MO@ONPFNFPJ@?$AAg?$AA?4?$AAI?$AAO?$AA?4?$AAK?$AAe?$AAy?$AAM?$AAa?$AAp?$AA?$FL?$AAI?$AAm?$AAG@ 100b7398     imgui.obj
 0002:00005468       ??_C@_1BAE@HHDAPELE@?$AA?$CI?$AAk?$AAe?$AAy?$AA_?$AAm?$AAo?$AAd?$AA_?$AAf?$AAl?$AAa?$AAg?$AAs?$AA?5@ 100b7468     imgui.obj
 0002:00005570       ??_C@_1PM@PNPJAGAO@?$AA?$CI?$AAg?$AA?4?$AAC?$AAu?$AAr?$AAr?$AAe?$AAn?$AAt?$AAW?$AAi?$AAn?$AAd?$AAo@ 100b7570     imgui.obj
 0002:00005670       ??_C@_1PK@KPEOFHN@?$AA?$CI?$AAg?$AA?4?$AAC?$AAu?$AAr?$AAr?$AAe?$AAn?$AAt?$AAW?$AAi?$AAn?$AAd?$AAo@ 100b7670     imgui.obj
 0002:00005770       ??_C@_1GK@BADAAGFG@?$AA?$CI?$AAg?$AA?4?$AAG?$AAr?$AAo?$AAu?$AAp?$AAS?$AAt?$AAa?$AAc?$AAk?$AA?4?$AAS@ 100b7770     imgui.obj
 0002:000057e0       ??_C@_1KM@GPENMPEF@?$AAS?$AAi?$AAz?$AAe?$AAO?$AAf?$AAI?$AAD?$AAS?$AAt?$AAa?$AAc?$AAk?$AA?5?$AA?$DN@ 100b77e0     imgui.obj
 0002:00005890       ??_C@_1JC@FNBHEOLL@?$AAS?$AAi?$AAz?$AAe?$AAO?$AAf?$AAG?$AAr?$AAo?$AAu?$AAp?$AAS?$AAt?$AAa?$AAc@ 100b7890     imgui.obj
 0002:00005928       ??_C@_1NA@IJOEJOEN@?$AAS?$AAi?$AAz?$AAe?$AAO?$AAf?$AAB?$AAe?$AAg?$AAi?$AAn?$AAP?$AAo?$AAp?$AAu@ 100b7928     imgui.obj
 0002:000059f8       ??_C@_1KE@NCANFJNK@?$AAS?$AAi?$AAz?$AAe?$AAO?$AAf?$AAC?$AAo?$AAl?$AAo?$AAr?$AAS?$AAt?$AAa?$AAc@ 100b79f8     imgui.obj
 0002:00005aa0       ??_C@_1KI@DHADCEOH@?$AAS?$AAi?$AAz?$AAe?$AAO?$AAf?$AAS?$AAt?$AAy?$AAl?$AAe?$AAV?$AAa?$AAr?$AAS@ 100b7aa0     imgui.obj
 0002:00005b48       ??_C@_1II@EKMLEPAG@?$AAS?$AAi?$AAz?$AAe?$AAO?$AAf?$AAF?$AAo?$AAn?$AAt?$AAS?$AAt?$AAa?$AAc?$AAk@ 100b7b48     imgui.obj
 0002:00005bd0       ??_C@_1LI@DNMDNCBF@?$AAS?$AAi?$AAz?$AAe?$AAO?$AAf?$AAF?$AAo?$AAc?$AAu?$AAs?$AAS?$AAc?$AAo?$AAp@ 100b7bd0     imgui.obj
 0002:00005c88       ??_C@_1CM@HMCHNBOE@?$AAg?$AA?4?$AAG?$AAr?$AAo?$AAu?$AAp?$AAS?$AAt?$AAa?$AAc?$AAk?$AA?4?$AAS?$AAi@ 100b7c88     imgui.obj
 0002:00005cb8       ??_C@_1EE@BNODPOAB@?$AAg?$AAr?$AAo?$AAu?$AAp?$AA_?$AAd?$AAa?$AAt?$AAa?$AA?4?$AAW?$AAi?$AAn?$AAd@ 100b7cb8     imgui.obj
 0002:00005d00       ??_C@_1GC@BIJJIADH@?$AAc?$AAe?$AAn?$AAt?$AAe?$AAr?$AA_?$AAx?$AA_?$AAr?$AAa?$AAt?$AAi?$AAo?$AA?5@ 100b7d00     imgui.obj
 0002:00005d68       ??_C@_1GC@LDEACFFC@?$AAc?$AAe?$AAn?$AAt?$AAe?$AAr?$AA_?$AAy?$AA_?$AAr?$AAa?$AAt?$AAi?$AAo?$AA?5@ 100b7d68     imgui.obj
 0002:00005dcc       ??_C@_0P@DHLMFJKK@?$CD?$CDTooltip_?$CF02d@ 100b7dcc     imgui.obj
 0002:00005de0       ??_C@_1HC@IKPEGHCP@?$AAG?$AAe?$AAt?$AAC?$AAu?$AAr?$AAr?$AAe?$AAn?$AAt?$AAW?$AAi?$AAn?$AAd?$AAo@ 100b7de0     imgui.obj
 0002:00005e54       ??_C@_1BA@OHMFOIK@?$AAi?$AAd?$AA?5?$AA?$DN?$AA?$DN?$AA?5?$AA0@ 100b7e54     imgui.obj
 0002:00005e68       ??_C@_1GI@FJFNMD@?$AA?$CI?$AAp?$AAo?$AAp?$AAu?$AAp?$AA?4?$AAW?$AAi?$AAn?$AAd?$AAo?$AAw?$AA?9?$AA?$DO@ 100b7e68     imgui.obj
 0002:00005ed0       ??_C@_1GI@BPADGCJE@?$AAr?$AAe?$AAm?$AAa?$AAi?$AAn?$AAi?$AAn?$AAg?$AA?5?$AA?$DO?$AA?$DN?$AA?5?$AA0?$AA?5@ 100b7ed0     imgui.obj
 0002:00005f38       ??_C@_1DE@NAFIGFGG@?$AAg?$AA?4?$AAC?$AAu?$AAr?$AAr?$AAe?$AAn?$AAt?$AAW?$AAi?$AAn?$AAd?$AAo?$AAw@ 100b7f38     imgui.obj
 0002:00005f6c       ??_C@_1CC@BGDNHLPI@?$AAg?$AA?4?$AAN?$AAa?$AAv?$AAW?$AAi?$AAn?$AAd?$AAo?$AAw?$AA?5?$AA?$CB?$AA?$DN?$AA?5@ 100b7f6c     imgui.obj
 0002:00005f90       ??_C@_1IG@LOIIGJJB@?$AAn?$AAa?$AAv?$AA_?$AAl?$AAa?$AAy?$AAe?$AAr?$AA?5?$AA?$DN?$AA?$DN?$AA?5?$AAI?$AAm@ 100b7f90     imgui.obj
 0002:00006018       ??_C@_1IK@IGCCKHOG@?$AA?$CI?$AAw?$AAi?$AAn?$AAd?$AAo?$AAw?$AA?9?$AA?$DO?$AAF?$AAl?$AAa?$AAg?$AAs?$AA?5@ 100b8018     imgui.obj
 0002:000060a8       ??_C@_1GA@HNMFLEAL@?$AAg?$AA?4?$AAN?$AAa?$AAv?$AAM?$AAo?$AAv?$AAe?$AAR?$AAe?$AAq?$AAu?$AAe?$AAs@ 100b80a8     imgui.obj
 0002:00006108       ??_C@_1CM@NGAIJMCF@?$AAw?$AAi?$AAn?$AAd?$AAo?$AAw?$AA?5?$AA?$DN?$AA?$DN?$AA?5?$AAg?$AA?4?$AAN?$AAa?$AAv@ 100b8108     imgui.obj
 0002:00006134       ??_C@_1CC@PCNOPHOI@?$AAg?$AA?4?$AAN?$AAa?$AAv?$AAM?$AAo?$AAv?$AAe?$AAR?$AAe?$AAq?$AAu?$AAe?$AAs@ 100b8134     imgui.obj
 0002:00006158       ??_C@_1EG@OLANNBKO@?$AAg?$AA?4?$AAN?$AAa?$AAv?$AAL?$AAa?$AAy?$AAe?$AAr?$AA?5?$AA?$DN?$AA?$DN?$AA?5?$AA0@ 100b8158     imgui.obj
 0002:000061a0       ??_C@_1DG@HPGLIPGM@?$AAc?$AAh?$AAi?$AAl?$AAd?$AA_?$AAw?$AAi?$AAn?$AAd?$AAo?$AAw?$AA?9?$AA?$DO?$AAC@ 100b81a0     imgui.obj
 0002:000061d8       ??_C@_1EO@NJCLOIHM@?$AAg?$AA?4?$AAN?$AAa?$AAv?$AAA?$AAc?$AAt?$AAi?$AAv?$AAa?$AAt?$AAe?$AAD?$AAo@ 100b81d8     imgui.obj
 0002:00006228       ??_C@_1IG@KDKGHOJC@?$AAg?$AA?4?$AAN?$AAa?$AAv?$AAM?$AAo?$AAv?$AAe?$AAD?$AAi?$AAr?$AA?5?$AA?$CB?$AA?$DN@ 100b8228     imgui.obj
 0002:000062b0       ??_C@_1HC@ODAAGLGB@?$AAg?$AA?4?$AAN?$AAa?$AAv?$AAM?$AAo?$AAv?$AAe?$AAR?$AAe?$AAq?$AAu?$AAe?$AAs@ 100b82b0     imgui.obj
 0002:00006324       ??_C@_1DO@NFHNJCFP@?$AA?$CB?$AAg?$AA?4?$AAN?$AAa?$AAv?$AAS?$AAc?$AAo?$AAr?$AAi?$AAn?$AAg?$AAR?$AAe@ 100b8324     imgui.obj
 0002:00006364       ??_C@_1DM@EKPCIOHK@?$AAg?$AA?4?$AAN?$AAa?$AAv?$AAW?$AAi?$AAn?$AAd?$AAo?$AAw?$AA?5?$AA?$CG?$AA?$CG?$AA?5@ 100b8364     imgui.obj
 0002:000063a0       ??_C@_1CA@PADPOC@?$AAm?$AAo?$AAv?$AAe?$AA_?$AAf?$AAl?$AAa?$AAg?$AAs?$AA?5?$AA?$CB?$AA?$DN?$AA?5?$AA0@ 100b83a0     imgui.obj
 0002:000063c0       ??_C@_1CK@OIBCGJMF@?$AAg?$AA?4?$AAN?$AAa?$AAv?$AAW?$AAi?$AAn?$AAd?$AAo?$AAw?$AAi?$AAn?$AAg?$AAT@ 100b83c0     imgui.obj
 0002:000063ec       ??_C@_07NPLNEKJH@?$CIPopup?$CJ@ 100b83ec     imgui.obj
 0002:000063f4       ??_C@_0O@BKOLOJFE@?$CD?$CDMainMenuBar@ 100b83f4     imgui.obj
 0002:00006404       ??_C@_0BA@KDPNEDEH@?$CIMain?5menu?5bar?$CJ@ 100b8404     imgui.obj
 0002:00006414       ??_C@_0L@JOJOIPFK@?$CIUntitled?$CJ@ 100b8414     imgui.obj
 0002:00006420       ??_C@_1DE@DBGGCEBB@?$AAg?$AA?4?$AAN?$AAa?$AAv?$AAW?$AAi?$AAn?$AAd?$AAo?$AAw?$AAi?$AAn?$AAg?$AAT@ 100b8420     imgui.obj
 0002:00006454       ??_C@_0BE@EBHFKNCA@?$CD?$CD?$CDNavWindowingList@ 100b8454     imgui.obj
 0002:00006468       ??_C@_02PCIJFNDE@?$AN?6@   100b8468     imgui.obj
 0002:0000646c       ??_C@_07LFDEMEGD@?$CF?$CKs?$CF?4?$CKs@ 100b846c     imgui.obj
 0002:00006474       ??_C@_02BOGAIONP@ab@       100b8474     imgui.obj
 0002:00006478       ??_C@_1DE@BLONNHPO@?$AAg?$AA?4?$AAS?$AAe?$AAt?$AAt?$AAi?$AAn?$AAg?$AAs?$AAW?$AAi?$AAn?$AAd?$AAo@ 100b8478     imgui.obj
 0002:000064ac       ??_C@_03OIJOKPOL@?$CD?$CD?$CD@ 100b84ac     imgui.obj
 0002:000064b0       ??_C@_02JDPG@rb@           100b84b0     imgui.obj
 0002:000064b4       ??_C@_02BKFDOEMK@wt@       100b84b4     imgui.obj
 0002:000064b8       ??_C@_09GOMOMIIP@Pos?$DN?$CFi?0?$CFi@ 100b84b8     imgui.obj
 0002:000064c4       ??_C@_0L@MPPKDMFA@Size?$DN?$CFi?0?$CFi@ 100b84c4     imgui.obj
 0002:000064d0       ??_C@_0N@IAKNMBB@Collapsed?$DN?$CFd@ 100b84d0     imgui.obj
 0002:000064e0       ??_C@_1DG@BLKMIOLK@?$AAs?$AAe?$AAt?$AAt?$AAi?$AAn?$AAg?$AAs?$AA?9?$AA?$DO?$AAI?$AAD?$AA?5?$AA?$DN?$AA?$DN@ 100b84e0     imgui.obj
 0002:00006518       ??_C@_09HNFDDBIF@?$FL?$CFs?$FN?$FL?$CFs?$FN?6@ 100b8518     imgui.obj
 0002:00006524       ??_C@_0L@DDMADIHO@Pos?$DN?$CFd?0?$CFd?6@ 100b8524     imgui.obj
 0002:00006530       ??_C@_0M@CFANMDMP@Size?$DN?$CFd?0?$CFd?6@ 100b8530     imgui.obj
 0002:0000653c       ??_C@_0O@JAFHMCKE@Collapsed?$DN?$CFd?6@ 100b853c     imgui.obj
 0002:0000654c       ??_C@_01EEMJAFIK@?6@       100b854c     imgui.obj
 0002:00006550       ??_C@_1CM@MPBIDJHA@?$AAg?$AA?4?$AAV?$AAi?$AAe?$AAw?$AAp?$AAo?$AAr?$AAt?$AAs?$AA?4?$AAS?$AAi?$AAz@ 100b8550     imgui.obj
 0002:0000657c       ??_C@_08EEOHOBEO@Settings@ 100b857c     imgui.obj
 0002:00006588       ??_C@_02DKCKIIND@?$CFs@    100b8588     imgui.obj
 0002:0000658c       ??_C@_02DPKJAMEF@?$CFd@    100b858c     imgui.obj
 0002:00006590       ??_C@_01MNNFJEPP@?$DM@     100b8590     imgui.obj
 0002:00006594       ??_C@_01PPODPGHN@?$DO@     100b8594     imgui.obj
 0002:00006598       ??_C@_01NFFPALBN@Y@        100b8598     imgui.obj
 0002:0000659c       ??_C@_01MMEEDKFM@X@        100b859c     imgui.obj
 0002:000065a0       ??_C@_1DC@DHFOGPCD@?$AAp?$AA?5?$AA?$DO?$AA?$DN?$AA?5?$AAD?$AAa?$AAt?$AAa?$AA?5?$AA?$CG?$AA?$CG?$AA?5?$AAp?$AA?5@ 100b85a0     imgui.obj
 0002:000065d4       ??_C@_1DO@NPHOAPAC@?$AAi?$AAt?$AA?5?$AA?$DO?$AA?$DN?$AA?5?$AAD?$AAa?$AAt?$AAa?$AA?5?$AA?$CG?$AA?$CG?$AA?5?$AAi@ 100b85d4     imgui.obj
 0002:00006614       ??_C@_1CG@GPMNJCJ@?$AAi?$AA?5?$AA?$DO?$AA?$DN?$AA?5?$AA0?$AA?5?$AA?$CG?$AA?$CG?$AA?5?$AAi?$AA?5?$AA?$DM?$AA?5?$AAS@ 100b8614     imgui.obj
 0002:0000663c       ??_C@_1BC@KCECIPDP@?$AAS?$AAi?$AAz?$AAe?$AA?5?$AA?$DO?$AA?5?$AA0@ 100b863c     imgui.obj
 0002:00006650       ??_C@_1DE@BDDBABLK@?$AAp?$AA?5?$AA?$DO?$AA?$DN?$AA?5?$AAb?$AAe?$AAg?$AAi?$AAn?$AA?$CI?$AA?$CJ?$AA?5?$AA?$CG?$AA?$CG@ 100b8650     imgui.obj
 0002:00006684       ??_C@_1BE@OEELIPPM@?$AAp?$AA?5?$AA?$DM?$AA?5?$AAe?$AAn?$AAd?$AA?$CI?$AA?$CJ@ 100b8684     imgui.obj
 0002:00006698       ??_C@_1DG@EPOMENA@?$AAo?$AAf?$AAf?$AA?5?$AA?$DO?$AA?$DN?$AA?5?$AA4?$AA?5?$AA?$CG?$AA?$CG?$AA?5?$AAo?$AAf?$AAf@ 100b8698     imgui.obj
 0002:000066d0       ??_C@_1EA@INDCAEFK@?$AAi?$AAt?$AA?5?$AA?$DO?$AA?$DN?$AA?5?$AAD?$AAa?$AAt?$AAa?$AA?5?$AA?$CG?$AA?$CG?$AA?5?$AAi@ 100b86d0     imgui.obj
 0002:00006710       __real@3727c5ac            100b8710     imgui.obj
 0002:00006714       __real@38d1b717            100b8714     imgui.obj
 0002:00006718       __real@3b808081            100b8718     imgui.obj
 0002:0000671c       __real@3d23d70a            100b871c     imgui.obj
 0002:00006720       __real@3e4ccccd            100b8720     imgui.obj
 0002:00006724       __real@3e800000            100b8724     imgui.obj
 0002:00006728       __real@3f19999a            100b8728     imgui.obj
 0002:0000672c       __real@3f266666            100b872c     imgui.obj
 0002:00006730       __real@3f2b851f            100b8730     imgui.obj
 0002:00006734       __real@3f3851ec            100b8734     imgui.obj
 0002:00006738       __real@3f490fdb            100b8738     imgui.obj
 0002:0000673c       __real@3f4ccccd            100b873c     imgui.obj
 0002:00006740       __real@3f7fff58            100b8740     imgui.obj
 0002:00006744       __real@3f8ccccd            100b8744     imgui.obj
 0002:00006748       __real@3faccccd            100b8748     imgui.obj
 0002:0000674c       __real@42f00000            100b874c     imgui.obj
 0002:00006750       __real@44160000            100b8750     imgui.obj
 0002:00006754       __real@44480000            100b8754     imgui.obj
 0002:00006758       __real@be800000            100b8758     imgui.obj
 0002:0000675c       __real@c0000000            100b875c     imgui.obj
 0002:00006760       __real@c87a0000            100b8760     imgui.obj
 0002:00006764       __real@ff7fffff            100b8764     imgui.obj
 0002:00006770       __xmm@00000000000000020000000300000001 100b8770     imgui.obj
 0002:00006780       __xmm@00000002000000000000000100000003 100b8780     imgui.obj
 0002:00006790       __xmm@3f8000003de8e8ea3de8e8ea3de8e8ea 100b8790     imgui.obj
 0002:000067a0       __xmm@3f8000003e0080813df0f0f23de0e0e2 100b87a0     imgui.obj
 0002:000067b0       __xmm@3f8000003e0484853e0484853e048485 100b87b0     imgui.obj
 0002:000067c0       __xmm@3f8000003f22a2a33ee2e2e43eb2b2b3 100b87c0     imgui.obj
 0002:000067d0       __xmm@3f8000003f48c8ca3f48c8ca3f48c8ca 100b87d0     imgui.obj
 0002:000067e0       __xmm@7f7fffff7f7fffffff7fffffff7fffff 100b87e0     imgui.obj
 0002:000067f0       __xmm@7fffffff7fffffff7fffffff7fffffff 100b87f0     imgui.obj
 0002:00006800       __xmm@bf800000bf800000bf800000bf800000 100b8800     imgui.obj
 0002:00006810       __xmm@ffffffffffffffffffffffffffffffff 100b8810     imgui.obj
 0002:00006820       ??_C@_04GFJLOHHD@?$CF?43f@ 100b8820     imgui_demo.obj
 0002:00006828       ??_C@_0L@LLAOMMOH@Text?5Input@ 100b8828     imgui_demo.obj
 0002:00006834       ??_C@_01MIFGBAGJ@?$CL@     100b8834     imgui_demo.obj
 0002:00006838       ??_C@_02GMHACPFF@?$CFu@    100b8838     imgui_demo.obj
 0002:0000683c       ??_C@_05LLAMLEHD@?$CFI64d@ 100b883c     imgui_demo.obj
 0002:00006844       ??_C@_08HBKJHHBM@Checkbox@ 100b8844     imgui_demo.obj
 0002:00006850       ??_C@_01POHCFINO@Z@        100b8850     imgui_demo.obj
 0002:00006854       ??_C@_01FHEEJDEE@A@        100b8854     imgui_demo.obj
 0002:00006858       ??_C@_01HMGJMAIH@B@        100b8858     imgui_demo.obj
 0002:0000685c       ??_C@_02FODMEDOG@?$DM?$DM@ 100b885c     imgui_demo.obj
 0002:00006860       ??_C@_02GPIOPFAK@?$DO?$DO@ 100b8860     imgui_demo.obj
 0002:00006864       ??_C@_02BAABKJLB@?9?9@     100b8864     imgui_demo.obj
 0002:00006868       ??_C@_05LMJFOPOI@Music@    100b8868     imgui_demo.obj
 0002:00006870       ??_C@_05LFBINIGO@Table@    100b8870     imgui_demo.obj
 0002:00006878       ??_C@_01HIHLOKLC@1@        100b8878     imgui_demo.obj
 0002:0000687c       ??_C@_01FDFGLJHB@2@        100b887c     imgui_demo.obj
 0002:00006880       ??_C@_01EKENIIDA@3@        100b8880     imgui_demo.obj
 0002:00006884       ??_C@_01BMBHCPLG@5@        100b8884     imgui_demo.obj
 0002:00006888       ??_C@_07DOAOMMKG@Enabled@  100b8888     imgui_demo.obj
 0002:00006890       ??_C@_01CLKCMJKC@?5@       100b8890     imgui_demo.obj
 0002:00006898       __real@0000000000000000    100b8898     imgui_demo.obj
 0002:000068a0       __real@41e00000            100b88a0     imgui_demo.obj
 0002:000068b0       __xmm@3f800000000000000000000000000000 100b88b0     imgui_demo.obj
 0002:000068c0       __xmm@3f8000003f8000003f8000003f800000 100b88c0     imgui_demo.obj
 0002:0000a308       ??_C@_1BG@HMJJDGFN@?$AAi?$AAn?$AAd?$AAe?$AAx?$AA?5?$AA?$DO?$AA?$DN?$AA?5?$AA0@ 100bc308     imgui_draw.obj
 0002:0000a320       ??_C@_1DA@HCNHOFJN@?$AAn?$AA?5?$AA?$DM?$AA?5?$AA?$CI?$AAS?$AAt?$AAo?$AAr?$AAa?$AAg?$AAe?$AA?4?$AAS?$AAi@ 100bc320     imgui_draw.obj
 0002:0000a350       ??_C@_1JK@GHEOJPJE@?$AAc?$AA?3?$AA?2?$AAu?$AAs?$AAe?$AAr?$AAs?$AA?2?$AAa?$AAd?$AAm?$AAi?$AAn?$AAi@ 100bc350     imgui_draw.obj
 0002:0000a3f0       ??_C@_1EI@NNJKMECF@?$AAw?$AAi?$AAd?$AAt?$AAh?$AA?5?$AA?$DM?$AA?$DN?$AA?5?$AA0?$AAx?$AAf?$AAf?$AAf?$AAf@ 100bc3f0     imgui_draw.obj
 0002:0000a438       ??_C@_1BO@KBODBKOH@?$AAf?$AAi?$AAr?$AAs?$AAt?$AA?9?$AA?$DO?$AAx?$AA?5?$AA?$DM?$AA?$DN?$AA?5?$AAx?$AA0@ 100bc438     imgui_draw.obj
 0002:0000a458       ??_C@_1CG@BDIGDJGP@?$AAn?$AAo?$AAd?$AAe?$AA?9?$AA?$DO?$AAn?$AAe?$AAx?$AAt?$AA?9?$AA?$DO?$AAx?$AA?5?$AA?$DO@ 100bc458     imgui_draw.obj
 0002:0000a480       ??_C@_1BM@JHJLEEND@?$AAn?$AAo?$AAd?$AAe?$AA?9?$AA?$DO?$AAx?$AA?5?$AA?$DM?$AA?$DN?$AA?5?$AAx?$AA0@ 100bc480     imgui_draw.obj
 0002:0000a49c       ??_C@_1CM@LEHAODMI@?$AAw?$AAi?$AAd?$AAt?$AAh?$AA?5?$AA?$CF?$AA?5?$AAc?$AA?9?$AA?$DO?$AAa?$AAl?$AAi?$AAg@ 100bc49c     imgui_draw.obj
 0002:0000a4c8       ??_C@_1BE@MNLKNDNL@?$AAx?$AAp?$AAo?$AAs?$AA?5?$AA?$DO?$AA?$DN?$AA?5?$AA0@ 100bc4c8     imgui_draw.obj
 0002:0000a4e0       ??_C@_1FA@GPDJEJHP@?$AAn?$AAo?$AAd?$AAe?$AA?9?$AA?$DO?$AAn?$AAe?$AAx?$AAt?$AA?9?$AA?$DO?$AAx?$AA?5?$AA?$DO@ 100bc4e0     imgui_draw.obj
 0002:0000a530       ??_C@_1JK@LGAGLLPA@?$AAc?$AA?3?$AA?2?$AAu?$AAs?$AAe?$AAr?$AAs?$AA?2?$AAa?$AAd?$AAm?$AAi?$AAn?$AAi@ 100bc530     imgui_draw.obj
 0002:0000a5cc       ??_C@_1DA@CPAEOPEI@?$AA?$CB?$AA?$CI?$AAo?$AA?5?$AA?$DO?$AA?5?$AAb?$AA?9?$AA?$DO?$AAs?$AAi?$AAz?$AAe?$AA?5?$AA?$HM@ 100bc5cc     imgui_draw.obj
 0002:0000a5fc       ??_C@_1CC@OMFGMKMB@?$AAn?$AA?5?$AA?$DO?$AA?$DN?$AA?5?$AA1?$AA?5?$AA?$CG?$AA?$CG?$AA?5?$AAn?$AA?5?$AA?$DM?$AA?$DN?$AA?5@ 100bc5fc     imgui_draw.obj
 0002:0000a620       ??_C@_1CE@EPOLDKHI@?$AAs?$AAi?$AAz?$AAe?$AA?5?$AA?$DM?$AA?5?$AA0?$AAx?$AA4?$AA0?$AA0?$AA0?$AA0?$AA0@ 100bc620     imgui_draw.obj
 0002:0000a644       ??_C@_1DK@IJDIOPHB@?$AAo?$AAf?$AAf?$AAs?$AAi?$AAz?$AAe?$AA?5?$AA?$DO?$AA?$DN?$AA?5?$AA1?$AA?5?$AA?$CG?$AA?$CG@ 100bc644     imgui_draw.obj
 0002:0000a680       ??_C@_1BC@KDMJFGHG@?$AAb?$AA0?$AA?5?$AA?$DO?$AA?$DN?$AA?5?$AA2?$AA8@ 100bc680     imgui_draw.obj
 0002:0000a694       ??_C@_1CI@PFMEGAIA@?$AAi?$AA?5?$AA?$DO?$AA?$DN?$AA?5?$AA0?$AA?5?$AA?$CG?$AA?$CG?$AA?5?$AAi?$AA?5?$AA?$DM?$AA?5?$AAc@ 100bc694     imgui_draw.obj
 0002:0000a6bc       ??_C@_04EICJPCEA@cmap@     100bc6bc     imgui_draw.obj
 0002:0000a6c4       ??_C@_04DACNFKGE@loca@     100bc6c4     imgui_draw.obj
 0002:0000a6cc       ??_C@_04NEODDMOL@head@     100bc6cc     imgui_draw.obj
 0002:0000a6d4       ??_C@_04LLIHEPK@glyf@      100bc6d4     imgui_draw.obj
 0002:0000a6dc       ??_C@_04FMPHLIKP@hhea@     100bc6dc     imgui_draw.obj
 0002:0000a6e4       ??_C@_04ONMNCIMC@hmtx@     100bc6e4     imgui_draw.obj
 0002:0000a6ec       ??_C@_04HHMMLDJI@kern@     100bc6ec     imgui_draw.obj
 0002:0000a6f4       ??_C@_04PCFDEHHD@GPOS@     100bc6f4     imgui_draw.obj
 0002:0000a6fc       ??_C@_04HJGCPIEK@CFF?5@    100bc6fc     imgui_draw.obj
 0002:0000a704       ??_C@_04KODIGLGG@maxp@     100bc704     imgui_draw.obj
 0002:0000a710       ??_C@_1HA@EBGBJFDE@?$AAu?$AAn?$AAi?$AAc?$AAo?$AAd?$AAe?$AA_?$AAc?$AAo?$AAd?$AAe?$AAp?$AAo?$AAi@ 100bc710     imgui_draw.obj
 0002:0000a780       ??_C@_1CA@MDABGEPC@?$AA?$CB?$AAi?$AAn?$AAf?$AAo?$AA?9?$AA?$DO?$AAc?$AAf?$AAf?$AA?4?$AAs?$AAi?$AAz?$AAe@ 100bc780     imgui_draw.obj
 0002:0000a7a0       ??_C@_1GE@KABFAMEA@?$AAo?$AAu?$AAt?$AAp?$AAu?$AAt?$AA_?$AAc?$AAt?$AAx?$AA?4?$AAn?$AAu?$AAm?$AA_@ 100bc7a0     imgui_draw.obj
 0002:0000a804       ??_C@_1O@EHPNOHML@?$AAz?$AA?5?$AA?$CB?$AA?$DN?$AA?5?$AA0@ 100bc804     imgui_draw.obj
 0002:0000a814       ??_C@_1BA@ENLNFFAM@?$AAy?$AA0?$AA?5?$AA?$DM?$AA?5?$AAy?$AA1@ 100bc814     imgui_draw.obj
 0002:0000a824       ??_C@_1BO@JGPMADBG@?$AAe?$AA?9?$AA?$DO?$AAs?$AAy?$AA?5?$AA?$DM?$AA?$DN?$AA?5?$AAe?$AA?9?$AA?$DO?$AAe?$AAy@ 100bc824     imgui_draw.obj
 0002:0000a844       ??_C@_1BE@DHAKMBPL@?$AAx?$AA1?$AA?5?$AA?$DM?$AA?$DN?$AA?5?$AAx?$AA?$CL?$AA1@ 100bc844     imgui_draw.obj
 0002:0000a858       ??_C@_1BA@FAAMJPKE@?$AAx?$AA1?$AA?5?$AA?$DO?$AA?$DN?$AA?5?$AAx@ 100bc858     imgui_draw.obj
 0002:0000a868       ??_C@_1BA@FEPJEPJJ@?$AAx?$AA1?$AA?5?$AA?$DM?$AA?$DN?$AA?5?$AAx@ 100bc868     imgui_draw.obj
 0002:0000a878       ??_C@_1BE@NGGEAFFG@?$AAx?$AA1?$AA?5?$AA?$DO?$AA?$DN?$AA?5?$AAx?$AA?$CL?$AA1@ 100bc878     imgui_draw.obj
 0002:0000a88c       ??_C@_1CK@NILBPPPH@?$AAx?$AA1?$AA?5?$AA?$DO?$AA?$DN?$AA?5?$AAx?$AA?5?$AA?$CG?$AA?$CG?$AA?5?$AAx?$AA1?$AA?5?$AA?$DM@ 100bc88c     imgui_draw.obj
 0002:0000a8b8       ??_C@_1FK@JPMIPNJF@?$AAx?$AA0?$AA?5?$AA?$DO?$AA?$DN?$AA?5?$AAx?$AA?5?$AA?$CG?$AA?$CG?$AA?5?$AAx?$AA0?$AA?5?$AA?$DM@ 100bc8b8     imgui_draw.obj
 0002:0000a914       ??_C@_1BO@MDBOACOJ@?$AAe?$AA?9?$AA?$DO?$AAe?$AAy?$AA?5?$AA?$DO?$AA?$DN?$AA?5?$AAy?$AA_?$AAt?$AAo?$AAp@ 100bc914     imgui_draw.obj
 0002:0000a938       ??_C@_1EI@KOIFPDFH@?$AAe?$AA?9?$AA?$DO?$AAs?$AAy?$AA?5?$AA?$DM?$AA?$DN?$AA?5?$AAy?$AA_?$AAb?$AAo?$AAt?$AAt@ 100bc938     imgui_draw.obj
 0002:0000a980       ??_C@_1CE@GDDDMDCC@?$AAx?$AA?5?$AA?$DO?$AA?$DN?$AA?5?$AA0?$AA?5?$AA?$CG?$AA?$CG?$AA?5?$AAx?$AA?5?$AA?$DM?$AA?5?$AAl@ 100bc980     imgui_draw.obj
 0002:0000a9a4       ??_C@_1CK@PHOJNIKI@?$AAf?$AAa?$AAb?$AAs?$AAf?$AA?$CI?$AAa?$AAr?$AAe?$AAa?$AA?$CJ?$AA?5?$AA?$DM?$AA?$DN?$AA?5@ 100bc9a4     imgui_draw.obj
 0002:0000a9d0       ??_C@_1BK@LMAHJHLI@?$AAz?$AA?9?$AA?$DO?$AAd?$AAi?$AAr?$AAe?$AAc?$AAt?$AAi?$AAo?$AAn@ 100bc9d0     imgui_draw.obj
 0002:0000a9ec       ??_C@_1CI@PMJHELI@?$AAz?$AA?9?$AA?$DO?$AAe?$AAy?$AA?5?$AA?$DO?$AA?$DN?$AA?5?$AAs?$AAc?$AAa?$AAn?$AA_?$AAy@ 100bc9ec     imgui_draw.obj
 0002:0000aa14       ??_C@_1BO@BDJAMAMF@?$AAp?$AAi?$AAx?$AAe?$AAl?$AAs?$AA?$FL?$AAi?$AA?$FN?$AA?5?$AA?$DN?$AA?$DN?$AA?5?$AA0@ 100bca14     imgui_draw.obj
 0002:0000aa34       ??_C@_1DO@LAPBLJ@?$AAp?$AAi?$AAx?$AAe?$AAl?$AAs?$AA?$FL?$AAi?$AA?$CK?$AAs?$AAt?$AAr?$AAi?$AAd?$AAe@ 100bca34     imgui_draw.obj
 0002:0000aa78       ??_C@_1JG@HKELKMMH@?$AAc?$AA?3?$AA?2?$AAu?$AAs?$AAe?$AAr?$AAs?$AA?2?$AAa?$AAd?$AAm?$AAi?$AAn?$AAi@ 100bca78     imgui_draw.obj
 0002:0000ab10       ??_C@_1CC@JCMOPDC@?$AAm?$AAa?$AAx?$AA_?$AAe?$AAr?$AAr?$AAo?$AAr?$AA?5?$AA?$DO?$AA?5?$AA0?$AA?4?$AA0@ 100bcb10     imgui_draw.obj
 0002:0000ab38       ??_C@_1LC@MAEAJCLC@?$AAd?$AAr?$AAa?$AAw?$AA_?$AAc?$AAm?$AAd?$AA?4?$AAC?$AAl?$AAi?$AAp?$AAR?$AAe@ 100bcb38     imgui_draw.obj
 0002:0000abec       ??_C@_1DI@FGNNAPCK@?$AAc?$AAu?$AAr?$AAr?$AA_?$AAc?$AAm?$AAd?$AA?9?$AA?$DO?$AAU?$AAs?$AAe?$AAr?$AAC@ 100bcbec     imgui_draw.obj
 0002:0000ac24       ??_C@_1DK@OKKGHLND@?$AAa?$AA_?$AAm?$AAi?$AAn?$AA_?$AAs?$AAa?$AAm?$AAp?$AAl?$AAe?$AA?5?$AA?$DM?$AA?$DN@ 100bcc24     imgui_draw.obj
 0002:0000ac60       ??_C@_1BO@JBJNFJO@?$AAa?$AA_?$AAm?$AAi?$AAn?$AA?5?$AA?$DM?$AA?$DN?$AA?5?$AAa?$AA_?$AAm?$AAa?$AAx@ 100bcc60     imgui_draw.obj
 0002:0000ac80       ??_C@_1DG@IBKEFBBG@?$AAa?$AA_?$AAm?$AAi?$AAn?$AA_?$AAo?$AAf?$AA_?$AA1?$AA2?$AA?5?$AA?$DM?$AA?$DN?$AA?5@ 100bcc80     imgui_draw.obj
 0002:0000acb8       ??_C@_1JM@GAJOFMMN@?$AA?$CI?$AAf?$AAl?$AAa?$AAg?$AAs?$AA?5?$AA?$CG?$AA?5?$AA0?$AAx?$AA0?$AAF?$AA?$CJ?$AA?5@ 100bccb8     imgui_draw.obj
 0002:0000ad58       ??_C@_1GI@CIGOLMNM@?$AAf?$AAo?$AAn?$AAt?$AA?9?$AA?$DO?$AAC?$AAo?$AAn?$AAt?$AAa?$AAi?$AAn?$AAe?$AAr@ 100bcd58     imgui_draw.obj
 0002:0000adc0       ??_C@_1DC@ILGGLBID@?$AAi?$AAd?$AAx?$AA?5?$AA?$DO?$AA?$DN?$AA?5?$AA0?$AA?5?$AA?$CG?$AA?$CG?$AA?5?$AAi?$AAd?$AAx@ 100bcdc0     imgui_draw.obj
 0002:0000adf8       ??_C@_1LE@PGHOGCJ@?$AA?$CB?$AAL?$AAo?$AAc?$AAk?$AAe?$AAd?$AA?5?$AA?$CG?$AA?$CG?$AA?5?$AA?$CC?$AAC?$AAa?$AAn@ 100bcdf8     imgui_draw.obj
 0002:0000aeb0       ??_C@_1GM@FAHJAOLI@?$AAf?$AAo?$AAn?$AAt?$AA_?$AAc?$AAf?$AAg?$AA?9?$AA?$DO?$AAF?$AAo?$AAn?$AAt?$AAD@ 100bceb0     imgui_draw.obj
 0002:0000af1c       ??_C@_1DI@LEOIHPJH@?$AAf?$AAo?$AAn?$AAt?$AA_?$AAc?$AAf?$AAg?$AA?9?$AA?$DO?$AAS?$AAi?$AAz?$AAe?$AAP@ 100bcf1c     imgui_draw.obj
 0002:0000af58       ??_C@_1HI@KOOOLAEJ@?$AA?$CB?$AAF?$AAo?$AAn?$AAt?$AAs?$AA?4?$AAe?$AAm?$AAp?$AAt?$AAy?$AA?$CI?$AA?$CJ?$AA?5@ 100bcf58     imgui_draw.obj
 0002:0000afd0       ??_C@_0BG@CONABPA@ProggyClean?4ttf?0?5?$CFdpx@ 100bcfd0     imgui_draw.obj
 0002:0000afe8       ??_C@_1EG@KCPDJPKE@?$AA?$CI?$AA0?$AA?$CJ?$AA?5?$AA?$CG?$AA?$CG?$AA?5?$AA?$CC?$AAC?$AAo?$AAu?$AAl?$AAd?$AA?5?$AAn@ 100bcfe8     imgui_draw.obj
 0002:0000b030       ??_C@_0L@EPCGLJHG@?$CFs?0?5?$CF?40fpx@ 100bd030     imgui_draw.obj
 0002:0000b03c       ??_C@_1CO@ODFMNMML@?$AAf?$AAo?$AAn?$AAt?$AA_?$AAc?$AAf?$AAg?$AA?4?$AAF?$AAo?$AAn?$AAt?$AAD?$AAa@ 100bd03c     imgui_draw.obj
 0002:0000b06c       ??_C@_1DM@CMBJAGBP@?$AAT?$AAe?$AAx?$AAW?$AAi?$AAd?$AAt?$AAh?$AA?5?$AA?$DO?$AA?5?$AA0?$AA?5?$AA?$CG?$AA?$CG@ 100bd06c     imgui_draw.obj
 0002:0000b0a8       ??_C@_1CC@DEJIAPCP@?$AAr?$AAe?$AAc?$AAt?$AA?9?$AA?$DO?$AAI?$AAs?$AAP?$AAa?$AAc?$AAk?$AAe?$AAd?$AA?$CI@ 100bd0a8     imgui_draw.obj
 0002:0000b0cc       ??_C@_1DC@JHOLDEIK@?$AAP?$AAa?$AAc?$AAk?$AAI?$AAd?$AAM?$AAo?$AAu?$AAs?$AAe?$AAC?$AAu?$AAr?$AAs@ 100bd0cc     imgui_draw.obj
 0002:0000b100       ??_C@_1DG@BBHAKCJP@?$AAa?$AAt?$AAl?$AAa?$AAs?$AA?9?$AA?$DO?$AAC?$AAo?$AAn?$AAf?$AAi?$AAg?$AAD?$AAa@ 100bd100     imgui_draw.obj
 0002:0000b138       ??_C@_1KE@NPGLPIC@?$AAc?$AAf?$AAg?$AA?4?$AAD?$AAs?$AAt?$AAF?$AAo?$AAn?$AAt?$AA?5?$AA?$CG?$AA?$CG?$AA?5@ 100bd138     imgui_draw.obj
 0002:0000b1dc       ??_C@_1CO@NKKOCLPN@?$AAs?$AAr?$AAc?$AA_?$AAt?$AAm?$AAp?$AA?4?$AAD?$AAs?$AAt?$AAI?$AAn?$AAd?$AAe@ 100bd1dc     imgui_draw.obj
 0002:0000b210       ??_C@_1JA@MENENCJI@?$AAf?$AAo?$AAn?$AAt?$AA_?$AAo?$AAf?$AAf?$AAs?$AAe?$AAt?$AA?5?$AA?$DO?$AA?$DN?$AA?5@ 100bd210     imgui_draw.obj
 0002:0000b2a0       ??_C@_1FO@GJGKHCEN@?$AAs?$AAr?$AAc?$AA_?$AAt?$AAm?$AAp?$AA?4?$AAG?$AAl?$AAy?$AAp?$AAh?$AAs?$AAL@ 100bd2a0     imgui_draw.obj
 0002:0000b300       ??_C@_1DC@ENBGOGEF@?$AAg?$AAl?$AAy?$AAp?$AAh?$AA_?$AAi?$AAn?$AAd?$AAe?$AAx?$AA_?$AAi?$AAn?$AA_@ 100bd300     imgui_draw.obj
 0002:0000b334       ??_C@_1CE@FMMHMDCM@?$AAp?$AAa?$AAc?$AAk?$AA_?$AAc?$AAo?$AAn?$AAt?$AAe?$AAx?$AAt?$AA?5?$AA?$CB?$AA?$DN@ 100bd334     imgui_draw.obj
 0002:0000b358       ??_C@_1CK@POMOOFJC@?$AAu?$AAs?$AAe?$AAr?$AA_?$AAr?$AAe?$AAc?$AAt?$AAs?$AA?4?$AAS?$AAi?$AAz?$AAe@ 100bd358     imgui_draw.obj
 0002:0000b388       ??_C@_1KE@CBAIECN@?$AAp?$AAa?$AAc?$AAk?$AA_?$AAr?$AAe?$AAc?$AAt?$AAs?$AA?$FL?$AAi?$AA?$FN?$AA?4?$AAw@ 100bd388     imgui_draw.obj
 0002:0000b430       ??_C@_1EG@KOLNNAOF@?$AAx?$AA?5?$AA?$DO?$AA?$DN?$AA?5?$AA0?$AA?5?$AA?$CG?$AA?$CG?$AA?5?$AAx?$AA?5?$AA?$CL?$AA?5?$AAw@ 100bd430     imgui_draw.obj
 0002:0000b478       ??_C@_1EI@CHFOHLGN@?$AAy?$AA?5?$AA?$DO?$AA?$DN?$AA?5?$AA0?$AA?5?$AA?$CG?$AA?$CG?$AA?5?$AAy?$AA?5?$AA?$CL?$AA?5?$AAh@ 100bd478     imgui_draw.obj
 0002:0000b4c0       ??_C@_1BM@DDBMCGAE@?$AAr?$AA?9?$AA?$DO?$AAI?$AAs?$AAP?$AAa?$AAc?$AAk?$AAe?$AAd?$AA?$CI?$AA?$CJ@ 100bd4c0     imgui_draw.obj
 0002:0000b4e0       ??_C@_1MA@PDHEAINP@?$AAr?$AA?9?$AA?$DO?$AAW?$AAi?$AAd?$AAt?$AAh?$AA?5?$AA?$DN?$AA?$DN?$AA?5?$AAF?$AAO?$AAN@ 100bd4e0     imgui_draw.obj
 0002:0000b5a0       ??_C@_1EA@DBHHBIED@?$AAr?$AA?9?$AA?$DO?$AAW?$AAi?$AAd?$AAt?$AAh?$AA?5?$AA?$DN?$AA?$DN?$AA?5?$AA2?$AA?5?$AA?$CG@ 100bd5a0     imgui_draw.obj
 0002:0000b5e0       ??_C@_1HO@DLMJCKJA@?$AAp?$AAa?$AAd?$AA_?$AAl?$AAe?$AAf?$AAt?$AA?5?$AA?$CL?$AA?5?$AAl?$AAi?$AAn?$AAe@ 100bd5e0     imgui_draw.obj
 0002:0000b660       ??_C@_1HG@JLCPLJIF@?$AAa?$AAt?$AAl?$AAa?$AAs?$AA?9?$AA?$DO?$AAT?$AAe?$AAx?$AAP?$AAi?$AAx?$AAe?$AAl@ 100bd660     imgui_draw.obj
 0002:0000b6d8       ??_C@_1EC@BJJINGAO@?$AAr?$AA?9?$AA?$DO?$AAF?$AAo?$AAn?$AAt?$AA?9?$AA?$DO?$AAC?$AAo?$AAn?$AAt?$AAa?$AAi@ 100bd6d8     imgui_draw.obj
 0002:0000ce98       ??_C@_1CK@FHBHHKB@?$AAG?$AAl?$AAy?$AAp?$AAh?$AAs?$AA?4?$AAS?$AAi?$AAz?$AAe?$AA?5?$AA?$DM?$AA?5?$AA0@ 100bee98     imgui_draw.obj
 0002:0000cec8       ??_C@_1EO@HLFAHELG@?$AAI?$AAn?$AAd?$AAe?$AAx?$AAA?$AAd?$AAv?$AAa?$AAn?$AAc?$AAe?$AAX?$AA?4?$AAS@ 100beec8     imgui_draw.obj
 0002:0000cf18       ??_C@_1JM@LKKCKIOL@?$AAm?$AAo?$AAu?$AAs?$AAe?$AA_?$AAc?$AAu?$AAr?$AAs?$AAo?$AAr?$AA?5?$AA?$DO?$AA?5@ 100bef18     imgui_draw.obj
 0002:0000cfb8       ??_C@_1FC@IADGHEAH@?$AAs?$AAt?$AAb?$AA_?$AA_?$AAd?$AAo?$AAu?$AAt?$AA?5?$AA?$CL?$AA?5?$AAl?$AAe?$AAn@ 100befb8     imgui_draw.obj
 0002:0000d00c       ??_C@_1DG@GCANDLHA@?$AAs?$AAt?$AAb?$AA_?$AA_?$AAd?$AAo?$AAu?$AAt?$AA?5?$AA?$DN?$AA?$DN?$AA?5?$AAo?$AAu@ 100bf00c     imgui_draw.obj
 0002:0000d044       ??_C@_1DG@EGIPGKEG@?$AAs?$AAt?$AAb?$AA_?$AA_?$AAd?$AAo?$AAu?$AAt?$AA?5?$AA?$DM?$AA?$DN?$AA?5?$AAo?$AAu@ 100bf044     imgui_draw.obj
 0002:0000d07c       __real@37800000            100bf07c     imgui_draw.obj
 0002:0000d080       __real@38800000            100bf080     imgui_draw.obj
 0002:0000d084       __real@3eb33333            100bf084     imgui_draw.obj
 0002:0000d088       __real@3efae148            100bf088     imgui_draw.obj
 0002:0000d08c       __real@3f5db22d            100bf08c     imgui_draw.obj
 0002:0000d090       __real@3f7fffef            100bf090     imgui_draw.obj
 0002:0000d094       __real@3f8147ae            100bf094     imgui_draw.obj
 0002:0000d098       __real@3fb0c15240000000    100bf098     imgui_draw.obj
 0002:0000d0a0       __real@40490fdb            100bf0a0     imgui_draw.obj
 0002:0000d0a4       __real@40c90fdb            100bf0a4     imgui_draw.obj
 0002:0000d0a8       __real@41500000            100bf0a8     imgui_draw.obj
 0002:0000d0ac       __real@42400000            100bf0ac     imgui_draw.obj
 0002:0000d0b0       __real@42da0000            100bf0b0     imgui_draw.obj
 0002:0000d0b4       __real@44333333            100bf0b4     imgui_draw.obj
 0002:0000d0b8       __real@44b33333            100bf0b8     imgui_draw.obj
 0002:0000d0bc       __real@45333333            100bf0bc     imgui_draw.obj
 0002:0000d0c0       __real@bf400000            100bf0c0     imgui_draw.obj
 0002:0000d0c4       __real@bf5db22d            100bf0c4     imgui_draw.obj
 0002:0000d0d0       __xmm@000000003f8000000000000000000000 100bf0d0     imgui_draw.obj
 0002:0000d0e0       __xmm@00000003000000020000000100000000 100bf0e0     imgui_draw.obj
 0002:0000d0f0       __xmm@00000008000000080000000800000008 100bf0f0     imgui_draw.obj
 0002:0000d100       __xmm@3d75c28f3f8000003f8000003f800000 100bf100     imgui_draw.obj
 0002:0000d110       __xmm@3e4ccccd3f4ccccd3f4ccccd3f4ccccd 100bf110     imgui_draw.obj
 0002:0000d120       __xmm@3e4ccccd3f7ae1483f170a3d3e851eb8 100bf120     imgui_draw.obj
 0002:0000d130       __xmm@3e9eb8523f7ae1483f170a3d3e851eb8 100bf130     imgui_draw.obj
 0002:0000d140       __xmm@3eb333333f4ccccd3f4ccccd3f4ccccd 100bf140     imgui_draw.obj
 0002:0000d150       __xmm@3eb333333f7ae1483f170a3d3e851eb8 100bf150     imgui_draw.obj
 0002:0000d160       __xmm@3ecccccd3f7ae1483f170a3d3e851eb8 100bf160     imgui_draw.obj
 0002:0000d170       __xmm@3f0000003f0000003edc28f63edc28f6 100bf170     imgui_draw.obj
 0002:0000d180       __xmm@3f028f5c000000000000000000000000 100bf180     imgui_draw.obj
 0002:0000d190       __xmm@3f07ae143ca3d70a3ca3d70a3ca3d70a 100bf190     imgui_draw.obj
 0002:0000d1a0       __xmm@3f0a3d713ef5c28f3e947ae13e23d70a 100bf1a0     imgui_draw.obj
 0002:0000d1b0       __xmm@3f2b851f3f7ae1483f170a3d3e851eb8 100bf1b0     imgui_draw.obj
 0002:0000d1c0       __xmm@3f3333333f8000003f8000003f800000 100bf1c0     imgui_draw.obj
 0002:0000d1d0       __xmm@3f47ae143f4000003ecccccd3dcccccd 100bf1d0     imgui_draw.obj
 0002:0000d1e0       __xmm@3f4ccccd3f7ae1483f170a3d3e851eb8 100bf1e0     imgui_draw.obj
 0002:0000d1f0       __xmm@3f666666000000003f8000003f800000 100bf1f0     imgui_draw.obj
 0002:0000d200       __xmm@3f70a3d73d75c28f3d75c28f3d75c28f 100bf200     imgui_draw.obj
 0002:0000d210       __xmm@3f70a3d73da3d70a3da3d70a3da3d70a 100bf210     imgui_draw.obj
 0002:0000d220       __xmm@3f7333333f7ae1483f170a3d3e851eb8 100bf220     imgui_draw.obj
 0002:0000d230       __xmm@3f800000000000003f19999a3f800000 100bf230     imgui_draw.obj
 0002:0000d240       __xmm@3f800000000000003f3333333f666666 100bf240     imgui_draw.obj
 0002:0000d250       __xmm@3f8000003d23d70a3d23d70a3d23d70a 100bf250     imgui_draw.obj
 0002:0000d260       __xmm@3f8000003e0f5c293e0f5c293e0f5c29 100bf260     imgui_draw.obj
 0002:0000d270       __xmm@3f8000003e4ccccd3e428f5c3e428f5c 100bf270     imgui_draw.obj
 0002:0000d280       __xmm@3f8000003e8000003e6b851f3e6b851f 100bf280     imgui_draw.obj
 0002:0000d290       __xmm@3f8000003e9eb8523e9eb8523e9eb852 100bf290     imgui_draw.obj
 0002:0000d2a0       __xmm@3f8000003eb333333e9eb8523e9eb852 100bf2a0     imgui_draw.obj
 0002:0000d2b0       __xmm@3f8000003eb333333edc28f63f800000 100bf2b0     imgui_draw.obj
 0002:0000d2c0       __xmm@3f8000003ed1eb853ed1eb853ed1eb85 100bf2c0     imgui_draw.obj
 0002:0000d2d0       __xmm@3f8000003ef5c28f3e947ae13e23d70a 100bf2d0     imgui_draw.obj
 0002:0000d2e0       __xmm@3f8000003f0000003f0000003f000000 100bf2e0     imgui_draw.obj
 0002:0000d2f0       __xmm@3f8000003f028f5c3f028f5c3f028f5c 100bf2f0     imgui_draw.obj
 0002:0000d300       __xmm@3f8000003f1c28f63f1c28f63f1c28f6 100bf300     imgui_draw.obj
 0002:0000d310       __xmm@3f8000003f4000003ecccccd3dcccccd 100bf310     imgui_draw.obj
 0002:0000d320       __xmm@3f8000003f6147ae3f051eb83e75c28f 100bf320     imgui_draw.obj
 0002:0000d330       __xmm@3f8000003f7ae1483f07ae143d75c28f 100bf330     imgui_draw.obj
 0002:0000d340       __xmm@3f8000003f7ae1483f170a3d3e851eb8 100bf340     imgui_draw.obj
 0002:0000d350       ??_C@_0P@PJLJBPPP@imgui_impl_dx9@ 100bf350     imgui_impl_dx9.obj
 0002:0000d360       __xmm@0000000000000000000000003f800000 100bf360     imgui_impl_dx9.obj
 0002:0000d370       __xmm@00000000000000003f80000000000000 100bf370     imgui_impl_dx9.obj
 0002:0000d380       ??_C@_0BB@FLGJPPJK@imgui_impl_win32@ 100bf380     imgui_impl_win32.obj
 0002:0000d394       ??_C@_0O@LNFLKCMF@xinput1_4?4dll@ 100bf394     imgui_impl_win32.obj
 0002:0000d3a4       ??_C@_0O@KAFOJCHN@xinput1_3?4dll@ 100bf3a4     imgui_impl_win32.obj
 0002:0000d3b4       ??_C@_0BA@GHGALGFD@xinput9_1_0?4dll@ 100bf3b4     imgui_impl_win32.obj
 0002:0000d3c4       ??_C@_0O@GLACEBNI@xinput1_2?4dll@ 100bf3c4     imgui_impl_win32.obj
 0002:0000d3d4       ??_C@_0O@ONJGDDHG@xinput1_1?4dll@ 100bf3d4     imgui_impl_win32.obj
 0002:0000d3e4       ??_C@_0BG@ELBNFOBA@XInputGetCapabilities@ 100bf3e4     imgui_impl_win32.obj
 0002:0000d3fc       ??_C@_0P@FCCEJHCC@XInputGetState@ 100bf3fc     imgui_impl_win32.obj
 0002:0000d410       ??_C@_1KC@IBLPKDKB@?$AAc?$AA?3?$AA?2?$AAu?$AAs?$AAe?$AAr?$AAs?$AA?2?$AAa?$AAd?$AAm?$AAi?$AAn?$AAi@ 100bf410     imgui_impl_win32.obj
 0002:0000d4b4       ??_C@_1BI@BAIDAECB@?$AAg?$AA_?$AAh?$AAW?$AAn?$AAd?$AA?5?$AA?$CB?$AA?$DN?$AA?5?$AA0@ 100bf4b4     imgui_impl_win32.obj
 0002:0000d4d0       ??_C@_1BGA@FDDGCGIF@?$AAi?$AAo?$AA?4?$AAF?$AAo?$AAn?$AAt?$AAs?$AA?9?$AA?$DO?$AAI?$AAs?$AAB?$AAu?$AAi@ 100bf4d0     imgui_impl_win32.obj
 0002:0000d630       __real@46c2ac00            100bf630     imgui_impl_win32.obj
 0002:0000d634       __real@c6c2ac00            100bf634     imgui_impl_win32.obj
 0002:0000d638       __real@c6c2ae00            100bf638     imgui_impl_win32.obj
 0002:0000d640       ??_C@_1JK@BPCKBEDG@?$AAc?$AA?3?$AA?2?$AAu?$AAs?$AAe?$AAr?$AAs?$AA?2?$AAa?$AAd?$AAm?$AAi?$AAn?$AAi@ 100bf640     imgui_tables.obj
 0002:0000d6dc       ??_C@_01DNKMNLPK@?$HM@     100bf6dc     imgui_tables.obj
 0002:0000d6e0       ??_C@_09BDLBIGPI@0x?$CF08X?0?$CFd@ 100bf6e0     imgui_tables.obj
 0002:0000d6ec       ??_C@_0M@LAOOHBLO@RefScale?$DN?$CFf@ 100bf6ec     imgui_tables.obj
 0002:0000d6f8       ??_C@_0M@JOECNJOM@Column?5?$CFd?$CFn@ 100bf6f8     imgui_tables.obj
 0002:0000d704       ??_C@_0BA@KAIOJKEL@UserID?$DN0x?$CF08X?$CFn@ 100bf704     imgui_tables.obj
 0002:0000d714       ??_C@_0L@LJLKPCDP@Width?$DN?$CFd?$CFn@ 100bf714     imgui_tables.obj
 0002:0000d720       ??_C@_0M@IJODOCHC@Weight?$DN?$CFf?$CFn@ 100bf720     imgui_tables.obj
 0002:0000d72c       ??_C@_0N@EKALHFOF@Visible?$DN?$CFd?$CFn@ 100bf72c     imgui_tables.obj
 0002:0000d73c       ??_C@_0L@BHOFPJL@Order?$DN?$CFd?$CFn@ 100bf73c     imgui_tables.obj
 0002:0000d748       ??_C@_0M@KGHCDDIO@Sort?$DN?$CFd?$CFc?$CFn@ 100bf748     imgui_tables.obj
 0002:0000d754       ??_C@_0BB@PGHPBJD@?$FL?$CFs?$FN?$FL0x?$CF08X?0?$CFd?$FN?6@ 100bf754     imgui_tables.obj
 0002:0000d768       ??_C@_0N@NHEEPCEH@RefScale?$DN?$CFg?6@ 100bf768     imgui_tables.obj
 0002:0000d778       ??_C@_0M@JLNIJDCE@Column?5?$CF?92d@ 100bf778     imgui_tables.obj
 0002:0000d784       ??_C@_0N@PGBEGIHP@?5UserID?$DN?$CF08X@ 100bf784     imgui_tables.obj
 0002:0000d794       ??_C@_0N@MFKBBKPH@?5Weight?$DN?$CF?44f@ 100bf794     imgui_tables.obj
 0002:0000d7a4       ??_C@_09PBOBBCAP@?5Width?$DN?$CFd@ 100bf7a4     imgui_tables.obj
 0002:0000d7b0       ??_C@_0M@CIPDPODB@?5Visible?$DN?$CFd@ 100bf7b0     imgui_tables.obj
 0002:0000d7bc       ??_C@_09CFPCIBAG@?5Order?$DN?$CFd@ 100bf7bc     imgui_tables.obj
 0002:0000d7c8       ??_C@_0L@EAJILIBD@?5Sort?$DN?$CFd?$CFc@ 100bf7c8     imgui_tables.obj
 0002:0000d7d8       ??_C@_1EA@HDPGNILG@?$AAt?$AAa?$AAb?$AAl?$AAe?$AA?9?$AA?$DO?$AAM?$AAe?$AAm?$AAo?$AAr?$AAy?$AAC?$AAo@ 100bf7d8     imgui_tables.obj
 0002:0000d818       ??_C@_1CC@HNMGCLDB@?$AAc?$AAo?$AAl?$AAu?$AAm?$AAn?$AA_?$AAi?$AAn?$AAd?$AAe?$AAx?$AA?5?$AA?$DO?$AA?5@ 100bf818     imgui_tables.obj
 0002:0000d840       ??_C@_1GE@CFLLPKGA@?$AAg?$AA?4?$AAA?$AAc?$AAt?$AAi?$AAv?$AAe?$AAI?$AAd?$AA?5?$AA?$DN?$AA?$DN?$AA?5?$AAc@ 100bf840     imgui_tables.obj
 0002:0000d8a8       ??_C@_1EK@FCGFMMCK@?$AAc?$AAo?$AAl?$AAu?$AAm?$AAn?$AA_?$AAi?$AAn?$AAd?$AAe?$AAx?$AA?5?$AA?$DM?$AA?5@ 100bf8a8     imgui_tables.obj
 0002:0000d8f4       ??_C@_1BK@FLGDBJKG@?$AAc?$AAo?$AAl?$AAu?$AAm?$AAn?$AAs?$AA?5?$AA?$CB?$AA?$DN?$AA?5?$AA0@ 100bf8f4     imgui_tables.obj
 0002:0000d910       ??_C@_1FC@BIEMKEOL@?$AAp?$AA?5?$AA?$DO?$AA?$DN?$AA?5?$AAB?$AAu?$AAf?$AA?4?$AAD?$AAa?$AAt?$AAa?$AA?5?$AA?$CG@ 100bf910     imgui_tables.obj
 0002:0000da08       ??_C@_02HJNLAKPP@S8@       100bfa08     imgui_widgets.obj
 0002:0000da0c       ??_C@_02HNFGHGEN@U8@       100bfa0c     imgui_widgets.obj
 0002:0000da10       ??_C@_03KLLGJOHN@S16@      100bfa10     imgui_widgets.obj
 0002:0000da14       ??_C@_03IONNMBKB@U16@      100bfa14     imgui_widgets.obj
 0002:0000da18       ??_C@_03MMFOIPBH@S32@      100bfa18     imgui_widgets.obj
 0002:0000da1c       ??_C@_03OJDFNAML@U32@      100bfa1c     imgui_widgets.obj
 0002:0000da20       ??_C@_03JMMPOKHK@S64@      100bfa20     imgui_widgets.obj
 0002:0000da24       ??_C@_03LJKELFKG@U64@      100bfa24     imgui_widgets.obj
 0002:0000da28       ??_C@_05OINFJHGD@?$CFI64u@ 100bfa28     imgui_widgets.obj
 0002:0000da30       ??_C@_05KNFBNCOH@float@    100bfa30     imgui_widgets.obj
 0002:0000da38       ??_C@_06BNJCAIGJ@double@   100bfa38     imgui_widgets.obj
 0002:0000da40       ??_C@_03DLDNIBIK@?$CFlf@   100bfa40     imgui_widgets.obj
 0002:0000da48       ??_C@_1JM@DODJNANH@?$AAc?$AA?3?$AA?2?$AAu?$AAs?$AAe?$AAr?$AAs?$AA?2?$AAa?$AAd?$AAm?$AAi?$AAn?$AAi@ 100bfa48     imgui_widgets.obj
 0002:0000dae4       ??_C@_1BE@HMGDGFIB@?$AAt?$AAe?$AAx?$AAt?$AA?5?$AA?$CB?$AA?$DN?$AA?5?$AA0@ 100bfae4     imgui_widgets.obj
 0002:0000daf8       ??_C@_1HG@LHACLJHI@?$AAm?$AAo?$AAu?$AAs?$AAe?$AA_?$AAb?$AAu?$AAt?$AAt?$AAo?$AAn?$AA?5?$AA?$DO?$AA?$DN@ 100bfaf8     imgui_widgets.obj
 0002:0000db70       ??_C@_1FC@KJEAANOI@?$AAs?$AAi?$AAz?$AAe?$AA_?$AAa?$AAr?$AAg?$AA?4?$AAx?$AA?5?$AA?$CB?$AA?$DN?$AA?5?$AA0@ 100bfb70     imgui_widgets.obj
 0002:0000dbc4       ??_C@_08ENAFOMOP@?$CDSCROLLX@ 100bfbc4     imgui_widgets.obj
 0002:0000dbd0       ??_C@_08FEBONNKO@?$CDSCROLLY@ 100bfbd0     imgui_widgets.obj
 0002:0000dbdc       ??_C@_1CM@GFPJIOBE@?$AAs?$AAc?$AAr?$AAo?$AAl?$AAl?$AAb?$AAa?$AAr?$AA_?$AAs?$AAi?$AAz?$AAe?$AA?5@ 100bfbdc     imgui_widgets.obj
 0002:0000dc08       ??_C@_1FI@OFJDJLOI@?$AAI?$AAm?$AAM?$AAa?$AAx?$AA?$CI?$AAs?$AAi?$AAz?$AAe?$AA_?$AAc?$AAo?$AAn?$AAt@ 100bfc08     imgui_widgets.obj
 0002:0000dc60       ??_C@_03JDMNMOAD@?$FL?$HO?$FN@ 100bfc60     imgui_widgets.obj
 0002:0000dc64       ??_C@_03JHEALCLB@?$FLx?$FN@ 100bfc64     imgui_widgets.obj
 0002:0000dc68       ??_C@_03PFOPMNLJ@?$FL?5?$FN@ 100bfc68     imgui_widgets.obj
 0002:0000dc6c       ??_C@_01CELHOKLL@?$HN@     100bfc6c     imgui_widgets.obj
 0002:0000dc70       ??_C@_01HCONENDN@?$HL@     100bfc70     imgui_widgets.obj
 0002:0000dc74       ??_C@_09JKJEEIJP@?$CF?4?$CKs?$CF?$CFd?$CFs@ 100bfc74     imgui_widgets.obj
 0002:0000dc80       ??_C@_1GE@PMGCKKHF@?$AAd?$AAa?$AAt?$AAa?$AA_?$AAt?$AAy?$AAp?$AAe?$AA?5?$AA?$DO?$AA?$DN?$AA?5?$AA0?$AA?5@ 100bfc80     imgui_widgets.obj
 0002:0000dce8       ??_C@_1FG@FPDFFFKE@?$AA?$CI?$AAs?$AAi?$AAz?$AAe?$AA_?$AAt?$AA?$CJ?$AA?$CI?$AAf?$AAm?$AAt?$AA_?$AAe?$AAn@ 100bfce8     imgui_widgets.obj
 0002:0000dd40       ??_C@_1BLO@DBPGJKEK@?$AA?$CI?$AAf?$AAl?$AAa?$AAg?$AAs?$AA?5?$AA?$DN?$AA?$DN?$AA?5?$AA1?$AA?5?$AA?$HM?$AA?$HM?$AA?5@ 100bfd40     imgui_widgets.obj
 0002:0000df00       ??_C@_1KC@MGDFLCCP@?$AA?$CK?$AA?$CI?$AAc?$AAo?$AAn?$AAs?$AAt?$AA?5?$AAI?$AAm?$AAS?$AA3?$AA2?$AA?$CK?$AA?$CJ@ 100bff00     imgui_widgets.obj
 0002:0000dfa8       ??_C@_1EO@DMFGPFFK@?$AA?$CK?$AA?$CI?$AAc?$AAo?$AAn?$AAs?$AAt?$AA?5?$AAI?$AAm?$AAU?$AA3?$AA2?$AA?$CK?$AA?$CJ@ 100bffa8     imgui_widgets.obj
 0002:0000dff8       ??_C@_1KC@IBFLFJE@?$AA?$CK?$AA?$CI?$AAc?$AAo?$AAn?$AAs?$AAt?$AA?5?$AAI?$AAm?$AAS?$AA6?$AA4?$AA?$CK?$AA?$CJ@ 100bfff8     imgui_widgets.obj
 0002:0000e0a0       ??_C@_1EO@JNOADGHA@?$AA?$CK?$AA?$CI?$AAc?$AAo?$AAn?$AAs?$AAt?$AA?5?$AAI?$AAm?$AAU?$AA6?$AA4?$AA?$CK?$AA?$CJ@ 100c00a0     imgui_widgets.obj
 0002:0000e0f0       ??_C@_1MI@EKJKCIKJ@?$AA?$CK?$AA?$CI?$AAc?$AAo?$AAn?$AAs?$AAt?$AA?5?$AAf?$AAl?$AAo?$AAa?$AAt?$AA?$CK?$AA?$CJ@ 100c00f0     imgui_widgets.obj
 0002:0000e1b8       ??_C@_1OI@EDKIIBCG@?$AA?$CK?$AA?$CI?$AAc?$AAo?$AAn?$AAs?$AAt?$AA?5?$AAd?$AAo?$AAu?$AAb?$AAl?$AAe?$AA?$CK@ 100c01b8     imgui_widgets.obj
 0002:0000e2a0       ??_C@_1CC@LLIJAMKA@?$AAg?$AA?4?$AAA?$AAc?$AAt?$AAi?$AAv?$AAe?$AAI?$AAd?$AA?5?$AA?$DN?$AA?$DN?$AA?5?$AAi@ 100c02a0     imgui_widgets.obj
 0002:0000e2c4       ??_C@_01JOAMLHOP@?9@       100c02c4     imgui_widgets.obj
 0002:0000e2c8       ??_C@_1CA@MNHDBBDP@?$AAp?$AAo?$AAs?$AA?5?$AA?$DM?$AA?$DN?$AA?5?$AAt?$AAe?$AAx?$AAt?$AA_?$AAl?$AAe?$AAn@ 100c02c8     imgui_widgets.obj
 0002:0000e2e8       ??_C@_1DG@IEAPMEMO@?$AAt?$AAe?$AAx?$AAt?$AA_?$AAl?$AAe?$AAn?$AA?5?$AA?$DM?$AA?5?$AAo?$AAb?$AAj?$AA?9@ 100c02e8     imgui_widgets.obj
 0002:0000e320       ??_C@_1JK@OMAHMDN@?$AAc?$AA?3?$AA?2?$AAu?$AAs?$AAe?$AAr?$AAs?$AA?2?$AAa?$AAd?$AAm?$AAi?$AAn?$AAi@ 100c0320     imgui_widgets.obj
 0002:0000e3c0       ??_C@_1HI@OHEJKGLD@?$AA?$CI?$AA?$CI?$AAc?$AAh?$AAa?$AAr?$AA?$CK?$AA?$CJ?$AA?$CI?$AAs?$AAt?$AAa?$AAt?$AAe?$AA?9@ 100c03c0     imgui_widgets.obj
 0002:0000e438       ??_C@_1JE@JEJNCKKO@?$AA?$CI?$AA?$CI?$AAc?$AAh?$AAa?$AAr?$AA?$CK?$AA?$CJ?$AA?$CI?$AAs?$AAt?$AAa?$AAt?$AAe?$AA?9@ 100c0438     imgui_widgets.obj
 0002:0000e4d0       ??_C@_1LA@GNNDJIHJ@?$AAi?$AAn?$AAp?$AAu?$AAt?$AA_?$AAs?$AAo?$AAu?$AAr?$AAc?$AAe?$AA?5?$AA?$DN?$AA?$DN@ 100c04d0     imgui_widgets.obj
 0002:0000e580       ??_C@_1DE@KCJLPEOI@?$AAb?$AAu?$AAf?$AA?5?$AA?$CB?$AA?$DN?$AA?5?$AA0?$AA?5?$AA?$CG?$AA?$CG?$AA?5?$AAb?$AAu?$AAf@ 100c0580     imgui_widgets.obj
 0002:0000e5b8       ??_C@_1LI@BDNHGOFF@?$AA?$CB?$AA?$CI?$AA?$CI?$AAf?$AAl?$AAa?$AAg?$AAs?$AA?5?$AA?$CG?$AA?5?$AAI?$AAm?$AAG?$AAu@ 100c05b8     imgui_widgets.obj
 0002:0000e670       ??_C@_1MG@MGOPIKJM@?$AA?$CB?$AA?$CI?$AA?$CI?$AAf?$AAl?$AAa?$AAg?$AAs?$AA?5?$AA?$CG?$AA?5?$AAI?$AAm?$AAG?$AAu@ 100c0670     imgui_widgets.obj
 0002:0000e738       ??_C@_1BM@CBGPMFEC@?$AAc?$AAa?$AAl?$AAl?$AAb?$AAa?$AAc?$AAk?$AA?5?$AA?$CB?$AA?$DN?$AA?5?$AA0@ 100c0738     imgui_widgets.obj
 0002:0000e754       ??_C@_1DC@CMKEKNGP@?$AAs?$AAt?$AAa?$AAt?$AAe?$AA?5?$AA?$CG?$AA?$CG?$AA?5?$AAs?$AAt?$AAa?$AAt?$AAe?$AA?9@ 100c0754     imgui_widgets.obj
 0002:0000e788       ??_C@_1NI@EFFIGGBI@?$AAp?$AAa?$AAs?$AAs?$AAw?$AAo?$AAr?$AAd?$AA_?$AAf?$AAo?$AAn?$AAt?$AA?9?$AA?$DO@ 100c0788     imgui_widgets.obj
 0002:0000e860       ??_C@_1BG@FOPGMADN@?$AAs?$AAt?$AAa?$AAt?$AAe?$AA?5?$AA?$CB?$AA?$DN?$AA?5?$AA0@ 100c0860     imgui_widgets.obj
 0002:0000e878       ??_C@_1OC@MAFKNLH@?$AAi?$AAo?$AA?4?$AAK?$AAe?$AAy?$AAM?$AAo?$AAd?$AAs?$AA?5?$AA?$DN?$AA?$DN?$AA?5?$AAG@ 100c0878     imgui_widgets.obj
 0002:0000e960       ??_C@_1EO@GEAEFBFI@?$AAc?$AAa?$AAl?$AAl?$AAb?$AAa?$AAc?$AAk?$AA_?$AAd?$AAa?$AAt?$AAa?$AA?4?$AAB@ 100c0960     imgui_widgets.obj
 0002:0000e9b0       ??_C@_1FK@GDPCIOA@?$AAc?$AAa?$AAl?$AAl?$AAb?$AAa?$AAc?$AAk?$AA_?$AAd?$AAa?$AAt?$AAa?$AA?4?$AAB@ 100c09b0     imgui_widgets.obj
 0002:0000ea0c       ??_C@_1DK@HOPDKFNI@?$AAc?$AAa?$AAl?$AAl?$AAb?$AAa?$AAc?$AAk?$AA_?$AAd?$AAa?$AAt?$AAa?$AA?4?$AAF@ 100c0a0c     imgui_widgets.obj
 0002:0000ea48       ??_C@_1HG@EHLBBEIB@?$AAc?$AAa?$AAl?$AAl?$AAb?$AAa?$AAc?$AAk?$AA_?$AAd?$AAa?$AAt?$AAa?$AA?4?$AAB@ 100c0a48     imgui_widgets.obj
 0002:0000eac0       ??_C@_1DG@CHDFECEK@?$AAa?$AAp?$AAp?$AAl?$AAy?$AA_?$AAn?$AAe?$AAw?$AA_?$AAt?$AAe?$AAx?$AAt?$AA_@ 100c0ac0     imgui_widgets.obj
 0002:0000eaf8       ??_C@_1EE@MOOHJKEO@?$AAa?$AAp?$AAp?$AAl?$AAy?$AA_?$AAn?$AAe?$AAw?$AA_?$AAt?$AAe?$AAx?$AAt?$AA_@ 100c0af8     imgui_widgets.obj
 0002:0000eb3c       ??_C@_04LOAJBDKD@true@     100c0b3c     imgui_widgets.obj
 0002:0000eb44       ??_C@_05LAPONLG@false@     100c0b44     imgui_widgets.obj
 0002:0000eb50       ??_C@_1FO@NFEGNMHD@?$AAc?$AAo?$AAu?$AAn?$AAt?$AA?5?$AA?$DN?$AA?$DN?$AA?5?$AA?$CI?$AA?$CI?$AAi?$AAn?$AAt?$AA?$CJ@ 100c0b50     imgui_widgets.obj
 0002:0000ebb0       __real@3f350481            100c0bb0     imgui_widgets.obj
 0002:0000ebb8       __real@3fb99999a0000000    100c0bb8     imgui_widgets.obj
 0002:0000ebc0       __real@3ff3333340000000    100c0bc0     imgui_widgets.obj
 0002:0000ebc8       __real@4059000000000000    100c0bc8     imgui_widgets.obj
 0002:0000ebd0       __real@434d0000            100c0bd0     imgui_widgets.obj
 0002:0000ebd8       __real@43e0000000000000    100c0bd8     imgui_widgets.obj
 0002:0000ebe0       __real@7effffff            100c0be0     imgui_widgets.obj
 0002:0000ebe8       __real@7fdfffffffffffff    100c0be8     imgui_widgets.obj
 0002:0000ebf0       __real@bfe0000000000000    100c0bf0     imgui_widgets.obj
 0002:0000ebf8       __real@c059000000000000    100c0bf8     imgui_widgets.obj
 0002:0000ec00       __real@c2c80000            100c0c00     imgui_widgets.obj
 0002:0000ec04       __real@feffffff            100c0c04     imgui_widgets.obj
 0002:0000ec08       __real@ffdfffffffffffff    100c0c08     imgui_widgets.obj
 0002:0000ec10       __xmm@3e5cdcde3f3ebebf3f1292933ee0e0e2 100c0c10     imgui_widgets.obj
 0002:0000ec20       __xmm@3ec8c8ca3f3ebebf3f1292933ee0e0e2 100c0c20     imgui_widgets.obj
 0002:0000ec30       __xmm@3f2aaaab3f2aaaab3f2aaaab3f2aaaab 100c0c30     imgui_widgets.obj
 0002:0000ec40       __xmm@3f3333333f31b1b23f31b1b23f31b1b2 100c0c40     imgui_widgets.obj
 0002:0000ec50       __xmm@3f4dcdcf3f2aaaab3f2aaaab3f2aaaab 100c0c50     imgui_widgets.obj
 0002:0000ec60       __xmm@3f5cdcde3f7afafc3f7afafc3f7afafc 100c0c60     imgui_widgets.obj
 0002:0000ec70       __xmm@3f8000003e70f0f23e70f0f23e70f0f2 100c0c70     imgui_widgets.obj
 0002:0000ec80       __xmm@3f8000003f34b4b53f0888893eccccce 100c0c80     imgui_widgets.obj
 0002:0000ec90       __xmm@3f8000003f3ebebf3f1292933ee0e0e2 100c0c90     imgui_widgets.obj
 0002:0000eca0       __xmm@80000000000000008000000000000000 100c0ca0     imgui_widgets.obj
 0002:0000ecb0       ??_C@_0P@DHHNACEP@BASS_SetConfig@ 100c0cb0     sounds.obj
 0002:0000ecc0       ??_C@_0BA@EBCJDLMI@BASS_GetVersion@ 100c0cc0     sounds.obj
 0002:0000ecd0       ??_C@_09PJNABMCI@BASS_Init@ 100c0cd0     sounds.obj
 0002:0000ecdc       ??_C@_0L@DHDLDOJH@BASS_Start@ 100c0cdc     sounds.obj
 0002:0000ece8       ??_C@_0BF@LMOPKIBC@BASS_StreamCreateURL@ 100c0ce8     sounds.obj
 0002:0000ed00       ??_C@_0BA@OJEHGEGL@BASS_StreamFree@ 100c0d00     sounds.obj
 0002:0000ed10       ??_C@_0BL@KKAHNALC@BASS_StreamGetFilePosition@ 100c0d10     sounds.obj
 0002:0000ed2c       ??_C@_0BE@CALJPCCB@BASS_ChannelGetTags@ 100c0d2c     sounds.obj
 0002:0000ed40       ??_C@_0BB@EPLEMDGE@BASS_ChannelPlay@ 100c0d40     sounds.obj
 0002:0000ed54       ??_C@_0BJ@FDHCPAHI@BASS_ChannelSetAttribute@ 100c0d54     sounds.obj
 0002:0000ed70       ??_C@_0BE@LKNGEHEO@BASS_ChannelSetSync@ 100c0d70     sounds.obj
 0002:0000ed84       ??_C@_0O@IMCFLAMG@StreamTitle?$DN?8@ 100c0d84     sounds.obj
 0002:0000ed94       ??_C@_02BAOJJLA@?8?$DL@    100c0d94     sounds.obj
 0002:0000ed98       ??_C@_07LJGAJMBK@artist?$DN@ 100c0d98     sounds.obj
 0002:0000eda0       ??_C@_06MBJMFOK@title?$DN@ 100c0da0     sounds.obj
 0002:0000eda8       ??_C@_07FCJAGJJB@?$CFs?5?9?5?$CFs@ 100c0da8     sounds.obj
 0002:0000edb0       ??_C@_09HNEJBPAO@icy?9name?3@ 100c0db0     sounds.obj
 0002:0000edbc       ??_C@_0M@OJNBDFGB@icy?5?9?5name?3@ 100c0dbc     sounds.obj
 0002:0000edc8       ??_C@_08OBPABDHD@icy?9url?3@ 100c0dc8     sounds.obj
 0002:0000edd4       ??_C@_0M@GPHHNPJJ@playing?4?4?4?6@ 100c0dd4     sounds.obj
 0002:0000ede0       ??_C@_0M@NGOIHCMO@C?3?2bass?4dll@ 100c0de0     sounds.obj
 0002:0000edf0       __xmm@080940000b0a040f42080943000b0a04 100c0df0     sounds.obj
 0002:0000ee00       __xmm@0c4e51460d4f440c475143404d4c4a41 100c0e00     sounds.obj
 0002:0000ee10       __xmm@0e0c0c40555f5c401d0c1f050e1e1918 100c0e10     sounds.obj
 0002:0000ee20       __xmm@0e1255171c540a0f15081d57180e5417 100c0e20     sounds.obj
 0002:0000ee30       __xmm@0f431e000c081f191e4242571d191905 100c0e30     sounds.obj
 0002:0000ee40       __xmm@120116051c1f1a5c16175d1c1a171201 100c0e40     sounds.obj
 0002:0000ee50       __xmm@16051c1f1a5d0404045c5c490307071b 100c0e50     sounds.obj
 0002:0000ee60       __xmm@1b1f080e0954490a175555400a0e0e12 100c0e60     sounds.obj
 0002:0000ee70       __xmm@272864262d653b3e24392c66293f6526 100c0e70     sounds.obj
 0002:0000ee80       __xmm@2a2e393f3865783b266464713b3f3f23 100c0e80     sounds.obj
 0002:0000ee90       __xmm@46425553540914574a08081d5753534f 100c0e90     sounds.obj
 0002:0000eea0       __xmm@47560c4c4756514b4e0d0d185256564a 100c0ea0     sounds.obj
 0002:0000eeb0       __xmm@484a1d165e041912485f5f4a00040418 100c0eb0     sounds.obj
 0002:0000eec0       __xmm@5353084a410957524855400a4553094a 100c0ec0     sounds.obj
 0002:0000eed0       __xmm@59535b574a164f4f4f171702484c4c50 100c0ed0     sounds.obj
 0002:0000eee0       __xmm@5c594a5a5d4f175d5c165d56565d4c56 100c0ee0     sounds.obj
 0002:0000eef0       __xmm@5d4c5459174b545d565659505b175751 100c0ef0     sounds.obj
 0002:0000ef00       ??_C@_0P@PMINAGJ@BASS_SetVolume@ 100c0f00     main.obj
 0002:0000ef10       ??_C@_02CHHAKFFB@w?$CL@    100c0f10     main.obj
 0002:0000ef14       ??_C@_07GPDNMNG@CONOUT$@   100c0f14     main.obj
 0002:0000ef1c       ??_C@_0O@LOBDMAOA@?$FL?$HO?$FN?5chadhook?6@ 100c0f1c     main.obj
 0002:0000ef2c       ??_C@_0BC@LLHFCENE@serverbrowser?4dll@ 100c0f2c     main.obj
 0002:0000ef40       ??_C@_0BK@KAGCHPAH@?$FL?$HO?$FN?5welcome?5to?5chadhook?$CB?6@ 100c0f40     main.obj
 0002:0000ef60       ??_C@_0FI@OPKLMKIA@https?3?1?1cdn?4discordapp?4com?1atta@ 100c0f60     main.obj
 0002:0000efb8       ??_C@_0N@FJKJPDKL@C?3?2sound?4mp3@ 100c0fb8     main.obj
 0002:0000efc8       ??_C@_0N@BKFLDOHJ@C?3?2museo?4ttf@ 100c0fc8     main.obj
 0002:0000efd8       ??_C@_05EGLAEID@?$CD?$CDGUI@ 100c0fd8     main.obj
 0002:0000efe0       ??_C@_04KNIGEGGI@Rage@     100c0fe0     main.obj
 0002:0000efe8       ??_C@_07GNHLELCG@Visuals@  100c0fe8     main.obj
 0002:0000eff0       ??_C@_04MHPHMCPO@Misc@     100c0ff0     main.obj
 0002:0000eff8       ??_C@_06LLCHJONG@Config@   100c0ff8     main.obj
 0002:0000f000       ??_C@_06FHEBLMEF@Aimbot@   100c1000     main.obj
 0002:0000f008       ??_C@_0O@JFHAEOHP@Master?5Switch@ 100c1008     main.obj
 0002:0000f018       ??_C@_0BJ@OKGPLAIM@Ignore?5limbs?5when?5moving@ 100c1018     main.obj
 0002:0000f034       ??_C@_0M@LGKINCLF@Auto?5Crouch@ 100c1034     main.obj
 0002:0000f040       ??_C@_08ODLBHCGJ@Autostop@ 100c1040     main.obj
 0002:0000f04c       ??_C@_0CC@EBHEGBGF@Damage?5to?5trigger?$CD?$CDtrigger?5dama@ 100c104c     main.obj
 0002:0000f070       ??_C@_05BBOGGNLJ@Other@    100c1070     main.obj
 0002:0000f078       ??_C@_01NOFIACDB@w@        100c1078     main.obj
 0002:0000f07c       ??_C@_0BD@PJONJODE@ight?5imma?5head?5out@ 100c107c     main.obj
 0002:0000f090       ??_C@_0M@HDNAJOMD@C?3?2Bameware@ 100c1090     main.obj
 0002:0000f09c       ??_C@_0BB@LGDBHGJI@C?3?2Bameware?2Logs@ 100c109c     main.obj
 0002:0000f0b0       ??_C@_0BE@ICDACDDL@C?3?2Bameware?2Configs@ 100c10b0     main.obj
 0002:0000f0c4       ??_C@_0BG@HHLCLDGI@C?3?2Bameware?2Resources@ 100c10c4     main.obj
 0002:0000f0dc       ??_C@_0BM@PPAAOHJA@C?3?2Bameware?2Resources?2Fonts@ 100c10dc     main.obj
 0002:0000f0f8       ??_C@_09OOFOPABP@DETACHING@ 100c10f8     main.obj
 0002:0000f104       __real@43e60000            100c1104     main.obj
 0002:0000f108       __real@441b0000            100c1108     main.obj
 0002:0000f110       __xmm@3f8000003dc8c8ca3dc8c8ca3dc8c8ca 100c1110     main.obj
 0002:0000f120       ??_C@_04HDOCAJNK@?$CFs?$CFs@ 100c1120     Menu.obj
 0002:0000f128       ??_C@_0BB@LJBMMFFO@cl_mouseenable?51@ 100c1128     Menu.obj
 0002:0000f13c       ??_C@_08MODHACIL@chadhook@ 100c113c     Menu.obj
 0002:0000f148       ??_C@_0BI@BLDCCCKN@Enabled?$CD?$CDaimbot?5enabled@ 100c1148     Menu.obj
 0002:0000f160       ??_C@_0P@LEJBADAA@Prefer?5bodyaim@ 100c1160     Menu.obj
 0002:0000f170       ??_C@_06KMEJCCGM@Ignore@   100c1170     Menu.obj
 0002:0000f178       ??_C@_06PAMAEABB@?$CD?$CDhead@ 100c1178     Menu.obj
 0002:0000f180       ??_C@_0EB@GJNOHGHN@The?5damage?5needed?5to?5be?5able?5to@ 100c1180     Menu.obj
 0002:0000f1c4       ??_C@_03EMOFKE@dmg@        100c11c4     Menu.obj
 0002:0000f1c8       ??_C@_0BE@BOODMOIC@Bodyaim?5if?5x?5damage@ 100c11c8     Menu.obj
 0002:0000f1dc       ??_C@_0L@MCPKNIPF@Min?5damage@ 100c11dc     Menu.obj
 0002:0000f1e8       ??_C@_0BE@CMLCGGEA@Min?5autowall?5damage@ 100c11e8     Menu.obj
 0002:0000f1fc       ??_C@_01FGNFDNOH@?$CF@     100c11fc     Menu.obj
 0002:0000f200       ??_C@_0M@MNKHPMOK@Point?9scale@ 100c1200     Menu.obj
 0002:0000f20c       ??_C@_0BB@GGHICIDO@Body?5point?9scale@ 100c120c     Menu.obj
 0002:0000f220       ??_C@_0BG@MIJBAFNH@Duel?5body?5point?9scale@ 100c1220     Menu.obj
 0002:0000f238       ??_C@_0BA@GIBLNMEH@Delay?5shot?5type@ 100c1238     Menu.obj
 0002:0000f248       ??_C@_01LKDEMHDF@s@        100c1248     Menu.obj
 0002:0000f24c       ??_C@_0L@FFFFNMAN@Delay?5shot@ 100c124c     Menu.obj
 0002:0000f258       ??_C@_0N@JMKPPJDO@Fake?5latency@ 100c1258     Menu.obj
 0002:0000f268       ??_C@_02EEKDFEKL@ms@       100c1268     Menu.obj
 0002:0000f26c       ??_C@_0BB@ODENIDEL@?$CD?$CDlatency?5amount@ 100c126c     Menu.obj
 0002:0000f280       ??_C@_0O@FOPAMPBJ@Accuracy?5type@ 100c1280     Menu.obj
 0002:0000f290       ??_C@_0BI@GGEINMGN@?$CD?$CDaccuracy?5value?5aimbot@ 100c1290     Menu.obj
 0002:0000f2a8       ??_C@_0P@KDBDPFHM@Hitscan?5groups@ 100c12a8     Menu.obj
 0002:0000f2b8       ??_C@_0BK@DCLKCNFC@Hitbox?5groups?5to?5hitscan?4@ 100c12b8     Menu.obj
 0002:0000f2d4       ??_C@_0BK@JBALNDHA@Hitscan?5multipoint?5groups@ 100c12d4     Menu.obj
 0002:0000f2f0       ??_C@_0DA@HMCPMIMB@Hitbox?5groups?5to?5hitscan?0?5will?5@ 100c12f0     Menu.obj
 0002:0000f320       ??_C@_08PDMHKKA@Anti?9aim@ 100c1320     Menu.obj
 0002:0000f32c       ??_C@_0BO@OIHGOMHK@At?5target?$CD?$CDstanding?5at?5target@ 100c132c     Menu.obj
 0002:0000f34c       ??_C@_0BG@DBAOCCKP@Pitch?$CD?$CDstanding?5pitch@ 100c134c     Menu.obj
 0002:0000f364       ??_C@_04PHKLBGME@Real@     100c1364     Menu.obj
 0002:0000f36c       ??_C@_0BH@DLLNGEDH@Yaw?$CD?$CDstanding?5real?5yaw@ 100c136c     Menu.obj
 0002:0000f384       ??_C@_01FKODEDLI@?$LA@     100c1384     Menu.obj
 0002:0000f388       ??_C@_0BN@LDOCPJDC@Offset?$CD?$CDstanding?5real?5offset@ 100c1388     Menu.obj
 0002:0000f3a8       ??_C@_0BO@GMJBNPDF@LBY?5delta?$CD?$CDstanding?5lby?5delta@ 100c13a8     Menu.obj
 0002:0000f3c8       ??_C@_0CJ@KNEMHBJK@Jitter?5range?$CD?$CDstanding?5real?5jit@ 100c13c8     Menu.obj
 0002:0000f3f4       ??_C@_0CF@ECFCFGCI@Spin?5speed?$CD?$CDstanding?5real?5spin?5@ 100c13f4     Menu.obj
 0002:0000f41c       ??_C@_04DBPMIOEO@Fake@     100c141c     Menu.obj
 0002:0000f424       ??_C@_0BH@MNKEHHDG@Yaw?$CD?$CDstanding?5fake?5yaw@ 100c1424     Menu.obj
 0002:0000f43c       ??_C@_0BN@LHKEHKKB@Offset?$CD?$CDstanding?5fake?5offset@ 100c143c     Menu.obj
 0002:0000f45c       ??_C@_0CJ@HJIOHAAI@Jitter?5range?$CD?$CDstanding?5fake?5jit@ 100c145c     Menu.obj
 0002:0000f488       ??_C@_0BM@LCDMKBME@At?5target?$CD?$CDmoving?5at?5target@ 100c1488     Menu.obj
 0002:0000f4a4       ??_C@_0BE@CFCNLDPD@Pitch?$CD?$CDmoving?5pitch@ 100c14a4     Menu.obj
 0002:0000f4b8       ??_C@_0BF@KJCPBPNL@Yaw?$CD?$CDmoving?5real?5yaw@ 100c14b8     Menu.obj
 0002:0000f4d0       ??_C@_0BL@MJLGGLI@Offset?$CD?$CDmoving?5real?5offset@ 100c14d0     Menu.obj
 0002:0000f4ec       ??_C@_0CH@LBOBBGGG@Jitter?5range?$CD?$CDmoving?5real?5jitte@ 100c14ec     Menu.obj
 0002:0000f514       ??_C@_0CD@PPKOFHKA@Spin?5speed?$CD?$CDmoving?5real?5spin?5sp@ 100c1514     Menu.obj
 0002:0000f538       ??_C@_0BF@FPDGAMNK@Yaw?$CD?$CDmoving?5fake?5yaw@ 100c1538     Menu.obj
 0002:0000f550       ??_C@_0BL@INNOFCL@Offset?$CD?$CDmoving?5fake?5offset@ 100c1550     Menu.obj
 0002:0000f56c       ??_C@_0CH@GFCDBHPE@Jitter?5range?$CD?$CDmoving?5fake?5jitte@ 100c156c     Menu.obj
 0002:0000f594       ??_C@_0BN@LMCOBCEJ@At?5target?$CD?$CDjumping?5at?5target@ 100c1594     Menu.obj
 0002:0000f5b4       ??_C@_0BF@PJNBLJPM@Pitch?$CD?$CDjumping?5pitch@ 100c15b4     Menu.obj
 0002:0000f5cc       ??_C@_0BG@FOEJCIFL@Yaw?$CD?$CDjumping?5real?5yaw@ 100c15cc     Menu.obj
 0002:0000f5e4       ??_C@_0BM@MCPONIDG@Offset?$CD?$CDjumping?5real?5offset@ 100c15e4     Menu.obj
 0002:0000f600       ??_C@_0CI@JCAIAMFO@Jitter?5range?$CD?$CDjumping?5real?5jitt@ 100c1600     Menu.obj
 0002:0000f628       ??_C@_0CE@EFLMAHOC@Spin?5speed?$CD?$CDjumping?5real?5spin?5s@ 100c1628     Menu.obj
 0002:0000f64c       ??_C@_0BG@KIFADLFK@Yaw?$CD?$CDjumping?5fake?5yaw@ 100c164c     Menu.obj
 0002:0000f664       ??_C@_0BM@MGLIFLKF@Offset?$CD?$CDjumping?5fake?5offset@ 100c1664     Menu.obj
 0002:0000f680       ??_C@_0CI@EGMKANMM@Jitter?5range?$CD?$CDjumping?5fake?5jitt@ 100c1680     Menu.obj
 0002:0000f6a8       ??_C@_0M@NFNOKPED@Edging?5type@ 100c16a8     Menu.obj
 0002:0000f6b4       ??_C@_09HBBKONPH@LBY?5delta@ 100c16b4     Menu.obj
 0002:0000f6c0       ??_C@_0N@CIJEEHCA@Jitter?5range@ 100c16c0     Menu.obj
 0002:0000f6d0       ??_C@_08CHGFFCLN@Standing@ 100c16d0     Menu.obj
 0002:0000f6dc       ??_C@_06OGKEDPBL@Moving@   100c16dc     Menu.obj
 0002:0000f6e4       ??_C@_06GBDKOOAJ@In?9air@  100c16e4     Menu.obj
 0002:0000f6ec       ??_C@_04OFFCAMCD@Test@     100c16ec     Menu.obj
 0002:0000f6f4       ??_C@_0BF@IHPGKCCK@Other?$CD?$CDvisuals?5other@ 100c16f4     Menu.obj
 0002:0000f70c       ??_C@_0M@HKHNBN@Thirdperson@ 100c170c     Menu.obj
 0002:0000f718       ??_C@_0BN@IIMHJLOJ@Enabled?$CD?$CDthirdperson?5enabled@ 100c1718     Menu.obj
 0002:0000f738       ??_C@_0BG@DMFOIMEA@?$CD?$CDthirdperson?5keybind@ 100c1738     Menu.obj
 0002:0000f750       ??_C@_0BP@OKLNIBML@Distance?$CD?$CDthirdperson?5distance@ 100c1750     Menu.obj
 0002:0000f770       ??_C@_0BJ@BAAPKIMG@Angle?$CD?$CDthirdperson?5angle@ 100c1770     Menu.obj
 0002:0000f78c       ??_C@_0BK@JKEAHMN@The?5yaw?5that?5is?5displayed@ 100c178c     Menu.obj
 0002:0000f7a8       ??_C@_0BJ@CMDHFDHE@Misc?$CD?$CDvisuals?5other?5misc@ 100c17a8     Menu.obj
 0002:0000f7c4       ??_C@_0BA@KKMFPBCC@Fov?$CD?$CDvisual?5fov@ 100c17c4     Menu.obj
 0002:0000f7d4       ??_C@_0BE@KNADKKAO@Scoped?5transparency@ 100c17d4     Menu.obj
 0002:0000f7e8       ??_C@_0CI@KCNGOMHO@How?5transparent?5you?5are?5while?5s@ 100c17e8     Menu.obj
 0002:0000f810       ??_C@_0BD@EMDFMOID@Autowall?5crosshair@ 100c1810     Menu.obj
 0002:0000f824       ??_C@_0DC@EIIECNJL@Changes?5crosshair?5color?5based?5o@ 100c1824     Menu.obj
 0002:0000f858       ??_C@_0L@OJPGICEN@Hitmarkers@ 100c1858     Menu.obj
 0002:0000f864       ??_C@_0O@IGJHKCFF@Spread?5circle@ 100c1864     Menu.obj
 0002:0000f874       ??_C@_0BG@GHHHCGF@?$CD?$CDspread?5circle?5color@ 100c1874     Menu.obj
 0002:0000f88c       ??_C@_0P@NABECKPL@Bullet?5tracers@ 100c188c     Menu.obj
 0002:0000f89c       ??_C@_0BH@LCJAJOJA@?$CD?$CDbullet?5tracers?5color@ 100c189c     Menu.obj
 0002:0000f8b4       ??_C@_09FADNPJCJ@Snaplines@ 100c18b4     Menu.obj
 0002:0000f8c0       ??_C@_0BC@CINBOAHB@?$CD?$CDsnaplines?5color@ 100c18c0     Menu.obj
 0002:0000f8d4       ??_C@_0BA@GFPPHAMI@Grenade?5tracers@ 100c18d4     Menu.obj
 0002:0000f8e4       ??_C@_0BI@LAACIDPO@?$CD?$CDgrenade?5tracers?5color@ 100c18e4     Menu.obj
 0002:0000f8fc       ??_C@_0BB@LKLANKED@No?5scope?5overlay@ 100c18fc     Menu.obj
 0002:0000f910       ??_C@_0BJ@FAHONIMO@?$CD?$CDno?5scope?5overlay?5color@ 100c1910     Menu.obj
 0002:0000f92c       ??_C@_0CM@HDKCOJGL@World?5Modifications?$CD?$CDvisuals?5wo@ 100c192c     Menu.obj
 0002:0000f958       ??_C@_0BI@PKJJDOLC@Skybox?$CD?$CDskybox?5combobox@ 100c1958     Menu.obj
 0002:0000f970       ??_C@_0BK@DACHCLJG@?$CD?$CDskybox?5color?5modulation@ 100c1970     Menu.obj
 0002:0000f98c       ??_C@_0BO@MIKPDAGF@World?$CD?$CDworld?5color?5modulation@ 100c198c     Menu.obj
 0002:0000f9ac       ??_C@_0CE@CEDBPMGK@Props?$CD?$CDstatic?5prop?5color?5modula@ 100c19ac     Menu.obj
 0002:0000f9d0       ??_C@_0N@JFENBDEL@World?5Update@ 100c19d0     Menu.obj
 0002:0000f9e0       ??_C@_0BI@ECIALKGO@Backtrack?5visualization@ 100c19e0     Menu.obj
 0002:0000f9f8       ??_C@_0CF@GJPMJEAF@Skeleton?$CD?$CDbacktrack?5skeleton?5en@ 100c19f8     Menu.obj
 0002:0000fa20       ??_C@_0BL@LOEMLPEP@?$CD?$CDbacktrack?5skeleton?5color@ 100c1a20     Menu.obj
 0002:0000fa3c       ??_C@_0BP@JCFLNDO@Chams?$CD?$CDbacktrack?5chams?5enabled@ 100c1a3c     Menu.obj
 0002:0000fa5c       ??_C@_0BI@OICLIEPG@?$CD?$CDbacktrack?5chams?5color@ 100c1a5c     Menu.obj
 0002:0000fa74       ??_C@_0BL@EFHANEEO@Dot?$CD?$CDbacktrack?5dot?5enabled@ 100c1a74     Menu.obj
 0002:0000fa90       ??_C@_0BG@EGFKBJPK@?$CD?$CDbacktrack?5dot?5color@ 100c1a90     Menu.obj
 0002:0000faa8       ??_C@_0BB@GBLFCPBP@ESP?$CD?$CDvisuals?5esp@ 100c1aa8     Menu.obj
 0002:0000fabc       ??_C@_0BB@NACJDMKO@Enemy?$CD?$CDesp?5enemy@ 100c1abc     Menu.obj
 0002:0000fad0       ??_C@_0BL@DDGAGKHA@Box?$CD?$CDenemy?5box?5esp?5enabled@ 100c1ad0     Menu.obj
 0002:0000faec       ??_C@_0BG@NOLNECFN@?$CD?$CDenemy?5box?5esp?5color@ 100c1aec     Menu.obj
 0002:0000fb04       ??_C@_0CF@MPPFGCEB@Skeleton?$CD?$CDenemy?5skeleton?5esp?5en@ 100c1b04     Menu.obj
 0002:0000fb2c       ??_C@_0BL@MPKACLPC@?$CD?$CDenemy?5skeleton?5esp?5color@ 100c1b2c     Menu.obj
 0002:0000fb48       ??_C@_0BF@LEPAOGLJ@Name?$CD?$CDenemy?5esp?5name@ 100c1b48     Menu.obj
 0002:0000fb60       ??_C@_0BH@CFEFGDLB@?$CD?$CDenemy?5name?5esp?5color@ 100c1b60     Menu.obj
 0002:0000fb78       ??_C@_0BJ@JFNLALAI@Weapon?$CD?$CDenemy?5esp?5weapon@ 100c1b78     Menu.obj
 0002:0000fb94       ??_C@_0BJ@DPNJFHID@Health?$CD?$CDenemy?5esp?5health@ 100c1b94     Menu.obj
 0002:0000fbb0       ??_C@_0CH@CNGPHPNL@Resolver?5info?$CD?$CDenemy?5esp?5resolv@ 100c1bb0     Menu.obj
 0002:0000fbd8       ??_C@_0DI@MDKIKLMM@Displays?5what?5the?5player?5is?5cur@ 100c1bd8     Menu.obj
 0002:0000fc10       ??_C@_0P@LMDINBHD@Team?$CD?$CDesp?5team@ 100c1c10     Menu.obj
 0002:0000fc20       ??_C@_0BK@FMHEIFCD@Box?$CD?$CDteam?5box?5esp?5enabled@ 100c1c20     Menu.obj
 0002:0000fc3c       ??_C@_0BF@POPFAOEA@?$CD?$CDteam?5box?5esp?5color@ 100c1c3c     Menu.obj
 0002:0000fc54       ??_C@_0CE@BNFJMJOP@Skeleton?$CD?$CDteam?5skeleton?5esp?5ena@ 100c1c54     Menu.obj
 0002:0000fc78       ??_C@_0BK@GNBPGHJO@?$CD?$CDteam?5skeleton?5esp?5color@ 100c1c78     Menu.obj
 0002:0000fc94       ??_C@_0BE@PBCHAGPD@Name?$CD?$CDteam?5esp?5name@ 100c1c94     Menu.obj
 0002:0000fca8       ??_C@_0BG@EGGDEHCE@?$CD?$CDteam?5name?5esp?5color@ 100c1ca8     Menu.obj
 0002:0000fcc0       ??_C@_0BI@LKKCJMHO@Weapon?$CD?$CDteam?5esp?5weapon@ 100c1cc0     Menu.obj
 0002:0000fcd8       ??_C@_0BI@NICLCDPC@Health?$CD?$CDteam?5esp?5health@ 100c1cd8     Menu.obj
 0002:0000fcf0       ??_C@_0BA@GJPNLCML@Player?5textures@ 100c1cf0     Menu.obj
 0002:0000fd00       ??_C@_0DD@CHLNICCN@Localplayer?$CD?$CDlocalplayer?5player@ 100c1d00     Menu.obj
 0002:0000fd34       ??_C@_0BO@HEJABAJA@Draw?5player?$CD?$CDdraw?5localplayer@ 100c1d34     Menu.obj
 0002:0000fd54       ??_C@_0CD@ILPICKBC@Draw?5chams?$CD?$CDdraw?5chams?5localpla@ 100c1d54     Menu.obj
 0002:0000fd78       ??_C@_0CP@PDAMIOFL@Wireframe?$CD?$CDchams?5localplayer?5wi@ 100c1d78     Menu.obj
 0002:0000fda8       ??_C@_0BK@MLAGNPO@?$CD?$CDlocalplayer?5chams?5color@ 100c1da8     Menu.obj
 0002:0000fdc4       ??_C@_0CB@BIKFDBAI@Draw?5glow?$CD?$CDdraw?5glow?5localplaye@ 100c1dc4     Menu.obj
 0002:0000fde8       ??_C@_0BJ@OBIMNBHK@?$CD?$CDlocalplayer?5glow?5style@ 100c1de8     Menu.obj
 0002:0000fe04       ??_C@_0CG@LNGKFEKD@Fullbloom?$CD?$CDlocalplayer?5glow?5ful@ 100c1e04     Menu.obj
 0002:0000fe2c       ??_C@_0CH@BIIEDBOA@Enemy?$CD?$CDenemy?5player?5textures?5se@ 100c1e2c     Menu.obj
 0002:0000fe54       ??_C@_0BK@FINEMLF@Draw?5player?$CD?$CDdraw?5enemies@ 100c1e54     Menu.obj
 0002:0000fe70       ??_C@_0BN@LMLPDCNO@Draw?5chams?$CD?$CDdraw?5chams?5enemy@ 100c1e70     Menu.obj
 0002:0000fe90       ??_C@_0CJ@LBKFOFGA@Wireframe?$CD?$CDchams?5enemy?5wirefram@ 100c1e90     Menu.obj
 0002:0000febc       ??_C@_0BN@OGCBKOHD@?$CD?$CDenemy?5occluded?5chams?5color@ 100c1ebc     Menu.obj
 0002:0000fedc       ??_C@_0CG@KHNENPKI@Chams?5color?5while?5behind?5walls?$CD@ 100c1edc     Menu.obj
 0002:0000ff04       ??_C@_0BP@NFNOGEDP@?$CD?$CDenemy?5unoccluded?5chams?5color@ 100c1f04     Menu.obj
 0002:0000ff24       ??_C@_0BL@CJOFMEDJ@Draw?5glow?$CD?$CDdraw?5glow?5enemy@ 100c1f24     Menu.obj
 0002:0000ff40       ??_C@_0BD@HAPBDJKK@?$CD?$CDenemy?5glow?5style@ 100c1f40     Menu.obj
 0002:0000ff54       ??_C@_0CA@MCJFDDAO@Fullbloom?$CD?$CDenemy?5glow?5fullbloom@ 100c1f54     Menu.obj
 0002:0000ff74       ??_C@_0CF@MHNPGFAD@Team?$CD?$CDteam?5player?5textures?5sepe@ 100c1f74     Menu.obj
 0002:0000ff9c       ??_C@_0BH@HOEMHCGO@Draw?5player?$CD?$CDdraw?5team@ 100c1f9c     Menu.obj
 0002:0000ffb4       ??_C@_0BM@HNOAJMMG@Draw?5chams?$CD?$CDdraw?5chams?5team@ 100c1fb4     Menu.obj
 0002:0000ffd0       ??_C@_0CI@PBPLOFAM@Wireframe?$CD?$CDchams?5team?5wireframe@ 100c1fd0     Menu.obj
 0002:0000fff8       ??_C@_0BM@FAADCFNM@?$CD?$CDteam?5occluded?5chams?5color@ 100c1ff8     Menu.obj
 0002:00010014       ??_C@_0CF@BHKIJBJD@Chams?5color?5while?5behind?5walls?$CD@ 100c2014     Menu.obj
 0002:0001003c       ??_C@_0BO@IGCLCIJD@?$CD?$CDteam?5unoccluded?5chams?5color@ 100c203c     Menu.obj
 0002:0001005c       ??_C@_0CA@LIILFAGJ@Chams?5color?5while?5visible?$CD?$CDteam@ 100c205c     Menu.obj
 0002:0001007c       ??_C@_0BK@JIFMPJAO@Draw?5glow?$CD?$CDdraw?5glow?5team@ 100c207c     Menu.obj
 0002:00010098       ??_C@_0BC@POJNMEBK@?$CD?$CDteam?5glow?5style@ 100c2098     Menu.obj
 0002:000100ac       ??_C@_0BP@HICOOPGF@Fullbloom?$CD?$CDteam?5glow?5fullbloom@ 100c20ac     Menu.obj
 0002:000100cc       ??_C@_07GLBJHKEK@Configs@  100c20cc     Menu.obj
 0002:000100d4       ??_C@_07HNMLFLME@Ragebot@  100c20d4     Menu.obj
 0002:000100dc       ??_C@_05LPPMJLKK@?4rcfg@   100c20dc     Menu.obj
 0002:000100e4       ??_C@_0BK@PBPJKHNM@?$CD?$CDragebot?5new?5config?5name@ 100c20e4     Menu.obj
 0002:00010100       ??_C@_0N@NBHOGHLP@New?$CD?$CDragebot@ 100c2100     Menu.obj
 0002:00010110       ??_C@_0O@CGOJEOM@?$CD?$CDrage?5config@ 100c2110     Menu.obj
 0002:00010120       ??_C@_0BB@GDMDGNIP@?$CD?$CDragebot?5config@ 100c2120     Menu.obj
 0002:00010134       ??_C@_0BA@CKPPBNLG@Delete?$CD?$CDragebot@ 100c2134     Menu.obj
 0002:00010144       ??_C@_0O@ENMJGKHK@Save?$CD?$CDragebot@ 100c2144     Menu.obj
 0002:00010154       ??_C@_0O@DOAHDFOD@Load?$CD?$CDragebot@ 100c2154     Menu.obj
 0002:00010164       ??_C@_0P@LHLJOMAA@Visuals?5?1?5Misc@ 100c2164     Menu.obj
 0002:00010174       ??_C@_06OLNCNHP@?4vmcfg@   100c2174     Menu.obj
 0002:0001017c       ??_C@_0BP@EGGAMKIM@?$CD?$CDvisuals?1misc?5new?5config?5name@ 100c217c     Menu.obj
 0002:0001019c       ??_C@_09NEKDNHN@New?$CD?$CDmain@ 100c219c     Menu.obj
 0002:000101a8       ??_C@_0O@OAHOEIAP@?$CD?$CDmain?5config@ 100c21a8     Menu.obj
 0002:000101b8       ??_C@_0N@EECHGPBA@Delete?$CD?$CDmain@ 100c21b8     Menu.obj
 0002:000101c8       ??_C@_0L@HBJOEPHN@Save?$CD?$CDmain@ 100c21c8     Menu.obj
 0002:000101d4       ??_C@_0L@FGFCGAOF@Load?$CD?$CDmain@ 100c21d4     Menu.obj
 0002:000101e0       ??_C@_0L@HDJKNMII@Misc?$CD?$CDmisc@ 100c21e0     Menu.obj
 0002:000101ec       ??_C@_0N@KGPHIAJN@Unload?5cheat@ 100c21ec     Menu.obj
 0002:000101fc       ??_C@_0BJ@JJPLKEHP@?$CD?$CDunload?5cheat?5seperator@ 100c21fc     Menu.obj
 0002:00010218       ??_C@_0P@HLFNIDD@Anti?9untrusted@ 100c2218     Menu.obj
 0002:00010228       ??_C@_08DDLGGJIE@No?5flash@ 100c2228     Menu.obj
 0002:00010234       ??_C@_08BKIJCIKK@No?5smoke@ 100c2234     Menu.obj
 0002:00010240       ??_C@_05ELHBHDGK@Radar@    100c2240     Menu.obj
 0002:00010248       ??_C@_04IJMICJMM@Bhop@     100c2248     Menu.obj
 0002:00010250       ??_C@_0N@KEMIDGND@Auto?9strafer@ 100c2250     Menu.obj
 0002:00010260       ??_C@_0O@HKCNGFJM@Auto?9revolver@ 100c2260     Menu.obj
 0002:00010270       ??_C@_0P@COKMIJDG@Circle?5strafer@ 100c2270     Menu.obj
 0002:00010280       ??_C@_08HPOOIHCA@Override@ 100c2280     Menu.obj
 0002:0001028c       ??_C@_08CAKHAMKE@Clan?5tag@ 100c228c     Menu.obj
 0002:00010298       ??_C@_0CC@DPBDEDMJ@Enabled?$CD?$CDclan?5tag?5changer?5enabl@ 100c2298     Menu.obj
 0002:000102bc       ??_C@_0BF@ODMPOCIH@Fake?9lag?5?1?5Fake?9walk@ 100c22bc     Menu.obj
 0002:000102d4       ??_C@_09CEFIJAFP@Fake?9walk@ 100c22d4     Menu.obj
 0002:000102e0       ??_C@_0BD@DNEPMHPO@Key?$CD?$CDfake?9walk?5key@ 100c22e0     Menu.obj
 0002:000102f4       ??_C@_0BH@FHEJEPLC@Speed?$CD?$CDfake?9walk?5speed@ 100c22f4     Menu.obj
 0002:0001030c       ??_C@_0BK@NPJIGBHF@On?5peek?$CD?$CDfakewalk?5on?5peek@ 100c230c     Menu.obj
 0002:00010328       ??_C@_08FCLPEIHG@Fake?9lag@ 100c2328     Menu.obj
 0002:00010334       ??_C@_0CD@KKIFLKEH@Adaptive?$CD?$CDadaptive?5fakelag?5enab@ 100c2334     Menu.obj
 0002:00010358       ??_C@_0CC@LALPPKOF@Ideal?5fakelag?5amount?5when?5jumpi@ 100c2358     Menu.obj
 0002:0001037c       ??_C@_0BJ@FJIMNEKC@On?5peek?$CD?$CDfakelag?5on?5peek@ 100c237c     Menu.obj
 0002:00010398       ??_C@_0BJ@BIJNHKMN@Max?5fakelag?5when?5peeking@ 100c2398     Menu.obj
 0002:000103b4       ??_C@_0BH@PIBCKLAM@Moving?$CD?$CDfakelag?5moving@ 100c23b4     Menu.obj
 0002:000103cc       ??_C@_0BH@GMDNMPHC@In?9air?$CD?$CDfakelag?5in?5air@ 100c23cc     Menu.obj
 0002:000103e4       ??_C@_06CIALMIGC@Sounds@   100c23e4     Menu.obj
 0002:000103ec       ??_C@_0BL@KPAGGHLD@Radio?5volume?$CD?$CDvolume?9music@ 100c23ec     Menu.obj
 0002:00010408       ??_C@_0O@MGKOLFBO@Radio?5channel@ 100c2408     Menu.obj
 0002:00010420       __xmm@412000004180000040c0000041000000 100c2420     Menu.obj
 0002:00010430       __xmm@4160000043160000437a000041200000 100c2430     Menu.obj
 0002:00010440       __xmm@41f00000410000004160000043480000 100c2440     Menu.obj
 0002:00010450       ??_C@_0CI@OMNCKDIP@Failed?5to?5match?5a?5Begin?$CI?$CJ?5with?5@ 100c2450     PPGUI.obj
 0002:00010478       ??_C@_0BL@MLKKEJCG@Not?5inside?5a?5command?5frame@ 100c2478     PPGUI.obj
 0002:00010494       ??_C@_0BP@BDBFDJIJ@BeginWindow?$CI?$CJ?5improperly?5ended@ 100c2494     PPGUI.obj
 0002:000104b4       ??_C@_0CB@MFIGKLPB@BeginGroupbox?$CI?$CJ?5improperly?5ende@ 100c24b4     PPGUI.obj
 0002:000104d8       ??_C@_0BM@NEIMNNNI@Unhandled?5command?5data?5type@ 100c24d8     PPGUI.obj
 0002:000104f4       ??_C@_0BB@MOGOBHAF@list?$DMT?$DO?5too?5long@ 100c24f4     PPGUI.obj
 0002:00010508       ??_C@_01GFHCPBMG@C@        100c2508     PPGUI_Commands.obj
 0002:0001050c       ??_C@_08KHPBBDKI@Groupbox@ 100c250c     PPGUI_Commands.obj
 0002:00010518       ??_C@_06HMOLHLFN@Slider@   100c2518     PPGUI_Commands.obj
 0002:00010520       ??_C@_08IEKDLDLD@Key?5Bind@ 100c2520     PPGUI_Commands.obj
 0002:0001052c       ??_C@_08HGFPEFAH@Combobox@ 100c252c     PPGUI_Commands.obj
 0002:00010538       ??_C@_0BF@FOHFNBPC@Multiselect?5Combobox@ 100c2538     PPGUI_Commands.obj
 0002:00010550       ??_C@_0N@JKIFLNGD@Color?5Picker@ 100c2550     PPGUI_Commands.obj
 0002:00010560       ??_C@_08NANMIELJ@Tool?5Tip@ 100c2560     PPGUI_Commands.obj
 0002:0001056c       ??_C@_07HAPIOJCK@Mouse?53@ 100c256c     PPGUI_Commands.obj
 0002:00010574       ??_C@_07DPLJHPON@Mouse?54@ 100c2574     PPGUI_Commands.obj
 0002:0001057c       ??_C@_07CGKCEOKM@Mouse?55@ 100c257c     PPGUI_Commands.obj
 0002:00010584       ??_C@_07DFGIDBBA@Control@  100c2584     PPGUI_Commands.obj
 0002:0001058c       ??_C@_05CMECKLGA@Shift@    100c258c     PPGUI_Commands.obj
 0002:00010594       ??_C@_0L@BCOPDFIK@Left?5Arrow@ 100c2594     PPGUI_Commands.obj
 0002:000105a0       ??_C@_0M@OJABKOKA@Right?5Arrow@ 100c25a0     PPGUI_Commands.obj
 0002:000105ac       ??_C@_08OHALCGDJ@Up?5Arrow@ 100c25ac     PPGUI_Commands.obj
 0002:000105b8       ??_C@_0L@OJMODPNH@Down?5Arrow@ 100c25b8     PPGUI_Commands.obj
 0002:000105c4       ??_C@_09GGECHFNF@Caps?5Lock@ 100c25c4     PPGUI_Commands.obj
 0002:000105d0       ??_C@_08PNEIMCGO@Numpad?50@ 100c25d0     PPGUI_Commands.obj
 0002:000105dc       ??_C@_08OEFDPDCP@Numpad?51@ 100c25dc     PPGUI_Commands.obj
 0002:000105e8       ??_C@_08MPHOKAOM@Numpad?52@ 100c25e8     PPGUI_Commands.obj
 0002:000105f4       ??_C@_08NGGFJBKN@Numpad?53@ 100c25f4     PPGUI_Commands.obj
 0002:00010600       ??_C@_08JJCEAHGK@Numpad?54@ 100c2600     PPGUI_Commands.obj
 0002:0001060c       ??_C@_08IADPDGCL@Numpad?55@ 100c260c     PPGUI_Commands.obj
 0002:00010618       ??_C@_08KLBCGFOI@Numpad?56@ 100c2618     PPGUI_Commands.obj
 0002:00010624       ??_C@_08LCAJFEKJ@Numpad?57@ 100c2624     PPGUI_Commands.obj
 0002:00010630       ??_C@_08DFJBEIGG@Numpad?58@ 100c2630     PPGUI_Commands.obj
 0002:0001063c       ??_C@_08CMIKHJCH@Numpad?59@ 100c263c     PPGUI_Commands.obj
 0002:00010648       ??_C@_02LCPENACN@F1@       100c2648     PPGUI_Commands.obj
 0002:0001064c       ??_C@_02JJNJIDOO@F2@       100c264c     PPGUI_Commands.obj
 0002:00010650       ??_C@_02IAMCLCKP@F3@       100c2650     PPGUI_Commands.obj
 0002:00010654       ??_C@_02MPIDCEGI@F4@       100c2654     PPGUI_Commands.obj
 0002:00010658       ??_C@_02NGJIBFCJ@F5@       100c2658     PPGUI_Commands.obj
 0002:0001065c       ??_C@_02PNLFEGOK@F6@       100c265c     PPGUI_Commands.obj
 0002:00010660       ??_C@_02OEKOHHKL@F7@       100c2660     PPGUI_Commands.obj
 0002:00010664       ??_C@_02GDDGGLGE@F8@       100c2664     PPGUI_Commands.obj
 0002:00010668       ??_C@_02HKCNFKCF@F9@       100c2668     PPGUI_Commands.obj
 0002:0001066c       ??_C@_03JKCLJOFG@F10@      100c266c     PPGUI_Commands.obj
 0002:00010670       ??_C@_03IDDAKPBH@F11@      100c2670     PPGUI_Commands.obj
 0002:00010674       ??_C@_03KIBNPMNE@F12@      100c2674     PPGUI_Commands.obj
 0002:00010678       ??_C@_03LBAGMNJF@F13@      100c2678     PPGUI_Commands.obj
 0002:0001067c       ??_C@_03POEHFLFC@F14@      100c267c     PPGUI_Commands.obj
 0002:00010680       ??_C@_03OHFMGKBD@F15@      100c2680     PPGUI_Commands.obj
 0002:00010684       ??_C@_03MMHBDJNA@F16@      100c2684     PPGUI_Commands.obj
 0002:00010688       ??_C@_03NFGKAIJB@F17@      100c2688     PPGUI_Commands.obj
 0002:0001068c       ??_C@_03FCPCBEFO@F18@      100c268c     PPGUI_Commands.obj
 0002:00010690       ??_C@_03ELOJCFBP@F19@      100c2690     PPGUI_Commands.obj
 0002:00010694       ??_C@_03JIGNCAAP@F20@      100c2694     PPGUI_Commands.obj
 0002:00010698       ??_C@_03IBHGBBEO@F21@      100c2698     PPGUI_Commands.obj
 0002:0001069c       ??_C@_03KKFLECIN@F22@      100c269c     PPGUI_Commands.obj
 0002:000106a0       ??_C@_03LDEAHDMM@F23@      100c26a0     PPGUI_Commands.obj
 0002:000106a4       ??_C@_03PMABOFAL@F24@      100c26a4     PPGUI_Commands.obj
 0002:000106a8       ??_C@_01CKDDGHAB@D@        100c26a8     PPGUI_Commands.obj
 0002:000106ac       ??_C@_01DDCIFGEA@E@        100c26ac     PPGUI_Commands.obj
 0002:000106b0       ??_C@_01BIAFAFID@F@        100c26b0     PPGUI_Commands.obj
 0002:000106b4       ??_C@_01BBODEMC@G@         100c26b4     PPGUI_Commands.obj
 0002:000106b8       ??_C@_01IGIGCIAN@H@        100c26b8     PPGUI_Commands.obj
 0002:000106bc       ??_C@_01JPJNBJEM@I@        100c26bc     PPGUI_Commands.obj
 0002:000106c0       ??_C@_01LELAEKIP@J@        100c26c0     PPGUI_Commands.obj
 0002:000106c4       ??_C@_01KNKLHLMO@K@        100c26c4     PPGUI_Commands.obj
 0002:000106c8       ??_C@_01OCOKONAJ@L@        100c26c8     PPGUI_Commands.obj
 0002:000106cc       ??_C@_01PLPBNMEI@M@        100c26cc     PPGUI_Commands.obj
 0002:000106d0       ??_C@_01NANMIPIL@N@        100c26d0     PPGUI_Commands.obj
 0002:000106d4       ??_C@_01MJMHLOMK@O@        100c26d4     PPGUI_Commands.obj
 0002:000106d8       ??_C@_01EJNLAFE@P@         100c26d8     PPGUI_Commands.obj
 0002:000106dc       ??_C@_01BNIGIBBF@Q@        100c26dc     PPGUI_Commands.obj
 0002:000106e0       ??_C@_01DGKLNCNG@R@        100c26e0     PPGUI_Commands.obj
 0002:000106e4       ??_C@_01CPLAODJH@S@        100c26e4     PPGUI_Commands.obj
 0002:000106e8       ??_C@_01GAPBHFFA@T@        100c26e8     PPGUI_Commands.obj
 0002:000106ec       ??_C@_01HJOKEEBB@U@        100c26ec     PPGUI_Commands.obj
 0002:000106f0       ??_C@_01FCMHBHNC@V@        100c26f0     PPGUI_Commands.obj
 0002:000106f4       ??_C@_01ELNMCGJD@W@        100c26f4     PPGUI_Commands.obj
 0002:000106f8       ??_C@_01FAMBOPH@4@         100c26f8     PPGUI_Commands.obj
 0002:000106fc       ??_C@_01DHDKHMHF@6@        100c26fc     PPGUI_Commands.obj
 0002:00010700       ??_C@_01COCBENDE@7@        100c2700     PPGUI_Commands.obj
 0002:00010704       ??_C@_01KJLJFBPL@8@        100c2704     PPGUI_Commands.obj
 0002:00010708       ??_C@_01LAKCGALK@9@        100c2708     PPGUI_Commands.obj
 0002:00010710       ??_7PPGUI_Command@PPGUI@@6B@ 100c2710     PPGUI_Commands.obj
 0002:00010724       ??_7PPGUI_Window_Command@PPGUI@@6B@ 100c2724     PPGUI_Commands.obj
 0002:00010738       ??_7PPGUI_Checkbox_Command@PPGUI@@6B@ 100c2738     PPGUI_Commands.obj
 0002:0001074c       ??_7PPGUI_Button_Command@PPGUI@@6B@ 100c274c     PPGUI_Commands.obj
 0002:00010760       ??_7PPGUI_Groupbox_Command@PPGUI@@6B@ 100c2760     PPGUI_Commands.obj
 0002:00010774       ??_7PPGUI_Slider_Command@PPGUI@@6B@ 100c2774     PPGUI_Commands.obj
 0002:00010788       ??_7PPGUI_Separator_Command@PPGUI@@6B@ 100c2788     PPGUI_Commands.obj
 0002:0001079c       ??_7PPGUI_Keybind_Command@PPGUI@@6B@ 100c279c     PPGUI_Commands.obj
 0002:000107b0       ??_7PPGUI_Text_Input_Command@PPGUI@@6B@ 100c27b0     PPGUI_Commands.obj
 0002:000107c4       ??_7PPGUI_Combobox_Command@PPGUI@@6B@ 100c27c4     PPGUI_Commands.obj
 0002:000107d8       ??_7PPGUI_Multiselect_Combobox_Command@PPGUI@@6B@ 100c27d8     PPGUI_Commands.obj
 0002:000107ec       ??_7PPGUI_Color_Picker_Command@PPGUI@@6B@ 100c27ec     PPGUI_Commands.obj
 0002:00010800       ??_7PPGUI_Tab_Command@PPGUI@@6B@ 100c2800     PPGUI_Commands.obj
 0002:00010814       ??_7PPGUI_Tool_Tip_Command@PPGUI@@6B@ 100c2814     PPGUI_Commands.obj
 0002:00010828       ??_7?$basic_stringbuf@DU?$char_traits@D@std@@V?$allocator@D@2@@std@@6B@ 100c2828     PPGUI_Commands.obj
 0002:00010868       ??_7?$basic_stringstream@DU?$char_traits@D@std@@V?$allocator@D@2@@std@@6B@ 100c2868     PPGUI_Commands.obj
 0002:0001086c       ??_8?$basic_stringstream@DU?$char_traits@D@std@@V?$allocator@D@2@@std@@7B?$basic_istream@DU?$char_traits@D@std@@@1@@ 100c286c     PPGUI_Commands.obj
 0002:00010874       ??_8?$basic_stringstream@DU?$char_traits@D@std@@V?$allocator@D@2@@std@@7B?$basic_ostream@DU?$char_traits@D@std@@@1@@ 100c2874     PPGUI_Commands.obj
 0002:0001087c       ??_C@_03CCMDOIHN@?$CFs_@   100c287c     PPGUI_Commands.obj
 0002:00010880       ??_C@_03IKGEINEE@?$CFs?5@  100c2880     PPGUI_Commands.obj
 0002:00010884       ??_C@_04DJCABLIL@?$CFs?$CFc@ 100c2884     PPGUI_Commands.obj
 0002:0001088c       ??_C@_0BC@FOEPGIBJ@?$CFi?5items?5selected@ 100c288c     PPGUI_Commands.obj
 0002:000108a4       ??_7?$num_put@DV?$ostreambuf_iterator@DU?$char_traits@D@std@@@std@@@std@@6B@ 100c28a4     PPGUI_Commands.obj
 0002:000108d0       ??_C@_02BBAHNLBA@?$CFp@    100c28d0     PPGUI_Commands.obj
 0002:000108d4       ??_C@_02CLHGNPPK@Lu@       100c28d4     PPGUI_Commands.obj
 0002:000108d8       ??_C@_02HIKPPMOK@Ld@       100c28d8     PPGUI_Commands.obj
 0002:000108dc       ??_C@_02BDDLJJBK@lu@       100c28dc     PPGUI_Commands.obj
 0002:000108e0       ??_C@_02EAOCLKAK@ld@       100c28e0     PPGUI_Commands.obj
 0002:000108e8       ??_7?$numpunct@D@std@@6B@  100c28e8     PPGUI_Commands.obj
 0002:00010908       ??_C@_02MDKMJEGG@eE@       100c2908     PPGUI_Commands.obj
 0002:0001090c       ??_C@_02OOPEBDOJ@pP@       100c290c     PPGUI_Commands.obj
 0002:00010910       __real@3ff8000000000000    100c2910     PPGUI_Commands.obj
 0002:00010918       __real@4014000000000000    100c2918     PPGUI_Commands.obj
 0002:00010920       __real@4202a05f20000000    100c2920     PPGUI_Commands.obj
 0002:00010928       ??_C@_0BA@EAHDCAHA@xxxxxxxx?$DP?$DP?$DP?$DPxxx@ 100c2928     hooks.obj
 0002:00010938       ??_C@_0BA@PMEIOKGL@U?$IL?l?$ID?l?$AI?$IL?$BF?$AA?$AA?$AA?$AA?$APW?$MA@ 100c2938     hooks.obj
 0002:00010948       ??_C@_0BC@OOIPLIMD@MatSystemTopPanel@ 100c2948     hooks.obj
 0002:0001095c       ??_C@_07MPKOOCMG@HudZoom@  100c295c     hooks.obj
 0002:00010964       ??_C@_0DC@CKBOMCGI@Successfully?5hooked?5virtual?5fun@ 100c2964     hooks.obj
 0002:00010998       ??_C@_0DI@NHNEAKHH@Successfully?5hooked?5virtual?5fun@ 100c2998     hooks.obj
 0002:000109d0       ??_C@_0DF@HKHILHBI@Successfully?5hooked?5virtual?5fun@ 100c29d0     hooks.obj
 0002:00010a08       ??_C@_0DI@MIPPDNJI@Successfully?5hooked?5virtual?5fun@ 100c2a08     hooks.obj
 0002:00010a40       ??_C@_0DA@CINFFHEH@Successfully?5hooked?5virtual?5fun@ 100c2a40     hooks.obj
 0002:00010a70       ??_C@_0DA@INIKHIPB@Successfully?5hooked?5virtual?5fun@ 100c2a70     hooks.obj
 0002:00010aa0       ??_C@_0DE@PHBFJFOI@Successfully?5hooked?5virtual?5fun@ 100c2aa0     hooks.obj
 0002:00010ad4       ??_C@_0BC@ELHPMMNM@m_angEyeAngles?$FL0?$FN@ 100c2ad4     hooks.obj
 0002:00010ae8       ??_C@_0M@LGBCIIFJ@DT_CSPlayer@ 100c2ae8     hooks.obj
 0002:00010af4       ??_C@_0BC@EKLNKGOL@m_angEyeAngles?$FL1?$FN@ 100c2af4     hooks.obj
 0002:00010b08       ??_C@_0BC@HHBEMJFI@m_bDidSmokeEffect@ 100c2b08     hooks.obj
 0002:00010b1c       ??_C@_0BK@NNEDEOFF@DT_SmokeGrenadeProjectile@ 100c2b1c     hooks.obj
 0002:00010b38       ??_C@_07JCIBDCMH@VClient@  100c2b38     interfaces.obj
 0002:00010b40       ??_C@_0L@FHOOPKFG@VGUI_Panel@ 100c2b40     interfaces.obj
 0002:00010b4c       ??_C@_09CODMFJIB@vgui2?4dll@ 100c2b4c     interfaces.obj
 0002:00010b58       ??_C@_0N@DPFCIDHG@VGUI_Surface@ 100c2b58     interfaces.obj
 0002:00010b68       ??_C@_0P@OCAGFFCM@vguimatsurface@ 100c2b68     interfaces.obj
 0002:00010b78       ??_C@_0O@FDOOCLEF@VEngineClient@ 100c2b78     interfaces.obj
 0002:00010b88       ??_C@_0BC@IFHLHIPB@VClientEntityList@ 100c2b88     interfaces.obj
 0002:00010b9c       ??_C@_0O@HOKEFIHL@VDebugOverlay@ 100c2b9c     interfaces.obj
 0002:00010bac       ??_C@_0BC@JBNKAEJG@EngineTraceClient@ 100c2bac     interfaces.obj
 0002:00010bc0       ??_C@_0BB@JOMIIOGI@VModelInfoClient@ 100c2bc0     interfaces.obj
 0002:00010bd4       ??_C@_0M@EOFANOAE@VEngineCvar@ 100c2bd4     interfaces.obj
 0002:00010be0       ??_C@_0BD@KILDBMPM@InputSystemVersion@ 100c2be0     interfaces.obj
 0002:00010bf4       ??_C@_0BA@JBLHMOPO@inputsystem?4dll@ 100c2bf4     interfaces.obj
 0002:00010c04       ??_C@_0N@LHCGGBCI@VEngineModel@ 100c2c04     interfaces.obj
 0002:00010c14       ??_C@_0BC@JKKKFBEL@VEngineRenderView@ 100c2c14     interfaces.obj
 0002:00010c28       ??_C@_0BF@GFDELCOB@VPhysicsSurfaceProps@ 100c2c28     interfaces.obj
 0002:00010c40       ??_C@_0N@FNMJMILG@vphysics?4dll@ 100c2c40     interfaces.obj
 0002:00010c50       ??_C@_0BF@KOIHLKCK@GAMEEVENTSMANAGER002@ 100c2c50     interfaces.obj
 0002:00010c68       ??_C@_0BA@NIIHIFED@VMaterialSystem@ 100c2c68     interfaces.obj
 0002:00010c78       ??_C@_0BD@PEHNKAML@materialsystem?4dll@ 100c2c78     interfaces.obj
 0002:00010c8c       ??_C@_0BH@OPAFKODJ@A1?5?$DP?5?$DP?5?$DP?5?$DP?5A8?501?575?54B@ 100c2c8c     interfaces.obj
 0002:00010ca4       ??_C@_0N@LKNLNJEI@GameMovement@ 100c2ca4     interfaces.obj
 0002:00010cb4       ??_C@_0BC@NHPCLNIG@VClientPrediction@ 100c2cb4     interfaces.obj
 0002:00010cc8       ??_C@_0L@OODIEBAN@?$IL?$AN?$AA?$AA?$AA?$AA?$ILF?$AIh@ 100c2cc8     interfaces.obj
 0002:00010cd4       ??_C@_04MBOLING@?$FL?$HO?$FN?5@ 100c2cd4     interfaces.obj
 0002:00010cdc       ??_C@_0BA@OBHPCBFP@CreateInterface@ 100c2cdc     interfaces.obj
 0002:00010cec       ??_C@_05NNLMPMIC@?$CFs0?$CFi@ 100c2cec     interfaces.obj
 0002:00010cf4       ??_C@_06KJBDFNBH@?$CFs00?$CFi@ 100c2cf4     interfaces.obj
 0002:00010cfc       ??_C@_0BM@FLFKPNGA@Failed?5to?5find?5interface?5?9?5@ 100c2cfc     interfaces.obj
 0002:00010d18       ??_C@_0CA@PCHHEJAG@Successfully?5found?5interface?5?9?5@ 100c2d18     interfaces.obj
 0002:00010d38       ??_C@_0M@NCCCKNOE@?5not?5found?$CB@ 100c2d38     interfaces.obj
 0002:00010d44       ??_C@_0CB@IEBPMDJL@C?3?2Bameware?2Logs?2?$CFd?9?$CFm?9?$CFY?9?$CFH?4lo@ 100c2d44     logging.obj
 0002:00010d68       __real@400921fb54442d18    100c2d68     math.obj
 0002:00010d70       __real@43870000            100c2d70     math.obj
 0002:00010d74       ??_C@_0CE@LMJBGNDC@Successfully?5hooked?5netvar?5prox@ 100c2d74     NetvarManager.obj
 0002:00010d98       ??_C@_0BI@NDCAPNHN@Failed?5to?5get?5offset?5?9?5@ 100c2d98     NetvarManager.obj
 0002:00010db0       ??_C@_0BL@KNMNLGCB@Successfully?5found?5offset?5@ 100c2db0     NetvarManager.obj
 0002:00010dcc       ??_C@_0BD@JKKKGNKL@m_AttributeManager@ 100c2dcc     offsets.obj
 0002:00010de0       ??_C@_0O@OJENFICL@DT_EconEntity@ 100c2de0     offsets.obj
 0002:00010df0       ??_C@_06FKNLKGFE@m_Item@   100c2df0     offsets.obj
 0002:00010df8       ??_C@_0BG@NOKIDHNB@DT_AttributeContainer@ 100c2df8     offsets.obj
 0002:00010e10       ??_C@_0N@PCMAIJEE@m_nForceBone@ 100c2e10     offsets.obj
 0002:00010e20       ??_C@_0BB@POPPCPOC@DT_BaseAnimating@ 100c2e20     offsets.obj
 0002:00010e34       ??_C@_0BC@HCJNFOGH@m_flPoseParameter@ 100c2e34     offsets.obj
 0002:00010e48       ??_C@_0BG@IBOJPCLN@m_flNextPrimaryAttack@ 100c2e48     offsets.obj
 0002:00010e60       ??_C@_0BJ@NCBOFNBK@DT_LocalActiveWeaponData@ 100c2e60     offsets.obj
 0002:00010e7c       ??_C@_0BI@BCKKEFEG@m_flNextSecondaryAttack@ 100c2e7c     offsets.obj
 0002:00010e94       ??_C@_0P@IFMDLDIK@m_flNextAttack@ 100c2e94     offsets.obj
 0002:00010ea4       ??_C@_0BL@JFGKMECE@DT_BCCLocalPlayerExclusive@ 100c2ea4     offsets.obj
 0002:00010ec0       ??_C@_09FOIALPOM@m_iHealth@ 100c2ec0     offsets.obj
 0002:00010ecc       ??_C@_0O@KNDKHNCF@DT_BasePlayer@ 100c2ecc     offsets.obj
 0002:00010edc       ??_C@_08JPGJABNM@m_fFlags@ 100c2edc     offsets.obj
 0002:00010ee8       ??_C@_0BH@GJAPHBOD@m_flLowerBodyYawTarget@ 100c2ee8     offsets.obj
 0002:00010f00       ??_C@_0M@BAFECOKC@m_vecOrigin@ 100c2f00     offsets.obj
 0002:00010f0c       ??_C@_0O@NDBNDAKG@DT_BaseEntity@ 100c2f0c     offsets.obj
 0002:00010f1c       ??_C@_0L@OEKNBODE@m_iTeamNum@ 100c2f1c     offsets.obj
 0002:00010f28       ??_C@_0M@ILMGKKBH@m_Collision@ 100c2f28     offsets.obj
 0002:00010f34       ??_C@_0P@PAJMEMKA@m_angEyeAngles@ 100c2f34     offsets.obj
 0002:00010f44       ??_C@_0BD@IDNCLOOB@m_flSimulationTime@ 100c2f44     offsets.obj
 0002:00010f58       ??_C@_0BD@IHDNKCCD@m_bGunGameImmunity@ 100c2f58     offsets.obj
 0002:00010f6c       ??_C@_0BA@MIGFFMNM@m_hActiveWeapon@ 100c2f6c     offsets.obj
 0002:00010f7c       ??_C@_0BH@EFEKCINC@DT_BaseCombatCharacter@ 100c2f7c     offsets.obj
 0002:00010f94       ??_C@_0N@IIBEIILJ@m_ArmorValue@ 100c2f94     offsets.obj
 0002:00010fa4       ??_C@_0N@KELFAIEF@m_bHasHelmet@ 100c2fa4     offsets.obj
 0002:00010fb4       ??_C@_0M@PPOAODEA@m_bIsScoped@ 100c2fb4     offsets.obj
 0002:00010fc0       ??_C@_0BE@HFEMCGPD@m_nFallbackPaintKit@ 100c2fc0     offsets.obj
 0002:00010fd4       ??_C@_0BI@KDIKOMBE@DT_BaseAttributableItem@ 100c2fd4     offsets.obj
 0002:00010fec       ??_C@_0BB@IMPAFKGK@m_flFallbackWear@ 100c2fec     offsets.obj
 0002:00011000       ??_C@_0N@LDOBMGCE@m_hMyWeapons@ 100c3000     offsets.obj
 0002:00011010       ??_C@_0BO@DMPAACBH@DT_BCCNonLocalPlayerExclusive@ 100c3010     offsets.obj
 0002:00011030       ??_C@_0BA@LONLNMG@m_nFallbackSeed@ 100c3030     offsets.obj
 0002:00011040       ??_C@_0BE@GGJDINOK@m_nFallbackStatTrak@ 100c3040     offsets.obj
 0002:00011054       ??_C@_0BH@BLPCDECE@m_iItemDefinitionIndex@ 100c3054     offsets.obj
 0002:0001106c       ??_C@_0BF@KMPPDKNO@DT_ScriptCreatedItem@ 100c306c     offsets.obj
 0002:00011084       ??_C@_0O@KJEFBEF@m_iItemIDHigh@ 100c3084     offsets.obj
 0002:00011094       ??_C@_0P@GFHGANFM@m_szCustomName@ 100c3094     offsets.obj
 0002:000110a4       ??_C@_0BB@OIFBPKHJ@m_iEntityQuality@ 100c30a4     offsets.obj
 0002:000110b8       ??_C@_0N@JJMAHKON@m_iAccountID@ 100c30b8     offsets.obj
 0002:000110c8       ??_C@_0BK@KKEKOEGH@m_flPostponeFireReadyTime@ 100c30c8     offsets.obj
 0002:000110e4       ??_C@_0BA@GJLMCNFJ@DT_WeaponCSBase@ 100c30e4     offsets.obj
 0002:000110f4       ??_C@_0BA@GKDDFKAC@m_iObserverMode@ 100c30f4     offsets.obj
 0002:00011104       ??_C@_0BC@HLCHJLHC@m_flFlashDuration@ 100c3104     offsets.obj
 0002:00011118       ??_C@_0BC@CGLBMEHH@m_flThrowStrength@ 100c3118     offsets.obj
 0002:0001112c       ??_C@_0BB@BDMKEGJH@DT_BaseCSGrenade@ 100c312c     offsets.obj
 0002:00011140       ??_C@_0N@GJDDOKLN@m_bPinPulled@ 100c3140     offsets.obj
 0002:00011150       ??_C@_0L@FMFDKOOG@m_bSpotted@ 100c3150     offsets.obj
 0002:0001115c       ??_C@_0N@EOAKBOFO@m_fThrowTime@ 100c315c     offsets.obj
 0002:0001116c       ??_C@_08CHHOFABL@m_iClip1@ 100c316c     offsets.obj
 0002:00011178       ??_C@_0BE@OBECLDDP@DT_BaseCombatWeapon@ 100c3178     offsets.obj
 0002:0001118c       ??_C@_0BL@GKAMNBOO@m_iPrimaryReserveAmmoCount@ 100c318c     offsets.obj
 0002:000111a8       ??_C@_0O@BLDHPAC@m_nModelIndex@ 100c31a8     offsets.obj
 0002:000111b8       ??_C@_09FPFKFAGF@m_hWeapon@ 100c31b8     offsets.obj
 0002:000111c4       ??_C@_0BB@LBHIIDFM@DT_BaseViewModel@ 100c31c4     offsets.obj
 0002:000111d8       ??_C@_08LNJFHIKD@m_hOwner@ 100c31d8     offsets.obj
 0002:000111e4       ??_C@_0BE@JINCONAD@m_hWeaponWorldModel@ 100c31e4     offsets.obj
 0002:000111f8       ??_C@_0BC@NCIEGBIJ@m_iViewModelIndex@ 100c31f8     offsets.obj
 0002:0001120c       ??_C@_0BD@GFBBMJBP@m_iWorldModelIndex@ 100c320c     offsets.obj
 0002:00011220       ??_C@_0O@MFJONOMM@m_angRotation@ 100c3220     offsets.obj
 0002:00011230       __real@401921fb54442d18    100c3230     render.obj
 0002:00011238       ??_C@_04BFCCBDOP@Head@     100c3238     utils.obj
 0002:00011240       ??_C@_05HPKPHHNI@Chest@    100c3240     utils.obj
 0002:00011248       ??_C@_06EIPNOIEJ@Pelvis@   100c3248     utils.obj
 0002:00011250       ??_C@_08KEMBDKBN@Left?5Arm@ 100c3250     utils.obj
 0002:0001125c       ??_C@_09MGNPKLHM@Right?5Arm@ 100c325c     utils.obj
 0002:00011268       ??_C@_08LFCNLPLP@Left?5Leg@ 100c3268     utils.obj
 0002:00011274       ??_C@_09NHDDCONO@Right?5Leg@ 100c3274     utils.obj
 0002:00011280       ??_C@_0CB@PJCPBMCH@Counter?9Strike?3?5Global?5Offensiv@ 100c3280     variables.obj
 0002:000112a4       ??_C@_0CI@BGFANOEJ@C?3?2Bameware?2Resources?2Fonts?2aga@ 100c32a4     variables.obj
 0002:000112d0       ??_C@_0FM@FKHMNGPL@https?3?1?1drive?4google?4com?1uc?$DPaut@ 100c32d0     variables.obj
 0002:0001132c       ??_C@_0CL@POAMBCEB@C?3?2Bameware?2Resources?2Fonts?2ast@ 100c332c     variables.obj
 0002:00011358       ??_C@_0FF@CCKCJKPN@https?3?1?1drive?4google?4com?1u?10?1uc@ 100c3358     variables.obj
 0002:000113b0       ??_C@_07EHHHOIHI@Verdana@  100c33b0     variables.obj
 0002:000113b8       ??_C@_0P@JBPCNICL@Counter?9Strike@ 100c33b8     variables.obj
 0002:000113c8       ??_C@_07OKGCDDME@Againts@  100c33c8     variables.obj
 0002:000113d0       ?s_rbModRm@CDetourDis@@1QBEB 100c33d0     detours:disasm.obj
 0002:000114d0       ?s_rceCopyTable@CDetourDis@@1QBUCOPYENTRY@1@B 100c34d0     detours:disasm.obj
 0002:00011cd8       ?s_rceCopyTable0F@CDetourDis@@1QBUCOPYENTRY@1@B 100c3cd8     detours:disasm.obj
 0002:000124e4       ??_7bad_alloc@std@@6B@     100c44e4     libcpmt:xthrow.obj
 0002:000124ec       ??_C@_0P@GHFPNOJB@bad?5allocation@ 100c44ec     libcpmt:xthrow.obj
 0002:00012500       ??_7length_error@std@@6B@  100c4500     libcpmt:xthrow.obj
 0002:0001250c       ??_7out_of_range@std@@6B@  100c450c     libcpmt:xthrow.obj
 0002:00012518       ??_7_Locimp@locale@std@@6B@ 100c4518     libcpmt:locale0.obj
 0002:00012524       ??_C@_0O@BFJCFAAK@unknown?5error@ 100c4524     libcpmt:xonce.obj
 0002:00012a10       ??_C@_0BN@LKKBCCDB@address?5family?5not?5supported@ 100c4a10     libcpmt:syserror.obj
 0002:00012a30       ??_C@_0P@LDMLAFHI@address?5in?5use@ 100c4a30     libcpmt:syserror.obj
 0002:00012a40       ??_C@_0BG@DHPCNBJB@address?5not?5available@ 100c4a40     libcpmt:syserror.obj
 0002:00012a58       ??_C@_0BC@DFIBIBIL@already?5connected@ 100c4a58     libcpmt:syserror.obj
 0002:00012a6c       ??_C@_0BH@CAKOHOMI@argument?5list?5too?5long@ 100c4a6c     libcpmt:syserror.obj
 0002:00012a84       ??_C@_0BH@CGIMPKIM@argument?5out?5of?5domain@ 100c4a84     libcpmt:syserror.obj
 0002:00012a9c       ??_C@_0M@KGHGGJGL@bad?5address@ 100c4a9c     libcpmt:syserror.obj
 0002:00012aa8       ??_C@_0BE@MPJPGCEO@bad?5file?5descriptor@ 100c4aa8     libcpmt:syserror.obj
 0002:00012abc       ??_C@_0M@PMMIEFCP@bad?5message@ 100c4abc     libcpmt:syserror.obj
 0002:00012ac8       ??_C@_0M@KPHOFDBE@broken?5pipe@ 100c4ac8     libcpmt:syserror.obj
 0002:00012ad4       ??_C@_0BD@MGNDDEGM@connection?5aborted@ 100c4ad4     libcpmt:syserror.obj
 0002:00012ae8       ??_C@_0BP@KAIHPOGN@connection?5already?5in?5progress@ 100c4ae8     libcpmt:syserror.obj
 0002:00012b08       ??_C@_0BD@PJLIIJEL@connection?5refused@ 100c4b08     libcpmt:syserror.obj
 0002:00012b1c       ??_C@_0BB@IECNJNOI@connection?5reset@ 100c4b1c     libcpmt:syserror.obj
 0002:00012b30       ??_C@_0BC@PPHBOELF@cross?5device?5link@ 100c4b30     libcpmt:syserror.obj
 0002:00012b44       ??_C@_0BN@KDMIFEIP@destination?5address?5required@ 100c4b44     libcpmt:syserror.obj
 0002:00012b64       ??_C@_0BI@NGCEHDD@device?5or?5resource?5busy@ 100c4b64     libcpmt:syserror.obj
 0002:00012b7c       ??_C@_0BE@JIDOCPHM@directory?5not?5empty@ 100c4b7c     libcpmt:syserror.obj
 0002:00012b90       ??_C@_0BI@BNCLIGPB@executable?5format?5error@ 100c4b90     libcpmt:syserror.obj
 0002:00012ba8       ??_C@_0M@MIDIAGJP@file?5exists@ 100c4ba8     libcpmt:syserror.obj
 0002:00012bb4       ??_C@_0P@DNAJLBJK@file?5too?5large@ 100c4bb4     libcpmt:syserror.obj
 0002:00012bc4       ??_C@_0BC@EJHOMAAK@filename?5too?5long@ 100c4bc4     libcpmt:syserror.obj
 0002:00012bd8       ??_C@_0BH@KEFGLDAF@function?5not?5supported@ 100c4bd8     libcpmt:syserror.obj
 0002:00012bf0       ??_C@_0BB@DHFDFGDM@host?5unreachable@ 100c4bf0     libcpmt:syserror.obj
 0002:00012c04       ??_C@_0BD@JPHBMONG@identifier?5removed@ 100c4c04     libcpmt:syserror.obj
 0002:00012c18       ??_C@_0BG@CDNPAGJK@illegal?5byte?5sequence@ 100c4c18     libcpmt:syserror.obj
 0002:00012c30       ??_C@_0CD@BNPLBMNA@inappropriate?5io?5control?5operat@ 100c4c30     libcpmt:syserror.obj
 0002:00012c54       ??_C@_0M@EGEKIIMP@interrupted@ 100c4c54     libcpmt:syserror.obj
 0002:00012c60       ??_C@_0BB@FCMFBGOM@invalid?5argument@ 100c4c60     libcpmt:syserror.obj
 0002:00012c74       ??_C@_0N@OHAFKDEK@invalid?5seek@ 100c4c74     libcpmt:syserror.obj
 0002:00012c84       ??_C@_08GLNPIFBN@io?5error@ 100c4c84     libcpmt:syserror.obj
 0002:00012c90       ??_C@_0P@FLLDBIDK@is?5a?5directory@ 100c4c90     libcpmt:syserror.obj
 0002:00012ca0       ??_C@_0N@IFLPBIOP@message?5size@ 100c4ca0     libcpmt:syserror.obj
 0002:00012cb0       ??_C@_0N@KIIEAAIO@network?5down@ 100c4cb0     libcpmt:syserror.obj
 0002:00012cc0       ??_C@_0O@FNPDBHEE@network?5reset@ 100c4cc0     libcpmt:syserror.obj
 0002:00012cd0       ??_C@_0BE@IFNCKGE@network?5unreachable@ 100c4cd0     libcpmt:syserror.obj
 0002:00012ce4       ??_C@_0BA@PFFCAOFK@no?5buffer?5space@ 100c4ce4     libcpmt:syserror.obj
 0002:00012cf4       ??_C@_0BB@IEPBLJHK@no?5child?5process@ 100c4cf4     libcpmt:syserror.obj
 0002:00012d08       ??_C@_07PLECNNKG@no?5link@ 100c4d08     libcpmt:syserror.obj
 0002:00012d10       ??_C@_0BC@NJECKMKE@no?5lock?5available@ 100c4d10     libcpmt:syserror.obj
 0002:00012d24       ??_C@_0BF@PBGGPKKE@no?5message?5available@ 100c4d24     libcpmt:syserror.obj
 0002:00012d3c       ??_C@_0L@EDOLMPAK@no?5message@ 100c4d3c     libcpmt:syserror.obj
 0002:00012d48       ??_C@_0BD@EAMBFIDF@no?5protocol?5option@ 100c4d48     libcpmt:syserror.obj
 0002:00012d5c       ??_C@_0BD@IJDJKDEA@no?5space?5on?5device@ 100c4d5c     libcpmt:syserror.obj
 0002:00012d70       ??_C@_0BE@MKFDAFMP@no?5stream?5resources@ 100c4d70     libcpmt:syserror.obj
 0002:00012d84       ??_C@_0BK@IMCPHCBI@no?5such?5device?5or?5address@ 100c4d84     libcpmt:syserror.obj
 0002:00012da0       ??_C@_0P@FDINDDOK@no?5such?5device@ 100c4da0     libcpmt:syserror.obj
 0002:00012db0       ??_C@_0BK@NDOCBPGE@no?5such?5file?5or?5directory@ 100c4db0     libcpmt:syserror.obj
 0002:00012dcc       ??_C@_0BA@ENLPPKBN@no?5such?5process@ 100c4dcc     libcpmt:syserror.obj
 0002:00012ddc       ??_C@_0BA@DOCPFFJG@not?5a?5directory@ 100c4ddc     libcpmt:syserror.obj
 0002:00012dec       ??_C@_0N@POEIPGGF@not?5a?5socket@ 100c4dec     libcpmt:syserror.obj
 0002:00012dfc       ??_C@_0N@LGAPMMPI@not?5a?5stream@ 100c4dfc     libcpmt:syserror.obj
 0002:00012e0c       ??_C@_0O@GLMIBBEG@not?5connected@ 100c4e0c     libcpmt:syserror.obj
 0002:00012e1c       ??_C@_0BC@ENOOLCNF@not?5enough?5memory@ 100c4e1c     libcpmt:syserror.obj
 0002:00012e30       ??_C@_0O@NHEDABJP@not?5supported@ 100c4e30     libcpmt:syserror.obj
 0002:00012e40       ??_C@_0BD@MOLBPMEA@operation?5canceled@ 100c4e40     libcpmt:syserror.obj
 0002:00012e54       ??_C@_0BG@KDKHOPCO@operation?5in?5progress@ 100c4e54     libcpmt:syserror.obj
 0002:00012e6c       ??_C@_0BI@OHIEJAAB@operation?5not?5permitted@ 100c4e6c     libcpmt:syserror.obj
 0002:00012e84       ??_C@_0BI@LNEGIFLN@operation?5not?5supported@ 100c4e84     libcpmt:syserror.obj
 0002:00012e9c       ??_C@_0BG@OEMDKMEE@operation?5would?5block@ 100c4e9c     libcpmt:syserror.obj
 0002:00012eb4       ??_C@_0L@BLPOFLNJ@owner?5dead@ 100c4eb4     libcpmt:syserror.obj
 0002:00012ec0       ??_C@_0BC@CIJDGCDI@permission?5denied@ 100c4ec0     libcpmt:syserror.obj
 0002:00012ed4       ??_C@_0P@FNPOCJBE@protocol?5error@ 100c4ed4     libcpmt:syserror.obj
 0002:00012ee4       ??_C@_0BH@JPPPLHJB@protocol?5not?5supported@ 100c4ee4     libcpmt:syserror.obj
 0002:00012efc       ??_C@_0BG@EICBIHDP@read?5only?5file?5system@ 100c4efc     libcpmt:syserror.obj
 0002:00012f14       ??_C@_0BO@BJBOMOEJ@resource?5deadlock?5would?5occur@ 100c4f14     libcpmt:syserror.obj
 0002:00012f34       ??_C@_0BP@LKNGHENJ@resource?5unavailable?5try?5again@ 100c4f34     libcpmt:syserror.obj
 0002:00012f54       ??_C@_0BE@GOIPJJHG@result?5out?5of?5range@ 100c4f54     libcpmt:syserror.obj
 0002:00012f68       ??_C@_0BG@MPLKFPAE@state?5not?5recoverable@ 100c4f68     libcpmt:syserror.obj
 0002:00012f80       ??_C@_0P@DIIFGFCG@stream?5timeout@ 100c4f80     libcpmt:syserror.obj
 0002:00012f90       ??_C@_0P@IPFDMIFL@text?5file?5busy@ 100c4f90     libcpmt:syserror.obj
 0002:00012fa0       ??_C@_09KJPPMAOI@timed?5out@ 100c4fa0     libcpmt:syserror.obj
 0002:00012fac       ??_C@_0BO@HACHBEKI@too?5many?5files?5open?5in?5system@ 100c4fac     libcpmt:syserror.obj
 0002:00012fcc       ??_C@_0BE@GHAFMPAH@too?5many?5files?5open@ 100c4fcc     libcpmt:syserror.obj
 0002:00012fe0       ??_C@_0P@HCOMKFCC@too?5many?5links@ 100c4fe0     libcpmt:syserror.obj
 0002:00012ff0       ??_C@_0BO@EFGOJEF@too?5many?5symbolic?5link?5levels@ 100c4ff0     libcpmt:syserror.obj
 0002:00013010       ??_C@_0BA@KGKGOOJA@value?5too?5large@ 100c5010     libcpmt:syserror.obj
 0002:00013020       ??_C@_0BE@MIEJDDNH@wrong?5protocol?5type@ 100c5020     libcpmt:syserror.obj
 0002:00013038       ?_BADOFF@std@@3_JB         100c5038     libcpmt:ios.obj
 0002:0001307c       ??_C@_01KDCPPGHE@r@        100c507c     libcpmt:fiopen.obj
 0002:00013080       ??_C@_01MCMALHOG@a@        100c5080     libcpmt:fiopen.obj
 0002:00013084       ??_C@_02GMLFBBN@wb@        100c5084     libcpmt:fiopen.obj
 0002:00013088       ??_C@_02CBLLGHLK@r?$CL@    100c5088     libcpmt:fiopen.obj
 0002:0001308c       ??_C@_02DPNLHKJD@a?$CL@    100c508c     libcpmt:fiopen.obj
 0002:00013090       ??_C@_03HMFOOINA@r?$CLb@   100c5090     libcpmt:fiopen.obj
 0002:00013094       ??_C@_03ELIABIOC@w?$CLb@   100c5094     libcpmt:fiopen.obj
 0002:00013098       ??_C@_03DOPCBAKB@a?$CLb@   100c5098     libcpmt:fiopen.obj
 0002:0001309c       ?valid@?1???$_Xfiopen@D@std@@YAPAU_iobuf@@PBDHH@Z@4QBHB 100c509c     libcpmt:fiopen.obj
 0002:000130d8       ??_C@_0BM@EEBBMCOD@invalid?5random_device?5value@ 100c50d8     libcpmt:xrngdev.obj
 0002:000130f4       ??_C@_1BK@MGMFAEKH@?$AAk?$AAe?$AAr?$AAn?$AAe?$AAl?$AA3?$AA2?$AA?4?$AAd?$AAl?$AAl@ 100c50f4     libcpmt:winapisupp.obj
 0002:00013110       ??_C@_08KNHFBNJ@FlsAlloc@  100c5110     libcpmt:winapisupp.obj
 0002:0001311c       ??_C@_07PEJMOBNF@FlsFree@  100c511c     libcpmt:winapisupp.obj
 0002:00013124       ??_C@_0M@GDNOONDI@FlsGetValue@ 100c5124     libcpmt:winapisupp.obj
 0002:00013130       ??_C@_0M@JCPCPOEF@FlsSetValue@ 100c5130     libcpmt:winapisupp.obj
 0002:0001313c       ??_C@_0BM@HCFOFFN@InitializeCriticalSectionEx@ 100c513c     libcpmt:winapisupp.obj
 0002:00013158       ??_C@_0BE@GPLMMCMH@InitOnceExecuteOnce@ 100c5158     libcpmt:winapisupp.obj
 0002:0001316c       ??_C@_0P@DLHPPCNH@CreateEventExW@ 100c516c     libcpmt:winapisupp.obj
 0002:0001317c       ??_C@_0BB@MEFPJLHN@CreateSemaphoreW@ 100c517c     libcpmt:winapisupp.obj
 0002:00013190       ??_C@_0BD@KIEEOEEH@CreateSemaphoreExW@ 100c5190     libcpmt:winapisupp.obj
 0002:000131a4       ??_C@_0BG@OGFAJCKC@CreateThreadpoolTimer@ 100c51a4     libcpmt:winapisupp.obj
 0002:000131bc       ??_C@_0BD@LPLEMMDI@SetThreadpoolTimer@ 100c51bc     libcpmt:winapisupp.obj
 0002:000131d0       ??_C@_0CA@FMNJENH@WaitForThreadpoolTimerCallbacks@ 100c51d0     libcpmt:winapisupp.obj
 0002:000131f0       ??_C@_0BF@DCFCCNOC@CloseThreadpoolTimer@ 100c51f0     libcpmt:winapisupp.obj
 0002:00013208       ??_C@_0BF@FLABGKKM@CreateThreadpoolWait@ 100c5208     libcpmt:winapisupp.obj
 0002:00013220       ??_C@_0BC@MGCOHNA@SetThreadpoolWait@ 100c5220     libcpmt:winapisupp.obj
 0002:00013234       ??_C@_0BE@OCIOMIMP@CloseThreadpoolWait@ 100c5234     libcpmt:winapisupp.obj
 0002:00013248       ??_C@_0BJ@LKGHFHBO@FlushProcessWriteBuffers@ 100c5248     libcpmt:winapisupp.obj
 0002:00013264       ??_C@_0BP@KALKKPMO@FreeLibraryWhenCallbackReturns@ 100c5264     libcpmt:winapisupp.obj
 0002:00013284       ??_C@_0BK@DFNBACLA@GetCurrentProcessorNumber@ 100c5284     libcpmt:winapisupp.obj
 0002:000132a0       ??_C@_0BE@FKKLLFLM@CreateSymbolicLinkW@ 100c52a0     libcpmt:winapisupp.obj
 0002:000132b4       ??_C@_0BE@JOGNEJCI@GetCurrentPackageId@ 100c52b4     libcpmt:winapisupp.obj
 0002:000132c8       ??_C@_0P@CDHHOHKP@GetTickCount64@ 100c52c8     libcpmt:winapisupp.obj
 0002:000132d8       ??_C@_0BN@NEEHBBPO@GetFileInformationByHandleEx@ 100c52d8     libcpmt:winapisupp.obj
 0002:000132f8       ??_C@_0BL@KBBHGKCM@SetFileInformationByHandle@ 100c52f8     libcpmt:winapisupp.obj
 0002:00013314       ??_C@_0BP@FPNJPEJC@GetSystemTimePreciseAsFileTime@ 100c5314     libcpmt:winapisupp.obj
 0002:00013334       ??_C@_0BM@HLJJNPAH@InitializeConditionVariable@ 100c5334     libcpmt:winapisupp.obj
 0002:00013350       ??_C@_0BG@BFNILBLN@WakeConditionVariable@ 100c5350     libcpmt:winapisupp.obj
 0002:00013368       ??_C@_0BJ@PGPPEPCC@WakeAllConditionVariable@ 100c5368     libcpmt:winapisupp.obj
 0002:00013384       ??_C@_0BJ@JEBJOJFJ@SleepConditionVariableCS@ 100c5384     libcpmt:winapisupp.obj
 0002:000133a0       ??_C@_0BC@MMLHEBPB@InitializeSRWLock@ 100c53a0     libcpmt:winapisupp.obj
 0002:000133b4       ??_C@_0BI@OMNLIJDB@AcquireSRWLockExclusive@ 100c53b4     libcpmt:winapisupp.obj
 0002:000133cc       ??_C@_0BL@OGHFEMNA@TryAcquireSRWLockExclusive@ 100c53cc     libcpmt:winapisupp.obj
 0002:000133e8       ??_C@_0BI@HMIEPCNJ@ReleaseSRWLockExclusive@ 100c53e8     libcpmt:winapisupp.obj
 0002:00013400       ??_C@_0BK@LGACAGIC@SleepConditionVariableSRW@ 100c5400     libcpmt:winapisupp.obj
 0002:0001341c       ??_C@_0BF@GGPHFPJA@CreateThreadpoolWork@ 100c541c     libcpmt:winapisupp.obj
 0002:00013434       ??_C@_0BF@NHDAIMMO@SubmitThreadpoolWork@ 100c5434     libcpmt:winapisupp.obj
 0002:0001344c       ??_C@_0BE@NPHIPNPD@CloseThreadpoolWork@ 100c544c     libcpmt:winapisupp.obj
 0002:00013460       ??_C@_0BA@IHGNDAEB@CompareStringEx@ 100c5460     libcpmt:winapisupp.obj
 0002:00013470       ??_C@_0BA@ONOKGCMP@GetLocaleInfoEx@ 100c5470     libcpmt:winapisupp.obj
 0002:00013480       ??_C@_0O@KKBNKAPF@LCMapStringEx@ 100c5480     libcpmt:winapisupp.obj
 0002:000142d0       ??_C@_15EMKDOKLE@?$AAa?$AAr@ 100c62d0     libcpmt:winapinls.obj
 0002:000142d8       ??_C@_15KNPADPLH@?$AAb?$AAg@ 100c62d8     libcpmt:winapinls.obj
 0002:000142e0       ??_C@_15EDMHLDMO@?$AAc?$AAa@ 100c62e0     libcpmt:winapinls.obj
 0002:000142e8       ??_C@_1O@BPEAJADD@?$AAz?$AAh?$AA?9?$AAC?$AAH?$AAS@ 100c62e8     libcpmt:winapinls.obj
 0002:000142f8       ??_C@_15LJNHCMNK@?$AAc?$AAs@ 100c62f8     libcpmt:winapinls.obj
 0002:00014300       ??_C@_15FOMCIDHG@?$AAd?$AAa@ 100c6300     libcpmt:winapinls.obj
 0002:00014308       ??_C@_15NBKABECB@?$AAd?$AAe@ 100c6308     libcpmt:winapinls.obj
 0002:00014310       ??_C@_15GHPEIIAO@?$AAe?$AAl@ 100c6310     libcpmt:winapinls.obj
 0002:00014318       ??_C@_15MNPNEAIF@?$AAe?$AAn@ 100c6318     libcpmt:winapinls.obj
 0002:00014320       ??_C@_15GPIOMPMH@?$AAe?$AAs@ 100c6320     libcpmt:winapinls.obj
 0002:00014328       ??_C@_15NGLOAKJC@?$AAf?$AAi@ 100c6328     libcpmt:winapinls.obj
 0002:00014330       ??_C@_15FBKGNKAM@?$AAf?$AAr@ 100c6330     libcpmt:winapinls.obj
 0002:00014338       ??_C@_15KGGCNEFK@?$AAh?$AAe@ 100c6338     libcpmt:winapinls.obj
 0002:00014340       ??_C@_15PGHLIDMF@?$AAh?$AAu@ 100c6340     libcpmt:winapinls.obj
 0002:00014348       ??_C@_15BIEMAPLM@?$AAi?$AAs@ 100c6348     libcpmt:winapinls.obj
 0002:00014350       ??_C@_15IFJLDHAF@?$AAi?$AAt@ 100c6350     libcpmt:winapinls.obj
 0002:00014358       ??_C@_15GEMIOCAG@?$AAj?$AAa@ 100c6358     libcpmt:winapinls.obj
 0002:00014360       ??_C@_15EPELEGJA@?$AAk?$AAo@ 100c6360     libcpmt:winapinls.obj
 0002:00014368       ??_C@_15NDDHIMN@?$AAn?$AAl@ 100c6368     libcpmt:winapinls.obj
 0002:00014370       ??_C@_15BPIGNHCD@?$AAn?$AAo@ 100c6370     libcpmt:winapinls.obj
 0002:00014378       ??_C@_15DEOPBLCG@?$AAp?$AAl@ 100c6378     libcpmt:winapinls.obj
 0002:00014380       ??_C@_15KBECGEFG@?$AAp?$AAt@ 100c6380     libcpmt:winapinls.obj
 0002:00014388       ??_C@_15GLJCBFMD@?$AAr?$AAo@ 100c6388     libcpmt:winapinls.obj
 0002:00014390       ??_C@_15FEDGKCDI@?$AAr?$AAu@ 100c6390     libcpmt:winapinls.obj
 0002:00014398       ??_C@_15GLKMLLHM@?$AAh?$AAr@ 100c6398     libcpmt:winapinls.obj
 0002:000143a0       ??_C@_15CPKMFBDB@?$AAs?$AAk@ 100c63a0     libcpmt:winapinls.obj
 0002:000143a8       ??_C@_15BAAIOGMK@?$AAs?$AAq@ 100c63a8     libcpmt:winapinls.obj
 0002:000143b0       ??_C@_15INNPNOHD@?$AAs?$AAv@ 100c63b0     libcpmt:winapinls.obj
 0002:000143b8       ??_C@_15CABMMOGH@?$AAt?$AAh@ 100c63b8     libcpmt:winapinls.obj
 0002:000143c0       ??_C@_15BPLIHJJM@?$AAt?$AAr@ 100c63c0     libcpmt:winapinls.obj
 0002:000143c8       ??_C@_15NEOEKKDJ@?$AAu?$AAr@ 100c63c8     libcpmt:winapinls.obj
 0002:000143d0       ??_C@_15NFICGAJK@?$AAi?$AAd@ 100c63d0     libcpmt:winapinls.obj
 0002:000143d8       ??_C@_15PJPFLCCM@?$AAu?$AAk@ 100c63d8     libcpmt:winapinls.obj
 0002:000143e0       ??_C@_15HPJPHDM@?$AAb?$AAe@ 100c63e0     libcpmt:winapinls.obj
 0002:000143e8       ??_C@_15LCHLGJII@?$AAs?$AAl@ 100c63e8     libcpmt:winapinls.obj
 0002:000143f0       ??_C@_15PCFJPHHO@?$AAe?$AAt@ 100c63f0     libcpmt:winapinls.obj
 0002:000143f8       ??_C@_15HPFPGODN@?$AAl?$AAv@ 100c63f8     libcpmt:winapinls.obj
 0002:00014400       ??_C@_15NFFGKGLG@?$AAl?$AAt@ 100c6400     libcpmt:winapinls.obj
 0002:00014408       ??_C@_15BDAKCCHN@?$AAf?$AAa@ 100c6408     libcpmt:winapinls.obj
 0002:00014410       ??_C@_15NFGIAIAJ@?$AAv?$AAi@ 100c6410     libcpmt:winapinls.obj
 0002:00014418       ??_C@_15LMKNDMHN@?$AAh?$AAy@ 100c6418     libcpmt:winapinls.obj
 0002:00014420       ??_C@_15IJBHMCFL@?$AAa?$AAz@ 100c6420     libcpmt:winapinls.obj
 0002:00014428       ??_C@_15EKOFJABL@?$AAe?$AAu@ 100c6428     libcpmt:winapinls.obj
 0002:00014430       ??_C@_15BGHADCNK@?$AAm?$AAk@ 100c6430     libcpmt:winapinls.obj
 0002:00014438       ??_C@_15JDNICKHM@?$AAa?$AAf@ 100c6438     libcpmt:winapinls.obj
 0002:00014440       ??_C@_15KPJEDBKD@?$AAk?$AAa@ 100c6440     libcpmt:winapinls.obj
 0002:00014448       ??_C@_15PDNFFFEO@?$AAf?$AAo@ 100c6448     libcpmt:winapinls.obj
 0002:00014450       ??_C@_15OMLEGLOC@?$AAh?$AAi@ 100c6450     libcpmt:winapinls.obj
 0002:00014458       ??_C@_15IDNNENKK@?$AAm?$AAs@ 100c6458     libcpmt:winapinls.obj
 0002:00014460       ??_C@_15MACJNBMH@?$AAk?$AAk@ 100c6460     libcpmt:winapinls.obj
 0002:00014468       ??_C@_15DKDJEOND@?$AAk?$AAy@ 100c6468     libcpmt:winapinls.obj
 0002:00014470       ??_C@_15DFGDLJBG@?$AAs?$AAw@ 100c6470     libcpmt:winapinls.obj
 0002:00014478       ??_C@_15BBFAICNG@?$AAu?$AAz@ 100c6478     libcpmt:winapinls.obj
 0002:00014480       ??_C@_15DKNDCGEA@?$AAt?$AAt@ 100c6480     libcpmt:winapinls.obj
 0002:00014488       ??_C@_15MGIFMDPL@?$AAp?$AAa@ 100c6488     libcpmt:winapinls.obj
 0002:00014490       ??_C@_15HCNDBBA@?$AAg?$AAu@ 100c6490     libcpmt:winapinls.obj
 0002:00014498       ??_C@_15FNBEIBON@?$AAt?$AAa@ 100c6498     libcpmt:winapinls.obj
 0002:000144a0       ??_C@_15NCHGBGLK@?$AAt?$AAe@ 100c64a0     libcpmt:winapinls.obj
 0002:000144a8       ??_C@_15PHPHCBPF@?$AAk?$AAn@ 100c64a8     libcpmt:winapinls.obj
 0002:000144b0       ??_C@_15DLGBCKMP@?$AAm?$AAr@ 100c64b0     libcpmt:winapinls.obj
 0002:000144b8       ??_C@_15EABBLBFF@?$AAs?$AAa@ 100c64b8     libcpmt:winapinls.obj
 0002:000144c0       ??_C@_15CBKOMCOI@?$AAm?$AAn@ 100c64c0     libcpmt:winapinls.obj
 0002:000144c8       ??_C@_15CKDMCJAF@?$AAg?$AAl@ 100c64c8     libcpmt:winapinls.obj
 0002:000144d0       ??_C@_17CNJFBPG@?$AAk?$AAo?$AAk@ 100c64d0     libcpmt:winapinls.obj
 0002:000144d8       ??_C@_17FFBJICPL@?$AAs?$AAy?$AAr@ 100c64d8     libcpmt:winapinls.obj
 0002:000144e0       ??_C@_17KPNDCPAF@?$AAd?$AAi?$AAv@ 100c64e0     libcpmt:winapinls.obj
 0002:000144e8       ??_C@_11LOCGONAA@@         100c64e8     libcpmt:winapinls.obj
 0002:000144ec       ??_C@_1M@OKAHONE@?$AAa?$AAr?$AA?9?$AAS?$AAA@ 100c64ec     libcpmt:winapinls.obj
 0002:000144f8       ??_C@_1M@FFFIGIGK@?$AAb?$AAg?$AA?9?$AAB?$AAG@ 100c64f8     libcpmt:winapinls.obj
 0002:00014504       ??_C@_1M@BJNKEDC@?$AAc?$AAa?$AA?9?$AAE?$AAS@ 100c6504     libcpmt:winapinls.obj
 0002:00014510       ??_C@_1M@CLNBBOPM@?$AAz?$AAh?$AA?9?$AAT?$AAW@ 100c6510     libcpmt:winapinls.obj
 0002:0001451c       ??_C@_1M@IJJHFJHA@?$AAc?$AAs?$AA?9?$AAC?$AAZ@ 100c651c     libcpmt:winapinls.obj
 0002:00014528       ??_C@_1M@CLPEOBGI@?$AAd?$AAa?$AA?9?$AAD?$AAK@ 100c6528     libcpmt:winapinls.obj
 0002:00014534       ??_C@_1M@MCMADGCB@?$AAd?$AAe?$AA?9?$AAD?$AAE@ 100c6534     libcpmt:winapinls.obj
 0002:00014540       ??_C@_1M@OOCKEMAM@?$AAe?$AAl?$AA?9?$AAG?$AAR@ 100c6540     libcpmt:winapinls.obj
 0002:0001454c       ??_C@_1M@BMHNFIME@?$AAe?$AAn?$AA?9?$AAU?$AAS@ 100c654c     libcpmt:winapinls.obj
 0002:00014558       ??_C@_1M@DDNJFGID@?$AAf?$AAi?$AA?9?$AAF?$AAI@ 100c6558     libcpmt:winapinls.obj
 0002:00014564       ??_C@_1M@GLIPPMAC@?$AAf?$AAr?$AA?9?$AAF?$AAR@ 100c6564     libcpmt:winapinls.obj
 0002:00014570       ??_C@_1M@GFMCHPE@?$AAh?$AAe?$AA?9?$AAI?$AAL@ 100c6570     libcpmt:winapinls.obj
 0002:0001457c       ??_C@_1M@MHLPGNKM@?$AAh?$AAu?$AA?9?$AAH?$AAU@ 100c657c     libcpmt:winapinls.obj
 0002:00014588       ??_C@_1M@LPDDNNPN@?$AAi?$AAs?$AA?9?$AAI?$AAS@ 100c6588     libcpmt:winapinls.obj
 0002:00014594       ??_C@_1M@MADIPODN@?$AAi?$AAt?$AA?9?$AAI?$AAT@ 100c6594     libcpmt:winapinls.obj
 0002:000145a0       ??_C@_1M@HPNHIDJI@?$AAj?$AAa?$AA?9?$AAJ?$AAP@ 100c65a0     libcpmt:winapinls.obj
 0002:000145ac       ??_C@_1M@JLOOOEGK@?$AAk?$AAo?$AA?9?$AAK?$AAR@ 100c65ac     libcpmt:winapinls.obj
 0002:000145b8       ??_C@_1M@IHBJJGG@?$AAn?$AAl?$AA?9?$AAN?$AAL@ 100c65b8     libcpmt:winapinls.obj
 0002:000145c4       ??_C@_1M@EANAGDL@?$AAn?$AAb?$AA?9?$AAN?$AAO@ 100c65c4     libcpmt:winapinls.obj
 0002:000145d0       ??_C@_1M@NEIEMEGP@?$AAp?$AAl?$AA?9?$AAP?$AAL@ 100c65d0     libcpmt:winapinls.obj
 0002:000145dc       ??_C@_1M@BOCFIGEP@?$AAp?$AAt?$AA?9?$AAB?$AAR@ 100c65dc     libcpmt:winapinls.obj
 0002:000145e8       ??_C@_1M@IMPFOPBG@?$AAr?$AAo?$AA?9?$AAR?$AAO@ 100c65e8     libcpmt:winapinls.obj
 0002:000145f4       ??_C@_1M@IDNNEJMM@?$AAr?$AAu?$AA?9?$AAR?$AAU@ 100c65f4     libcpmt:winapinls.obj
 0002:00014600       ??_C@_1M@LILEEOGM@?$AAh?$AAr?$AA?9?$AAH?$AAR@ 100c6600     libcpmt:winapinls.obj
 0002:0001460c       ??_C@_1M@FKIFEHPB@?$AAs?$AAk?$AA?9?$AAS?$AAK@ 100c660c     libcpmt:winapinls.obj
 0002:00014618       ??_C@_1M@LJMAMNPJ@?$AAs?$AAq?$AA?9?$AAA?$AAL@ 100c6618     libcpmt:winapinls.obj
 0002:00014624       ??_C@_1M@GIAKDKJK@?$AAs?$AAv?$AA?9?$AAS?$AAE@ 100c6624     libcpmt:winapinls.obj
 0002:00014630       ??_C@_1M@MKJKIKCL@?$AAt?$AAh?$AA?9?$AAT?$AAH@ 100c6630     libcpmt:winapinls.obj
 0002:0001463c       ??_C@_1M@MFLCCMPB@?$AAt?$AAr?$AA?9?$AAT?$AAR@ 100c663c     libcpmt:winapinls.obj
 0002:00014648       ??_C@_1M@OIJHDKJN@?$AAu?$AAr?$AA?9?$AAP?$AAK@ 100c6648     libcpmt:winapinls.obj
 0002:00014654       ??_C@_1M@LHIPCIEK@?$AAi?$AAd?$AA?9?$AAI?$AAD@ 100c6654     libcpmt:winapinls.obj
 0002:00014660       ??_C@_1M@MFMOBGI@?$AAu?$AAk?$AA?9?$AAU?$AAA@ 100c6660     libcpmt:winapinls.obj
 0002:0001466c       ??_C@_1M@OBGLJIPL@?$AAb?$AAe?$AA?9?$AAB?$AAY@ 100c666c     libcpmt:winapinls.obj
 0002:00014678       ??_C@_1M@BCFAJEAD@?$AAs?$AAl?$AA?9?$AAS?$AAI@ 100c6678     libcpmt:winapinls.obj
 0002:00014684       ??_C@_1M@FKFFEDDN@?$AAe?$AAt?$AA?9?$AAE?$AAE@ 100c6684     libcpmt:winapinls.obj
 0002:00014690       ??_C@_1M@KGKKAACI@?$AAl?$AAv?$AA?9?$AAL?$AAV@ 100c6690     libcpmt:winapinls.obj
 0002:0001469c       ??_C@_1M@IFGBIJO@?$AAl?$AAt?$AA?9?$AAL?$AAT@ 100c669c     libcpmt:winapinls.obj
 0002:000146a8       ??_C@_1M@FGEAHEDM@?$AAf?$AAa?$AA?9?$AAI?$AAR@ 100c66a8     libcpmt:winapinls.obj
 0002:000146b4       ??_C@_1M@KBMAIBFN@?$AAv?$AAi?$AA?9?$AAV?$AAN@ 100c66b4     libcpmt:winapinls.obj
 0002:000146c0       ??_C@_1M@GPCBKDJK@?$AAh?$AAy?$AA?9?$AAA?$AAM@ 100c66c0     libcpmt:winapinls.obj
 0002:000146cc       ??_C@_1BG@BECMDDJB@?$AAa?$AAz?$AA?9?$AAA?$AAZ?$AA?9?$AAL?$AAa?$AAt?$AAn@ 100c66cc     libcpmt:winapinls.obj
 0002:000146e4       ??_C@_1M@MAOFCAEA@?$AAe?$AAu?$AA?9?$AAE?$AAS@ 100c66e4     libcpmt:winapinls.obj
 0002:000146f0       ??_C@_1M@IGHABKPI@?$AAm?$AAk?$AA?9?$AAM?$AAK@ 100c66f0     libcpmt:winapinls.obj
 0002:000146fc       ??_C@_1M@IAIGNEJG@?$AAt?$AAn?$AA?9?$AAZ?$AAA@ 100c66fc     libcpmt:winapinls.obj
 0002:00014708       ??_C@_1M@IIJCOJFA@?$AAx?$AAh?$AA?9?$AAZ?$AAA@ 100c6708     libcpmt:winapinls.obj
 0002:00014714       ??_C@_1M@LGPJHNJH@?$AAz?$AAu?$AA?9?$AAZ?$AAA@ 100c6714     libcpmt:winapinls.obj
 0002:00014720       ??_C@_1M@HOKAOIO@?$AAa?$AAf?$AA?9?$AAZ?$AAA@ 100c6720     libcpmt:winapinls.obj
 0002:0001472c       ??_C@_1M@DPCLHLIE@?$AAk?$AAa?$AA?9?$AAG?$AAE@ 100c672c     libcpmt:winapinls.obj
 0002:00014738       ??_C@_1M@BLKMHJBI@?$AAf?$AAo?$AA?9?$AAF?$AAO@ 100c6738     libcpmt:winapinls.obj
 0002:00014744       ??_C@_1M@LGGJAPPB@?$AAh?$AAi?$AA?9?$AAI?$AAN@ 100c6744     libcpmt:winapinls.obj
 0002:00014750       ??_C@_1M@FIKPIHFE@?$AAm?$AAt?$AA?9?$AAM?$AAT@ 100c6750     libcpmt:winapinls.obj
 0002:0001475c       ??_C@_1M@HEGGPBFA@?$AAs?$AAe?$AA?9?$AAN?$AAO@ 100c675c     libcpmt:winapinls.obj
 0002:00014768       ??_C@_1M@EIBJEEPA@?$AAm?$AAs?$AA?9?$AAM?$AAY@ 100c6768     libcpmt:winapinls.obj
 0002:00014774       ??_C@_1M@FHLBGMPP@?$AAk?$AAk?$AA?9?$AAK?$AAZ@ 100c6774     libcpmt:winapinls.obj
 0002:00014780       ??_C@_1M@NGJJLCGI@?$AAk?$AAy?$AA?9?$AAK?$AAG@ 100c6780     libcpmt:winapinls.obj
 0002:0001478c       ??_C@_1M@GIENNBFC@?$AAs?$AAw?$AA?9?$AAK?$AAE@ 100c678c     libcpmt:winapinls.obj
 0002:00014798       ??_C@_1BG@NDGMJIMJ@?$AAu?$AAz?$AA?9?$AAU?$AAZ?$AA?9?$AAL?$AAa?$AAt?$AAn@ 100c6798     libcpmt:winapinls.obj
 0002:000147b0       ??_C@_1M@IDCCIHBC@?$AAt?$AAt?$AA?9?$AAR?$AAU@ 100c67b0     libcpmt:winapinls.obj
 0002:000147bc       ??_C@_1M@LOICPMOJ@?$AAb?$AAn?$AA?9?$AAI?$AAN@ 100c67bc     libcpmt:winapinls.obj
 0002:000147c8       ??_C@_1M@KPKKNEAH@?$AAp?$AAa?$AA?9?$AAI?$AAN@ 100c67c8     libcpmt:winapinls.obj
 0002:000147d4       ??_C@_1M@PJGPPBOG@?$AAg?$AAu?$AA?9?$AAI?$AAN@ 100c67d4     libcpmt:winapinls.obj
 0002:000147e0       ??_C@_1M@KMKMOPHI@?$AAt?$AAa?$AA?9?$AAI?$AAN@ 100c67e0     libcpmt:winapinls.obj
 0002:000147ec       ??_C@_1M@KFEHEPAC@?$AAt?$AAe?$AA?9?$AAI?$AAN@ 100c67ec     libcpmt:winapinls.obj
 0002:000147f8       ??_C@_1M@CDCLMGHI@?$AAk?$AAn?$AA?9?$AAI?$AAN@ 100c67f8     libcpmt:winapinls.obj
 0002:00014804       ??_C@_1M@MIODLDKF@?$AAm?$AAl?$AA?9?$AAI?$AAN@ 100c6804     libcpmt:winapinls.obj
 0002:00014810       ??_C@_1M@PBIEACPO@?$AAm?$AAr?$AA?9?$AAI?$AAN@ 100c6810     libcpmt:winapinls.obj
 0002:0001481c       ??_C@_1M@NIDEAGPH@?$AAs?$AAa?$AA?9?$AAI?$AAN@ 100c681c     libcpmt:winapinls.obj
 0002:00014828       ??_C@_1M@FHIHCBIO@?$AAm?$AAn?$AA?9?$AAM?$AAN@ 100c6828     libcpmt:winapinls.obj
 0002:00014834       ??_C@_1M@JAIJPENP@?$AAc?$AAy?$AA?9?$AAG?$AAB@ 100c6834     libcpmt:winapinls.obj
 0002:00014840       ??_C@_1M@PHGFBEPN@?$AAg?$AAl?$AA?9?$AAE?$AAS@ 100c6840     libcpmt:winapinls.obj
 0002:0001484c       ??_C@_1O@KPIPDNCP@?$AAk?$AAo?$AAk?$AA?9?$AAI?$AAN@ 100c684c     libcpmt:winapinls.obj
 0002:0001485c       ??_C@_1O@KNHJLDJA@?$AAs?$AAy?$AAr?$AA?9?$AAS?$AAY@ 100c685c     libcpmt:winapinls.obj
 0002:0001486c       ??_C@_1O@MKEKBLAH@?$AAd?$AAi?$AAv?$AA?9?$AAM?$AAV@ 100c686c     libcpmt:winapinls.obj
 0002:0001487c       ??_C@_1O@OHDCKDDF@?$AAq?$AAu?$AAz?$AA?9?$AAB?$AAO@ 100c687c     libcpmt:winapinls.obj
 0002:0001488c       ??_C@_1M@LEPJNLFD@?$AAn?$AAs?$AA?9?$AAZ?$AAA@ 100c688c     libcpmt:winapinls.obj
 0002:00014898       ??_C@_1M@OMLEIIJB@?$AAm?$AAi?$AA?9?$AAN?$AAZ@ 100c6898     libcpmt:winapinls.obj
 0002:000148a4       ??_C@_1M@PMPEAILG@?$AAa?$AAr?$AA?9?$AAI?$AAQ@ 100c68a4     libcpmt:winapinls.obj
 0002:000148b0       ??_C@_1M@BIBDDEMK@?$AAz?$AAh?$AA?9?$AAC?$AAN@ 100c68b0     libcpmt:winapinls.obj
 0002:000148bc       ??_C@_1M@CNKPNOEE@?$AAd?$AAe?$AA?9?$AAC?$AAH@ 100c68bc     libcpmt:winapinls.obj
 0002:000148c8       ??_C@_1M@LKMGMLKO@?$AAe?$AAn?$AA?9?$AAG?$AAB@ 100c68c8     libcpmt:winapinls.obj
 0002:000148d4       ??_C@_1M@PGKJFFGL@?$AAe?$AAs?$AA?9?$AAM?$AAX@ 100c68d4     libcpmt:winapinls.obj
 0002:000148e0       ??_C@_1M@DNNANBDC@?$AAf?$AAr?$AA?9?$AAB?$AAE@ 100c68e0     libcpmt:winapinls.obj
 0002:000148ec       ??_C@_1M@HLGMDFHM@?$AAi?$AAt?$AA?9?$AAC?$AAH@ 100c68ec     libcpmt:winapinls.obj
 0002:000148f8       ??_C@_1M@CLLBGJH@?$AAn?$AAl?$AA?9?$AAB?$AAE@ 100c68f8     libcpmt:winapinls.obj
 0002:00014904       ??_C@_1M@BODBOGLF@?$AAn?$AAn?$AA?9?$AAN?$AAO@ 100c6904     libcpmt:winapinls.obj
 0002:00014910       ??_C@_1M@HFFAHKAD@?$AAp?$AAt?$AA?9?$AAP?$AAT@ 100c6910     libcpmt:winapinls.obj
 0002:0001491c       ??_C@_1BG@LNOAKHIE@?$AAs?$AAr?$AA?9?$AAS?$AAP?$AA?9?$AAL?$AAa?$AAt?$AAn@ 100c691c     libcpmt:winapinls.obj
 0002:00014934       ??_C@_1M@HBMHBGAK@?$AAs?$AAv?$AA?9?$AAF?$AAI@ 100c6934     libcpmt:winapinls.obj
 0002:00014940       ??_C@_1BG@DGCJGJBE@?$AAa?$AAz?$AA?9?$AAA?$AAZ?$AA?9?$AAC?$AAy?$AAr?$AAl@ 100c6940     libcpmt:winapinls.obj
 0002:00014958       ??_C@_1M@KEJDAAHB@?$AAs?$AAe?$AA?9?$AAS?$AAE@ 100c6958     libcpmt:winapinls.obj
 0002:00014964       ??_C@_1M@HEIBJJAD@?$AAm?$AAs?$AA?9?$AAB?$AAN@ 100c6964     libcpmt:winapinls.obj
 0002:00014970       ??_C@_1BG@PBGJMCEM@?$AAu?$AAz?$AA?9?$AAU?$AAZ?$AA?9?$AAC?$AAy?$AAr?$AAl@ 100c6970     libcpmt:winapinls.obj
 0002:00014988       ??_C@_1O@LAOBCMDF@?$AAq?$AAu?$AAz?$AA?9?$AAE?$AAC@ 100c6988     libcpmt:winapinls.obj
 0002:00014998       ??_C@_1M@POEEMAIO@?$AAa?$AAr?$AA?9?$AAE?$AAG@ 100c6998     libcpmt:winapinls.obj
 0002:000149a4       ??_C@_1M@EFAKDEDL@?$AAz?$AAh?$AA?9?$AAH?$AAK@ 100c69a4     libcpmt:winapinls.obj
 0002:000149b0       ??_C@_1M@HKKIJHGI@?$AAd?$AAe?$AA?9?$AAA?$AAT@ 100c69b0     libcpmt:winapinls.obj
 0002:000149bc       ??_C@_1M@KBFBEHJF@?$AAe?$AAn?$AA?9?$AAA?$AAU@ 100c69bc     libcpmt:winapinls.obj
 0002:000149c8       ??_C@_1M@MNPLFAAH@?$AAe?$AAs?$AA?9?$AAE?$AAS@ 100c69c8     libcpmt:winapinls.obj
 0002:000149d4       ??_C@_1M@HJOOJFMA@?$AAf?$AAr?$AA?9?$AAC?$AAA@ 100c69d4     libcpmt:winapinls.obj
 0002:000149e0       ??_C@_1BG@JPOFPNAB@?$AAs?$AAr?$AA?9?$AAS?$AAP?$AA?9?$AAC?$AAy?$AAr?$AAl@ 100c69e0     libcpmt:winapinls.obj
 0002:000149f8       ??_C@_1M@LNFOCMOB@?$AAs?$AAe?$AA?9?$AAF?$AAI@ 100c69f8     libcpmt:winapinls.obj
 0002:00014a04       ??_C@_1O@MGJBOAMB@?$AAq?$AAu?$AAz?$AA?9?$AAP?$AAE@ 100c6a04     libcpmt:winapinls.obj
 0002:00014a14       ??_C@_1M@GJINLBOK@?$AAa?$AAr?$AA?9?$AAL?$AAY@ 100c6a14     libcpmt:winapinls.obj
 0002:00014a20       ??_C@_1M@GGMNHJNL@?$AAz?$AAh?$AA?9?$AAS?$AAG@ 100c6a20     libcpmt:winapinls.obj
 0002:00014a2c       ??_C@_1M@HOIKODND@?$AAd?$AAe?$AA?9?$AAL?$AAU@ 100c6a2c     libcpmt:winapinls.obj
 0002:00014a38       ??_C@_1M@DDOCCGFG@?$AAe?$AAn?$AA?9?$AAC?$AAA@ 100c6a38     libcpmt:winapinls.obj
 0002:00014a44       ??_C@_1M@BNOEMJLF@?$AAe?$AAs?$AA?9?$AAG?$AAT@ 100c6a44     libcpmt:winapinls.obj
 0002:00014a50       ??_C@_1M@EOGNKEK@?$AAf?$AAr?$AA?9?$AAC?$AAH@ 100c6a50     libcpmt:winapinls.obj
 0002:00014a5c       ??_C@_1M@FLIDJFHL@?$AAh?$AAr?$AA?9?$AAB?$AAA@ 100c6a5c     libcpmt:winapinls.obj
 0002:00014a68       ??_C@_1O@FMCELNAJ@?$AAs?$AAm?$AAj?$AA?9?$AAN?$AAO@ 100c6a68     libcpmt:winapinls.obj
 0002:00014a78       ??_C@_1M@JHGLJMGJ@?$AAa?$AAr?$AA?9?$AAD?$AAZ@ 100c6a78     libcpmt:winapinls.obj
 0002:00014a84       ??_C@_1M@JKKFDCNP@?$AAz?$AAh?$AA?9?$AAM?$AAO@ 100c6a84     libcpmt:winapinls.obj
 0002:00014a90       ??_C@_1M@GEEFALPE@?$AAd?$AAe?$AA?9?$AAL?$AAI@ 100c6a90     libcpmt:winapinls.obj
 0002:00014a9c       ??_C@_1M@IGEOFBG@?$AAe?$AAn?$AA?9?$AAN?$AAZ@ 100c6a9c     libcpmt:winapinls.obj
 0002:00014aa8       ??_C@_1M@KDBONEHP@?$AAe?$AAs?$AA?9?$AAC?$AAR@ 100c6aa8     libcpmt:winapinls.obj
 0002:00014ab4       ??_C@_1M@FHMDOHNN@?$AAf?$AAr?$AA?9?$AAL?$AAU@ 100c6ab4     libcpmt:winapinls.obj
 0002:00014ac0       ??_C@_1BG@NFKKMAFG@?$AAb?$AAs?$AA?9?$AAB?$AAA?$AA?9?$AAL?$AAa?$AAt?$AAn@ 100c6ac0     libcpmt:winapinls.obj
 0002:00014ad8       ??_C@_1O@IMNBEMCI@?$AAs?$AAm?$AAj?$AA?9?$AAS?$AAE@ 100c6ad8     libcpmt:winapinls.obj
 0002:00014ae8       ??_C@_1M@DHHMBNDP@?$AAa?$AAr?$AA?9?$AAM?$AAA@ 100c6ae8     libcpmt:winapinls.obj
 0002:00014af4       ??_C@_1M@BNBLJCGH@?$AAe?$AAn?$AA?9?$AAI?$AAE@ 100c6af4     libcpmt:winapinls.obj
 0002:00014b00       ??_C@_1M@GEPAFMDL@?$AAe?$AAs?$AA?9?$AAP?$AAA@ 100c6b00     libcpmt:winapinls.obj
 0002:00014b0c       ??_C@_1M@OJONDMDL@?$AAf?$AAr?$AA?9?$AAM?$AAC@ 100c6b0c     libcpmt:winapinls.obj
 0002:00014b18       ??_C@_1BG@OBCNFJB@?$AAs?$AAr?$AA?9?$AAB?$AAA?$AA?9?$AAL?$AAa?$AAt?$AAn@ 100c6b18     libcpmt:winapinls.obj
 0002:00014b30       ??_C@_1O@KEMEEGPO@?$AAs?$AAm?$AAa?$AA?9?$AAN?$AAO@ 100c6b30     libcpmt:winapinls.obj
 0002:00014b40       ??_C@_1M@ELMGFODK@?$AAa?$AAr?$AA?9?$AAT?$AAN@ 100c6b40     libcpmt:winapinls.obj
 0002:00014b4c       ??_C@_1M@BHDLHFAF@?$AAe?$AAn?$AA?9?$AAZ?$AAA@ 100c6b4c     libcpmt:winapinls.obj
 0002:00014b58       ??_C@_1M@BMGIGLIF@?$AAe?$AAs?$AA?9?$AAD?$AAO@ 100c6b58     libcpmt:winapinls.obj
 0002:00014b64       ??_C@_1BG@CMBHIPBE@?$AAs?$AAr?$AA?9?$AAB?$AAA?$AA?9?$AAC?$AAy?$AAr?$AAl@ 100c6b64     libcpmt:winapinls.obj
 0002:00014b7c       ??_C@_1O@HEDBLHNP@?$AAs?$AAm?$AAa?$AA?9?$AAS?$AAE@ 100c6b7c     libcpmt:winapinls.obj
 0002:00014b8c       ??_C@_1M@DAGCADIM@?$AAa?$AAr?$AA?9?$AAO?$AAM@ 100c6b8c     libcpmt:winapinls.obj
 0002:00014b98       ??_C@_1M@FODLMICG@?$AAe?$AAn?$AA?9?$AAJ?$AAM@ 100c6b98     libcpmt:winapinls.obj
 0002:00014ba4       ??_C@_1M@DNMLCIHB@?$AAe?$AAs?$AA?9?$AAV?$AAE@ 100c6ba4     libcpmt:winapinls.obj
 0002:00014bb0       ??_C@_1O@EOKHMKJK@?$AAs?$AAm?$AAs?$AA?9?$AAF?$AAI@ 100c6bb0     libcpmt:winapinls.obj
 0002:00014bc0       ??_C@_1M@CAFJMKOF@?$AAa?$AAr?$AA?9?$AAY?$AAE@ 100c6bc0     libcpmt:winapinls.obj
 0002:00014bcc       ??_C@_1M@CBFHIJLI@?$AAe?$AAn?$AA?9?$AAC?$AAB@ 100c6bcc     libcpmt:winapinls.obj
 0002:00014bd8       ??_C@_1M@BGNFLDN@?$AAe?$AAs?$AA?9?$AAC?$AAO@ 100c6bd8     libcpmt:winapinls.obj
 0002:00014be4       ??_C@_1O@JMPHMAMC@?$AAs?$AAm?$AAn?$AA?9?$AAF?$AAI@ 100c6be4     libcpmt:winapinls.obj
 0002:00014bf4       ??_C@_1M@JLANABKE@?$AAa?$AAr?$AA?9?$AAS?$AAY@ 100c6bf4     libcpmt:winapinls.obj
 0002:00014c00       ??_C@_1M@HPKGCFGN@?$AAe?$AAn?$AA?9?$AAB?$AAZ@ 100c6c00     libcpmt:winapinls.obj
 0002:00014c0c       ??_C@_1M@OLJCMLGM@?$AAe?$AAs?$AA?9?$AAP?$AAE@ 100c6c0c     libcpmt:winapinls.obj
 0002:00014c18       ??_C@_1M@MKKGFKLE@?$AAa?$AAr?$AA?9?$AAJ?$AAO@ 100c6c18     libcpmt:winapinls.obj
 0002:00014c24       ??_C@_1M@EKPGLDNI@?$AAe?$AAn?$AA?9?$AAT?$AAT@ 100c6c24     libcpmt:winapinls.obj
 0002:00014c30       ??_C@_1M@OONGHFHE@?$AAe?$AAs?$AA?9?$AAA?$AAR@ 100c6c30     libcpmt:winapinls.obj
 0002:00014c3c       ??_C@_1M@OOJFGBHE@?$AAa?$AAr?$AA?9?$AAL?$AAB@ 100c6c3c     libcpmt:winapinls.obj
 0002:00014c48       ??_C@_1M@GCEJHNEG@?$AAe?$AAn?$AA?9?$AAZ?$AAW@ 100c6c48     libcpmt:winapinls.obj
 0002:00014c54       ??_C@_1M@JNOCAHJI@?$AAe?$AAs?$AA?9?$AAE?$AAC@ 100c6c54     libcpmt:winapinls.obj
 0002:00014c60       ??_C@_1M@JEFHPGGB@?$AAa?$AAr?$AA?9?$AAK?$AAW@ 100c6c60     libcpmt:winapinls.obj
 0002:00014c6c       ??_C@_1M@MLKIBJOJ@?$AAe?$AAn?$AA?9?$AAP?$AAH@ 100c6c6c     libcpmt:winapinls.obj
 0002:00014c78       ??_C@_1M@BDNIPEND@?$AAe?$AAs?$AA?9?$AAC?$AAL@ 100c6c78     libcpmt:winapinls.obj
 0002:00014c84       ??_C@_1M@MPNMEKBD@?$AAa?$AAr?$AA?9?$AAA?$AAE@ 100c6c84     libcpmt:winapinls.obj
 0002:00014c90       ??_C@_1M@KBJALCPI@?$AAe?$AAs?$AA?9?$AAU?$AAY@ 100c6c90     libcpmt:winapinls.obj
 0002:00014c9c       ??_C@_1M@LLCCOAGA@?$AAa?$AAr?$AA?9?$AAB?$AAH@ 100c6c9c     libcpmt:winapinls.obj
 0002:00014ca8       ??_C@_1M@PBFNCDEL@?$AAe?$AAs?$AA?9?$AAP?$AAY@ 100c6ca8     libcpmt:winapinls.obj
 0002:00014cb4       ??_C@_1M@EDGINPNP@?$AAa?$AAr?$AA?9?$AAQ?$AAA@ 100c6cb4     libcpmt:winapinls.obj
 0002:00014cc0       ??_C@_1M@MKDBIIJI@?$AAe?$AAs?$AA?9?$AAB?$AAO@ 100c6cc0     libcpmt:winapinls.obj
 0002:00014ccc       ??_C@_1M@CPKKEBLD@?$AAe?$AAs?$AA?9?$AAS?$AAV@ 100c6ccc     libcpmt:winapinls.obj
 0002:00014cd8       ??_C@_1M@NDBGMMJL@?$AAe?$AAs?$AA?9?$AAH?$AAN@ 100c6cd8     libcpmt:winapinls.obj
 0002:00014ce4       ??_C@_1M@JIJIBHDP@?$AAe?$AAs?$AA?9?$AAN?$AAI@ 100c6ce4     libcpmt:winapinls.obj
 0002:00014cf0       ??_C@_1M@CGFMKEEK@?$AAe?$AAs?$AA?9?$AAP?$AAR@ 100c6cf0     libcpmt:winapinls.obj
 0002:00014cfc       ??_C@_1O@ICJHKIIK@?$AAz?$AAh?$AA?9?$AAC?$AAH?$AAT@ 100c6cfc     libcpmt:winapinls.obj
 0002:00014d0c       ??_C@_15CLNEJCE@?$AAs?$AAr@ 100c6d0c     libcpmt:winapinls.obj
 0002:00014d14       ??_C@_1M@KAHEKEIG@?$AAa?$AAf?$AA?9?$AAz?$AAa@ 100c6d14     libcpmt:winapinls.obj
 0002:00014d20       ??_C@_1M@GIECOABL@?$AAa?$AAr?$AA?9?$AAa?$AAe@ 100c6d20     libcpmt:winapinls.obj
 0002:00014d2c       ??_C@_1M@BMLMEKGI@?$AAa?$AAr?$AA?9?$AAb?$AAh@ 100c6d2c     libcpmt:winapinls.obj
 0002:00014d38       ??_C@_1M@DAPFDGGB@?$AAa?$AAr?$AA?9?$AAd?$AAz@ 100c6d38     libcpmt:winapinls.obj
 0002:00014d44       ??_C@_1M@FJNKGKIG@?$AAa?$AAr?$AA?9?$AAe?$AAg@ 100c6d44     libcpmt:winapinls.obj
 0002:00014d50       ??_C@_1M@FLGKKCLO@?$AAa?$AAr?$AA?9?$AAi?$AAq@ 100c6d50     libcpmt:winapinls.obj
 0002:00014d5c       ??_C@_1M@GNDIPALM@?$AAa?$AAr?$AA?9?$AAj?$AAo@ 100c6d5c     libcpmt:winapinls.obj
 0002:00014d68       ??_C@_1M@DDMJFMGJ@?$AAa?$AAr?$AA?9?$AAk?$AAw@ 100c6d68     libcpmt:winapinls.obj
 0002:00014d74       ??_C@_1M@EJALMLHM@?$AAa?$AAr?$AA?9?$AAl?$AAb@ 100c6d74     libcpmt:winapinls.obj
 0002:00014d80       ??_C@_1M@MOBDBLOC@?$AAa?$AAr?$AA?9?$AAl?$AAy@ 100c6d80     libcpmt:winapinls.obj
 0002:00014d8c       ??_C@_1M@JAOCLHDH@?$AAa?$AAr?$AA?9?$AAm?$AAa@ 100c6d8c     libcpmt:winapinls.obj
 0002:00014d98       ??_C@_1M@JHPMKJIE@?$AAa?$AAr?$AA?9?$AAo?$AAm@ 100c6d98     libcpmt:winapinls.obj
 0002:00014da4       ??_C@_1M@OEPGHFNH@?$AAa?$AAr?$AA?9?$AAq?$AAa@ 100c6da4     libcpmt:winapinls.obj
 0002:00014db0       ??_C@_1M@KJDONENM@?$AAa?$AAr?$AA?9?$AAs?$AAa@ 100c6db0     libcpmt:winapinls.obj
 0002:00014dbc       ??_C@_1M@DMJDKLKM@?$AAa?$AAr?$AA?9?$AAs?$AAy@ 100c6dbc     libcpmt:winapinls.obj
 0002:00014dc8       ??_C@_1M@OMFIPEDC@?$AAa?$AAr?$AA?9?$AAt?$AAn@ 100c6dc8     libcpmt:winapinls.obj
 0002:00014dd4       ??_C@_1M@IHMHGAON@?$AAa?$AAr?$AA?9?$AAy?$AAe@ 100c6dd4     libcpmt:winapinls.obj
 0002:00014de0       ??_C@_1BG@KDCPGJGB@?$AAa?$AAz?$AA?9?$AAa?$AAz?$AA?9?$AAc?$AAy?$AAr?$AAl@ 100c6de0     libcpmt:winapinls.obj
 0002:00014df8       ??_C@_1BG@IBCKDDOE@?$AAa?$AAz?$AA?9?$AAa?$AAz?$AA?9?$AAl?$AAa?$AAt?$AAn@ 100c6df8     libcpmt:winapinls.obj
 0002:00014e10       ??_C@_1M@EGPFDCPD@?$AAb?$AAe?$AA?9?$AAb?$AAy@ 100c6e10     libcpmt:winapinls.obj
 0002:00014e1c       ??_C@_1M@PCMGMCGC@?$AAb?$AAg?$AA?9?$AAb?$AAg@ 100c6e1c     libcpmt:winapinls.obj
 0002:00014e28       ??_C@_1M@BJBMFGOB@?$AAb?$AAn?$AA?9?$AAi?$AAn@ 100c6e28     libcpmt:winapinls.obj
 0002:00014e34       ??_C@_1BG@EAKMMACD@?$AAb?$AAs?$AA?9?$AAb?$AAa?$AA?9?$AAl?$AAa?$AAt?$AAn@ 100c6e34     libcpmt:winapinls.obj
 0002:00014e4c       ??_C@_1M@KGADAODK@?$AAc?$AAa?$AA?9?$AAe?$AAs@ 100c6e4c     libcpmt:winapinls.obj
 0002:00014e58       ??_C@_1M@COAJPDHI@?$AAc?$AAs?$AA?9?$AAc?$AAz@ 100c6e58     libcpmt:winapinls.obj
 0002:00014e64       ??_C@_1M@DHBHFONH@?$AAc?$AAy?$AA?9?$AAg?$AAb@ 100c6e64     libcpmt:winapinls.obj
 0002:00014e70       ??_C@_1M@IMGKELGA@?$AAd?$AAa?$AA?9?$AAd?$AAk@ 100c6e70     libcpmt:winapinls.obj
 0002:00014e7c       ??_C@_1M@NNDGDNGA@?$AAd?$AAe?$AA?9?$AAa?$AAt@ 100c6e7c     libcpmt:winapinls.obj
 0002:00014e88       ??_C@_1M@IKDBHEEM@?$AAd?$AAe?$AA?9?$AAc?$AAh@ 100c6e88     libcpmt:winapinls.obj
 0002:00014e94       ??_C@_1M@GFFOJMCJ@?$AAd?$AAe?$AA?9?$AAd?$AAe@ 100c6e94     libcpmt:winapinls.obj
 0002:00014ea0       ??_C@_1M@MDNLKBPM@?$AAd?$AAe?$AA?9?$AAl?$AAi@ 100c6ea0     libcpmt:winapinls.obj
 0002:00014eac       ??_C@_1M@NJBEEJNL@?$AAd?$AAe?$AA?9?$AAl?$AAu@ 100c6eac     libcpmt:winapinls.obj
 0002:00014eb8       ??_C@_1O@GNNELBAP@?$AAd?$AAi?$AAv?$AA?9?$AAm?$AAv@ 100c6eb8     libcpmt:winapinls.obj
